ARM GAS  C:\Users\robom\AppData\Local\Temp\ccW2R9Ts.s 			page 1


   1              		.syntax unified
   2              		.cpu cortex-m3
   3              		.fpu softvfp
   4              		.eabi_attribute 20, 1
   5              		.eabi_attribute 21, 1
   6              		.eabi_attribute 23, 3
   7              		.eabi_attribute 24, 1
   8              		.eabi_attribute 25, 1
   9              		.eabi_attribute 26, 1
  10              		.eabi_attribute 30, 1
  11              		.eabi_attribute 34, 1
  12              		.eabi_attribute 18, 4
  13              		.thumb
  14              		.syntax unified
  15              		.file	"main.c"
  16              		.text
  17              	.Ltext0:
  18              		.cfi_sections	.debug_frame
  19              		.section	.text.ISR2_systick_handler,"ax",%progbits
  20              		.align	2
  21              		.global	ISR2_systick_handler
  22              		.thumb
  23              		.thumb_func
  24              		.type	ISR2_systick_handler, %function
  25              	ISR2_systick_handler:
  26              	.LFB112:
  27              		.file 1 "source\\asw\\main.c"
   1:source\asw/main.c **** /**
   2:source\asw/main.c **** * \file main
   3:source\asw/main.c **** * \author Peter Fromm
   4:source\asw/main.c **** * \date 5.12.2019
   5:source\asw/main.c **** *
   6:source\asw/main.c **** * \brief Demonstrator for critical regions
   7:source\asw/main.c **** *
   8:source\asw/main.c **** */
   9:source\asw/main.c **** 
  10:source\asw/main.c **** #include "project.h"
  11:source\asw/main.c **** #include "global.h"
  12:source\asw/main.c **** 
  13:source\asw/main.c **** #include "button.h"
  14:source\asw/main.c **** #include "tft.h"
  15:source\asw/main.c **** #include "seven.h"
  16:source\asw/main.c **** #include "led.h"
  17:source\asw/main.c **** #include "joystick.h"
  18:source\asw/main.c **** 
  19:source\asw/main.c **** #include "Ringbuffer.h"
  20:source\asw/main.c **** 
  21:source\asw/main.c **** 
  22:source\asw/main.c **** 
  23:source\asw/main.c **** ringbuffer_t rb; // global ringbuffer object
  24:source\asw/main.c **** 
  25:source\asw/main.c **** //ISR which will increment the systick counter every ms
  26:source\asw/main.c **** ISR(systick_handler)
  27:source\asw/main.c **** {
  28              		.loc 1 27 0
  29              		.cfi_startproc
  30              		@ args = 0, pretend = 0, frame = 0
ARM GAS  C:\Users\robom\AppData\Local\Temp\ccW2R9Ts.s 			page 2


  31              		@ frame_needed = 0, uses_anonymous_args = 0
  32 0000 08B5     		push	{r3, lr}
  33              		.cfi_def_cfa_offset 8
  34              		.cfi_offset 3, -8
  35              		.cfi_offset 14, -4
  28:source\asw/main.c ****     CounterTick(cnt_systick);
  36              		.loc 1 28 0
  37 0002 0020     		movs	r0, #0
  38 0004 FFF7FEFF 		bl	EE_oo_IncrementCounter
  39              	.LVL0:
  40 0008 08BD     		pop	{r3, pc}
  41              		.cfi_endproc
  42              	.LFE112:
  43              		.size	ISR2_systick_handler, .-ISR2_systick_handler
  44 000a 00BF     		.section	.text.systick_handler,"ax",%progbits
  45              		.align	2
  46              		.global	systick_handler
  47              		.thumb
  48              		.thumb_func
  49              		.type	systick_handler, %function
  50              	systick_handler:
  51              	.LFB111:
  26:source\asw/main.c **** {
  52              		.loc 1 26 0
  53              		.cfi_startproc
  54              		@ Stack Align: May be called with mis-aligned SP.
  55              		@ args = 0, pretend = 0, frame = 0
  56              		@ frame_needed = 0, uses_anonymous_args = 0
  57 0000 6846     		mov	r0, sp
  58              		.cfi_register 13, 0
  59 0002 20F00701 		bic	r1, r0, #7
  60 0006 8D46     		mov	sp, r1
  61 0008 19B5     		push	{r0, r3, r4, lr}
  62              		.cfi_def_cfa_offset 16
  63              		.cfi_offset 13, -16
  64              		.cfi_offset 3, -12
  65              		.cfi_offset 4, -8
  66              		.cfi_offset 14, -4
  67              	.LVL1:
  68              	.LBB80:
  69              	.LBB81:
  70              		.file 2 "Generated_Source\\PSoC5/ErikaOS_1_cortex_mx_ee_cpu.inc"
   1:Generated_Source\PSoC5/ErikaOS_1_cortex_mx_ee_cpu.inc **** /* ###*B*###
   2:Generated_Source\PSoC5/ErikaOS_1_cortex_mx_ee_cpu.inc ****  * ERIKA Enterprise - a tiny RTOS for small microcontrollers
   3:Generated_Source\PSoC5/ErikaOS_1_cortex_mx_ee_cpu.inc ****  *
   4:Generated_Source\PSoC5/ErikaOS_1_cortex_mx_ee_cpu.inc ****  * Copyright (C) 2002-2011  Evidence Srl
   5:Generated_Source\PSoC5/ErikaOS_1_cortex_mx_ee_cpu.inc ****  *
   6:Generated_Source\PSoC5/ErikaOS_1_cortex_mx_ee_cpu.inc ****  * This file is part of ERIKA Enterprise.
   7:Generated_Source\PSoC5/ErikaOS_1_cortex_mx_ee_cpu.inc ****  *
   8:Generated_Source\PSoC5/ErikaOS_1_cortex_mx_ee_cpu.inc ****  * ERIKA Enterprise is free software; you can redistribute it
   9:Generated_Source\PSoC5/ErikaOS_1_cortex_mx_ee_cpu.inc ****  * and/or modify it under the terms of the GNU General Public License
  10:Generated_Source\PSoC5/ErikaOS_1_cortex_mx_ee_cpu.inc ****  * version 2 as published by the Free Software Foundation, 
  11:Generated_Source\PSoC5/ErikaOS_1_cortex_mx_ee_cpu.inc ****  * (with a special exception described below).
  12:Generated_Source\PSoC5/ErikaOS_1_cortex_mx_ee_cpu.inc ****  *
  13:Generated_Source\PSoC5/ErikaOS_1_cortex_mx_ee_cpu.inc ****  * Linking this code statically or dynamically with other modules is
  14:Generated_Source\PSoC5/ErikaOS_1_cortex_mx_ee_cpu.inc ****  * making a combined work based on this code.  Thus, the terms and
  15:Generated_Source\PSoC5/ErikaOS_1_cortex_mx_ee_cpu.inc ****  * conditions of the GNU General Public License cover the whole
ARM GAS  C:\Users\robom\AppData\Local\Temp\ccW2R9Ts.s 			page 3


  16:Generated_Source\PSoC5/ErikaOS_1_cortex_mx_ee_cpu.inc ****  * combination.
  17:Generated_Source\PSoC5/ErikaOS_1_cortex_mx_ee_cpu.inc ****  *
  18:Generated_Source\PSoC5/ErikaOS_1_cortex_mx_ee_cpu.inc ****  * As a special exception, the copyright holders of this library give you
  19:Generated_Source\PSoC5/ErikaOS_1_cortex_mx_ee_cpu.inc ****  * permission to link this code with independent modules to produce an
  20:Generated_Source\PSoC5/ErikaOS_1_cortex_mx_ee_cpu.inc ****  * executable, regardless of the license terms of these independent
  21:Generated_Source\PSoC5/ErikaOS_1_cortex_mx_ee_cpu.inc ****  * modules, and to copy and distribute the resulting executable under
  22:Generated_Source\PSoC5/ErikaOS_1_cortex_mx_ee_cpu.inc ****  * terms of your choice, provided that you also meet, for each linked
  23:Generated_Source\PSoC5/ErikaOS_1_cortex_mx_ee_cpu.inc ****  * independent module, the terms and conditions of the license of that
  24:Generated_Source\PSoC5/ErikaOS_1_cortex_mx_ee_cpu.inc ****  * module.  An independent module is a module which is not derived from
  25:Generated_Source\PSoC5/ErikaOS_1_cortex_mx_ee_cpu.inc ****  * or based on this library.  If you modify this code, you may extend
  26:Generated_Source\PSoC5/ErikaOS_1_cortex_mx_ee_cpu.inc ****  * this exception to your version of the code, but you are not
  27:Generated_Source\PSoC5/ErikaOS_1_cortex_mx_ee_cpu.inc ****  * obligated to do so.  If you do not wish to do so, delete this
  28:Generated_Source\PSoC5/ErikaOS_1_cortex_mx_ee_cpu.inc ****  * exception statement from your version.
  29:Generated_Source\PSoC5/ErikaOS_1_cortex_mx_ee_cpu.inc ****  *
  30:Generated_Source\PSoC5/ErikaOS_1_cortex_mx_ee_cpu.inc ****  * ERIKA Enterprise is distributed in the hope that it will be
  31:Generated_Source\PSoC5/ErikaOS_1_cortex_mx_ee_cpu.inc ****  * useful, but WITHOUT ANY WARRANTY; without even the implied warranty
  32:Generated_Source\PSoC5/ErikaOS_1_cortex_mx_ee_cpu.inc ****  * of MERCHANTABILITY or FITNESS FOR A PARTICULAR PURPOSE.  See the
  33:Generated_Source\PSoC5/ErikaOS_1_cortex_mx_ee_cpu.inc ****  * GNU General Public License version 2 for more details.
  34:Generated_Source\PSoC5/ErikaOS_1_cortex_mx_ee_cpu.inc ****  *
  35:Generated_Source\PSoC5/ErikaOS_1_cortex_mx_ee_cpu.inc ****  * You should have received a copy of the GNU General Public License
  36:Generated_Source\PSoC5/ErikaOS_1_cortex_mx_ee_cpu.inc ****  * version 2 along with ERIKA Enterprise; if not, write to the
  37:Generated_Source\PSoC5/ErikaOS_1_cortex_mx_ee_cpu.inc ****  * Free Software Foundation, Inc., 51 Franklin Street, Fifth Floor,
  38:Generated_Source\PSoC5/ErikaOS_1_cortex_mx_ee_cpu.inc ****  * Boston, MA 02110-1301 USA.
  39:Generated_Source\PSoC5/ErikaOS_1_cortex_mx_ee_cpu.inc ****  * ###*E*### */
  40:Generated_Source\PSoC5/ErikaOS_1_cortex_mx_ee_cpu.inc **** 
  41:Generated_Source\PSoC5/ErikaOS_1_cortex_mx_ee_cpu.inc **** /** 
  42:Generated_Source\PSoC5/ErikaOS_1_cortex_mx_ee_cpu.inc **** 	@file ee_cpu.h
  43:Generated_Source\PSoC5/ErikaOS_1_cortex_mx_ee_cpu.inc **** 	@brief CPU-dependent part of HAL. Derived from pkg/cpu/pic30/inc/ee_cpu.h
  44:Generated_Source\PSoC5/ErikaOS_1_cortex_mx_ee_cpu.inc **** 	@author Gianluca Franchino
  45:Generated_Source\PSoC5/ErikaOS_1_cortex_mx_ee_cpu.inc **** 	@author Giuseppe Serano
  46:Generated_Source\PSoC5/ErikaOS_1_cortex_mx_ee_cpu.inc **** 	@date 2011
  47:Generated_Source\PSoC5/ErikaOS_1_cortex_mx_ee_cpu.inc **** */ 
  48:Generated_Source\PSoC5/ErikaOS_1_cortex_mx_ee_cpu.inc ****     
  49:Generated_Source\PSoC5/ErikaOS_1_cortex_mx_ee_cpu.inc **** /*
  50:Generated_Source\PSoC5/ErikaOS_1_cortex_mx_ee_cpu.inc ****  * PSoC Port and API Generation
  51:Generated_Source\PSoC5/ErikaOS_1_cortex_mx_ee_cpu.inc ****  * Carlos Fernando Meier Martinez
  52:Generated_Source\PSoC5/ErikaOS_1_cortex_mx_ee_cpu.inc ****  * Hochschule Darmstadt, Germany. 2017.
  53:Generated_Source\PSoC5/ErikaOS_1_cortex_mx_ee_cpu.inc ****  */
  54:Generated_Source\PSoC5/ErikaOS_1_cortex_mx_ee_cpu.inc **** 
  55:Generated_Source\PSoC5/ErikaOS_1_cortex_mx_ee_cpu.inc **** #ifndef __INCLUDE_CORTEX_MX_EE_CPU_H__
  56:Generated_Source\PSoC5/ErikaOS_1_cortex_mx_ee_cpu.inc **** #define __INCLUDE_CORTEX_MX_EE_CPU_H__
  57:Generated_Source\PSoC5/ErikaOS_1_cortex_mx_ee_cpu.inc **** 
  58:Generated_Source\PSoC5/ErikaOS_1_cortex_mx_ee_cpu.inc **** #include "ErikaOS_1_eecfg.inc"
  59:Generated_Source\PSoC5/ErikaOS_1_cortex_mx_ee_cpu.inc **** 
  60:Generated_Source\PSoC5/ErikaOS_1_cortex_mx_ee_cpu.inc **** 
  61:Generated_Source\PSoC5/ErikaOS_1_cortex_mx_ee_cpu.inc **** #ifdef __GNU__
  62:Generated_Source\PSoC5/ErikaOS_1_cortex_mx_ee_cpu.inc **** #include "ErikaOS_1_common_ee_compiler_gcc.inc"
  63:Generated_Source\PSoC5/ErikaOS_1_cortex_mx_ee_cpu.inc **** #endif
  64:Generated_Source\PSoC5/ErikaOS_1_cortex_mx_ee_cpu.inc **** 
  65:Generated_Source\PSoC5/ErikaOS_1_cortex_mx_ee_cpu.inc **** /* Initial stack offset (in words): Used in multistack. */
  66:Generated_Source\PSoC5/ErikaOS_1_cortex_mx_ee_cpu.inc **** #ifndef CORTEX_MX_INIT_TOS_OFFSET
  67:Generated_Source\PSoC5/ErikaOS_1_cortex_mx_ee_cpu.inc **** #define CORTEX_MX_INIT_TOS_OFFSET 10
  68:Generated_Source\PSoC5/ErikaOS_1_cortex_mx_ee_cpu.inc **** #endif
  69:Generated_Source\PSoC5/ErikaOS_1_cortex_mx_ee_cpu.inc **** 
  70:Generated_Source\PSoC5/ErikaOS_1_cortex_mx_ee_cpu.inc **** /*************************************************************************
  71:Generated_Source\PSoC5/ErikaOS_1_cortex_mx_ee_cpu.inc ****  HAL Types and structures
  72:Generated_Source\PSoC5/ErikaOS_1_cortex_mx_ee_cpu.inc ****  *************************************************************************/
ARM GAS  C:\Users\robom\AppData\Local\Temp\ccW2R9Ts.s 			page 4


  73:Generated_Source\PSoC5/ErikaOS_1_cortex_mx_ee_cpu.inc **** 
  74:Generated_Source\PSoC5/ErikaOS_1_cortex_mx_ee_cpu.inc **** /* Primitive data types */
  75:Generated_Source\PSoC5/ErikaOS_1_cortex_mx_ee_cpu.inc **** #include "ErikaOS_1_common_ee_types.inc"
  76:Generated_Source\PSoC5/ErikaOS_1_cortex_mx_ee_cpu.inc **** 
  77:Generated_Source\PSoC5/ErikaOS_1_cortex_mx_ee_cpu.inc **** typedef EE_UINT32 EE_UREG;
  78:Generated_Source\PSoC5/ErikaOS_1_cortex_mx_ee_cpu.inc **** typedef EE_INT32  EE_SREG;
  79:Generated_Source\PSoC5/ErikaOS_1_cortex_mx_ee_cpu.inc **** typedef EE_UINT32 EE_FREG;
  80:Generated_Source\PSoC5/ErikaOS_1_cortex_mx_ee_cpu.inc **** #define EE_UREG_SIZE 4
  81:Generated_Source\PSoC5/ErikaOS_1_cortex_mx_ee_cpu.inc **** 
  82:Generated_Source\PSoC5/ErikaOS_1_cortex_mx_ee_cpu.inc **** /* boolean type */
  83:Generated_Source\PSoC5/ErikaOS_1_cortex_mx_ee_cpu.inc **** #ifndef EE_TYPEBOOL
  84:Generated_Source\PSoC5/ErikaOS_1_cortex_mx_ee_cpu.inc **** typedef EE_UREG EE_TYPEBOOL;
  85:Generated_Source\PSoC5/ErikaOS_1_cortex_mx_ee_cpu.inc **** #endif
  86:Generated_Source\PSoC5/ErikaOS_1_cortex_mx_ee_cpu.inc **** 
  87:Generated_Source\PSoC5/ErikaOS_1_cortex_mx_ee_cpu.inc **** /* boolean true define */
  88:Generated_Source\PSoC5/ErikaOS_1_cortex_mx_ee_cpu.inc **** #ifndef EE_TRUE
  89:Generated_Source\PSoC5/ErikaOS_1_cortex_mx_ee_cpu.inc **** #define EE_TRUE ((EE_TYPEBOOL)1U)
  90:Generated_Source\PSoC5/ErikaOS_1_cortex_mx_ee_cpu.inc **** #endif
  91:Generated_Source\PSoC5/ErikaOS_1_cortex_mx_ee_cpu.inc **** 
  92:Generated_Source\PSoC5/ErikaOS_1_cortex_mx_ee_cpu.inc **** /* boolean false define */
  93:Generated_Source\PSoC5/ErikaOS_1_cortex_mx_ee_cpu.inc **** #ifndef EE_FALSE
  94:Generated_Source\PSoC5/ErikaOS_1_cortex_mx_ee_cpu.inc **** #define EE_FALSE ((EE_TYPEBOOL)0U)
  95:Generated_Source\PSoC5/ErikaOS_1_cortex_mx_ee_cpu.inc **** #endif
  96:Generated_Source\PSoC5/ErikaOS_1_cortex_mx_ee_cpu.inc **** 
  97:Generated_Source\PSoC5/ErikaOS_1_cortex_mx_ee_cpu.inc **** #define	EE_HWREG_PTR		volatile EE_UREG *
  98:Generated_Source\PSoC5/ErikaOS_1_cortex_mx_ee_cpu.inc **** #define	EE_HWREG_ADDR(x)	((EE_HWREG_PTR)(x))
  99:Generated_Source\PSoC5/ErikaOS_1_cortex_mx_ee_cpu.inc **** #define	EE_HWREG(x)		(*EE_HWREG_ADDR(x))
 100:Generated_Source\PSoC5/ErikaOS_1_cortex_mx_ee_cpu.inc **** 
 101:Generated_Source\PSoC5/ErikaOS_1_cortex_mx_ee_cpu.inc **** #ifdef __GNU__
 102:Generated_Source\PSoC5/ErikaOS_1_cortex_mx_ee_cpu.inc **** 
 103:Generated_Source\PSoC5/ErikaOS_1_cortex_mx_ee_cpu.inc **** /* Get current SP */
 104:Generated_Source\PSoC5/ErikaOS_1_cortex_mx_ee_cpu.inc **** __INLINE__ EE_UINT32  __current_sp(void)
 105:Generated_Source\PSoC5/ErikaOS_1_cortex_mx_ee_cpu.inc **** {
 106:Generated_Source\PSoC5/ErikaOS_1_cortex_mx_ee_cpu.inc **** EE_UINT32 temp;
 107:Generated_Source\PSoC5/ErikaOS_1_cortex_mx_ee_cpu.inc **** __ASM ("mov %0, sp" : "=r" (temp) : );
 108:Generated_Source\PSoC5/ErikaOS_1_cortex_mx_ee_cpu.inc **** return temp;
 109:Generated_Source\PSoC5/ErikaOS_1_cortex_mx_ee_cpu.inc **** }
 110:Generated_Source\PSoC5/ErikaOS_1_cortex_mx_ee_cpu.inc **** 
 111:Generated_Source\PSoC5/ErikaOS_1_cortex_mx_ee_cpu.inc **** /* Set a breakpoint */
 112:Generated_Source\PSoC5/ErikaOS_1_cortex_mx_ee_cpu.inc **** #define __breakpoint(value)	__ASM ("bkpt "#value)
 113:Generated_Source\PSoC5/ErikaOS_1_cortex_mx_ee_cpu.inc **** 
 114:Generated_Source\PSoC5/ErikaOS_1_cortex_mx_ee_cpu.inc **** #endif
 115:Generated_Source\PSoC5/ErikaOS_1_cortex_mx_ee_cpu.inc **** 
 116:Generated_Source\PSoC5/ErikaOS_1_cortex_mx_ee_cpu.inc **** /* ISR Priority representation type */
 117:Generated_Source\PSoC5/ErikaOS_1_cortex_mx_ee_cpu.inc **** typedef EE_UREG EE_TYPEISR2PRIO;
 118:Generated_Source\PSoC5/ErikaOS_1_cortex_mx_ee_cpu.inc **** 
 119:Generated_Source\PSoC5/ErikaOS_1_cortex_mx_ee_cpu.inc **** /* Thread IDs */
 120:Generated_Source\PSoC5/ErikaOS_1_cortex_mx_ee_cpu.inc **** typedef EE_INT32 EE_TID;
 121:Generated_Source\PSoC5/ErikaOS_1_cortex_mx_ee_cpu.inc **** 
 122:Generated_Source\PSoC5/ErikaOS_1_cortex_mx_ee_cpu.inc **** /* Thread IDs - unsigned version*/
 123:Generated_Source\PSoC5/ErikaOS_1_cortex_mx_ee_cpu.inc **** typedef EE_UINT32 EE_UTID;
 124:Generated_Source\PSoC5/ErikaOS_1_cortex_mx_ee_cpu.inc **** 
 125:Generated_Source\PSoC5/ErikaOS_1_cortex_mx_ee_cpu.inc **** /* Used by the common layer to decide whether to start a new thread */
 126:Generated_Source\PSoC5/ErikaOS_1_cortex_mx_ee_cpu.inc **** #define TID_IS_STACKED_MARK 0x80000000
 127:Generated_Source\PSoC5/ErikaOS_1_cortex_mx_ee_cpu.inc **** 
 128:Generated_Source\PSoC5/ErikaOS_1_cortex_mx_ee_cpu.inc **** /* EE_TYPEIRQ is currently unused */
 129:Generated_Source\PSoC5/ErikaOS_1_cortex_mx_ee_cpu.inc **** 
ARM GAS  C:\Users\robom\AppData\Local\Temp\ccW2R9Ts.s 			page 5


 130:Generated_Source\PSoC5/ErikaOS_1_cortex_mx_ee_cpu.inc **** /* XXX: define EE_TIME? */
 131:Generated_Source\PSoC5/ErikaOS_1_cortex_mx_ee_cpu.inc **** 
 132:Generated_Source\PSoC5/ErikaOS_1_cortex_mx_ee_cpu.inc **** /* Use the "standard" implementation */
 133:Generated_Source\PSoC5/ErikaOS_1_cortex_mx_ee_cpu.inc **** #include "ErikaOS_1_common_ee_hal_structs.inc"
 134:Generated_Source\PSoC5/ErikaOS_1_cortex_mx_ee_cpu.inc **** 
 135:Generated_Source\PSoC5/ErikaOS_1_cortex_mx_ee_cpu.inc **** /******************************************************************************
 136:Generated_Source\PSoC5/ErikaOS_1_cortex_mx_ee_cpu.inc ****  Application dependent data types
 137:Generated_Source\PSoC5/ErikaOS_1_cortex_mx_ee_cpu.inc ****  ******************************************************************************/
 138:Generated_Source\PSoC5/ErikaOS_1_cortex_mx_ee_cpu.inc **** 
 139:Generated_Source\PSoC5/ErikaOS_1_cortex_mx_ee_cpu.inc **** #ifdef	__HAS_TYPES_H__
 140:Generated_Source\PSoC5/ErikaOS_1_cortex_mx_ee_cpu.inc **** #include	"types.h"
 141:Generated_Source\PSoC5/ErikaOS_1_cortex_mx_ee_cpu.inc **** #endif
 142:Generated_Source\PSoC5/ErikaOS_1_cortex_mx_ee_cpu.inc **** 
 143:Generated_Source\PSoC5/ErikaOS_1_cortex_mx_ee_cpu.inc **** /******************************************************************************
 144:Generated_Source\PSoC5/ErikaOS_1_cortex_mx_ee_cpu.inc ****  CPU Peripherals
 145:Generated_Source\PSoC5/ErikaOS_1_cortex_mx_ee_cpu.inc ****  ******************************************************************************/
 146:Generated_Source\PSoC5/ErikaOS_1_cortex_mx_ee_cpu.inc **** 
 147:Generated_Source\PSoC5/ErikaOS_1_cortex_mx_ee_cpu.inc **** #ifdef __CORTEX_MX__
 148:Generated_Source\PSoC5/ErikaOS_1_cortex_mx_ee_cpu.inc **** #include "ErikaOS_1_cortex_mx_ee_nvic.inc"
 149:Generated_Source\PSoC5/ErikaOS_1_cortex_mx_ee_cpu.inc **** #include "ErikaOS_1_cortex_mx_ee_systick.inc"
 150:Generated_Source\PSoC5/ErikaOS_1_cortex_mx_ee_cpu.inc **** #endif
 151:Generated_Source\PSoC5/ErikaOS_1_cortex_mx_ee_cpu.inc **** 
 152:Generated_Source\PSoC5/ErikaOS_1_cortex_mx_ee_cpu.inc **** /******************************************************************************
 153:Generated_Source\PSoC5/ErikaOS_1_cortex_mx_ee_cpu.inc ****  HAL Variables
 154:Generated_Source\PSoC5/ErikaOS_1_cortex_mx_ee_cpu.inc ****  ******************************************************************************/
 155:Generated_Source\PSoC5/ErikaOS_1_cortex_mx_ee_cpu.inc **** 
 156:Generated_Source\PSoC5/ErikaOS_1_cortex_mx_ee_cpu.inc **** #ifdef __MULTI__
 157:Generated_Source\PSoC5/ErikaOS_1_cortex_mx_ee_cpu.inc **** 
 158:Generated_Source\PSoC5/ErikaOS_1_cortex_mx_ee_cpu.inc **** /* Top-of-stack of each private stack */
 159:Generated_Source\PSoC5/ErikaOS_1_cortex_mx_ee_cpu.inc **** extern struct EE_TOS EE_cortex_mx_system_tos[];
 160:Generated_Source\PSoC5/ErikaOS_1_cortex_mx_ee_cpu.inc **** //#define	EE_std_system_tos EE_cortex_mx_system_tos
 161:Generated_Source\PSoC5/ErikaOS_1_cortex_mx_ee_cpu.inc **** 
 162:Generated_Source\PSoC5/ErikaOS_1_cortex_mx_ee_cpu.inc **** /* Index of the current stack */
 163:Generated_Source\PSoC5/ErikaOS_1_cortex_mx_ee_cpu.inc **** extern EE_UREG EE_cortex_mx_active_tos;
 164:Generated_Source\PSoC5/ErikaOS_1_cortex_mx_ee_cpu.inc **** #define	EE_hal_active_tos EE_cortex_mx_active_tos
 165:Generated_Source\PSoC5/ErikaOS_1_cortex_mx_ee_cpu.inc **** 
 166:Generated_Source\PSoC5/ErikaOS_1_cortex_mx_ee_cpu.inc **** /*extern	EE_UREG EE_pic30_thread_tos[];
 167:Generated_Source\PSoC5/ErikaOS_1_cortex_mx_ee_cpu.inc **** #define	EE_std_thread_tos EE_pic30_thread_tos */
 168:Generated_Source\PSoC5/ErikaOS_1_cortex_mx_ee_cpu.inc **** #endif /* __MULTI__ */
 169:Generated_Source\PSoC5/ErikaOS_1_cortex_mx_ee_cpu.inc **** 
 170:Generated_Source\PSoC5/ErikaOS_1_cortex_mx_ee_cpu.inc **** /*********************************************************************
 171:Generated_Source\PSoC5/ErikaOS_1_cortex_mx_ee_cpu.inc ****  Cortex M0 interrupt disabling/enabling
 172:Generated_Source\PSoC5/ErikaOS_1_cortex_mx_ee_cpu.inc ****  *********************************************************************/
 173:Generated_Source\PSoC5/ErikaOS_1_cortex_mx_ee_cpu.inc **** 
 174:Generated_Source\PSoC5/ErikaOS_1_cortex_mx_ee_cpu.inc **** /* Used to check the value returned by EE_cortex_mx_disableIRQ */
 175:Generated_Source\PSoC5/ErikaOS_1_cortex_mx_ee_cpu.inc **** #define EE_cortex_mx_are_IRQs_enabled(ie) ((ie) ^ 1)
 176:Generated_Source\PSoC5/ErikaOS_1_cortex_mx_ee_cpu.inc **** 
 177:Generated_Source\PSoC5/ErikaOS_1_cortex_mx_ee_cpu.inc **** /**
 178:Generated_Source\PSoC5/ErikaOS_1_cortex_mx_ee_cpu.inc ****  * Enable interrupts
 179:Generated_Source\PSoC5/ErikaOS_1_cortex_mx_ee_cpu.inc ****  */
 180:Generated_Source\PSoC5/ErikaOS_1_cortex_mx_ee_cpu.inc **** __INLINE__ void  EE_cortex_mx_enableIRQ(void)
 181:Generated_Source\PSoC5/ErikaOS_1_cortex_mx_ee_cpu.inc **** {
 182:Generated_Source\PSoC5/ErikaOS_1_cortex_mx_ee_cpu.inc **** #ifdef __IAR__
 183:Generated_Source\PSoC5/ErikaOS_1_cortex_mx_ee_cpu.inc **** 	__ASM ("cpsie i");
 184:Generated_Source\PSoC5/ErikaOS_1_cortex_mx_ee_cpu.inc **** #else	/* __IAR__ */
 185:Generated_Source\PSoC5/ErikaOS_1_cortex_mx_ee_cpu.inc **** #ifdef __CCS__
 186:Generated_Source\PSoC5/ErikaOS_1_cortex_mx_ee_cpu.inc **** 	__ASM ("    cpsie    i\n");
ARM GAS  C:\Users\robom\AppData\Local\Temp\ccW2R9Ts.s 			page 6


 187:Generated_Source\PSoC5/ErikaOS_1_cortex_mx_ee_cpu.inc **** #else	/* __CCS__ */
 188:Generated_Source\PSoC5/ErikaOS_1_cortex_mx_ee_cpu.inc **** #ifdef __KEIL__
 189:Generated_Source\PSoC5/ErikaOS_1_cortex_mx_ee_cpu.inc **** 	__enable_irq();
 190:Generated_Source\PSoC5/ErikaOS_1_cortex_mx_ee_cpu.inc **** #else	/* __KEIL__ */
 191:Generated_Source\PSoC5/ErikaOS_1_cortex_mx_ee_cpu.inc **** 	__ASM volatile("cpsie i");
 192:Generated_Source\PSoC5/ErikaOS_1_cortex_mx_ee_cpu.inc **** #endif	/* !__KEIL__ */
 193:Generated_Source\PSoC5/ErikaOS_1_cortex_mx_ee_cpu.inc **** #endif	/* !__CCS__ */
 194:Generated_Source\PSoC5/ErikaOS_1_cortex_mx_ee_cpu.inc **** #endif	/* !__IAR__ */
 195:Generated_Source\PSoC5/ErikaOS_1_cortex_mx_ee_cpu.inc **** }
 196:Generated_Source\PSoC5/ErikaOS_1_cortex_mx_ee_cpu.inc **** 
 197:Generated_Source\PSoC5/ErikaOS_1_cortex_mx_ee_cpu.inc **** /**
 198:Generated_Source\PSoC5/ErikaOS_1_cortex_mx_ee_cpu.inc ****  * Disable interrupts
 199:Generated_Source\PSoC5/ErikaOS_1_cortex_mx_ee_cpu.inc ****  */
 200:Generated_Source\PSoC5/ErikaOS_1_cortex_mx_ee_cpu.inc **** __INLINE__ void  EE_cortex_mx_disableIRQ(void)
 201:Generated_Source\PSoC5/ErikaOS_1_cortex_mx_ee_cpu.inc **** {
 202:Generated_Source\PSoC5/ErikaOS_1_cortex_mx_ee_cpu.inc **** #ifdef __IAR__
 203:Generated_Source\PSoC5/ErikaOS_1_cortex_mx_ee_cpu.inc **** 	__ASM ("cpsid i");
 204:Generated_Source\PSoC5/ErikaOS_1_cortex_mx_ee_cpu.inc **** #else	/* __IAR__ */
 205:Generated_Source\PSoC5/ErikaOS_1_cortex_mx_ee_cpu.inc **** #ifdef __CCS__
 206:Generated_Source\PSoC5/ErikaOS_1_cortex_mx_ee_cpu.inc **** 	__ASM ("    cpsid    i\n");
 207:Generated_Source\PSoC5/ErikaOS_1_cortex_mx_ee_cpu.inc **** #else	/* __CCS__ */
 208:Generated_Source\PSoC5/ErikaOS_1_cortex_mx_ee_cpu.inc **** #ifdef __KEIL__
 209:Generated_Source\PSoC5/ErikaOS_1_cortex_mx_ee_cpu.inc **** 	__disable_irq();
 210:Generated_Source\PSoC5/ErikaOS_1_cortex_mx_ee_cpu.inc **** #else	/* __KEIL__ */
 211:Generated_Source\PSoC5/ErikaOS_1_cortex_mx_ee_cpu.inc **** 	__ASM volatile("cpsid i");
  71              		.loc 2 211 0
  72              		.syntax unified
  73              	@ 211 "Generated_Source\PSoC5/ErikaOS_1_cortex_mx_ee_cpu.inc" 1
  74 000a 72B6     		cpsid i
  75              	@ 0 "" 2
  76              		.thumb
  77              		.syntax unified
  78              	.LBE81:
  79              	.LBE80:
  80              	.LBB82:
  81              	.LBB83:
 212:Generated_Source\PSoC5/ErikaOS_1_cortex_mx_ee_cpu.inc **** #endif	/* !__KEIL__ */
 213:Generated_Source\PSoC5/ErikaOS_1_cortex_mx_ee_cpu.inc **** #endif	/* !__CCS__ */
 214:Generated_Source\PSoC5/ErikaOS_1_cortex_mx_ee_cpu.inc **** #endif	/* !__IAR__ */
 215:Generated_Source\PSoC5/ErikaOS_1_cortex_mx_ee_cpu.inc **** }
 216:Generated_Source\PSoC5/ErikaOS_1_cortex_mx_ee_cpu.inc **** 
 217:Generated_Source\PSoC5/ErikaOS_1_cortex_mx_ee_cpu.inc **** /**
 218:Generated_Source\PSoC5/ErikaOS_1_cortex_mx_ee_cpu.inc ****  * Resume interrupts
 219:Generated_Source\PSoC5/ErikaOS_1_cortex_mx_ee_cpu.inc ****  */
 220:Generated_Source\PSoC5/ErikaOS_1_cortex_mx_ee_cpu.inc **** __INLINE__ void  EE_cortex_mx_resumeIRQ(EE_FREG f)
 221:Generated_Source\PSoC5/ErikaOS_1_cortex_mx_ee_cpu.inc **** {
 222:Generated_Source\PSoC5/ErikaOS_1_cortex_mx_ee_cpu.inc **** #ifdef __IAR__
 223:Generated_Source\PSoC5/ErikaOS_1_cortex_mx_ee_cpu.inc **** 	__set_PRIMASK(f);
 224:Generated_Source\PSoC5/ErikaOS_1_cortex_mx_ee_cpu.inc **** #else	/* __IAR__ */
 225:Generated_Source\PSoC5/ErikaOS_1_cortex_mx_ee_cpu.inc **** #ifdef __CCS__
 226:Generated_Source\PSoC5/ErikaOS_1_cortex_mx_ee_cpu.inc **** 	__ASM ("    msr    primask, r0\n");
 227:Generated_Source\PSoC5/ErikaOS_1_cortex_mx_ee_cpu.inc **** #else	/* __CCS__ */
 228:Generated_Source\PSoC5/ErikaOS_1_cortex_mx_ee_cpu.inc **** #ifdef __KEIL__
 229:Generated_Source\PSoC5/ErikaOS_1_cortex_mx_ee_cpu.inc **** 	register EE_FREG PRIMASK __ASM("primask");
 230:Generated_Source\PSoC5/ErikaOS_1_cortex_mx_ee_cpu.inc **** 	PRIMASK = f;
 231:Generated_Source\PSoC5/ErikaOS_1_cortex_mx_ee_cpu.inc **** #else	/* __KEIL__ */
 232:Generated_Source\PSoC5/ErikaOS_1_cortex_mx_ee_cpu.inc **** 	__ASM volatile("msr primask, %0" :: "r" (f));
ARM GAS  C:\Users\robom\AppData\Local\Temp\ccW2R9Ts.s 			page 7


 233:Generated_Source\PSoC5/ErikaOS_1_cortex_mx_ee_cpu.inc **** #endif	/* !__KEIL__ */
 234:Generated_Source\PSoC5/ErikaOS_1_cortex_mx_ee_cpu.inc **** #endif	/* !__CCS__ */
 235:Generated_Source\PSoC5/ErikaOS_1_cortex_mx_ee_cpu.inc **** #endif	/* !__IAR__ */
 236:Generated_Source\PSoC5/ErikaOS_1_cortex_mx_ee_cpu.inc **** }
 237:Generated_Source\PSoC5/ErikaOS_1_cortex_mx_ee_cpu.inc **** 
 238:Generated_Source\PSoC5/ErikaOS_1_cortex_mx_ee_cpu.inc **** /**
 239:Generated_Source\PSoC5/ErikaOS_1_cortex_mx_ee_cpu.inc ****  * Suspend interrupts
 240:Generated_Source\PSoC5/ErikaOS_1_cortex_mx_ee_cpu.inc ****  */
 241:Generated_Source\PSoC5/ErikaOS_1_cortex_mx_ee_cpu.inc **** __INLINE__ EE_FREG  EE_cortex_mx_suspendIRQ(void)
 242:Generated_Source\PSoC5/ErikaOS_1_cortex_mx_ee_cpu.inc **** {
 243:Generated_Source\PSoC5/ErikaOS_1_cortex_mx_ee_cpu.inc **** #ifndef __CCS__
 244:Generated_Source\PSoC5/ErikaOS_1_cortex_mx_ee_cpu.inc **** 	EE_FREG istat;
 245:Generated_Source\PSoC5/ErikaOS_1_cortex_mx_ee_cpu.inc **** #endif
 246:Generated_Source\PSoC5/ErikaOS_1_cortex_mx_ee_cpu.inc **** #ifdef __IAR__
 247:Generated_Source\PSoC5/ErikaOS_1_cortex_mx_ee_cpu.inc **** 	 istat = __get_PRIMASK();
 248:Generated_Source\PSoC5/ErikaOS_1_cortex_mx_ee_cpu.inc **** 	__ASM ("cpsid i");
 249:Generated_Source\PSoC5/ErikaOS_1_cortex_mx_ee_cpu.inc **** #else	/* __IAR__ */
 250:Generated_Source\PSoC5/ErikaOS_1_cortex_mx_ee_cpu.inc **** #ifdef __CCS__
 251:Generated_Source\PSoC5/ErikaOS_1_cortex_mx_ee_cpu.inc **** 	__ASM ("    mrs     r0, primask\n"
 252:Generated_Source\PSoC5/ErikaOS_1_cortex_mx_ee_cpu.inc **** 	       "    cpsid   i\n"
 253:Generated_Source\PSoC5/ErikaOS_1_cortex_mx_ee_cpu.inc **** 	       "    bx      lr\n");
 254:Generated_Source\PSoC5/ErikaOS_1_cortex_mx_ee_cpu.inc **** #else	/* __CCS__ */
 255:Generated_Source\PSoC5/ErikaOS_1_cortex_mx_ee_cpu.inc **** #ifdef __KEIL__
 256:Generated_Source\PSoC5/ErikaOS_1_cortex_mx_ee_cpu.inc **** 	register EE_FREG PRIMASK __ASM("primask");
 257:Generated_Source\PSoC5/ErikaOS_1_cortex_mx_ee_cpu.inc **** 	istat = PRIMASK;
 258:Generated_Source\PSoC5/ErikaOS_1_cortex_mx_ee_cpu.inc **** 	__disable_irq();
 259:Generated_Source\PSoC5/ErikaOS_1_cortex_mx_ee_cpu.inc **** #else	/* __KEIL__ */
 260:Generated_Source\PSoC5/ErikaOS_1_cortex_mx_ee_cpu.inc **** 	__ASM volatile ("mrs %0, primask" : "=r" (istat) );
 261:Generated_Source\PSoC5/ErikaOS_1_cortex_mx_ee_cpu.inc **** 	__ASM volatile ("cpsid i");
 262:Generated_Source\PSoC5/ErikaOS_1_cortex_mx_ee_cpu.inc **** #endif	/* !__KEIL__ */
 263:Generated_Source\PSoC5/ErikaOS_1_cortex_mx_ee_cpu.inc **** #endif	/* !__CCS__ */
 264:Generated_Source\PSoC5/ErikaOS_1_cortex_mx_ee_cpu.inc **** #endif	/* !__IAR__ */
 265:Generated_Source\PSoC5/ErikaOS_1_cortex_mx_ee_cpu.inc **** #ifdef __CCS__
 266:Generated_Source\PSoC5/ErikaOS_1_cortex_mx_ee_cpu.inc **** 	return 0;
 267:Generated_Source\PSoC5/ErikaOS_1_cortex_mx_ee_cpu.inc **** #else
 268:Generated_Source\PSoC5/ErikaOS_1_cortex_mx_ee_cpu.inc **** 	return istat;
 269:Generated_Source\PSoC5/ErikaOS_1_cortex_mx_ee_cpu.inc **** #endif
 270:Generated_Source\PSoC5/ErikaOS_1_cortex_mx_ee_cpu.inc **** }
 271:Generated_Source\PSoC5/ErikaOS_1_cortex_mx_ee_cpu.inc **** 
 272:Generated_Source\PSoC5/ErikaOS_1_cortex_mx_ee_cpu.inc **** /**
 273:Generated_Source\PSoC5/ErikaOS_1_cortex_mx_ee_cpu.inc ****  * Return true (not 0) if IRQs are enabled, 0 (false) if IRQ are disabled.
 274:Generated_Source\PSoC5/ErikaOS_1_cortex_mx_ee_cpu.inc ****  */
 275:Generated_Source\PSoC5/ErikaOS_1_cortex_mx_ee_cpu.inc **** __INLINE__ EE_UINT32  EE_cortex_mx_get_IRQ_enabled(void)
 276:Generated_Source\PSoC5/ErikaOS_1_cortex_mx_ee_cpu.inc **** {
 277:Generated_Source\PSoC5/ErikaOS_1_cortex_mx_ee_cpu.inc **** #ifndef __CCS__
 278:Generated_Source\PSoC5/ErikaOS_1_cortex_mx_ee_cpu.inc **** 	EE_UREG ie;
 279:Generated_Source\PSoC5/ErikaOS_1_cortex_mx_ee_cpu.inc **** #endif
 280:Generated_Source\PSoC5/ErikaOS_1_cortex_mx_ee_cpu.inc **** #ifdef __IAR__
 281:Generated_Source\PSoC5/ErikaOS_1_cortex_mx_ee_cpu.inc **** 	ie = __get_PRIMASK();
 282:Generated_Source\PSoC5/ErikaOS_1_cortex_mx_ee_cpu.inc **** #else	/* __IAR__ */
 283:Generated_Source\PSoC5/ErikaOS_1_cortex_mx_ee_cpu.inc **** #ifdef __CCS__
 284:Generated_Source\PSoC5/ErikaOS_1_cortex_mx_ee_cpu.inc **** 	__ASM ("    MRS     r0, PRIMASK\n"
 285:Generated_Source\PSoC5/ErikaOS_1_cortex_mx_ee_cpu.inc **** 	       "    EOR     r0, #1\n"
 286:Generated_Source\PSoC5/ErikaOS_1_cortex_mx_ee_cpu.inc **** 	       "    bx      lr\n");
 287:Generated_Source\PSoC5/ErikaOS_1_cortex_mx_ee_cpu.inc **** #else	/* __CCS__ */
 288:Generated_Source\PSoC5/ErikaOS_1_cortex_mx_ee_cpu.inc **** #ifdef __KEIL__
 289:Generated_Source\PSoC5/ErikaOS_1_cortex_mx_ee_cpu.inc **** 	register EE_FREG PRIMASK __ASM("primask");
ARM GAS  C:\Users\robom\AppData\Local\Temp\ccW2R9Ts.s 			page 8


 290:Generated_Source\PSoC5/ErikaOS_1_cortex_mx_ee_cpu.inc **** 	ie = PRIMASK;
 291:Generated_Source\PSoC5/ErikaOS_1_cortex_mx_ee_cpu.inc **** #else	/* __KEIL__ */
 292:Generated_Source\PSoC5/ErikaOS_1_cortex_mx_ee_cpu.inc **** 	__ASM volatile ("MRS %0, primask" : "=r" (ie) );
 293:Generated_Source\PSoC5/ErikaOS_1_cortex_mx_ee_cpu.inc **** #endif	/* !__KEIL__ */
 294:Generated_Source\PSoC5/ErikaOS_1_cortex_mx_ee_cpu.inc **** #endif	/* !__CCS__ */
 295:Generated_Source\PSoC5/ErikaOS_1_cortex_mx_ee_cpu.inc **** #endif	/* !__IAR__ */
 296:Generated_Source\PSoC5/ErikaOS_1_cortex_mx_ee_cpu.inc **** #ifdef __CCS__
 297:Generated_Source\PSoC5/ErikaOS_1_cortex_mx_ee_cpu.inc **** 	return 0;
 298:Generated_Source\PSoC5/ErikaOS_1_cortex_mx_ee_cpu.inc **** #else
 299:Generated_Source\PSoC5/ErikaOS_1_cortex_mx_ee_cpu.inc **** 	return EE_cortex_mx_are_IRQs_enabled(ie);
 300:Generated_Source\PSoC5/ErikaOS_1_cortex_mx_ee_cpu.inc **** #endif
 301:Generated_Source\PSoC5/ErikaOS_1_cortex_mx_ee_cpu.inc **** }
 302:Generated_Source\PSoC5/ErikaOS_1_cortex_mx_ee_cpu.inc **** 
 303:Generated_Source\PSoC5/ErikaOS_1_cortex_mx_ee_cpu.inc **** __INLINE__ EE_TYPEISR2PRIO  EE_cortex_mx_get_int_prio(void)
 304:Generated_Source\PSoC5/ErikaOS_1_cortex_mx_ee_cpu.inc **** {
 305:Generated_Source\PSoC5/ErikaOS_1_cortex_mx_ee_cpu.inc **** #ifdef __CORTEX_M4__
 306:Generated_Source\PSoC5/ErikaOS_1_cortex_mx_ee_cpu.inc **** 
 307:Generated_Source\PSoC5/ErikaOS_1_cortex_mx_ee_cpu.inc **** #ifndef __CCS__
 308:Generated_Source\PSoC5/ErikaOS_1_cortex_mx_ee_cpu.inc **** 	register EE_UREG prio;
 309:Generated_Source\PSoC5/ErikaOS_1_cortex_mx_ee_cpu.inc **** #ifdef	__KEIL__
 310:Generated_Source\PSoC5/ErikaOS_1_cortex_mx_ee_cpu.inc **** 	register EE_FREG BASEPRI __ASM("basepri");
 311:Generated_Source\PSoC5/ErikaOS_1_cortex_mx_ee_cpu.inc **** #endif
 312:Generated_Source\PSoC5/ErikaOS_1_cortex_mx_ee_cpu.inc **** 
 313:Generated_Source\PSoC5/ErikaOS_1_cortex_mx_ee_cpu.inc **** #endif
 314:Generated_Source\PSoC5/ErikaOS_1_cortex_mx_ee_cpu.inc **** 
 315:Generated_Source\PSoC5/ErikaOS_1_cortex_mx_ee_cpu.inc **** #ifdef __CCS__
 316:Generated_Source\PSoC5/ErikaOS_1_cortex_mx_ee_cpu.inc **** 	/* NVIC_INT_PRI_S = 5 */
 317:Generated_Source\PSoC5/ErikaOS_1_cortex_mx_ee_cpu.inc **** 	__ASM ("    MRS     R0, BASEPRI\n"
 318:Generated_Source\PSoC5/ErikaOS_1_cortex_mx_ee_cpu.inc **** 	       "    ASR     R0, #5\n"
 319:Generated_Source\PSoC5/ErikaOS_1_cortex_mx_ee_cpu.inc **** 	       "    BLX     LR\n");
 320:Generated_Source\PSoC5/ErikaOS_1_cortex_mx_ee_cpu.inc **** #else	/* __CCS__ */
 321:Generated_Source\PSoC5/ErikaOS_1_cortex_mx_ee_cpu.inc **** #ifdef __KEIL__
 322:Generated_Source\PSoC5/ErikaOS_1_cortex_mx_ee_cpu.inc **** 	prio = BASEPRI;
 323:Generated_Source\PSoC5/ErikaOS_1_cortex_mx_ee_cpu.inc **** #else	/* __KEIL__ */
 324:Generated_Source\PSoC5/ErikaOS_1_cortex_mx_ee_cpu.inc **** #ifdef __GNU__
 325:Generated_Source\PSoC5/ErikaOS_1_cortex_mx_ee_cpu.inc **** 	__ASM volatile("MRS %0, BASEPRI" : "=r" (prio) :: );
  82              		.loc 2 325 0
  83              		.syntax unified
  84              	@ 325 "Generated_Source\PSoC5/ErikaOS_1_cortex_mx_ee_cpu.inc" 1
  85 000c EFF31184 		MRS r4, BASEPRI
  86              	@ 0 "" 2
  87              	.LVL2:
  88              		.thumb
  89              		.syntax unified
  90              	.LBE83:
  91              	.LBE82:
  92              	.LBB84:
  93              	.LBB85:
 326:Generated_Source\PSoC5/ErikaOS_1_cortex_mx_ee_cpu.inc **** #else
 327:Generated_Source\PSoC5/ErikaOS_1_cortex_mx_ee_cpu.inc **** 	__ASM volatile("MRS %0, BASEPRI" :: "=r" (prio));
 328:Generated_Source\PSoC5/ErikaOS_1_cortex_mx_ee_cpu.inc **** #endif	/* !__GNU__ */
 329:Generated_Source\PSoC5/ErikaOS_1_cortex_mx_ee_cpu.inc **** #endif	/* !__KEIL__ */
 330:Generated_Source\PSoC5/ErikaOS_1_cortex_mx_ee_cpu.inc **** #endif	/* !__CCS__ */
 331:Generated_Source\PSoC5/ErikaOS_1_cortex_mx_ee_cpu.inc **** 
 332:Generated_Source\PSoC5/ErikaOS_1_cortex_mx_ee_cpu.inc **** #ifdef __CCS__
 333:Generated_Source\PSoC5/ErikaOS_1_cortex_mx_ee_cpu.inc **** 	return 0;
 334:Generated_Source\PSoC5/ErikaOS_1_cortex_mx_ee_cpu.inc **** #else
ARM GAS  C:\Users\robom\AppData\Local\Temp\ccW2R9Ts.s 			page 9


 335:Generated_Source\PSoC5/ErikaOS_1_cortex_mx_ee_cpu.inc **** 	return prio >> NVIC_INT_PRI_S;
 336:Generated_Source\PSoC5/ErikaOS_1_cortex_mx_ee_cpu.inc **** #endif
 337:Generated_Source\PSoC5/ErikaOS_1_cortex_mx_ee_cpu.inc **** 
 338:Generated_Source\PSoC5/ErikaOS_1_cortex_mx_ee_cpu.inc **** #else	/* __CORTEX_M4__ */
 339:Generated_Source\PSoC5/ErikaOS_1_cortex_mx_ee_cpu.inc **** 	return 0;
 340:Generated_Source\PSoC5/ErikaOS_1_cortex_mx_ee_cpu.inc **** #endif	/* !__CORTEX_M4__ */
 341:Generated_Source\PSoC5/ErikaOS_1_cortex_mx_ee_cpu.inc **** }
 342:Generated_Source\PSoC5/ErikaOS_1_cortex_mx_ee_cpu.inc **** 
 343:Generated_Source\PSoC5/ErikaOS_1_cortex_mx_ee_cpu.inc **** __INLINE__ void  EE_cortex_mx_set_int_prio(
 344:Generated_Source\PSoC5/ErikaOS_1_cortex_mx_ee_cpu.inc ****   EE_TYPEISR2PRIO prio
 345:Generated_Source\PSoC5/ErikaOS_1_cortex_mx_ee_cpu.inc **** )
 346:Generated_Source\PSoC5/ErikaOS_1_cortex_mx_ee_cpu.inc **** {
 347:Generated_Source\PSoC5/ErikaOS_1_cortex_mx_ee_cpu.inc **** #ifdef __CORTEX_M4__
 348:Generated_Source\PSoC5/ErikaOS_1_cortex_mx_ee_cpu.inc **** #ifdef __CCS__
 349:Generated_Source\PSoC5/ErikaOS_1_cortex_mx_ee_cpu.inc **** 	/* NVIC_INT_PRI_S = 5 */
 350:Generated_Source\PSoC5/ErikaOS_1_cortex_mx_ee_cpu.inc **** 	__ASM ("    LSL    R0, #5\n"
 351:Generated_Source\PSoC5/ErikaOS_1_cortex_mx_ee_cpu.inc **** 	       "    MSR    BASEPRI, R0\n");
 352:Generated_Source\PSoC5/ErikaOS_1_cortex_mx_ee_cpu.inc **** #else	/* __CCS__ */
 353:Generated_Source\PSoC5/ErikaOS_1_cortex_mx_ee_cpu.inc **** #ifdef __KEIL__
 354:Generated_Source\PSoC5/ErikaOS_1_cortex_mx_ee_cpu.inc **** 	register EE_FREG BASEPRI __ASM("basepri");
 355:Generated_Source\PSoC5/ErikaOS_1_cortex_mx_ee_cpu.inc **** 	BASEPRI = (prio << NVIC_INT_PRI_S);
 356:Generated_Source\PSoC5/ErikaOS_1_cortex_mx_ee_cpu.inc **** #else	/* __KEIL__ */
 357:Generated_Source\PSoC5/ErikaOS_1_cortex_mx_ee_cpu.inc **** #ifdef __GNU__
 358:Generated_Source\PSoC5/ErikaOS_1_cortex_mx_ee_cpu.inc **** 	__ASM volatile("MSR BASEPRI, %0" :: "r" (prio << NVIC_INT_PRI_S) : );
 359:Generated_Source\PSoC5/ErikaOS_1_cortex_mx_ee_cpu.inc **** #else
 360:Generated_Source\PSoC5/ErikaOS_1_cortex_mx_ee_cpu.inc **** 	__ASM volatile("MSR BASEPRI, %0" :: "r" (prio << NVIC_INT_PRI_S));
 361:Generated_Source\PSoC5/ErikaOS_1_cortex_mx_ee_cpu.inc **** #endif	/* !__GNU__ */
 362:Generated_Source\PSoC5/ErikaOS_1_cortex_mx_ee_cpu.inc **** #endif	/* !__KEIL__ */
 363:Generated_Source\PSoC5/ErikaOS_1_cortex_mx_ee_cpu.inc **** #endif	/* !__CCS__ */
 364:Generated_Source\PSoC5/ErikaOS_1_cortex_mx_ee_cpu.inc **** #endif	/* __CORTEX_M4__ */
 365:Generated_Source\PSoC5/ErikaOS_1_cortex_mx_ee_cpu.inc **** }
 366:Generated_Source\PSoC5/ErikaOS_1_cortex_mx_ee_cpu.inc **** 
 367:Generated_Source\PSoC5/ErikaOS_1_cortex_mx_ee_cpu.inc **** __INLINE__ EE_TYPEISR2PRIO  EE_cortex_mx_get_isr_prio(
 368:Generated_Source\PSoC5/ErikaOS_1_cortex_mx_ee_cpu.inc ****   void
 369:Generated_Source\PSoC5/ErikaOS_1_cortex_mx_ee_cpu.inc **** )
 370:Generated_Source\PSoC5/ErikaOS_1_cortex_mx_ee_cpu.inc **** {
 371:Generated_Source\PSoC5/ErikaOS_1_cortex_mx_ee_cpu.inc **** #ifdef __CORTEX_M4__
 372:Generated_Source\PSoC5/ErikaOS_1_cortex_mx_ee_cpu.inc ****   register EE_UREG vectact = NVIC_INT_CTRL_R & NVIC_INT_CTRL_VEC_ACT_M;
  94              		.loc 2 372 0
  95 0010 1E4B     		ldr	r3, .L9
  96 0012 1B68     		ldr	r3, [r3]
  97 0014 DBB2     		uxtb	r3, r3
  98              	.LVL3:
 373:Generated_Source\PSoC5/ErikaOS_1_cortex_mx_ee_cpu.inc ****   register EE_TYPEISR2PRIO prio = 0;
 374:Generated_Source\PSoC5/ErikaOS_1_cortex_mx_ee_cpu.inc **** 
 375:Generated_Source\PSoC5/ErikaOS_1_cortex_mx_ee_cpu.inc ****   if (vectact > EE_CORTEX_MX_SYSTICK_EXC_NUM) {
  99              		.loc 2 375 0
 100 0016 0F2B     		cmp	r3, #15
 101 0018 10D9     		bls	.L4
 376:Generated_Source\PSoC5/ErikaOS_1_cortex_mx_ee_cpu.inc ****     vectact -= EE_CORTEX_MX_SYSTICK_EXC_NUM + 1;
 102              		.loc 2 376 0
 103 001a 103B     		subs	r3, r3, #16
 104              	.LVL4:
 377:Generated_Source\PSoC5/ErikaOS_1_cortex_mx_ee_cpu.inc ****     prio = NVIC_GET_PRI(vectact);
 105              		.loc 2 377 0
 106 001c 23F00302 		bic	r2, r3, #3
 107 0020 02F16042 		add	r2, r2, #-536870912
ARM GAS  C:\Users\robom\AppData\Local\Temp\ccW2R9Ts.s 			page 10


 108 0024 02F56442 		add	r2, r2, #58368
 109 0028 1168     		ldr	r1, [r2]
 110 002a DB00     		lsls	r3, r3, #3
 111              	.LVL5:
 112 002c 03F01803 		and	r3, r3, #24
 113 0030 E022     		movs	r2, #224
 114 0032 9A40     		lsls	r2, r2, r3
 115 0034 0A40     		ands	r2, r2, r1
 116 0036 22FA03F3 		lsr	r3, r2, r3
 117              	.LVL6:
 118 003a 06E0     		b	.L5
 119              	.LVL7:
 120              	.L4:
 378:Generated_Source\PSoC5/ErikaOS_1_cortex_mx_ee_cpu.inc ****   }
 379:Generated_Source\PSoC5/ErikaOS_1_cortex_mx_ee_cpu.inc **** #ifdef	__USE_SYSTICK__
 380:Generated_Source\PSoC5/ErikaOS_1_cortex_mx_ee_cpu.inc ****   else if (vectact == EE_CORTEX_MX_SYSTICK_EXC_NUM) {
 121              		.loc 2 380 0
 122 003c 0F2B     		cmp	r3, #15
 123 003e 03D1     		bne	.L8
 381:Generated_Source\PSoC5/ErikaOS_1_cortex_mx_ee_cpu.inc ****     prio = NVIC_SYS_PRI3_R >> NVIC_SYS_PRI3_TICK_S;
 124              		.loc 2 381 0
 125 0040 134B     		ldr	r3, .L9+4
 126              	.LVL8:
 127 0042 1B68     		ldr	r3, [r3]
 128 0044 1B0E     		lsrs	r3, r3, #24
 129              	.LVL9:
 130 0046 00E0     		b	.L5
 131              	.LVL10:
 132              	.L8:
 373:Generated_Source\PSoC5/ErikaOS_1_cortex_mx_ee_cpu.inc **** 
 133              		.loc 2 373 0
 134 0048 0023     		movs	r3, #0
 135              	.LVL11:
 136              	.L5:
 137              	.LBE85:
 138              	.LBE84:
 139              	.LBB86:
 140              	.LBB87:
 358:Generated_Source\PSoC5/ErikaOS_1_cortex_mx_ee_cpu.inc **** #else
 141              		.loc 2 358 0
 142              		.syntax unified
 143              	@ 358 "Generated_Source\PSoC5/ErikaOS_1_cortex_mx_ee_cpu.inc" 1
 144 004a 83F31188 		MSR BASEPRI, r3
 145              	@ 0 "" 2
 146              		.thumb
 147              		.syntax unified
 148              	.LBE87:
 149              	.LBE86:
 150              	.LBB88:
 151              	.LBB89:
 152              		.file 3 "Generated_Source\\PSoC5/ErikaOS_1_common_ee_irqstub.inc"
   1:Generated_Source\PSoC5/ErikaOS_1_common_ee_irqstub.inc **** /* ###*B*###
   2:Generated_Source\PSoC5/ErikaOS_1_common_ee_irqstub.inc ****  * ERIKA Enterprise - a tiny RTOS for small microcontrollers
   3:Generated_Source\PSoC5/ErikaOS_1_common_ee_irqstub.inc ****  *
   4:Generated_Source\PSoC5/ErikaOS_1_common_ee_irqstub.inc ****  * Copyright (C) 2002-2010  Evidence Srl
   5:Generated_Source\PSoC5/ErikaOS_1_common_ee_irqstub.inc ****  *
   6:Generated_Source\PSoC5/ErikaOS_1_common_ee_irqstub.inc ****  * This file is part of ERIKA Enterprise.
ARM GAS  C:\Users\robom\AppData\Local\Temp\ccW2R9Ts.s 			page 11


   7:Generated_Source\PSoC5/ErikaOS_1_common_ee_irqstub.inc ****  *
   8:Generated_Source\PSoC5/ErikaOS_1_common_ee_irqstub.inc ****  * ERIKA Enterprise is free software; you can redistribute it
   9:Generated_Source\PSoC5/ErikaOS_1_common_ee_irqstub.inc ****  * and/or modify it under the terms of the GNU General Public License
  10:Generated_Source\PSoC5/ErikaOS_1_common_ee_irqstub.inc ****  * version 2 as published by the Free Software Foundation,
  11:Generated_Source\PSoC5/ErikaOS_1_common_ee_irqstub.inc ****  * (with a special exception described below).
  12:Generated_Source\PSoC5/ErikaOS_1_common_ee_irqstub.inc ****  *
  13:Generated_Source\PSoC5/ErikaOS_1_common_ee_irqstub.inc ****  * Linking this code statically or dynamically with other modules is
  14:Generated_Source\PSoC5/ErikaOS_1_common_ee_irqstub.inc ****  * making a combined work based on this code.  Thus, the terms and
  15:Generated_Source\PSoC5/ErikaOS_1_common_ee_irqstub.inc ****  * conditions of the GNU General Public License cover the whole
  16:Generated_Source\PSoC5/ErikaOS_1_common_ee_irqstub.inc ****  * combination.
  17:Generated_Source\PSoC5/ErikaOS_1_common_ee_irqstub.inc ****  *
  18:Generated_Source\PSoC5/ErikaOS_1_common_ee_irqstub.inc ****  * As a special exception, the copyright holders of this library give you
  19:Generated_Source\PSoC5/ErikaOS_1_common_ee_irqstub.inc ****  * permission to link this code with independent modules to produce an
  20:Generated_Source\PSoC5/ErikaOS_1_common_ee_irqstub.inc ****  * executable, regardless of the license terms of these independent
  21:Generated_Source\PSoC5/ErikaOS_1_common_ee_irqstub.inc ****  * modules, and to copy and distribute the resulting executable under
  22:Generated_Source\PSoC5/ErikaOS_1_common_ee_irqstub.inc ****  * terms of your choice, provided that you also meet, for each linked
  23:Generated_Source\PSoC5/ErikaOS_1_common_ee_irqstub.inc ****  * independent module, the terms and conditions of the license of that
  24:Generated_Source\PSoC5/ErikaOS_1_common_ee_irqstub.inc ****  * module.  An independent module is a module which is not derived from
  25:Generated_Source\PSoC5/ErikaOS_1_common_ee_irqstub.inc ****  * or based on this library.  If you modify this code, you may extend
  26:Generated_Source\PSoC5/ErikaOS_1_common_ee_irqstub.inc ****  * this exception to your version of the code, but you are not
  27:Generated_Source\PSoC5/ErikaOS_1_common_ee_irqstub.inc ****  * obligated to do so.  If you do not wish to do so, delete this
  28:Generated_Source\PSoC5/ErikaOS_1_common_ee_irqstub.inc ****  * exception statement from your version.
  29:Generated_Source\PSoC5/ErikaOS_1_common_ee_irqstub.inc ****  *
  30:Generated_Source\PSoC5/ErikaOS_1_common_ee_irqstub.inc ****  * ERIKA Enterprise is distributed in the hope that it will be
  31:Generated_Source\PSoC5/ErikaOS_1_common_ee_irqstub.inc ****  * useful, but WITHOUT ANY WARRANTY; without even the implied warranty
  32:Generated_Source\PSoC5/ErikaOS_1_common_ee_irqstub.inc ****  * of MERCHANTABILITY or FITNESS FOR A PARTICULAR PURPOSE.  See the
  33:Generated_Source\PSoC5/ErikaOS_1_common_ee_irqstub.inc ****  * GNU General Public License version 2 for more details.
  34:Generated_Source\PSoC5/ErikaOS_1_common_ee_irqstub.inc ****  *
  35:Generated_Source\PSoC5/ErikaOS_1_common_ee_irqstub.inc ****  * You should have received a copy of the GNU General Public License
  36:Generated_Source\PSoC5/ErikaOS_1_common_ee_irqstub.inc ****  * version 2 along with ERIKA Enterprise; if not, write to the
  37:Generated_Source\PSoC5/ErikaOS_1_common_ee_irqstub.inc ****  * Free Software Foundation, Inc., 51 Franklin Street, Fifth Floor,
  38:Generated_Source\PSoC5/ErikaOS_1_common_ee_irqstub.inc ****  * Boston, MA 02110-1301 USA.
  39:Generated_Source\PSoC5/ErikaOS_1_common_ee_irqstub.inc ****  * ###*E*### */
  40:Generated_Source\PSoC5/ErikaOS_1_common_ee_irqstub.inc **** 
  41:Generated_Source\PSoC5/ErikaOS_1_common_ee_irqstub.inc **** /*
  42:Generated_Source\PSoC5/ErikaOS_1_common_ee_irqstub.inc ****  * Some IRQ-related stuff.
  43:Generated_Source\PSoC5/ErikaOS_1_common_ee_irqstub.inc ****  * Author: 2009-2010,  Bernardo  Dal Seno
  44:Generated_Source\PSoC5/ErikaOS_1_common_ee_irqstub.inc ****  */
  45:Generated_Source\PSoC5/ErikaOS_1_common_ee_irqstub.inc **** 
  46:Generated_Source\PSoC5/ErikaOS_1_common_ee_irqstub.inc **** /*
  47:Generated_Source\PSoC5/ErikaOS_1_common_ee_irqstub.inc ****  * PSoC Port and API Generation
  48:Generated_Source\PSoC5/ErikaOS_1_common_ee_irqstub.inc ****  * Carlos Fernando Meier Martinez
  49:Generated_Source\PSoC5/ErikaOS_1_common_ee_irqstub.inc ****  * Hochschule Darmstadt, Germany. 2017.
  50:Generated_Source\PSoC5/ErikaOS_1_common_ee_irqstub.inc ****  */
  51:Generated_Source\PSoC5/ErikaOS_1_common_ee_irqstub.inc **** 
  52:Generated_Source\PSoC5/ErikaOS_1_common_ee_irqstub.inc **** /*******************************************************************************
  53:Generated_Source\PSoC5/ErikaOS_1_common_ee_irqstub.inc ****  *                        !!!WARNING!!!
  54:Generated_Source\PSoC5/ErikaOS_1_common_ee_irqstub.inc ****  * This header depends on "cpu/common/inc/ee_context.inc" or your own
  55:Generated_Source\PSoC5/ErikaOS_1_common_ee_irqstub.inc ****  * implementation of the same. You should include it file before including this
  56:Generated_Source\PSoC5/ErikaOS_1_common_ee_irqstub.inc ****  * file
  57:Generated_Source\PSoC5/ErikaOS_1_common_ee_irqstub.inc ****  ******************************************************************************/
  58:Generated_Source\PSoC5/ErikaOS_1_common_ee_irqstub.inc **** 
  59:Generated_Source\PSoC5/ErikaOS_1_common_ee_irqstub.inc **** #ifndef PKG_CPU_COMMON_INC_EE_IRQSTUB_H
  60:Generated_Source\PSoC5/ErikaOS_1_common_ee_irqstub.inc **** #define PKG_CPU_COMMON_INC_EE_IRQSTUB_H
  61:Generated_Source\PSoC5/ErikaOS_1_common_ee_irqstub.inc **** 
  62:Generated_Source\PSoC5/ErikaOS_1_common_ee_irqstub.inc **** /* this bring EE_IRQ_nesting_level definition */
  63:Generated_Source\PSoC5/ErikaOS_1_common_ee_irqstub.inc **** #include "ErikaOS_1_common_ee_primitives.inc"
ARM GAS  C:\Users\robom\AppData\Local\Temp\ccW2R9Ts.s 			page 12


  64:Generated_Source\PSoC5/ErikaOS_1_common_ee_irqstub.inc **** 
  65:Generated_Source\PSoC5/ErikaOS_1_common_ee_irqstub.inc **** /* True if we are inside an interrupt-serving routine */
  66:Generated_Source\PSoC5/ErikaOS_1_common_ee_irqstub.inc **** __INLINE__ EE_TYPEBOOL  EE_is_inside_ISR_call( void )
  67:Generated_Source\PSoC5/ErikaOS_1_common_ee_irqstub.inc **** {
  68:Generated_Source\PSoC5/ErikaOS_1_common_ee_irqstub.inc ****   return (EE_IRQ_nesting_level > 0U);
  69:Generated_Source\PSoC5/ErikaOS_1_common_ee_irqstub.inc **** }
  70:Generated_Source\PSoC5/ErikaOS_1_common_ee_irqstub.inc **** 
  71:Generated_Source\PSoC5/ErikaOS_1_common_ee_irqstub.inc **** 
  72:Generated_Source\PSoC5/ErikaOS_1_common_ee_irqstub.inc **** /* EE_decrement_IRQ_nesting_level() and EE_increment_IRQ_nesting_level() are
  73:Generated_Source\PSoC5/ErikaOS_1_common_ee_irqstub.inc ****  * used to keep track of the current IRQ nesting level.
  74:Generated_Source\PSoC5/ErikaOS_1_common_ee_irqstub.inc ****  * EE_std_enableIRQ_nested() and EE_std_disableIRQ_nested() are used to control
  75:Generated_Source\PSoC5/ErikaOS_1_common_ee_irqstub.inc ****  * when IRQ nesting is enabled.
  76:Generated_Source\PSoC5/ErikaOS_1_common_ee_irqstub.inc ****  */
  77:Generated_Source\PSoC5/ErikaOS_1_common_ee_irqstub.inc **** #if defined(__AS_SC4__)
  78:Generated_Source\PSoC5/ErikaOS_1_common_ee_irqstub.inc **** /* For SC4 the nesting level is updated inside the prestub and postub */
  79:Generated_Source\PSoC5/ErikaOS_1_common_ee_irqstub.inc **** __INLINE__ void  EE_decrement_IRQ_nesting_level(void) {}
  80:Generated_Source\PSoC5/ErikaOS_1_common_ee_irqstub.inc **** __INLINE__ void  EE_increment_IRQ_nesting_level(void) {}
  81:Generated_Source\PSoC5/ErikaOS_1_common_ee_irqstub.inc **** __INLINE__ void  EE_std_enableIRQ_nested(void) {}
  82:Generated_Source\PSoC5/ErikaOS_1_common_ee_irqstub.inc **** __INLINE__ void  EE_std_disableIRQ_nested(void) {}
  83:Generated_Source\PSoC5/ErikaOS_1_common_ee_irqstub.inc **** #elif defined(__ALLOW_NESTED_IRQ__)
  84:Generated_Source\PSoC5/ErikaOS_1_common_ee_irqstub.inc **** __INLINE__ void  EE_decrement_IRQ_nesting_level(void) { --EE_IRQ_nesting_level; }
  85:Generated_Source\PSoC5/ErikaOS_1_common_ee_irqstub.inc **** __INLINE__ void  EE_increment_IRQ_nesting_level(void) { ++EE_IRQ_nesting_level; }
 153              		.loc 3 85 0
 154 004e 114A     		ldr	r2, .L9+8
 155 0050 1368     		ldr	r3, [r2]
 156 0052 0133     		adds	r3, r3, #1
 157 0054 1360     		str	r3, [r2]
 158              	.LBE89:
 159              	.LBE88:
  26:source\asw/main.c **** {
 160              		.loc 1 26 0
 161 0056 012B     		cmp	r3, #1
 162 0058 01D1     		bne	.L6
  26:source\asw/main.c **** {
 163              		.loc 1 26 0 is_stmt 0 discriminator 1
 164 005a FFF7FEFF 		bl	EE_cortex_mx_change_IRQ_stack
 165              	.LVL12:
 166              	.L6:
 167              	.LBB90:
 168              	.LBB91:
 191:Generated_Source\PSoC5/ErikaOS_1_cortex_mx_ee_cpu.inc **** #endif	/* !__KEIL__ */
 169              		.loc 2 191 0 is_stmt 1 discriminator 3
 170              		.syntax unified
 171              	@ 191 "Generated_Source\PSoC5/ErikaOS_1_cortex_mx_ee_cpu.inc" 1
 172 005e 62B6     		cpsie i
 173              	@ 0 "" 2
 174              		.thumb
 175              		.syntax unified
 176              	.LBE91:
 177              	.LBE90:
  26:source\asw/main.c **** {
 178              		.loc 1 26 0 discriminator 3
 179 0060 FFF7FEFF 		bl	ISR2_systick_handler
 180              	.LVL13:
 181              	.LBB92:
 182              	.LBB93:
 211:Generated_Source\PSoC5/ErikaOS_1_cortex_mx_ee_cpu.inc **** #endif	/* !__KEIL__ */
ARM GAS  C:\Users\robom\AppData\Local\Temp\ccW2R9Ts.s 			page 13


 183              		.loc 2 211 0 discriminator 3
 184              		.syntax unified
 185              	@ 211 "Generated_Source\PSoC5/ErikaOS_1_cortex_mx_ee_cpu.inc" 1
 186 0064 72B6     		cpsid i
 187              	@ 0 "" 2
 188              	.LVL14:
 189              		.thumb
 190              		.syntax unified
 191              	.LBE93:
 192              	.LBE92:
 193              	.LBB94:
 194              	.LBB95:
 358:Generated_Source\PSoC5/ErikaOS_1_cortex_mx_ee_cpu.inc **** #else
 195              		.loc 2 358 0 discriminator 3
 196              		.syntax unified
 197              	@ 358 "Generated_Source\PSoC5/ErikaOS_1_cortex_mx_ee_cpu.inc" 1
 198 0066 84F31188 		MSR BASEPRI, r4
 199              	@ 0 "" 2
 200              	.LVL15:
 201              		.thumb
 202              		.syntax unified
 203              	.LBE95:
 204              	.LBE94:
 205              	.LBB96:
 206              	.LBB97:
  86:Generated_Source\PSoC5/ErikaOS_1_common_ee_irqstub.inc **** /*  EE_std_enableIRQ_nested() and EE_std_disableIRQ_nested() must be defined in
  87:Generated_Source\PSoC5/ErikaOS_1_common_ee_irqstub.inc ****  *  the platform-dependent part, as they dependend on the particular way
  88:Generated_Source\PSoC5/ErikaOS_1_common_ee_irqstub.inc ****  *  interrupts are handled by the CPU. */
  89:Generated_Source\PSoC5/ErikaOS_1_common_ee_irqstub.inc **** #else
  90:Generated_Source\PSoC5/ErikaOS_1_common_ee_irqstub.inc **** __INLINE__ void  EE_decrement_IRQ_nesting_level(void) { EE_IRQ_nesting_level = 0U; }
  91:Generated_Source\PSoC5/ErikaOS_1_common_ee_irqstub.inc **** __INLINE__ void  EE_increment_IRQ_nesting_level(void) { EE_IRQ_nesting_level = 1U; }
  92:Generated_Source\PSoC5/ErikaOS_1_common_ee_irqstub.inc **** __INLINE__ void  EE_std_enableIRQ_nested(void) {}
  93:Generated_Source\PSoC5/ErikaOS_1_common_ee_irqstub.inc **** __INLINE__ void  EE_std_disableIRQ_nested(void) {}
  94:Generated_Source\PSoC5/ErikaOS_1_common_ee_irqstub.inc **** #endif
  95:Generated_Source\PSoC5/ErikaOS_1_common_ee_irqstub.inc **** 
  96:Generated_Source\PSoC5/ErikaOS_1_common_ee_irqstub.inc **** #if (defined(__OO_BCC1__)) || (defined(__OO_BCC2__)) || (defined(__OO_ECC1__)) \
  97:Generated_Source\PSoC5/ErikaOS_1_common_ee_irqstub.inc ****   || (defined(__OO_ECC2__)) || (defined(__AS_SC4__))
  98:Generated_Source\PSoC5/ErikaOS_1_common_ee_irqstub.inc **** /* Function to be called at the end of a function service interrupt, to execute
  99:Generated_Source\PSoC5/ErikaOS_1_common_ee_irqstub.inc ****    clean-up specifiend in Autosar standard */
 100:Generated_Source\PSoC5/ErikaOS_1_common_ee_irqstub.inc **** __INLINE__ void  EE_std_end_IRQ_post_stub(void)
 101:Generated_Source\PSoC5/ErikaOS_1_common_ee_irqstub.inc **** {
 102:Generated_Source\PSoC5/ErikaOS_1_common_ee_irqstub.inc ****   EE_IRQ_end_post_stub();
 207              		.loc 3 102 0 discriminator 3
 208 006a FFF7FEFF 		bl	EE_IRQ_end_post_stub
 209              	.LVL16:
 210              	.LBE97:
 211              	.LBE96:
 212              	.LBB98:
 213              	.LBB99:
  84:Generated_Source\PSoC5/ErikaOS_1_common_ee_irqstub.inc **** __INLINE__ void  EE_increment_IRQ_nesting_level(void) { ++EE_IRQ_nesting_level; }
 214              		.loc 3 84 0 discriminator 3
 215 006e 094A     		ldr	r2, .L9+8
 216 0070 1368     		ldr	r3, [r2]
 217 0072 013B     		subs	r3, r3, #1
 218 0074 1360     		str	r3, [r2]
 219              	.LBE99:
 220              	.LBE98:
ARM GAS  C:\Users\robom\AppData\Local\Temp\ccW2R9Ts.s 			page 14


  26:source\asw/main.c **** {
 221              		.loc 1 26 0 discriminator 3
 222 0076 1BB9     		cbnz	r3, .L7
  26:source\asw/main.c **** {
 223              		.loc 1 26 0 is_stmt 0 discriminator 4
 224 0078 FFF7FEFF 		bl	EE_cortex_mx_change_IRQ_stack_back
 225              	.LVL17:
 226              	.LBB100:
 227              	.LBB101:
 228              		.file 4 "Generated_Source\\PSoC5/ErikaOS_1_cortex_mx_ee_irq_cng_cont.inc"
   1:Generated_Source\PSoC5/ErikaOS_1_cortex_mx_ee_irq_cng_cont.inc **** /* ###*B*###
   2:Generated_Source\PSoC5/ErikaOS_1_cortex_mx_ee_irq_cng_cont.inc ****  * ERIKA Enterprise - a tiny RTOS for small microcontrollers
   3:Generated_Source\PSoC5/ErikaOS_1_cortex_mx_ee_irq_cng_cont.inc ****  *
   4:Generated_Source\PSoC5/ErikaOS_1_cortex_mx_ee_irq_cng_cont.inc ****  * Copyright (C) 2002-2011  Evidence Srl
   5:Generated_Source\PSoC5/ErikaOS_1_cortex_mx_ee_irq_cng_cont.inc ****  *
   6:Generated_Source\PSoC5/ErikaOS_1_cortex_mx_ee_irq_cng_cont.inc ****  * This file is part of ERIKA Enterprise.
   7:Generated_Source\PSoC5/ErikaOS_1_cortex_mx_ee_irq_cng_cont.inc ****  *
   8:Generated_Source\PSoC5/ErikaOS_1_cortex_mx_ee_irq_cng_cont.inc ****  * ERIKA Enterprise is free software; you can redistribute it
   9:Generated_Source\PSoC5/ErikaOS_1_cortex_mx_ee_irq_cng_cont.inc ****  * and/or modify it under the terms of the GNU General Public License
  10:Generated_Source\PSoC5/ErikaOS_1_cortex_mx_ee_irq_cng_cont.inc ****  * version 2 as published by the Free Software Foundation, 
  11:Generated_Source\PSoC5/ErikaOS_1_cortex_mx_ee_irq_cng_cont.inc ****  * (with a special exception described below).
  12:Generated_Source\PSoC5/ErikaOS_1_cortex_mx_ee_irq_cng_cont.inc ****  *
  13:Generated_Source\PSoC5/ErikaOS_1_cortex_mx_ee_irq_cng_cont.inc ****  * Linking this code statically or dynamically with other modules is
  14:Generated_Source\PSoC5/ErikaOS_1_cortex_mx_ee_irq_cng_cont.inc ****  * making a combined work based on this code.  Thus, the terms and
  15:Generated_Source\PSoC5/ErikaOS_1_cortex_mx_ee_irq_cng_cont.inc ****  * conditions of the GNU General Public License cover the whole
  16:Generated_Source\PSoC5/ErikaOS_1_cortex_mx_ee_irq_cng_cont.inc ****  * combination.
  17:Generated_Source\PSoC5/ErikaOS_1_cortex_mx_ee_irq_cng_cont.inc ****  *
  18:Generated_Source\PSoC5/ErikaOS_1_cortex_mx_ee_irq_cng_cont.inc ****  * As a special exception, the copyright holders of this library give you
  19:Generated_Source\PSoC5/ErikaOS_1_cortex_mx_ee_irq_cng_cont.inc ****  * permission to link this code with independent modules to produce an
  20:Generated_Source\PSoC5/ErikaOS_1_cortex_mx_ee_irq_cng_cont.inc ****  * executable, regardless of the license terms of these independent
  21:Generated_Source\PSoC5/ErikaOS_1_cortex_mx_ee_irq_cng_cont.inc ****  * modules, and to copy and distribute the resulting executable under
  22:Generated_Source\PSoC5/ErikaOS_1_cortex_mx_ee_irq_cng_cont.inc ****  * terms of your choice, provided that you also meet, for each linked
  23:Generated_Source\PSoC5/ErikaOS_1_cortex_mx_ee_irq_cng_cont.inc ****  * independent module, the terms and conditions of the license of that
  24:Generated_Source\PSoC5/ErikaOS_1_cortex_mx_ee_irq_cng_cont.inc ****  * module.  An independent module is a module which is not derived from
  25:Generated_Source\PSoC5/ErikaOS_1_cortex_mx_ee_irq_cng_cont.inc ****  * or based on this library.  If you modify this code, you may extend
  26:Generated_Source\PSoC5/ErikaOS_1_cortex_mx_ee_irq_cng_cont.inc ****  * this exception to your version of the code, but you are not
  27:Generated_Source\PSoC5/ErikaOS_1_cortex_mx_ee_irq_cng_cont.inc ****  * obligated to do so.  If you do not wish to do so, delete this
  28:Generated_Source\PSoC5/ErikaOS_1_cortex_mx_ee_irq_cng_cont.inc ****  * exception statement from your version.
  29:Generated_Source\PSoC5/ErikaOS_1_cortex_mx_ee_irq_cng_cont.inc ****  *
  30:Generated_Source\PSoC5/ErikaOS_1_cortex_mx_ee_irq_cng_cont.inc ****  * ERIKA Enterprise is distributed in the hope that it will be
  31:Generated_Source\PSoC5/ErikaOS_1_cortex_mx_ee_irq_cng_cont.inc ****  * useful, but WITHOUT ANY WARRANTY; without even the implied warranty
  32:Generated_Source\PSoC5/ErikaOS_1_cortex_mx_ee_irq_cng_cont.inc ****  * of MERCHANTABILITY or FITNESS FOR A PARTICULAR PURPOSE.  See the
  33:Generated_Source\PSoC5/ErikaOS_1_cortex_mx_ee_irq_cng_cont.inc ****  * GNU General Public License version 2 for more details.
  34:Generated_Source\PSoC5/ErikaOS_1_cortex_mx_ee_irq_cng_cont.inc ****  *
  35:Generated_Source\PSoC5/ErikaOS_1_cortex_mx_ee_irq_cng_cont.inc ****  * You should have received a copy of the GNU General Public License
  36:Generated_Source\PSoC5/ErikaOS_1_cortex_mx_ee_irq_cng_cont.inc ****  * version 2 along with ERIKA Enterprise; if not, write to the
  37:Generated_Source\PSoC5/ErikaOS_1_cortex_mx_ee_irq_cng_cont.inc ****  * Free Software Foundation, Inc., 51 Franklin Street, Fifth Floor,
  38:Generated_Source\PSoC5/ErikaOS_1_cortex_mx_ee_irq_cng_cont.inc ****  * Boston, MA 02110-1301 USA.
  39:Generated_Source\PSoC5/ErikaOS_1_cortex_mx_ee_irq_cng_cont.inc ****  * ###*E*### */
  40:Generated_Source\PSoC5/ErikaOS_1_cortex_mx_ee_irq_cng_cont.inc **** 
  41:Generated_Source\PSoC5/ErikaOS_1_cortex_mx_ee_irq_cng_cont.inc ****  /** 
  42:Generated_Source\PSoC5/ErikaOS_1_cortex_mx_ee_irq_cng_cont.inc **** 	
  43:Generated_Source\PSoC5/ErikaOS_1_cortex_mx_ee_irq_cng_cont.inc **** 	@file	ee_irq_cng_cont.h
  44:Generated_Source\PSoC5/ErikaOS_1_cortex_mx_ee_irq_cng_cont.inc **** 	@brief	Function active the context change interrupt
  45:Generated_Source\PSoC5/ErikaOS_1_cortex_mx_ee_irq_cng_cont.inc **** 	@author	Gianluca Franchino
  46:Generated_Source\PSoC5/ErikaOS_1_cortex_mx_ee_irq_cng_cont.inc **** 	@author	Giuseppe Serano
  47:Generated_Source\PSoC5/ErikaOS_1_cortex_mx_ee_irq_cng_cont.inc **** 	@date	2012
ARM GAS  C:\Users\robom\AppData\Local\Temp\ccW2R9Ts.s 			page 15


  48:Generated_Source\PSoC5/ErikaOS_1_cortex_mx_ee_irq_cng_cont.inc **** */ 
  49:Generated_Source\PSoC5/ErikaOS_1_cortex_mx_ee_irq_cng_cont.inc ****     
  50:Generated_Source\PSoC5/ErikaOS_1_cortex_mx_ee_irq_cng_cont.inc **** /*
  51:Generated_Source\PSoC5/ErikaOS_1_cortex_mx_ee_irq_cng_cont.inc ****  * PSoC Port and API Generation
  52:Generated_Source\PSoC5/ErikaOS_1_cortex_mx_ee_irq_cng_cont.inc ****  * Carlos Fernando Meier Martinez
  53:Generated_Source\PSoC5/ErikaOS_1_cortex_mx_ee_irq_cng_cont.inc ****  * Hochschule Darmstadt, Germany. 2017.
  54:Generated_Source\PSoC5/ErikaOS_1_cortex_mx_ee_irq_cng_cont.inc ****  */
  55:Generated_Source\PSoC5/ErikaOS_1_cortex_mx_ee_irq_cng_cont.inc **** 
  56:Generated_Source\PSoC5/ErikaOS_1_cortex_mx_ee_irq_cng_cont.inc **** #ifndef __INCLUDE_CORTEX_MX_IRQ_CNG_CONTEXT_H__
  57:Generated_Source\PSoC5/ErikaOS_1_cortex_mx_ee_irq_cng_cont.inc **** #define __INCLUDE_CORTEX_MX_IRQ_CNG_CONTEXT_H__
  58:Generated_Source\PSoC5/ErikaOS_1_cortex_mx_ee_irq_cng_cont.inc **** 
  59:Generated_Source\PSoC5/ErikaOS_1_cortex_mx_ee_irq_cng_cont.inc **** #ifdef __GNU__
  60:Generated_Source\PSoC5/ErikaOS_1_cortex_mx_ee_irq_cng_cont.inc **** #include "ErikaOS_1_common_ee_compiler_gcc.inc"
  61:Generated_Source\PSoC5/ErikaOS_1_cortex_mx_ee_irq_cng_cont.inc **** #endif
  62:Generated_Source\PSoC5/ErikaOS_1_cortex_mx_ee_irq_cng_cont.inc **** 
  63:Generated_Source\PSoC5/ErikaOS_1_cortex_mx_ee_irq_cng_cont.inc **** /* Implemented in ee_<compiler>_change_context_isr.s */
  64:Generated_Source\PSoC5/ErikaOS_1_cortex_mx_ee_irq_cng_cont.inc **** extern void EE_switch_context(void);
  65:Generated_Source\PSoC5/ErikaOS_1_cortex_mx_ee_irq_cng_cont.inc **** 
  66:Generated_Source\PSoC5/ErikaOS_1_cortex_mx_ee_irq_cng_cont.inc **** __INLINE__ void  EE_cortex_mx_IRQ_active_change_context(void)
  67:Generated_Source\PSoC5/ErikaOS_1_cortex_mx_ee_irq_cng_cont.inc **** {
  68:Generated_Source\PSoC5/ErikaOS_1_cortex_mx_ee_irq_cng_cont.inc **** 	EE_switch_context();
 229              		.loc 4 68 0 is_stmt 1 discriminator 4
 230 007c FFF7FEFF 		bl	EE_switch_context
 231              	.LVL18:
 232              	.L7:
 233              	.LBE101:
 234              	.LBE100:
 235              	.LBB102:
 236              	.LBB103:
 191:Generated_Source\PSoC5/ErikaOS_1_cortex_mx_ee_cpu.inc **** #endif	/* !__KEIL__ */
 237              		.loc 2 191 0 discriminator 6
 238              		.syntax unified
 239              	@ 191 "Generated_Source\PSoC5/ErikaOS_1_cortex_mx_ee_cpu.inc" 1
 240 0080 62B6     		cpsie i
 241              	@ 0 "" 2
 242              		.thumb
 243              		.syntax unified
 244              	.LBE103:
 245              	.LBE102:
  26:source\asw/main.c **** {
 246              		.loc 1 26 0 discriminator 6
 247 0082 BDE81940 		pop	{r0, r3, r4, lr}
 248              		.cfi_restore 14
 249              		.cfi_restore 4
 250              		.cfi_restore 3
 251              		.cfi_restore 0
 252              		.cfi_def_cfa_offset 0
 253 0086 8546     		mov	sp, r0
 254 0088 7047     		bx	lr
 255              	.L10:
 256 008a 00BF     		.align	2
 257              	.L9:
 258 008c 04ED00E0 		.word	-536810236
 259 0090 20ED00E0 		.word	-536810208
 260 0094 00000000 		.word	EE_IRQ_nesting_level
 261              		.cfi_endproc
 262              	.LFE111:
ARM GAS  C:\Users\robom\AppData\Local\Temp\ccW2R9Ts.s 			page 16


 263              		.size	systick_handler, .-systick_handler
 264              		.section	.text.main,"ax",%progbits
 265              		.align	2
 266              		.global	main
 267              		.thumb
 268              		.thumb_func
 269              		.type	main, %function
 270              	main:
 271              	.LFB113:
  29:source\asw/main.c **** }
  30:source\asw/main.c **** 
  31:source\asw/main.c **** int main()
  32:source\asw/main.c **** {
 272              		.loc 1 32 0
 273              		.cfi_startproc
 274              		@ Volatile: function does not return.
 275              		@ args = 0, pretend = 0, frame = 0
 276              		@ frame_needed = 0, uses_anonymous_args = 0
 277 0000 08B5     		push	{r3, lr}
 278              		.cfi_def_cfa_offset 8
 279              		.cfi_offset 3, -8
 280              		.cfi_offset 14, -4
  33:source\asw/main.c ****     CyGlobalIntEnable; /* Enable global interrupts. */
 281              		.loc 1 33 0
 282              		.syntax unified
 283              	@ 33 "source\asw\main.c" 1
 284 0002 62B6     		CPSIE   i
 285              	@ 0 "" 2
 286              	.LVL19:
 287              		.thumb
 288              		.syntax unified
 289              	.LBB104:
 290              	.LBB105:
 291              		.file 5 "Generated_Source\\PSoC5/ErikaOS_1_cortex_mx_ee_systick.inc"
   1:Generated_Source\PSoC5/ErikaOS_1_cortex_mx_ee_systick.inc **** /* ###*B*###
   2:Generated_Source\PSoC5/ErikaOS_1_cortex_mx_ee_systick.inc ****  * ERIKA Enterprise - a tiny RTOS for small microcontrollers
   3:Generated_Source\PSoC5/ErikaOS_1_cortex_mx_ee_systick.inc ****  *
   4:Generated_Source\PSoC5/ErikaOS_1_cortex_mx_ee_systick.inc ****  * Copyright (C) 2002-2012  Evidence Srl
   5:Generated_Source\PSoC5/ErikaOS_1_cortex_mx_ee_systick.inc ****  *
   6:Generated_Source\PSoC5/ErikaOS_1_cortex_mx_ee_systick.inc ****  * This file is part of ERIKA Enterprise.
   7:Generated_Source\PSoC5/ErikaOS_1_cortex_mx_ee_systick.inc ****  *
   8:Generated_Source\PSoC5/ErikaOS_1_cortex_mx_ee_systick.inc ****  * ERIKA Enterprise is free software; you can redistribute it
   9:Generated_Source\PSoC5/ErikaOS_1_cortex_mx_ee_systick.inc ****  * and/or modify it under the terms of the GNU General Public License
  10:Generated_Source\PSoC5/ErikaOS_1_cortex_mx_ee_systick.inc ****  * version 2 as published by the Free Software Foundation,
  11:Generated_Source\PSoC5/ErikaOS_1_cortex_mx_ee_systick.inc ****  * (with a special exception described below).
  12:Generated_Source\PSoC5/ErikaOS_1_cortex_mx_ee_systick.inc ****  *
  13:Generated_Source\PSoC5/ErikaOS_1_cortex_mx_ee_systick.inc ****  * Linking this code statically or dynamically with other modules is
  14:Generated_Source\PSoC5/ErikaOS_1_cortex_mx_ee_systick.inc ****  * making a combined work based on this code.  Thus, the terms and
  15:Generated_Source\PSoC5/ErikaOS_1_cortex_mx_ee_systick.inc ****  * conditions of the GNU General Public License cover the whole
  16:Generated_Source\PSoC5/ErikaOS_1_cortex_mx_ee_systick.inc ****  * combination.
  17:Generated_Source\PSoC5/ErikaOS_1_cortex_mx_ee_systick.inc ****  *
  18:Generated_Source\PSoC5/ErikaOS_1_cortex_mx_ee_systick.inc ****  * As a special exception, the copyright holders of this library give you
  19:Generated_Source\PSoC5/ErikaOS_1_cortex_mx_ee_systick.inc ****  * permission to link this code with independent modules to produce an
  20:Generated_Source\PSoC5/ErikaOS_1_cortex_mx_ee_systick.inc ****  * executable, regardless of the license terms of these independent
  21:Generated_Source\PSoC5/ErikaOS_1_cortex_mx_ee_systick.inc ****  * modules, and to copy and distribute the resulting executable under
  22:Generated_Source\PSoC5/ErikaOS_1_cortex_mx_ee_systick.inc ****  * terms of your choice, provided that you also meet, for each linked
  23:Generated_Source\PSoC5/ErikaOS_1_cortex_mx_ee_systick.inc ****  * independent module, the terms and conditions of the license of that
ARM GAS  C:\Users\robom\AppData\Local\Temp\ccW2R9Ts.s 			page 17


  24:Generated_Source\PSoC5/ErikaOS_1_cortex_mx_ee_systick.inc ****  * module.  An independent module is a module which is not derived from
  25:Generated_Source\PSoC5/ErikaOS_1_cortex_mx_ee_systick.inc ****  * or based on this library.  If you modify this code, you may extend
  26:Generated_Source\PSoC5/ErikaOS_1_cortex_mx_ee_systick.inc ****  * this exception to your version of the code, but you are not
  27:Generated_Source\PSoC5/ErikaOS_1_cortex_mx_ee_systick.inc ****  * obligated to do so.  If you do not wish to do so, delete this
  28:Generated_Source\PSoC5/ErikaOS_1_cortex_mx_ee_systick.inc ****  * exception statement from your version.
  29:Generated_Source\PSoC5/ErikaOS_1_cortex_mx_ee_systick.inc ****  *
  30:Generated_Source\PSoC5/ErikaOS_1_cortex_mx_ee_systick.inc ****  * ERIKA Enterprise is distributed in the hope that it will be
  31:Generated_Source\PSoC5/ErikaOS_1_cortex_mx_ee_systick.inc ****  * useful, but WITHOUT ANY WARRANTY; without even the implied warranty
  32:Generated_Source\PSoC5/ErikaOS_1_cortex_mx_ee_systick.inc ****  * of MERCHANTABILITY or FITNESS FOR A PARTICULAR PURPOSE.  See the
  33:Generated_Source\PSoC5/ErikaOS_1_cortex_mx_ee_systick.inc ****  * GNU General Public License version 2 for more details.
  34:Generated_Source\PSoC5/ErikaOS_1_cortex_mx_ee_systick.inc ****  *
  35:Generated_Source\PSoC5/ErikaOS_1_cortex_mx_ee_systick.inc ****  * You should have received a copy of the GNU General Public License
  36:Generated_Source\PSoC5/ErikaOS_1_cortex_mx_ee_systick.inc ****  * version 2 along with ERIKA Enterprise; if not, write to the
  37:Generated_Source\PSoC5/ErikaOS_1_cortex_mx_ee_systick.inc ****  * Free Software Foundation, Inc., 51 Franklin Street, Fifth Floor,
  38:Generated_Source\PSoC5/ErikaOS_1_cortex_mx_ee_systick.inc ****  * Boston, MA 02110-1301 USA.
  39:Generated_Source\PSoC5/ErikaOS_1_cortex_mx_ee_systick.inc ****  * ###*E*### */
  40:Generated_Source\PSoC5/ErikaOS_1_cortex_mx_ee_systick.inc **** 
  41:Generated_Source\PSoC5/ErikaOS_1_cortex_mx_ee_systick.inc **** /**
  42:Generated_Source\PSoC5/ErikaOS_1_cortex_mx_ee_systick.inc ****     @file	ee_systick.h
  43:Generated_Source\PSoC5/ErikaOS_1_cortex_mx_ee_systick.inc ****     @brief	SysTick system timer driver header file.
  44:Generated_Source\PSoC5/ErikaOS_1_cortex_mx_ee_systick.inc ****     @author	Giuseppe Serano
  45:Generated_Source\PSoC5/ErikaOS_1_cortex_mx_ee_systick.inc ****     @date	2012
  46:Generated_Source\PSoC5/ErikaOS_1_cortex_mx_ee_systick.inc **** 
  47:Generated_Source\PSoC5/ErikaOS_1_cortex_mx_ee_systick.inc **** **/
  48:Generated_Source\PSoC5/ErikaOS_1_cortex_mx_ee_systick.inc **** 
  49:Generated_Source\PSoC5/ErikaOS_1_cortex_mx_ee_systick.inc **** /*
  50:Generated_Source\PSoC5/ErikaOS_1_cortex_mx_ee_systick.inc ****  * PSoC Port and API Generation
  51:Generated_Source\PSoC5/ErikaOS_1_cortex_mx_ee_systick.inc ****  * Carlos Fernando Meier Martinez
  52:Generated_Source\PSoC5/ErikaOS_1_cortex_mx_ee_systick.inc ****  * Hochschule Darmstadt, Germany. 2017.
  53:Generated_Source\PSoC5/ErikaOS_1_cortex_mx_ee_systick.inc ****  */
  54:Generated_Source\PSoC5/ErikaOS_1_cortex_mx_ee_systick.inc **** 
  55:Generated_Source\PSoC5/ErikaOS_1_cortex_mx_ee_systick.inc **** #ifndef	__INCLUDE_CORTEX_MX_SYSTICK_H__
  56:Generated_Source\PSoC5/ErikaOS_1_cortex_mx_ee_systick.inc **** #define	__INCLUDE_CORTEX_MX_SYSTICK_H__
  57:Generated_Source\PSoC5/ErikaOS_1_cortex_mx_ee_systick.inc **** 
  58:Generated_Source\PSoC5/ErikaOS_1_cortex_mx_ee_systick.inc **** #ifdef	__USE_SYSTICK__
  59:Generated_Source\PSoC5/ErikaOS_1_cortex_mx_ee_systick.inc **** 
  60:Generated_Source\PSoC5/ErikaOS_1_cortex_mx_ee_systick.inc **** /** error value. No errors happened **/
  61:Generated_Source\PSoC5/ErikaOS_1_cortex_mx_ee_systick.inc **** #define	EE_SYSTICK_NO_ERRORS	0
  62:Generated_Source\PSoC5/ErikaOS_1_cortex_mx_ee_systick.inc **** /** error value. Wrong funtion arguments values **/
  63:Generated_Source\PSoC5/ErikaOS_1_cortex_mx_ee_systick.inc **** #define	EE_SYSTICK_ERR_BAD_ARGS	1
  64:Generated_Source\PSoC5/ErikaOS_1_cortex_mx_ee_systick.inc **** 
  65:Generated_Source\PSoC5/ErikaOS_1_cortex_mx_ee_systick.inc **** /**
  66:Generated_Source\PSoC5/ErikaOS_1_cortex_mx_ee_systick.inc ****     @brief Start SysTick.
  67:Generated_Source\PSoC5/ErikaOS_1_cortex_mx_ee_systick.inc **** 
  68:Generated_Source\PSoC5/ErikaOS_1_cortex_mx_ee_systick.inc ****     This will start the SysTick counter.  If an ISR has been defined, it is
  69:Generated_Source\PSoC5/ErikaOS_1_cortex_mx_ee_systick.inc ****     called when the SysTick counter rolls over.
  70:Generated_Source\PSoC5/ErikaOS_1_cortex_mx_ee_systick.inc **** 
  71:Generated_Source\PSoC5/ErikaOS_1_cortex_mx_ee_systick.inc ****     @note Calling this function will cause the SysTick counter to (re)commence
  72:Generated_Source\PSoC5/ErikaOS_1_cortex_mx_ee_systick.inc ****     counting from its current value.  The counter is not automatically reloaded
  73:Generated_Source\PSoC5/ErikaOS_1_cortex_mx_ee_systick.inc ****     with the period as specified in a previous call to EE_systick_set_period().
  74:Generated_Source\PSoC5/ErikaOS_1_cortex_mx_ee_systick.inc ****     If an immediate reload is required, the \b NVIC_ST_CURRENT register must be
  75:Generated_Source\PSoC5/ErikaOS_1_cortex_mx_ee_systick.inc ****     written to force this.  Any write to this register clears the SysTick
  76:Generated_Source\PSoC5/ErikaOS_1_cortex_mx_ee_systick.inc ****     counter to 0 and will cause a reload with the supplied period on the next
  77:Generated_Source\PSoC5/ErikaOS_1_cortex_mx_ee_systick.inc ****     clock.
  78:Generated_Source\PSoC5/ErikaOS_1_cortex_mx_ee_systick.inc ****  */
  79:Generated_Source\PSoC5/ErikaOS_1_cortex_mx_ee_systick.inc **** __INLINE__ void  EE_systick_start(void)
  80:Generated_Source\PSoC5/ErikaOS_1_cortex_mx_ee_systick.inc **** {
ARM GAS  C:\Users\robom\AppData\Local\Temp\ccW2R9Ts.s 			page 18


  81:Generated_Source\PSoC5/ErikaOS_1_cortex_mx_ee_systick.inc ****   NVIC_ST_CTRL_R |= NVIC_ST_CTRL_CLK_SRC | NVIC_ST_CTRL_ENABLE;
  82:Generated_Source\PSoC5/ErikaOS_1_cortex_mx_ee_systick.inc **** }
  83:Generated_Source\PSoC5/ErikaOS_1_cortex_mx_ee_systick.inc **** 
  84:Generated_Source\PSoC5/ErikaOS_1_cortex_mx_ee_systick.inc **** /**
  85:Generated_Source\PSoC5/ErikaOS_1_cortex_mx_ee_systick.inc ****     @brief Stop SysTick.
  86:Generated_Source\PSoC5/ErikaOS_1_cortex_mx_ee_systick.inc **** 
  87:Generated_Source\PSoC5/ErikaOS_1_cortex_mx_ee_systick.inc ****     This will stop the SysTick counter.  If an ISR has been defined, it will
  88:Generated_Source\PSoC5/ErikaOS_1_cortex_mx_ee_systick.inc ****     no longer be called until SysTick is restarted.
  89:Generated_Source\PSoC5/ErikaOS_1_cortex_mx_ee_systick.inc **** */
  90:Generated_Source\PSoC5/ErikaOS_1_cortex_mx_ee_systick.inc **** __INLINE__ void  EE_systick_stop(void)
  91:Generated_Source\PSoC5/ErikaOS_1_cortex_mx_ee_systick.inc **** {
  92:Generated_Source\PSoC5/ErikaOS_1_cortex_mx_ee_systick.inc ****   NVIC_ST_CTRL_R &= ~(NVIC_ST_CTRL_ENABLE);
  93:Generated_Source\PSoC5/ErikaOS_1_cortex_mx_ee_systick.inc **** }
  94:Generated_Source\PSoC5/ErikaOS_1_cortex_mx_ee_systick.inc **** 
  95:Generated_Source\PSoC5/ErikaOS_1_cortex_mx_ee_systick.inc **** /**
  96:Generated_Source\PSoC5/ErikaOS_1_cortex_mx_ee_systick.inc ****     @brief Enables the SysTick interrupt.
  97:Generated_Source\PSoC5/ErikaOS_1_cortex_mx_ee_systick.inc **** 
  98:Generated_Source\PSoC5/ErikaOS_1_cortex_mx_ee_systick.inc ****     This function will enable the SysTick interrupt, allowing it to be
  99:Generated_Source\PSoC5/ErikaOS_1_cortex_mx_ee_systick.inc ****     reflected to the processor.
 100:Generated_Source\PSoC5/ErikaOS_1_cortex_mx_ee_systick.inc **** 
 101:Generated_Source\PSoC5/ErikaOS_1_cortex_mx_ee_systick.inc ****     @note The SysTick ISR does not need to clear the SysTick interrupt source as
 102:Generated_Source\PSoC5/ErikaOS_1_cortex_mx_ee_systick.inc ****     this is done automatically by NVIC when the interrupt ISR is called.
 103:Generated_Source\PSoC5/ErikaOS_1_cortex_mx_ee_systick.inc ****  */
 104:Generated_Source\PSoC5/ErikaOS_1_cortex_mx_ee_systick.inc **** __INLINE__ void  EE_systick_enable_int()
 105:Generated_Source\PSoC5/ErikaOS_1_cortex_mx_ee_systick.inc **** {
 106:Generated_Source\PSoC5/ErikaOS_1_cortex_mx_ee_systick.inc ****   NVIC_ST_CTRL_R |= NVIC_ST_CTRL_INTEN;
 107:Generated_Source\PSoC5/ErikaOS_1_cortex_mx_ee_systick.inc **** }
 108:Generated_Source\PSoC5/ErikaOS_1_cortex_mx_ee_systick.inc **** 
 109:Generated_Source\PSoC5/ErikaOS_1_cortex_mx_ee_systick.inc **** /**
 110:Generated_Source\PSoC5/ErikaOS_1_cortex_mx_ee_systick.inc ****     @brief Disables the SysTick interrupt.
 111:Generated_Source\PSoC5/ErikaOS_1_cortex_mx_ee_systick.inc **** 
 112:Generated_Source\PSoC5/ErikaOS_1_cortex_mx_ee_systick.inc ****     This function will disable the SysTick interrupt, preventing it from being
 113:Generated_Source\PSoC5/ErikaOS_1_cortex_mx_ee_systick.inc ****     reflected to the processor.
 114:Generated_Source\PSoC5/ErikaOS_1_cortex_mx_ee_systick.inc ****  */
 115:Generated_Source\PSoC5/ErikaOS_1_cortex_mx_ee_systick.inc **** __INLINE__ void  EE_systick_disable_int()
 116:Generated_Source\PSoC5/ErikaOS_1_cortex_mx_ee_systick.inc **** {
 117:Generated_Source\PSoC5/ErikaOS_1_cortex_mx_ee_systick.inc ****   NVIC_ST_CTRL_R &= ~(NVIC_ST_CTRL_INTEN);
 118:Generated_Source\PSoC5/ErikaOS_1_cortex_mx_ee_systick.inc **** }
 119:Generated_Source\PSoC5/ErikaOS_1_cortex_mx_ee_systick.inc **** 
 120:Generated_Source\PSoC5/ErikaOS_1_cortex_mx_ee_systick.inc **** /**
 121:Generated_Source\PSoC5/ErikaOS_1_cortex_mx_ee_systick.inc ****     @brief Sets the period of the SysTick counter.
 122:Generated_Source\PSoC5/ErikaOS_1_cortex_mx_ee_systick.inc **** 
 123:Generated_Source\PSoC5/ErikaOS_1_cortex_mx_ee_systick.inc ****     @param period is the number of clock ticks in each period of the SysTick
 124:Generated_Source\PSoC5/ErikaOS_1_cortex_mx_ee_systick.inc ****     counter; must be between 1 and 16,777,216, inclusive. If the \e period is
 125:Generated_Source\PSoC5/ErikaOS_1_cortex_mx_ee_systick.inc ****     out of range the function returns \b EE_SYSTICK_ERR_BAD_ARGS, else it will
 126:Generated_Source\PSoC5/ErikaOS_1_cortex_mx_ee_systick.inc ****     returns \b EE_SYSTICK_NO_ERRORS.
 127:Generated_Source\PSoC5/ErikaOS_1_cortex_mx_ee_systick.inc **** 
 128:Generated_Source\PSoC5/ErikaOS_1_cortex_mx_ee_systick.inc ****     This function sets the rate at which the SysTick counter wraps; this
 129:Generated_Source\PSoC5/ErikaOS_1_cortex_mx_ee_systick.inc ****     equates to the number of processor clocks between interrupts.
 130:Generated_Source\PSoC5/ErikaOS_1_cortex_mx_ee_systick.inc **** 
 131:Generated_Source\PSoC5/ErikaOS_1_cortex_mx_ee_systick.inc ****     @note Calling this function does not cause the SysTick counter to reload
 132:Generated_Source\PSoC5/ErikaOS_1_cortex_mx_ee_systick.inc ****     immediately.  If an immediate reload is required, the \b NVIC_ST_CURRENT
 133:Generated_Source\PSoC5/ErikaOS_1_cortex_mx_ee_systick.inc ****     register must be written.  Any write to this register clears the SysTick
 134:Generated_Source\PSoC5/ErikaOS_1_cortex_mx_ee_systick.inc ****     counter to 0 and will cause a reload with the \e period supplied here on
 135:Generated_Source\PSoC5/ErikaOS_1_cortex_mx_ee_systick.inc ****     the next clock after the SysTick is enabled.
 136:Generated_Source\PSoC5/ErikaOS_1_cortex_mx_ee_systick.inc ****  */
 137:Generated_Source\PSoC5/ErikaOS_1_cortex_mx_ee_systick.inc **** __INLINE__ EE_UREG  EE_systick_set_period(EE_UREG period)
ARM GAS  C:\Users\robom\AppData\Local\Temp\ccW2R9Ts.s 			page 19


 138:Generated_Source\PSoC5/ErikaOS_1_cortex_mx_ee_systick.inc **** {
 139:Generated_Source\PSoC5/ErikaOS_1_cortex_mx_ee_systick.inc ****   if ((period == NVIC_ST_RELOAD_S) || (period > NVIC_ST_RELOAD_M))
 140:Generated_Source\PSoC5/ErikaOS_1_cortex_mx_ee_systick.inc ****     return EE_SYSTICK_ERR_BAD_ARGS;
 141:Generated_Source\PSoC5/ErikaOS_1_cortex_mx_ee_systick.inc **** 
 142:Generated_Source\PSoC5/ErikaOS_1_cortex_mx_ee_systick.inc ****   NVIC_ST_RELOAD_R = period - 1;
 292              		.loc 5 142 0
 293 0004 054A     		ldr	r2, .L14
 294 0006 064B     		ldr	r3, .L14+4
 295 0008 1A60     		str	r2, [r3]
 296              	.LVL20:
 297              	.LBE105:
 298              	.LBE104:
 299              	.LBB106:
 300              	.LBB107:
 106:Generated_Source\PSoC5/ErikaOS_1_cortex_mx_ee_systick.inc **** }
 301              		.loc 5 106 0
 302 000a 064A     		ldr	r2, .L14+8
 303 000c 1368     		ldr	r3, [r2]
 304 000e 43F00203 		orr	r3, r3, #2
 305 0012 1360     		str	r3, [r2]
 306              	.L12:
 307              	.LBE107:
 308              	.LBE106:
  34:source\asw/main.c ****    
  35:source\asw/main.c ****     //Set systick period to 1 ms. Enable the INT and start it.
  36:source\asw/main.c **** 	EE_systick_set_period(MILLISECONDS_TO_TICKS(1, BCLK__BUS_CLK__HZ));
  37:source\asw/main.c **** 	EE_systick_enable_int();
  38:source\asw/main.c ****    
  39:source\asw/main.c ****     // Start Operating System
  40:source\asw/main.c ****     for(;;)	    
  41:source\asw/main.c ****     	StartOS(OSDEFAULTAPPMODE);
 309              		.loc 1 41 0 discriminator 1
 310 0014 0020     		movs	r0, #0
 311 0016 FFF7FEFF 		bl	EE_oo_StartOS
 312              	.LVL21:
 313 001a FBE7     		b	.L12
 314              	.L15:
 315              		.align	2
 316              	.L14:
 317 001c 3F190100 		.word	71999
 318 0020 14E000E0 		.word	-536813548
 319 0024 10E000E0 		.word	-536813552
 320              		.cfi_endproc
 321              	.LFE113:
 322              		.size	main, .-main
 323              		.section	.text.unhandledException,"ax",%progbits
 324              		.align	2
 325              		.global	unhandledException
 326              		.thumb
 327              		.thumb_func
 328              		.type	unhandledException, %function
 329              	unhandledException:
 330              	.LFB114:
  42:source\asw/main.c **** }
  43:source\asw/main.c **** 
  44:source\asw/main.c **** void unhandledException()
  45:source\asw/main.c **** {
ARM GAS  C:\Users\robom\AppData\Local\Temp\ccW2R9Ts.s 			page 20


 331              		.loc 1 45 0
 332              		.cfi_startproc
 333              		@ Volatile: function does not return.
 334              		@ args = 0, pretend = 0, frame = 0
 335              		@ frame_needed = 0, uses_anonymous_args = 0
 336 0000 08B5     		push	{r3, lr}
 337              		.cfi_def_cfa_offset 8
 338              		.cfi_offset 3, -8
 339              		.cfi_offset 14, -4
  46:source\asw/main.c ****     //Ooops, something terrible happened....check the call stack to see how we got here...
  47:source\asw/main.c ****     __asm("bkpt");
 340              		.loc 1 47 0
 341              		.syntax unified
 342              	@ 47 "source\asw\main.c" 1
 343 0002 00BE     		bkpt
 344              	@ 0 "" 2
  48:source\asw/main.c ****     ShutdownOS(0);
 345              		.loc 1 48 0
 346              		.thumb
 347              		.syntax unified
 348 0004 0020     		movs	r0, #0
 349 0006 FFF7FEFF 		bl	EE_oo_ShutdownOS
 350              	.LVL22:
 351              	.L17:
 352 000a FEE7     		b	.L17
 353              		.cfi_endproc
 354              	.LFE114:
 355              		.size	unhandledException, .-unhandledException
 356              		.section	.text.Functsk_init,"ax",%progbits
 357              		.align	2
 358              		.global	Functsk_init
 359              		.thumb
 360              		.thumb_func
 361              		.type	Functsk_init, %function
 362              	Functsk_init:
 363              	.LFB115:
  49:source\asw/main.c ****     while(1)
  50:source\asw/main.c ****     {
  51:source\asw/main.c ****     }
  52:source\asw/main.c **** }
  53:source\asw/main.c **** 
  54:source\asw/main.c **** /********************************************************************************
  55:source\asw/main.c ****  * Task Definitions
  56:source\asw/main.c ****  ********************************************************************************/
  57:source\asw/main.c **** 
  58:source\asw/main.c **** /** TASK tsk_init
  59:source\asw/main.c ****  * initializes the UART, LEDs, JOYSTICK, Seven Segment Display and TFT
  60:source\asw/main.c ****  * it also activates the extended tasks and displays a
  61:source\asw/main.c ****  * welcome message to the user through UART
  62:source\asw/main.c ****  * this task is automatically started when the OS is started in the main function
  63:source\asw/main.c ****  */
  64:source\asw/main.c **** TASK(tsk_init)
  65:source\asw/main.c **** {
 364              		.loc 1 65 0
 365              		.cfi_startproc
 366              		@ args = 0, pretend = 0, frame = 0
 367              		@ frame_needed = 0, uses_anonymous_args = 0
ARM GAS  C:\Users\robom\AppData\Local\Temp\ccW2R9Ts.s 			page 21


 368 0000 08B5     		push	{r3, lr}
 369              		.cfi_def_cfa_offset 8
 370              		.cfi_offset 3, -8
 371              		.cfi_offset 14, -4
  66:source\asw/main.c ****     //Init MCAL Drivers (uncomment accordinly)
  67:source\asw/main.c ****     
  68:source\asw/main.c ****     UART_LOG_Start();
 372              		.loc 1 68 0
 373 0002 FFF7FEFF 		bl	UART_LOG_Start
 374              	.LVL23:
  69:source\asw/main.c ****     LED_Init();
 375              		.loc 1 69 0
 376 0006 FFF7FEFF 		bl	LED_Init
 377              	.LVL24:
  70:source\asw/main.c **** //    SEVEN_Init();
  71:source\asw/main.c **** //    JOYSTICK_Init();
  72:source\asw/main.c **** //    TFT_init();
  73:source\asw/main.c **** 
  74:source\asw/main.c ****     //Reconfigure ISRs with OS parameters.
  75:source\asw/main.c ****     //This line MUST be called after the hardware driver initialisation!
  76:source\asw/main.c ****     EE_system_init();
 378              		.loc 1 76 0
 379 000a FFF7FEFF 		bl	EE_system_init
 380              	.LVL25:
 381              	.LBB108:
 382              	.LBB109:
  81:Generated_Source\PSoC5/ErikaOS_1_cortex_mx_ee_systick.inc **** }
 383              		.loc 5 81 0
 384 000e 094A     		ldr	r2, .L21
 385 0010 1368     		ldr	r3, [r2]
 386 0012 43F00503 		orr	r3, r3, #5
 387 0016 1360     		str	r3, [r2]
 388              	.LBE109:
 389              	.LBE108:
  77:source\asw/main.c ****     
  78:source\asw/main.c ****     //Start SysTick
  79:source\asw/main.c **** 	//Must be done here, because otherwise the isr vector is not overwritten yet
  80:source\asw/main.c ****     EE_systick_start();  
  81:source\asw/main.c **** 	
  82:source\asw/main.c ****     //Activate alarms
  83:source\asw/main.c ****     //SetRelAlarm(alrm_SampleAlarm,1,1000); //sample alarm being triggered every second (change as 
  84:source\asw/main.c ****     
  85:source\asw/main.c ****     //Activate extended tasks
  86:source\asw/main.c ****     ActivateTask(tsk_background);
 390              		.loc 1 86 0
 391 0018 0120     		movs	r0, #1
 392 001a FFF7FEFF 		bl	EE_oo_ActivateTask
 393              	.LVL26:
  87:source\asw/main.c ****     ActivateTask(tsk_json);
 394              		.loc 1 87 0
 395 001e 0220     		movs	r0, #2
 396 0020 FFF7FEFF 		bl	EE_oo_ActivateTask
 397              	.LVL27:
  88:source\asw/main.c ****     
  89:source\asw/main.c ****     
  90:source\asw/main.c ****     ringbuffer_init(&rb,uint8_t_MAX);
 398              		.loc 1 90 0
ARM GAS  C:\Users\robom\AppData\Local\Temp\ccW2R9Ts.s 			page 22


 399 0024 FF21     		movs	r1, #255
 400 0026 0448     		ldr	r0, .L21+4
 401 0028 FFF7FEFF 		bl	ringbuffer_init
 402              	.LVL28:
  91:source\asw/main.c ****     
  92:source\asw/main.c ****     TerminateTask();
 403              		.loc 1 92 0
 404 002c FFF7FEFF 		bl	EE_oo_TerminateTask
 405              	.LVL29:
 406 0030 08BD     		pop	{r3, pc}
 407              	.L22:
 408 0032 00BF     		.align	2
 409              	.L21:
 410 0034 10E000E0 		.word	-536813552
 411 0038 00000000 		.word	rb
 412              		.cfi_endproc
 413              	.LFE115:
 414              		.size	Functsk_init, .-Functsk_init
 415              		.section	.text.Functsk_background,"ax",%progbits
 416              		.align	2
 417              		.global	Functsk_background
 418              		.thumb
 419              		.thumb_func
 420              		.type	Functsk_background, %function
 421              	Functsk_background:
 422              	.LFB116:
  93:source\asw/main.c **** }
  94:source\asw/main.c **** 
  95:source\asw/main.c **** /** TASK tsk_background
  96:source\asw/main.c ****  * low priority task with a nop command
  97:source\asw/main.c ****  */
  98:source\asw/main.c **** TASK(tsk_background)
  99:source\asw/main.c **** {
 423              		.loc 1 99 0
 424              		.cfi_startproc
 425              		@ Volatile: function does not return.
 426              		@ args = 0, pretend = 0, frame = 0
 427              		@ frame_needed = 0, uses_anonymous_args = 0
 428              		@ link register save eliminated.
 429              	.L24:
 100:source\asw/main.c ****     while(1)
 101:source\asw/main.c ****     {
 102:source\asw/main.c ****         __asm("nop");
 430              		.loc 1 102 0 discriminator 1
 431              		.syntax unified
 432              	@ 102 "source\asw\main.c" 1
 433 0000 00BF     		nop
 434              	@ 0 "" 2
 435              		.thumb
 436              		.syntax unified
 437 0002 FDE7     		b	.L24
 438              		.cfi_endproc
 439              	.LFE116:
 440              		.size	Functsk_background, .-Functsk_background
 441              		.section	.text.Functsk_json,"ax",%progbits
 442              		.align	2
 443              		.global	Functsk_json
ARM GAS  C:\Users\robom\AppData\Local\Temp\ccW2R9Ts.s 			page 23


 444              		.thumb
 445              		.thumb_func
 446              		.type	Functsk_json, %function
 447              	Functsk_json:
 448              	.LFB117:
 103:source\asw/main.c ****     }
 104:source\asw/main.c ****     
 105:source\asw/main.c ****     TerminateTask();
 106:source\asw/main.c **** }
 107:source\asw/main.c **** 
 108:source\asw/main.c **** 
 109:source\asw/main.c **** TASK(tsk_json)
 110:source\asw/main.c **** {
 449              		.loc 1 110 0
 450              		.cfi_startproc
 451              		@ args = 0, pretend = 0, frame = 8
 452              		@ frame_needed = 0, uses_anonymous_args = 0
 453 0000 10B5     		push	{r4, lr}
 454              		.cfi_def_cfa_offset 8
 455              		.cfi_offset 4, -8
 456              		.cfi_offset 14, -4
 457 0002 82B0     		sub	sp, sp, #8
 458              		.cfi_def_cfa_offset 16
 111:source\asw/main.c ****     //tsk json
 112:source\asw/main.c ****     EventMaskType ev = 0;
 459              		.loc 1 112 0
 460 0004 02AC     		add	r4, sp, #8
 461 0006 0023     		movs	r3, #0
 462 0008 44F8043D 		str	r3, [r4, #-4]!
 113:source\asw/main.c ****     WaitEvent(ev_endOfString);
 463              		.loc 1 113 0
 464 000c 0120     		movs	r0, #1
 465 000e FFF7FEFF 		bl	EE_oo_WaitEvent
 466              	.LVL30:
 114:source\asw/main.c ****     GetEvent(tsk_json, &ev);
 467              		.loc 1 114 0
 468 0012 2146     		mov	r1, r4
 469 0014 0220     		movs	r0, #2
 470 0016 FFF7FEFF 		bl	EE_oo_GetEvent
 471              	.LVL31:
 115:source\asw/main.c ****     ClearEvent(ev);
 472              		.loc 1 115 0
 473 001a 0198     		ldr	r0, [sp, #4]
 474 001c FFF7FEFF 		bl	EE_oo_ClearEvent
 475              	.LVL32:
 116:source\asw/main.c **** 
 117:source\asw/main.c ****     uint8_t read;
 118:source\asw/main.c ****     ringbuffer_read(&rb,&read);
 476              		.loc 1 118 0
 477 0020 0DF10301 		add	r1, sp, #3
 478 0024 0848     		ldr	r0, .L27
 479 0026 FFF7FEFF 		bl	ringbuffer_read
 480              	.LVL33:
 119:source\asw/main.c ****     UART_LOG_PutChar('-');
 481              		.loc 1 119 0
 482 002a 2D20     		movs	r0, #45
 483 002c FFF7FEFF 		bl	UART_LOG_PutChar
ARM GAS  C:\Users\robom\AppData\Local\Temp\ccW2R9Ts.s 			page 24


 484              	.LVL34:
 120:source\asw/main.c ****     UART_LOG_PutChar('\n');
 485              		.loc 1 120 0
 486 0030 0A20     		movs	r0, #10
 487 0032 FFF7FEFF 		bl	UART_LOG_PutChar
 488              	.LVL35:
 121:source\asw/main.c ****     UART_LOG_PutChar(read);
 489              		.loc 1 121 0
 490 0036 9DF80300 		ldrb	r0, [sp, #3]	@ zero_extendqisi2
 491 003a FFF7FEFF 		bl	UART_LOG_PutChar
 492              	.LVL36:
 122:source\asw/main.c ****     
 123:source\asw/main.c ****     //TODO FIX output of ^^^ it is not showing in uart properly..must debug
 124:source\asw/main.c **** 
 125:source\asw/main.c ****     TerminateTask();
 493              		.loc 1 125 0
 494 003e FFF7FEFF 		bl	EE_oo_TerminateTask
 495              	.LVL37:
 126:source\asw/main.c **** }
 496              		.loc 1 126 0
 497 0042 02B0     		add	sp, sp, #8
 498              		.cfi_def_cfa_offset 8
 499              		@ sp needed
 500 0044 10BD     		pop	{r4, pc}
 501              	.L28:
 502 0046 00BF     		.align	2
 503              	.L27:
 504 0048 00000000 		.word	rb
 505              		.cfi_endproc
 506              	.LFE117:
 507              		.size	Functsk_json, .-Functsk_json
 508              		.section	.text.ISR2_isr_uart_rx,"ax",%progbits
 509              		.align	2
 510              		.global	ISR2_isr_uart_rx
 511              		.thumb
 512              		.thumb_func
 513              		.type	ISR2_isr_uart_rx, %function
 514              	ISR2_isr_uart_rx:
 515              	.LFB119:
 127:source\asw/main.c **** 
 128:source\asw/main.c **** /********************************************************************************
 129:source\asw/main.c ****  * ISR Definitions
 130:source\asw/main.c ****  ********************************************************************************/
 131:source\asw/main.c **** 
 132:source\asw/main.c **** ISR2(isr_uart_rx)
 133:source\asw/main.c **** {
 516              		.loc 1 133 0
 517              		.cfi_startproc
 518              		@ args = 0, pretend = 0, frame = 0
 519              		@ frame_needed = 0, uses_anonymous_args = 0
 520 0000 10B5     		push	{r4, lr}
 521              		.cfi_def_cfa_offset 8
 522              		.cfi_offset 4, -8
 523              		.cfi_offset 14, -4
 134:source\asw/main.c ****     uint8_t data;
 135:source\asw/main.c ****     while(UART_LOG_GetRxBufferSize() != 0)
 524              		.loc 1 135 0
ARM GAS  C:\Users\robom\AppData\Local\Temp\ccW2R9Ts.s 			page 25


 525 0002 13E0     		b	.L30
 526              	.L33:
 136:source\asw/main.c ****     {
 137:source\asw/main.c **** 
 138:source\asw/main.c ****         data = (uint8_t)UART_LOG_GetByte();
 527              		.loc 1 138 0
 528 0004 FFF7FEFF 		bl	UART_LOG_GetByte
 529              	.LVL38:
 530 0008 C4B2     		uxtb	r4, r0
 531              	.LVL39:
 139:source\asw/main.c ****         //UART_LOG_PutChar(data);
 140:source\asw/main.c ****         if(data == '0')
 532              		.loc 1 140 0
 533 000a 302C     		cmp	r4, #48
 534 000c 07D1     		bne	.L31
 141:source\asw/main.c ****         {
 142:source\asw/main.c ****             LED_Toggle(LED_GREEN);
 535              		.loc 1 142 0
 536 000e 0220     		movs	r0, #2
 537 0010 FFF7FEFF 		bl	LED_Toggle
 538              	.LVL40:
 143:source\asw/main.c ****             SetEvent(tsk_json,ev_endOfString);
 539              		.loc 1 143 0
 540 0014 0121     		movs	r1, #1
 541 0016 0220     		movs	r0, #2
 542 0018 FFF7FEFF 		bl	EE_oo_SetEvent
 543              	.LVL41:
 544 001c 06E0     		b	.L30
 545              	.L31:
 144:source\asw/main.c ****         }
 145:source\asw/main.c ****         else
 146:source\asw/main.c ****         {
 147:source\asw/main.c ****             UART_LOG_PutChar(data);
 546              		.loc 1 147 0
 547 001e 2046     		mov	r0, r4
 548 0020 FFF7FEFF 		bl	UART_LOG_PutChar
 549              	.LVL42:
 148:source\asw/main.c ****             ringbuffer_write(&rb,data);
 550              		.loc 1 148 0
 551 0024 2146     		mov	r1, r4
 552 0026 0448     		ldr	r0, .L35
 553 0028 FFF7FEFF 		bl	ringbuffer_write
 554              	.LVL43:
 555              	.L30:
 135:source\asw/main.c ****     {
 556              		.loc 1 135 0
 557 002c FFF7FEFF 		bl	UART_LOG_GetRxBufferSize
 558              	.LVL44:
 559 0030 0028     		cmp	r0, #0
 560 0032 E7D1     		bne	.L33
 149:source\asw/main.c ****         }
 150:source\asw/main.c ****     }
 151:source\asw/main.c **** }
 561              		.loc 1 151 0
 562 0034 10BD     		pop	{r4, pc}
 563              	.L36:
 564 0036 00BF     		.align	2
ARM GAS  C:\Users\robom\AppData\Local\Temp\ccW2R9Ts.s 			page 26


 565              	.L35:
 566 0038 00000000 		.word	rb
 567              		.cfi_endproc
 568              	.LFE119:
 569              		.size	ISR2_isr_uart_rx, .-ISR2_isr_uart_rx
 570              		.section	.text.isr_uart_rx,"ax",%progbits
 571              		.align	2
 572              		.global	isr_uart_rx
 573              		.thumb
 574              		.thumb_func
 575              		.type	isr_uart_rx, %function
 576              	isr_uart_rx:
 577              	.LFB118:
 132:source\asw/main.c **** {
 578              		.loc 1 132 0
 579              		.cfi_startproc
 580              		@ Stack Align: May be called with mis-aligned SP.
 581              		@ args = 0, pretend = 0, frame = 0
 582              		@ frame_needed = 0, uses_anonymous_args = 0
 583 0000 6846     		mov	r0, sp
 584              		.cfi_register 13, 0
 585 0002 20F00701 		bic	r1, r0, #7
 586 0006 8D46     		mov	sp, r1
 587 0008 19B5     		push	{r0, r3, r4, lr}
 588              		.cfi_def_cfa_offset 16
 589              		.cfi_offset 13, -16
 590              		.cfi_offset 3, -12
 591              		.cfi_offset 4, -8
 592              		.cfi_offset 14, -4
 593              	.LVL45:
 594              	.LBB134:
 595              	.LBB135:
 211:Generated_Source\PSoC5/ErikaOS_1_cortex_mx_ee_cpu.inc **** #endif	/* !__KEIL__ */
 596              		.loc 2 211 0
 597              		.syntax unified
 598              	@ 211 "Generated_Source\PSoC5/ErikaOS_1_cortex_mx_ee_cpu.inc" 1
 599 000a 72B6     		cpsid i
 600              	@ 0 "" 2
 601              		.thumb
 602              		.syntax unified
 603              	.LBE135:
 604              	.LBE134:
 605              	.LBB136:
 606              	.LBB137:
 325:Generated_Source\PSoC5/ErikaOS_1_cortex_mx_ee_cpu.inc **** #else
 607              		.loc 2 325 0
 608              		.syntax unified
 609              	@ 325 "Generated_Source\PSoC5/ErikaOS_1_cortex_mx_ee_cpu.inc" 1
 610 000c EFF31184 		MRS r4, BASEPRI
 611              	@ 0 "" 2
 612              	.LVL46:
 613              		.thumb
 614              		.syntax unified
 615              	.LBE137:
 616              	.LBE136:
 617              	.LBB138:
 618              	.LBB139:
ARM GAS  C:\Users\robom\AppData\Local\Temp\ccW2R9Ts.s 			page 27


 372:Generated_Source\PSoC5/ErikaOS_1_cortex_mx_ee_cpu.inc ****   register EE_TYPEISR2PRIO prio = 0;
 619              		.loc 2 372 0
 620 0010 1E4B     		ldr	r3, .L43
 621 0012 1B68     		ldr	r3, [r3]
 622 0014 DBB2     		uxtb	r3, r3
 623              	.LVL47:
 375:Generated_Source\PSoC5/ErikaOS_1_cortex_mx_ee_cpu.inc ****     vectact -= EE_CORTEX_MX_SYSTICK_EXC_NUM + 1;
 624              		.loc 2 375 0
 625 0016 0F2B     		cmp	r3, #15
 626 0018 10D9     		bls	.L38
 376:Generated_Source\PSoC5/ErikaOS_1_cortex_mx_ee_cpu.inc ****     prio = NVIC_GET_PRI(vectact);
 627              		.loc 2 376 0
 628 001a 103B     		subs	r3, r3, #16
 629              	.LVL48:
 377:Generated_Source\PSoC5/ErikaOS_1_cortex_mx_ee_cpu.inc ****   }
 630              		.loc 2 377 0
 631 001c 23F00302 		bic	r2, r3, #3
 632 0020 02F16042 		add	r2, r2, #-536870912
 633 0024 02F56442 		add	r2, r2, #58368
 634 0028 1168     		ldr	r1, [r2]
 635 002a DB00     		lsls	r3, r3, #3
 636              	.LVL49:
 637 002c 03F01803 		and	r3, r3, #24
 638 0030 E022     		movs	r2, #224
 639 0032 9A40     		lsls	r2, r2, r3
 640 0034 0A40     		ands	r2, r2, r1
 641 0036 22FA03F3 		lsr	r3, r2, r3
 642              	.LVL50:
 643 003a 06E0     		b	.L39
 644              	.LVL51:
 645              	.L38:
 380:Generated_Source\PSoC5/ErikaOS_1_cortex_mx_ee_cpu.inc ****     prio = NVIC_SYS_PRI3_R >> NVIC_SYS_PRI3_TICK_S;
 646              		.loc 2 380 0
 647 003c 0F2B     		cmp	r3, #15
 648 003e 03D1     		bne	.L42
 649              		.loc 2 381 0
 650 0040 134B     		ldr	r3, .L43+4
 651              	.LVL52:
 652 0042 1B68     		ldr	r3, [r3]
 653 0044 1B0E     		lsrs	r3, r3, #24
 654              	.LVL53:
 655 0046 00E0     		b	.L39
 656              	.LVL54:
 657              	.L42:
 373:Generated_Source\PSoC5/ErikaOS_1_cortex_mx_ee_cpu.inc **** 
 658              		.loc 2 373 0
 659 0048 0023     		movs	r3, #0
 660              	.LVL55:
 661              	.L39:
 662              	.LBE139:
 663              	.LBE138:
 664              	.LBB140:
 665              	.LBB141:
 358:Generated_Source\PSoC5/ErikaOS_1_cortex_mx_ee_cpu.inc **** #else
 666              		.loc 2 358 0
 667              		.syntax unified
 668              	@ 358 "Generated_Source\PSoC5/ErikaOS_1_cortex_mx_ee_cpu.inc" 1
ARM GAS  C:\Users\robom\AppData\Local\Temp\ccW2R9Ts.s 			page 28


 669 004a 83F31188 		MSR BASEPRI, r3
 670              	@ 0 "" 2
 671              		.thumb
 672              		.syntax unified
 673              	.LBE141:
 674              	.LBE140:
 675              	.LBB142:
 676              	.LBB143:
  85:Generated_Source\PSoC5/ErikaOS_1_common_ee_irqstub.inc **** /*  EE_std_enableIRQ_nested() and EE_std_disableIRQ_nested() must be defined in
 677              		.loc 3 85 0
 678 004e 114A     		ldr	r2, .L43+8
 679 0050 1368     		ldr	r3, [r2]
 680 0052 0133     		adds	r3, r3, #1
 681 0054 1360     		str	r3, [r2]
 682              	.LBE143:
 683              	.LBE142:
 132:source\asw/main.c **** {
 684              		.loc 1 132 0
 685 0056 012B     		cmp	r3, #1
 686 0058 01D1     		bne	.L40
 132:source\asw/main.c **** {
 687              		.loc 1 132 0 is_stmt 0 discriminator 1
 688 005a FFF7FEFF 		bl	EE_cortex_mx_change_IRQ_stack
 689              	.LVL56:
 690              	.L40:
 691              	.LBB144:
 692              	.LBB145:
 191:Generated_Source\PSoC5/ErikaOS_1_cortex_mx_ee_cpu.inc **** #endif	/* !__KEIL__ */
 693              		.loc 2 191 0 is_stmt 1 discriminator 3
 694              		.syntax unified
 695              	@ 191 "Generated_Source\PSoC5/ErikaOS_1_cortex_mx_ee_cpu.inc" 1
 696 005e 62B6     		cpsie i
 697              	@ 0 "" 2
 698              		.thumb
 699              		.syntax unified
 700              	.LBE145:
 701              	.LBE144:
 132:source\asw/main.c **** {
 702              		.loc 1 132 0 discriminator 3
 703 0060 FFF7FEFF 		bl	ISR2_isr_uart_rx
 704              	.LVL57:
 705              	.LBB146:
 706              	.LBB147:
 211:Generated_Source\PSoC5/ErikaOS_1_cortex_mx_ee_cpu.inc **** #endif	/* !__KEIL__ */
 707              		.loc 2 211 0 discriminator 3
 708              		.syntax unified
 709              	@ 211 "Generated_Source\PSoC5/ErikaOS_1_cortex_mx_ee_cpu.inc" 1
 710 0064 72B6     		cpsid i
 711              	@ 0 "" 2
 712              	.LVL58:
 713              		.thumb
 714              		.syntax unified
 715              	.LBE147:
 716              	.LBE146:
 717              	.LBB148:
 718              	.LBB149:
 358:Generated_Source\PSoC5/ErikaOS_1_cortex_mx_ee_cpu.inc **** #else
ARM GAS  C:\Users\robom\AppData\Local\Temp\ccW2R9Ts.s 			page 29


 719              		.loc 2 358 0 discriminator 3
 720              		.syntax unified
 721              	@ 358 "Generated_Source\PSoC5/ErikaOS_1_cortex_mx_ee_cpu.inc" 1
 722 0066 84F31188 		MSR BASEPRI, r4
 723              	@ 0 "" 2
 724              	.LVL59:
 725              		.thumb
 726              		.syntax unified
 727              	.LBE149:
 728              	.LBE148:
 729              	.LBB150:
 730              	.LBB151:
 731              		.loc 3 102 0 discriminator 3
 732 006a FFF7FEFF 		bl	EE_IRQ_end_post_stub
 733              	.LVL60:
 734              	.LBE151:
 735              	.LBE150:
 736              	.LBB152:
 737              	.LBB153:
  84:Generated_Source\PSoC5/ErikaOS_1_common_ee_irqstub.inc **** __INLINE__ void  EE_increment_IRQ_nesting_level(void) { ++EE_IRQ_nesting_level; }
 738              		.loc 3 84 0 discriminator 3
 739 006e 094A     		ldr	r2, .L43+8
 740 0070 1368     		ldr	r3, [r2]
 741 0072 013B     		subs	r3, r3, #1
 742 0074 1360     		str	r3, [r2]
 743              	.LBE153:
 744              	.LBE152:
 132:source\asw/main.c **** {
 745              		.loc 1 132 0 discriminator 3
 746 0076 1BB9     		cbnz	r3, .L41
 132:source\asw/main.c **** {
 747              		.loc 1 132 0 is_stmt 0 discriminator 4
 748 0078 FFF7FEFF 		bl	EE_cortex_mx_change_IRQ_stack_back
 749              	.LVL61:
 750              	.LBB154:
 751              	.LBB155:
 752              		.loc 4 68 0 is_stmt 1 discriminator 4
 753 007c FFF7FEFF 		bl	EE_switch_context
 754              	.LVL62:
 755              	.L41:
 756              	.LBE155:
 757              	.LBE154:
 758              	.LBB156:
 759              	.LBB157:
 191:Generated_Source\PSoC5/ErikaOS_1_cortex_mx_ee_cpu.inc **** #endif	/* !__KEIL__ */
 760              		.loc 2 191 0 discriminator 6
 761              		.syntax unified
 762              	@ 191 "Generated_Source\PSoC5/ErikaOS_1_cortex_mx_ee_cpu.inc" 1
 763 0080 62B6     		cpsie i
 764              	@ 0 "" 2
 765              		.thumb
 766              		.syntax unified
 767              	.LBE157:
 768              	.LBE156:
 132:source\asw/main.c **** {
 769              		.loc 1 132 0 discriminator 6
 770 0082 BDE81940 		pop	{r0, r3, r4, lr}
ARM GAS  C:\Users\robom\AppData\Local\Temp\ccW2R9Ts.s 			page 30


 771              		.cfi_restore 14
 772              		.cfi_restore 4
 773              		.cfi_restore 3
 774              		.cfi_restore 0
 775              		.cfi_def_cfa_offset 0
 776 0086 8546     		mov	sp, r0
 777 0088 7047     		bx	lr
 778              	.L44:
 779 008a 00BF     		.align	2
 780              	.L43:
 781 008c 04ED00E0 		.word	-536810236
 782 0090 20ED00E0 		.word	-536810208
 783 0094 00000000 		.word	EE_IRQ_nesting_level
 784              		.cfi_endproc
 785              	.LFE118:
 786              		.size	isr_uart_rx, .-isr_uart_rx
 787              		.comm	rb,8,4
 788              		.text
 789              	.Letext0:
 790              		.file 6 "c:\\program files (x86)\\cypress\\psoc creator\\4.4\\psoc creator\\import\\gnu\\arm\\5.4.
 791              		.file 7 "c:\\program files (x86)\\cypress\\psoc creator\\4.4\\psoc creator\\import\\gnu\\arm\\5.4.
 792              		.file 8 "Generated_Source\\PSoC5/ErikaOS_1_common_ee_types.inc"
 793              		.file 9 "Generated_Source\\PSoC5/ErikaOS_1_ee_oo_common.inc"
 794              		.file 10 "./Ringbuffer.h"
 795              		.file 11 "Generated_Source\\PSoC5/ErikaOS_1_ee_oo_intfunc.inc"
 796              		.file 12 "Generated_Source\\PSoC5/ErikaOS_1_cortex_mx_ee_context.inc"
 797              		.file 13 "Generated_Source\\PSoC5/ErikaOS_1_common_ee_primitives.inc"
 798              		.file 14 "Generated_Source\\PSoC5/core_cm3.h"
 799              		.file 15 "Generated_Source\\PSoC5/ErikaOS_1_ee_oo_kernel.inc"
 800              		.file 16 "Generated_Source\\PSoC5/ErikaOS_1_ee_oo_irq.inc"
 801              		.file 17 "Generated_Source\\PSoC5/ErikaOS_1_cortex_mx_ee_irq.inc"
 802              		.file 18 "Generated_Source\\PSoC5/UART_LOG.h"
 803              		.file 19 ".\\source\\bsw\\LabBoard/led.h"