ARM GAS  C:\Users\MATEOC~1.QUE\AppData\Local\Temp\ccxtWYOp.s 			page 1


   1              		.syntax unified
   2              		.cpu cortex-m3
   3              		.fpu softvfp
   4              		.eabi_attribute 20, 1
   5              		.eabi_attribute 21, 1
   6              		.eabi_attribute 23, 3
   7              		.eabi_attribute 24, 1
   8              		.eabi_attribute 25, 1
   9              		.eabi_attribute 26, 1
  10              		.eabi_attribute 30, 1
  11              		.eabi_attribute 34, 1
  12              		.eabi_attribute 18, 4
  13              		.thumb
  14              		.syntax unified
  15              		.file	"tft.c"
  16              		.text
  17              	.Ltext0:
  18              		.cfi_sections	.debug_frame
  19              		.section	.text.charBounds,"ax",%progbits
  20              		.align	2
  21              		.thumb
  22              		.thumb_func
  23              		.type	charBounds, %function
  24              	charBounds:
  25              	.LFB20:
  26              		.file 1 "source\\bsw\\tft\\tft.c"
   1:source\bsw\tft/tft.c **** /**
   2:source\bsw\tft/tft.c ****  * \file	TFT.c
   3:source\bsw\tft/tft.c ****  * \author	Limor Fried 	Adafruit Industries
   4:source\bsw\tft/tft.c ****  * \author	Thomas Barth 	Hochschule Darmstadt - thomas.barth@h-da.de
   5:source\bsw\tft/tft.c ****  * \date 	08.08.2017
   6:source\bsw\tft/tft.c ****  * \version	0.1
   7:source\bsw\tft/tft.c ****  *
   8:source\bsw\tft/tft.c ****  * \copyright Copyright ©2017
   9:source\bsw\tft/tft.c ****  * Department of electrical engineering and information technology, Hochschule Darmstadt - Universi
  10:source\bsw\tft/tft.c ****  * Permission to use, copy, modify, and distribute this software and its documentation for educatio
  11:source\bsw\tft/tft.c ****  * (unless permitted by h_da) and official h_da projects, is hereby granted for enrolled students o
  12:source\bsw\tft/tft.c ****  * this paragraph and the following paragraph appear in all copies, modifications, and distribution
  13:source\bsw\tft/tft.c ****  * Contact Prof.Dr.-Ing. Peter Fromm, peter.fromm@h-da.de, Birkenweg 8 64295 Darmstadt - GERMANY fo
  14:source\bsw\tft/tft.c ****  *
  15:source\bsw\tft/tft.c ****  * \warning This software is a PROTOTYPE version and is not designed or intended for use in product
  16:source\bsw\tft/tft.c ****  * The user represents and warrants that it will NOT use or redistribute the Software for such purp
  17:source\bsw\tft/tft.c ****  * This prototype is for research purposes only. This software is provided "AS IS," without a warra
  18:source\bsw\tft/tft.c ****  */
  19:source\bsw\tft/tft.c **** 
  20:source\bsw\tft/tft.c **** #include "TFT.h"
  21:source\bsw\tft/tft.c **** #include "ST7735.h"
  22:source\bsw\tft/tft.c **** #include "glcdfont.h"
  23:source\bsw\tft/tft.c **** #include "math_helper.h"
  24:source\bsw\tft/tft.c **** #include "logging.h"
  25:source\bsw\tft/tft.c **** 
  26:source\bsw\tft/tft.c **** //-------------------------------------[Definitions]
  27:source\bsw\tft/tft.c **** 
  28:source\bsw\tft/tft.c **** /** 
  29:source\bsw\tft/tft.c **** * \brief API glue for the SPI module
  30:source\bsw\tft/tft.c **** */
  31:source\bsw\tft/tft.c **** #define MODULE_SPI(x)       PPCAT(CFG_TFT_SPI_MODULE, x)
ARM GAS  C:\Users\MATEOC~1.QUE\AppData\Local\Temp\ccxtWYOp.s 			page 2


  32:source\bsw\tft/tft.c **** 
  33:source\bsw\tft/tft.c **** /** 
  34:source\bsw\tft/tft.c **** * \brief API glue for the backlight PWM module
  35:source\bsw\tft/tft.c **** */
  36:source\bsw\tft/tft.c **** #define MODULE_PWM(x)       PPCAT(CFG_TFT_LED_MODULE, x)
  37:source\bsw\tft/tft.c **** 
  38:source\bsw\tft/tft.c **** // API glue for the Pins
  39:source\bsw\tft/tft.c **** #define MODULE_DC(x)        PPCAT(CFG_TFT_DC_PIN, x)      
  40:source\bsw\tft/tft.c **** #define MODULE_RES(x)       PPCAT(CFG_TFT_RES_PIN, x)  
  41:source\bsw\tft/tft.c **** #define TFT_DC_LOW          MODULE_DC(Write)(0)     /**< \brief Macro to set the DC(A0) pin LOW*/
  42:source\bsw\tft/tft.c **** #define TFT_DC_HIGH         MODULE_DC(Write)(1)     /**< \brief Macro to set the DC(A0) pin HIGH*/
  43:source\bsw\tft/tft.c **** #define TFT_RES_LOW         MODULE_RES(Write)(0)    /**< \brief Macro to set the Reset pin LOW*/
  44:source\bsw\tft/tft.c **** #define TFT_RES_HIGH        MODULE_RES(Write)(1)    /**< \brief Macro to set the Reset pin HIGH*/
  45:source\bsw\tft/tft.c **** 
  46:source\bsw\tft/tft.c **** /** 
  47:source\bsw\tft/tft.c **** * \brief swap 2 int 16 values
  48:source\bsw\tft/tft.c **** */
  49:source\bsw\tft/tft.c **** #ifndef _swap_int16_t
  50:source\bsw\tft/tft.c **** #define _swap_int16_t(a, b) { int16_t t = a; a = b; b = t; }
  51:source\bsw\tft/tft.c **** #endif
  52:source\bsw\tft/tft.c **** 
  53:source\bsw\tft/tft.c **** // The code comes from an AVR. Those are macros to overcome that strange PROGMEM read stuff
  54:source\bsw\tft/tft.c **** #ifndef pgm_read_byte
  55:source\bsw\tft/tft.c ****  #define pgm_read_byte(addr) (*(const unsigned char *)(addr))
  56:source\bsw\tft/tft.c **** #endif
  57:source\bsw\tft/tft.c **** #ifndef pgm_read_word
  58:source\bsw\tft/tft.c ****  #define pgm_read_word(addr) (*(const unsigned short *)(addr))
  59:source\bsw\tft/tft.c **** #endif
  60:source\bsw\tft/tft.c **** #ifndef pgm_read_dword
  61:source\bsw\tft/tft.c ****  #define pgm_read_dword(addr) (*(const unsigned long *)(addr))
  62:source\bsw\tft/tft.c **** #endif
  63:source\bsw\tft/tft.c **** 
  64:source\bsw\tft/tft.c **** // Pointers are a peculiar case...typically 16-bit on AVR boards,
  65:source\bsw\tft/tft.c **** // 32 bits elsewhere.  Try to accommodate both...
  66:source\bsw\tft/tft.c **** #if !defined(__INT_MAX__) || (__INT_MAX__ > 0xFFFF)
  67:source\bsw\tft/tft.c ****  #define pgm_read_pointer(addr) ((void *)pgm_read_dword(addr))
  68:source\bsw\tft/tft.c **** #else
  69:source\bsw\tft/tft.c ****  #define pgm_read_pointer(addr) ((void *)pgm_read_word(addr))
  70:source\bsw\tft/tft.c **** #endif
  71:source\bsw\tft/tft.c **** 
  72:source\bsw\tft/tft.c **** #define TFT_write_cmd(x)            TFT_send(TFT_CMD,x)
  73:source\bsw\tft/tft.c **** #define TFT_write_data(x)           TFT_send(TFT_DATA,x)
  74:source\bsw\tft/tft.c **** #define TFT_write_stream(x)         TFT_send(TFT_STREAM,x)
  75:source\bsw\tft/tft.c **** 
  76:source\bsw\tft/tft.c **** //-------------------------------------[types]
  77:source\bsw\tft/tft.c **** /**
  78:source\bsw\tft/tft.c **** * \brief Data send to the TFT is either DATA or COMMAND data.
  79:source\bsw\tft/tft.c **** */
  80:source\bsw\tft/tft.c **** typedef enum{
  81:source\bsw\tft/tft.c ****     TFT_CMD,                        /**< Payload is command. */
  82:source\bsw\tft/tft.c ****     TFT_DATA,                       /**< Payload is data */
  83:source\bsw\tft/tft.c ****     TFT_STREAM                      /**< D/C has already been set */
  84:source\bsw\tft/tft.c **** }TFT_payload_t;
  85:source\bsw\tft/tft.c **** 
  86:source\bsw\tft/tft.c **** /**
  87:source\bsw\tft/tft.c **** * \brief Outgoing data to the tft
  88:source\bsw\tft/tft.c **** */
ARM GAS  C:\Users\MATEOC~1.QUE\AppData\Local\Temp\ccxtWYOp.s 			page 3


  89:source\bsw\tft/tft.c **** typedef struct{
  90:source\bsw\tft/tft.c ****     TFT_payload_t   DC;             /**< Determines if this is a a command (#TFT_CMD) or data (#TFT
  91:source\bsw\tft/tft.c ****     uint8_t         payload;
  92:source\bsw\tft/tft.c **** }TFT_data_t;
  93:source\bsw\tft/tft.c **** 
  94:source\bsw\tft/tft.c **** typedef struct {
  95:source\bsw\tft/tft.c ****     uint16_t    read;
  96:source\bsw\tft/tft.c ****     uint16_t    write;
  97:source\bsw\tft/tft.c ****     uint16_t    fill;
  98:source\bsw\tft/tft.c ****     TFT_data_t  buffer[CFG_TFT_RB_OUT_SZ];
  99:source\bsw\tft/tft.c **** }TFT_RB_out_t;
 100:source\bsw\tft/tft.c **** 
 101:source\bsw\tft/tft.c **** 
 102:source\bsw\tft/tft.c **** //-------------------------------------[local variables]
 103:source\bsw\tft/tft.c **** 
 104:source\bsw\tft/tft.c **** static const char* TAG="TFT";
 105:source\bsw\tft/tft.c **** 
 106:source\bsw\tft/tft.c **** static uint8_t  colstart;           /**< \brief Column (RAM) start*/
 107:source\bsw\tft/tft.c **** static uint8_t  rowstart;           /**< \brief Row (RAM) start*/
 108:source\bsw\tft/tft.c **** static uint8_t  xstart;             /**< \brief x position start*/
 109:source\bsw\tft/tft.c **** static uint8_t  ystart;             /**< \brief y position start*/
 110:source\bsw\tft/tft.c **** 
 111:source\bsw\tft/tft.c **** static uint8_t  textsize;           /**< \brief current text size*/
 112:source\bsw\tft/tft.c **** static uint8_t  rotation;           /**< \brief current orientation/rotation*/
 113:source\bsw\tft/tft.c **** 
 114:source\bsw\tft/tft.c **** static int16_t  _width;             /**< \brief Display width as modified by current rotation*/
 115:source\bsw\tft/tft.c **** static uint16_t _height;            /**< \brief Display heigth as modified by current rotation*/ 
 116:source\bsw\tft/tft.c **** static uint16_t cursor_x;           /**< \brief Cursor X position*/
 117:source\bsw\tft/tft.c **** static uint16_t cursor_y;           /**< \brief Cursor Y position*/
 118:source\bsw\tft/tft.c **** static TFT_color_t color;              /**< \brief Current foreground color*/
 119:source\bsw\tft/tft.c **** static TFT_color_t bgcolor;            /**< \brief Current background color*/
 120:source\bsw\tft/tft.c **** 
 121:source\bsw\tft/tft.c **** static boolean_t wrap;              /**< \brief If set, 'wrap' text at right edge of display*/ 
 122:source\bsw\tft/tft.c ****     
 123:source\bsw\tft/tft.c **** static GFXfont *gfxFont;            /**< \brief Current Font*/ 
 124:source\bsw\tft/tft.c **** 
 125:source\bsw\tft/tft.c **** static TFT_RB_out_t TFT_RB_out;     /**< \brief Ringbuffer for SPI communication*/
 126:source\bsw\tft/tft.c ****     
 127:source\bsw\tft/tft.c **** //-------------------------------------[local function prototypes]
 128:source\bsw\tft/tft.c **** 
 129:source\bsw\tft/tft.c **** static void setAddrWindow(uint8_t x0, uint8_t y0, uint8_t x1, uint8_t y1);
 130:source\bsw\tft/tft.c **** static void charBounds(char c, int16_t *x, int16_t *y,  int16_t *minx, int16_t *miny, int16_t *maxx
 131:source\bsw\tft/tft.c **** static void TFT_drawCircleHelper(int16_t x0, int16_t y0, int16_t r, uint8_t cornername, TFT_color_t
 132:source\bsw\tft/tft.c **** static void TFT_fillCircleHelper(int16_t x0, int16_t y0, int16_t r, uint8_t cornername, int16_t del
 133:source\bsw\tft/tft.c **** 
 134:source\bsw\tft/tft.c **** static RC_t TFT_send(TFT_payload_t type, uint8_t payload);
 135:source\bsw\tft/tft.c **** //-------------------------------------[Implementation]
 136:source\bsw\tft/tft.c **** 
 137:source\bsw\tft/tft.c **** //----------------- Ringbuffer
 138:source\bsw\tft/tft.c **** 
 139:source\bsw\tft/tft.c **** void __TFT_SPI_TX_ISR(void){
 140:source\bsw\tft/tft.c ****     
 141:source\bsw\tft/tft.c ****     //check if we have data waiting
 142:source\bsw\tft/tft.c ****     if(TFT_RB_out.fill==0)
 143:source\bsw\tft/tft.c ****         return;
 144:source\bsw\tft/tft.c ****     
 145:source\bsw\tft/tft.c ****     //get the next frame to be send
ARM GAS  C:\Users\MATEOC~1.QUE\AppData\Local\Temp\ccxtWYOp.s 			page 4


 146:source\bsw\tft/tft.c ****     TFT_data_t* p_next_frame=&TFT_RB_out.buffer[TFT_RB_out.read++];
 147:source\bsw\tft/tft.c ****     
 148:source\bsw\tft/tft.c ****     //adjust read index and fill level
 149:source\bsw\tft/tft.c ****     TFT_RB_out.read%=CFG_TFT_RB_OUT_SZ;
 150:source\bsw\tft/tft.c ****     TFT_RB_out.fill--;
 151:source\bsw\tft/tft.c ****     
 152:source\bsw\tft/tft.c ****     //check payload type
 153:source\bsw\tft/tft.c ****     switch(p_next_frame->DC){
 154:source\bsw\tft/tft.c ****         case TFT_CMD:
 155:source\bsw\tft/tft.c ****             TFT_DC_LOW;
 156:source\bsw\tft/tft.c ****             break;
 157:source\bsw\tft/tft.c ****         
 158:source\bsw\tft/tft.c ****         case TFT_DATA:
 159:source\bsw\tft/tft.c ****             TFT_DC_HIGH;
 160:source\bsw\tft/tft.c ****             break;
 161:source\bsw\tft/tft.c ****         default:
 162:source\bsw\tft/tft.c ****         break;
 163:source\bsw\tft/tft.c ****     }
 164:source\bsw\tft/tft.c **** 
 165:source\bsw\tft/tft.c ****     MODULE_SPI(WriteTxData)(p_next_frame->payload);    
 166:source\bsw\tft/tft.c **** }
 167:source\bsw\tft/tft.c **** 
 168:source\bsw\tft/tft.c **** RC_t TFT_send(TFT_payload_t type, uint8_t payload){
 169:source\bsw\tft/tft.c **** 
 170:source\bsw\tft/tft.c ****     //check if buffer is full
 171:source\bsw\tft/tft.c ****     if(TFT_RB_out.fill>=CFG_TFT_RB_OUT_SZ){
 172:source\bsw\tft/tft.c ****         //TODO: fire event or DET STOP
 173:source\bsw\tft/tft.c ****         LOG_E(TAG,"Buffer overflow");
 174:source\bsw\tft/tft.c ****         return RC_ERROR_BUFFER_FULL;
 175:source\bsw\tft/tft.c ****     }
 176:source\bsw\tft/tft.c ****     
 177:source\bsw\tft/tft.c ****     //add frame to buffer
 178:source\bsw\tft/tft.c ****     TFT_RB_out.buffer[TFT_RB_out.write++]=(TFT_data_t){type,payload};
 179:source\bsw\tft/tft.c **** 
 180:source\bsw\tft/tft.c ****     //adjust write index and fill level
 181:source\bsw\tft/tft.c ****     TFT_RB_out.write%=CFG_TFT_RB_OUT_SZ;
 182:source\bsw\tft/tft.c ****     TFT_RB_out.fill++;
 183:source\bsw\tft/tft.c ****     
 184:source\bsw\tft/tft.c ****     //check if this is the only entry in the ringbuffer and trigger the ISR
 185:source\bsw\tft/tft.c ****     if(TFT_RB_out.fill==1)
 186:source\bsw\tft/tft.c ****         __TFT_SPI_TX_ISR();
 187:source\bsw\tft/tft.c **** 
 188:source\bsw\tft/tft.c ****     return RC_SUCCESS;
 189:source\bsw\tft/tft.c **** }
 190:source\bsw\tft/tft.c **** 
 191:source\bsw\tft/tft.c **** 
 192:source\bsw\tft/tft.c **** //----------------- CTRL
 193:source\bsw\tft/tft.c **** void TFT_init(){
 194:source\bsw\tft/tft.c ****     
 195:source\bsw\tft/tft.c ****     //init local vars
 196:source\bsw\tft/tft.c ****     _width    = CFG_TFT_WIDTH;
 197:source\bsw\tft/tft.c ****     _height   = CFG_TFT_HEIGHT;
 198:source\bsw\tft/tft.c ****     rotation=0;
 199:source\bsw\tft/tft.c ****     cursor_x=0;
 200:source\bsw\tft/tft.c ****     cursor_y=0;
 201:source\bsw\tft/tft.c ****     textsize=1;
 202:source\bsw\tft/tft.c ****     color=CFG_TFT_COLOR_TEXT;
ARM GAS  C:\Users\MATEOC~1.QUE\AppData\Local\Temp\ccxtWYOp.s 			page 5


 203:source\bsw\tft/tft.c ****     bgcolor=CFG_TFT_COLOR_TEXTBG;
 204:source\bsw\tft/tft.c ****     wrap=TRUE;
 205:source\bsw\tft/tft.c ****     gfxFont=NULL;
 206:source\bsw\tft/tft.c ****     ystart = xstart = colstart  = rowstart = 0;
 207:source\bsw\tft/tft.c ****     
 208:source\bsw\tft/tft.c ****     //init ringbuffer
 209:source\bsw\tft/tft.c ****     TFT_RB_out.read=0;
 210:source\bsw\tft/tft.c ****     TFT_RB_out.write=0;
 211:source\bsw\tft/tft.c ****     TFT_RB_out.fill=0;
 212:source\bsw\tft/tft.c ****     
 213:source\bsw\tft/tft.c ****     //Start SPI Interface
 214:source\bsw\tft/tft.c ****     MODULE_SPI(Start)();
 215:source\bsw\tft/tft.c ****     
 216:source\bsw\tft/tft.c ****     //Perform Hardware reset
 217:source\bsw\tft/tft.c ****     TFT_RES_HIGH;
 218:source\bsw\tft/tft.c ****     CFG_TFT_DELAY_MS(100);
 219:source\bsw\tft/tft.c ****     TFT_RES_LOW;
 220:source\bsw\tft/tft.c **** 	CFG_TFT_DELAY_MS(100);
 221:source\bsw\tft/tft.c **** 	TFT_RES_HIGH;
 222:source\bsw\tft/tft.c **** 	CFG_TFT_DELAY_MS(20);
 223:source\bsw\tft/tft.c ****     
 224:source\bsw\tft/tft.c ****     //Software reset
 225:source\bsw\tft/tft.c ****     TFT_write_cmd(ST7735_SWRESET);
 226:source\bsw\tft/tft.c ****     CFG_TFT_DELAY_MS(50);
 227:source\bsw\tft/tft.c ****     
 228:source\bsw\tft/tft.c ****     //sleep out
 229:source\bsw\tft/tft.c ****     TFT_write_cmd(ST7735_SLPOUT);    //Sleep out
 230:source\bsw\tft/tft.c **** 	CFG_TFT_DELAY_MS(120);              //Delay 120ms
 231:source\bsw\tft/tft.c ****     
 232:source\bsw\tft/tft.c ****     //send init commands
 233:source\bsw\tft/tft.c ****     uint8_t* addr=(uint8_t*)SST35S_init_seq;    
 234:source\bsw\tft/tft.c ****     uint8_t  numCommands, numArgs;
 235:source\bsw\tft/tft.c ****     numCommands = *(addr++);        // Number of commands to follow
 236:source\bsw\tft/tft.c ****     while(numCommands--) {          // For each command...
 237:source\bsw\tft/tft.c ****         TFT_write_cmd(*(addr++));    // Read, issue command
 238:source\bsw\tft/tft.c ****         numArgs  = *(addr++);       // Number of args to follow
 239:source\bsw\tft/tft.c ****         while(numArgs--) {          // For each argument...
 240:source\bsw\tft/tft.c ****           TFT_write_data(*(addr++));     // Read, issue argument
 241:source\bsw\tft/tft.c ****         }
 242:source\bsw\tft/tft.c ****     }
 243:source\bsw\tft/tft.c ****     
 244:source\bsw\tft/tft.c ****     //set roation
 245:source\bsw\tft/tft.c ****     TFT_setRotation(CFG_TFT_ORIENTATION);
 246:source\bsw\tft/tft.c ****     
 247:source\bsw\tft/tft.c ****     //init RAM
 248:source\bsw\tft/tft.c ****     TFT_fillScreen(BLACK);
 249:source\bsw\tft/tft.c ****     
 250:source\bsw\tft/tft.c ****     //activate backlight
 251:source\bsw\tft/tft.c ****     MODULE_PWM(Start)();
 252:source\bsw\tft/tft.c ****     MODULE_PWM(WriteCompare)(CFG_TFT_BACKLIGHT);
 253:source\bsw\tft/tft.c **** }
 254:source\bsw\tft/tft.c **** 
 255:source\bsw\tft/tft.c **** void TFT_setBacklight(uint8_t b){
 256:source\bsw\tft/tft.c ****     if(b>100)
 257:source\bsw\tft/tft.c ****         b=100;
 258:source\bsw\tft/tft.c ****     MODULE_PWM(WriteCompare)(b);
 259:source\bsw\tft/tft.c **** }
ARM GAS  C:\Users\MATEOC~1.QUE\AppData\Local\Temp\ccxtWYOp.s 			page 6


 260:source\bsw\tft/tft.c **** 
 261:source\bsw\tft/tft.c **** uint8_t TFT_getBacklight(){
 262:source\bsw\tft/tft.c ****     return MODULE_PWM(ReadCompare)();
 263:source\bsw\tft/tft.c **** };
 264:source\bsw\tft/tft.c **** 
 265:source\bsw\tft/tft.c **** void setAddrWindow(uint8_t x0, uint8_t y0, uint8_t x1, uint8_t y1) {
 266:source\bsw\tft/tft.c **** 
 267:source\bsw\tft/tft.c ****     TFT_write_cmd(ST7735_CASET);   // Column addr set
 268:source\bsw\tft/tft.c ****     TFT_write_data(0x00);
 269:source\bsw\tft/tft.c ****     TFT_write_data(x0+xstart);         // XSTART 
 270:source\bsw\tft/tft.c ****     TFT_write_data(0x00);
 271:source\bsw\tft/tft.c ****     TFT_write_data(x1+xstart);         // XEND
 272:source\bsw\tft/tft.c **** 
 273:source\bsw\tft/tft.c ****     TFT_write_cmd(ST7735_RASET);   // Row addr set
 274:source\bsw\tft/tft.c ****     TFT_write_data(0x00);
 275:source\bsw\tft/tft.c ****     TFT_write_data(y0+ystart);         // YSTART
 276:source\bsw\tft/tft.c ****     TFT_write_data(0x00);
 277:source\bsw\tft/tft.c ****     TFT_write_data(y1+ystart);         // YEND
 278:source\bsw\tft/tft.c **** 
 279:source\bsw\tft/tft.c ****     TFT_write_cmd(ST7735_RAMWR);   // write to RAM
 280:source\bsw\tft/tft.c **** }
 281:source\bsw\tft/tft.c **** 
 282:source\bsw\tft/tft.c **** void TFT_setRotation(TFT_rotation_t m) {
 283:source\bsw\tft/tft.c **** 
 284:source\bsw\tft/tft.c ****     //Memory data access control entry
 285:source\bsw\tft/tft.c ****     TFT_write_cmd(ST7735_MADCTL);
 286:source\bsw\tft/tft.c ****     rotation = m % 4; // can't be higher than 3
 287:source\bsw\tft/tft.c ****     switch (rotation) {
 288:source\bsw\tft/tft.c ****         case 0:
 289:source\bsw\tft/tft.c ****             TFT_write_data(ST7735_MADCTL_MX | ST7735_MADCTL_MY | ST7735_MADCTL_RGB);
 290:source\bsw\tft/tft.c ****             _height = CFG_TFT_HEIGHT;
 291:source\bsw\tft/tft.c ****             _width  = CFG_TFT_WIDTH;
 292:source\bsw\tft/tft.c ****             xstart = colstart;
 293:source\bsw\tft/tft.c ****             ystart = rowstart;
 294:source\bsw\tft/tft.c ****             break;
 295:source\bsw\tft/tft.c ****         case 1:
 296:source\bsw\tft/tft.c ****             TFT_write_data(ST7735_MADCTL_MY | ST7735_MADCTL_MV | ST7735_MADCTL_RGB);
 297:source\bsw\tft/tft.c ****             _width = CFG_TFT_HEIGHT;
 298:source\bsw\tft/tft.c ****             _height = CFG_TFT_WIDTH;
 299:source\bsw\tft/tft.c ****             ystart = colstart;
 300:source\bsw\tft/tft.c ****             xstart = rowstart;
 301:source\bsw\tft/tft.c ****             break;
 302:source\bsw\tft/tft.c ****         case 2:
 303:source\bsw\tft/tft.c ****             TFT_write_data(ST7735_MADCTL_BGR);
 304:source\bsw\tft/tft.c ****             _height = CFG_TFT_HEIGHT;
 305:source\bsw\tft/tft.c ****             _width  = CFG_TFT_WIDTH;
 306:source\bsw\tft/tft.c ****             xstart = colstart;
 307:source\bsw\tft/tft.c ****             ystart = rowstart;
 308:source\bsw\tft/tft.c ****             break;
 309:source\bsw\tft/tft.c ****         case 3:
 310:source\bsw\tft/tft.c ****             TFT_write_data(ST7735_MADCTL_MX | ST7735_MADCTL_MV | ST7735_MADCTL_RGB);
 311:source\bsw\tft/tft.c ****             _width = CFG_TFT_HEIGHT;
 312:source\bsw\tft/tft.c ****             _height = CFG_TFT_WIDTH;
 313:source\bsw\tft/tft.c ****             ystart = colstart;
 314:source\bsw\tft/tft.c ****             xstart = rowstart;
 315:source\bsw\tft/tft.c ****             break;
 316:source\bsw\tft/tft.c ****     }
ARM GAS  C:\Users\MATEOC~1.QUE\AppData\Local\Temp\ccxtWYOp.s 			page 7


 317:source\bsw\tft/tft.c **** }
 318:source\bsw\tft/tft.c **** 
 319:source\bsw\tft/tft.c **** //----------------- USR CTRL
 320:source\bsw\tft/tft.c **** 
 321:source\bsw\tft/tft.c **** void TFT_setCursor(int16_t x, int16_t y) {
 322:source\bsw\tft/tft.c ****     cursor_x = x;
 323:source\bsw\tft/tft.c ****     cursor_y = y;
 324:source\bsw\tft/tft.c **** }
 325:source\bsw\tft/tft.c **** 
 326:source\bsw\tft/tft.c **** void TFT_setTextColor(uint16_t c){
 327:source\bsw\tft/tft.c ****     color   = c;
 328:source\bsw\tft/tft.c **** }
 329:source\bsw\tft/tft.c **** 
 330:source\bsw\tft/tft.c **** void TFT_setcolor(uint16_t c) {
 331:source\bsw\tft/tft.c ****     // For 'transparent' background, we'll set the bg
 332:source\bsw\tft/tft.c ****     // to the same as fg instead of using a flag
 333:source\bsw\tft/tft.c ****     color = bgcolor = c;
 334:source\bsw\tft/tft.c **** }
 335:source\bsw\tft/tft.c **** 
 336:source\bsw\tft/tft.c **** void TFT_setColors(uint16_t c, uint16_t b) {
 337:source\bsw\tft/tft.c ****     color   = c;
 338:source\bsw\tft/tft.c ****     bgcolor = b;
 339:source\bsw\tft/tft.c **** }
 340:source\bsw\tft/tft.c **** 
 341:source\bsw\tft/tft.c **** 
 342:source\bsw\tft/tft.c **** TFT_color_t TFT_getFGcolor(void){return color;};
 343:source\bsw\tft/tft.c **** 
 344:source\bsw\tft/tft.c **** TFT_color_t TFT_getBGcolor(void){return bgcolor;};
 345:source\bsw\tft/tft.c **** 
 346:source\bsw\tft/tft.c **** 
 347:source\bsw\tft/tft.c **** void TFT_setTextWrap(boolean_t w) {
 348:source\bsw\tft/tft.c ****     wrap = w;
 349:source\bsw\tft/tft.c **** }
 350:source\bsw\tft/tft.c **** 
 351:source\bsw\tft/tft.c **** void TFT_setTextSize(uint8_t s) {
 352:source\bsw\tft/tft.c ****     textsize = (s > 0) ? s : 1;
 353:source\bsw\tft/tft.c **** }
 354:source\bsw\tft/tft.c **** 
 355:source\bsw\tft/tft.c **** void TFT_setFont(const GFXfont *f) {
 356:source\bsw\tft/tft.c ****     if(f) {            // Font struct pointer passed in?
 357:source\bsw\tft/tft.c ****         if(!gfxFont) { // And no current font struct?
 358:source\bsw\tft/tft.c ****             // Switching from classic to new font behavior.
 359:source\bsw\tft/tft.c ****             // Move cursor pos down 6 pixels so it's on baseline.
 360:source\bsw\tft/tft.c ****             cursor_y += 6;
 361:source\bsw\tft/tft.c ****         }
 362:source\bsw\tft/tft.c ****     } else if(gfxFont) { // NULL passed.  Current font struct defined?
 363:source\bsw\tft/tft.c ****         // Switching from new to classic font behavior.
 364:source\bsw\tft/tft.c ****         // Move cursor pos up 6 pixels so it's at top-left of char.
 365:source\bsw\tft/tft.c ****         cursor_y -= 6;
 366:source\bsw\tft/tft.c ****     }
 367:source\bsw\tft/tft.c ****     gfxFont = (GFXfont *)f;
 368:source\bsw\tft/tft.c **** }
 369:source\bsw\tft/tft.c **** 
 370:source\bsw\tft/tft.c **** // Pass string and a cursor position, returns UL corner and W,H.
 371:source\bsw\tft/tft.c **** void TFT_getTextBounds(char *str, int16_t x, int16_t y, int16_t *x1, int16_t *y1, uint16_t *w, uint
 372:source\bsw\tft/tft.c ****     uint8_t c; // Current character
 373:source\bsw\tft/tft.c **** 
ARM GAS  C:\Users\MATEOC~1.QUE\AppData\Local\Temp\ccxtWYOp.s 			page 8


 374:source\bsw\tft/tft.c ****     *x1 = x;
 375:source\bsw\tft/tft.c ****     *y1 = y;
 376:source\bsw\tft/tft.c ****     *w  = *h = 0;
 377:source\bsw\tft/tft.c **** 
 378:source\bsw\tft/tft.c ****     int16_t minx = _width, miny = _height, maxx = -1, maxy = -1;
 379:source\bsw\tft/tft.c **** 
 380:source\bsw\tft/tft.c ****     while((c = *str++))
 381:source\bsw\tft/tft.c ****         charBounds(c, &x, &y, &minx, &miny, &maxx, &maxy);
 382:source\bsw\tft/tft.c **** 
 383:source\bsw\tft/tft.c ****     if(maxx >= minx) {
 384:source\bsw\tft/tft.c ****         *x1 = minx;
 385:source\bsw\tft/tft.c ****         *w  = maxx - minx + 1;
 386:source\bsw\tft/tft.c ****     }
 387:source\bsw\tft/tft.c ****     if(maxy >= miny) {
 388:source\bsw\tft/tft.c ****         *y1 = miny;
 389:source\bsw\tft/tft.c ****         *h  = maxy - miny + 1;
 390:source\bsw\tft/tft.c ****     }
 391:source\bsw\tft/tft.c **** }
 392:source\bsw\tft/tft.c **** 
 393:source\bsw\tft/tft.c **** void charBounds(char c, int16_t *x, int16_t *y,  int16_t *minx, int16_t *miny, int16_t *maxx, int16
  27              		.loc 1 393 0
  28              		.cfi_startproc
  29              		@ args = 12, pretend = 0, frame = 0
  30              		@ frame_needed = 0, uses_anonymous_args = 0
  31              	.LVL0:
  32 0000 2DE9F047 		push	{r4, r5, r6, r7, r8, r9, r10, lr}
  33              		.cfi_def_cfa_offset 32
  34              		.cfi_offset 4, -32
  35              		.cfi_offset 5, -28
  36              		.cfi_offset 6, -24
  37              		.cfi_offset 7, -20
  38              		.cfi_offset 8, -16
  39              		.cfi_offset 9, -12
  40              		.cfi_offset 10, -8
  41              		.cfi_offset 14, -4
 394:source\bsw\tft/tft.c **** 
 395:source\bsw\tft/tft.c ****     if(gfxFont) {
  42              		.loc 1 395 0
  43 0004 6C4C     		ldr	r4, .L17
  44 0006 2468     		ldr	r4, [r4]
  45 0008 002C     		cmp	r4, #0
  46 000a 7DD0     		beq	.L2
 396:source\bsw\tft/tft.c **** 
 397:source\bsw\tft/tft.c ****         if(c == '\n') { // Newline?
  47              		.loc 1 397 0
  48 000c 0A28     		cmp	r0, #10
  49 000e 0AD1     		bne	.L3
 398:source\bsw\tft/tft.c ****             *x  = 0;    // Reset x to zero, advance y by one line
  50              		.loc 1 398 0
  51 0010 0023     		movs	r3, #0
  52              	.LVL1:
  53 0012 0B80     		strh	r3, [r1]	@ movhi
 399:source\bsw\tft/tft.c ****             *y += textsize * (uint8_t)pgm_read_byte(&gfxFont->yAdvance);
  54              		.loc 1 399 0
  55 0014 A17A     		ldrb	r1, [r4, #10]	@ zero_extendqisi2
  56              	.LVL2:
  57 0016 684B     		ldr	r3, .L17
ARM GAS  C:\Users\MATEOC~1.QUE\AppData\Local\Temp\ccxtWYOp.s 			page 9


  58 0018 1879     		ldrb	r0, [r3, #4]	@ zero_extendqisi2
  59              	.LVL3:
  60 001a 1388     		ldrh	r3, [r2]
  61 001c 00FB0133 		mla	r3, r0, r1, r3
  62 0020 1380     		strh	r3, [r2]	@ movhi
  63 0022 BDE8F087 		pop	{r4, r5, r6, r7, r8, r9, r10, pc}
  64              	.LVL4:
  65              	.L3:
 400:source\bsw\tft/tft.c ****         } else if(c != '\r') { // Not a carriage return; is normal char
  66              		.loc 1 400 0
  67 0026 0D28     		cmp	r0, #13
  68 0028 00F0C380 		beq	.L1
  69              	.LBB2:
 401:source\bsw\tft/tft.c ****             uint8_t first = pgm_read_byte(&gfxFont->first),
  70              		.loc 1 401 0
  71 002c 257A     		ldrb	r5, [r4, #8]	@ zero_extendqisi2
  72              	.LVL5:
 402:source\bsw\tft/tft.c ****                     last  = pgm_read_byte(&gfxFont->last);
  73              		.loc 1 402 0
  74 002e 667A     		ldrb	r6, [r4, #9]	@ zero_extendqisi2
  75              	.LVL6:
 403:source\bsw\tft/tft.c ****             if((c >= first) && (c <= last)) { // Char present in this font?
  76              		.loc 1 403 0
  77 0030 A842     		cmp	r0, r5
  78 0032 C0F0BE80 		bcc	.L1
  79              		.loc 1 403 0 is_stmt 0 discriminator 1
  80 0036 B042     		cmp	r0, r6
  81 0038 00F2BB80 		bhi	.L1
  82              	.LBB3:
 404:source\bsw\tft/tft.c ****                 GFXglyph *glyph = &(((GFXglyph *)pgm_read_pointer(
 405:source\bsw\tft/tft.c ****                   &gfxFont->glyph))[c - first]);
  83              		.loc 1 405 0 is_stmt 1
  84 003c 401B     		subs	r0, r0, r5
  85              	.LVL7:
  86 003e 6568     		ldr	r5, [r4, #4]
  87              	.LVL8:
  88 0040 05EBC000 		add	r0, r5, r0, lsl #3
  89              	.LVL9:
 406:source\bsw\tft/tft.c ****                 uint8_t gw = pgm_read_byte(&glyph->width),
  90              		.loc 1 406 0
  91 0044 8578     		ldrb	r5, [r0, #2]	@ zero_extendqisi2
  92              	.LVL10:
 407:source\bsw\tft/tft.c ****                         gh = pgm_read_byte(&glyph->height),
  93              		.loc 1 407 0
  94 0046 C678     		ldrb	r6, [r0, #3]	@ zero_extendqisi2
  95              	.LVL11:
 408:source\bsw\tft/tft.c ****                         xa = pgm_read_byte(&glyph->xAdvance);
  96              		.loc 1 408 0
  97 0048 90F804E0 		ldrb	lr, [r0, #4]	@ zero_extendqisi2
  98              	.LVL12:
 409:source\bsw\tft/tft.c ****                 int8_t  xo = pgm_read_byte(&glyph->xOffset),
  99              		.loc 1 409 0
 100 004c 90F90570 		ldrsb	r7, [r0, #5]
 101              	.LVL13:
 410:source\bsw\tft/tft.c ****                         yo = pgm_read_byte(&glyph->yOffset);
 102              		.loc 1 410 0
 103 0050 90F90600 		ldrsb	r0, [r0, #6]
ARM GAS  C:\Users\MATEOC~1.QUE\AppData\Local\Temp\ccxtWYOp.s 			page 10


 104              	.LVL14:
 411:source\bsw\tft/tft.c ****                 if(wrap && ((*x+(((int16_t)xo+gw)*textsize)) > _width)) {
 105              		.loc 1 411 0
 106 0054 DFF860C1 		ldr	ip, .L17
 107 0058 9CF805C0 		ldrb	ip, [ip, #5]	@ zero_extendqisi2
 108 005c BCF1000F 		cmp	ip, #0
 109 0060 18D0     		beq	.L5
 110              		.loc 1 411 0 is_stmt 0 discriminator 1
 111 0062 B1F900A0 		ldrsh	r10, [r1]
 112 0066 07EB050C 		add	ip, r7, r5
 113 006a DFF84C81 		ldr	r8, .L17
 114 006e 98F80490 		ldrb	r9, [r8, #4]	@ zero_extendqisi2
 115 0072 0CFB09AC 		mla	ip, ip, r9, r10
 116 0076 B8F90680 		ldrsh	r8, [r8, #6]
 117 007a C445     		cmp	ip, r8
 118 007c 0ADD     		ble	.L5
 412:source\bsw\tft/tft.c ****                     *x  = 0; // Reset x to zero, advance y by one line
 119              		.loc 1 412 0 is_stmt 1
 120 007e 4FF0000C 		mov	ip, #0
 121 0082 A1F800C0 		strh	ip, [r1]	@ movhi
 122              	.LVL15:
 413:source\bsw\tft/tft.c ****                     *y += textsize * (uint8_t)pgm_read_byte(&gfxFont->yAdvance);
 123              		.loc 1 413 0
 124 0086 A47A     		ldrb	r4, [r4, #10]	@ zero_extendqisi2
 125 0088 B2F800C0 		ldrh	ip, [r2]
 126 008c 09FB04C9 		mla	r9, r9, r4, ip
 127 0090 A2F80090 		strh	r9, [r2]	@ movhi
 128              	.L5:
 129              	.LVL16:
 414:source\bsw\tft/tft.c ****                 }
 415:source\bsw\tft/tft.c ****                 int16_t ts = (int16_t)textsize,
 416:source\bsw\tft/tft.c ****                         x1 = *x + xo * ts,
 130              		.loc 1 416 0
 131 0094 B1F900C0 		ldrsh	ip, [r1]
 132 0098 474C     		ldr	r4, .L17
 133 009a 2479     		ldrb	r4, [r4, #4]	@ zero_extendqisi2
 134 009c 07FB04C7 		mla	r7, r7, r4, ip
 135              	.LVL17:
 136 00a0 BFB2     		uxth	r7, r7
 137 00a2 0FFA87FC 		sxth	ip, r7
 138              	.LVL18:
 417:source\bsw\tft/tft.c ****                         y1 = *y + yo * ts,
 139              		.loc 1 417 0
 140 00a6 B2F90020 		ldrsh	r2, [r2]
 141              	.LVL19:
 142 00aa 00FB0420 		mla	r0, r0, r4, r2
 143              	.LVL20:
 144 00ae 80B2     		uxth	r0, r0
 145 00b0 0FFA80F8 		sxth	r8, r0
 146              	.LVL21:
 418:source\bsw\tft/tft.c ****                         x2 = x1 + gw * ts - 1,
 147              		.loc 1 418 0
 148 00b4 05FB0472 		mla	r2, r5, r4, r7
 149 00b8 013A     		subs	r2, r2, #1
 150 00ba 12B2     		sxth	r2, r2
 151              	.LVL22:
 419:source\bsw\tft/tft.c ****                         y2 = y1 + gh * ts - 1;
ARM GAS  C:\Users\MATEOC~1.QUE\AppData\Local\Temp\ccxtWYOp.s 			page 11


 152              		.loc 1 419 0
 153 00bc 06FB0400 		mla	r0, r6, r4, r0
 154 00c0 0138     		subs	r0, r0, #1
 155 00c2 00B2     		sxth	r0, r0
 156              	.LVL23:
 420:source\bsw\tft/tft.c ****                 if(x1 < *minx) *minx = x1;
 157              		.loc 1 420 0
 158 00c4 B3F90050 		ldrsh	r5, [r3]
 159              	.LVL24:
 160 00c8 AC45     		cmp	ip, r5
 161 00ca 01DA     		bge	.L6
 162              		.loc 1 420 0 is_stmt 0 discriminator 1
 163 00cc A3F800C0 		strh	ip, [r3]	@ movhi
 164              	.L6:
 421:source\bsw\tft/tft.c ****                 if(y1 < *miny) *miny = y1;
 165              		.loc 1 421 0 is_stmt 1
 166 00d0 089B     		ldr	r3, [sp, #32]
 167              	.LVL25:
 168 00d2 B3F90030 		ldrsh	r3, [r3]
 169 00d6 9845     		cmp	r8, r3
 170 00d8 02DA     		bge	.L7
 171              		.loc 1 421 0 is_stmt 0 discriminator 1
 172 00da 089B     		ldr	r3, [sp, #32]
 173 00dc A3F80080 		strh	r8, [r3]	@ movhi
 174              	.L7:
 422:source\bsw\tft/tft.c ****                 if(x2 > *maxx) *maxx = x2;
 175              		.loc 1 422 0 is_stmt 1
 176 00e0 099B     		ldr	r3, [sp, #36]
 177 00e2 B3F90030 		ldrsh	r3, [r3]
 178 00e6 9A42     		cmp	r2, r3
 179 00e8 01DD     		ble	.L8
 180              		.loc 1 422 0 is_stmt 0 discriminator 1
 181 00ea 099B     		ldr	r3, [sp, #36]
 182 00ec 1A80     		strh	r2, [r3]	@ movhi
 183              	.L8:
 423:source\bsw\tft/tft.c ****                 if(y2 > *maxy) *maxy = y2;
 184              		.loc 1 423 0 is_stmt 1
 185 00ee 0A9B     		ldr	r3, [sp, #40]
 186 00f0 B3F90030 		ldrsh	r3, [r3]
 187 00f4 9842     		cmp	r0, r3
 188 00f6 01DD     		ble	.L9
 189              		.loc 1 423 0 is_stmt 0 discriminator 1
 190 00f8 0A9B     		ldr	r3, [sp, #40]
 191 00fa 1880     		strh	r0, [r3]	@ movhi
 192              	.L9:
 424:source\bsw\tft/tft.c ****                 *x += xa * ts;
 193              		.loc 1 424 0 is_stmt 1
 194 00fc 0B88     		ldrh	r3, [r1]
 195 00fe 0EFB0434 		mla	r4, lr, r4, r3
 196 0102 0C80     		strh	r4, [r1]	@ movhi
 197 0104 BDE8F087 		pop	{r4, r5, r6, r7, r8, r9, r10, pc}
 198              	.LVL26:
 199              	.L2:
 200              	.LBE3:
 201              	.LBE2:
 425:source\bsw\tft/tft.c ****             }
 426:source\bsw\tft/tft.c ****         }
ARM GAS  C:\Users\MATEOC~1.QUE\AppData\Local\Temp\ccxtWYOp.s 			page 12


 427:source\bsw\tft/tft.c **** 
 428:source\bsw\tft/tft.c ****     } else { // Default font
 429:source\bsw\tft/tft.c **** 
 430:source\bsw\tft/tft.c ****         if(c == '\n') {                     // Newline?
 202              		.loc 1 430 0
 203 0108 0A28     		cmp	r0, #10
 204 010a 09D1     		bne	.L10
 431:source\bsw\tft/tft.c ****             *x  = 0;                        // Reset x to zero,
 205              		.loc 1 431 0
 206 010c 0023     		movs	r3, #0
 207              	.LVL27:
 208 010e 0B80     		strh	r3, [r1]	@ movhi
 432:source\bsw\tft/tft.c ****             *y += textsize * 8;             // advance y one line
 209              		.loc 1 432 0
 210 0110 294B     		ldr	r3, .L17
 211 0112 1979     		ldrb	r1, [r3, #4]	@ zero_extendqisi2
 212              	.LVL28:
 213 0114 1388     		ldrh	r3, [r2]
 214 0116 03EBC103 		add	r3, r3, r1, lsl #3
 215 011a 1380     		strh	r3, [r2]	@ movhi
 216 011c BDE8F087 		pop	{r4, r5, r6, r7, r8, r9, r10, pc}
 217              	.LVL29:
 218              	.L10:
 433:source\bsw\tft/tft.c ****             // min/max x/y unchaged -- that waits for next 'normal' character
 434:source\bsw\tft/tft.c ****         } else if(c != '\r') {  // Normal char; ignore carriage returns
 219              		.loc 1 434 0
 220 0120 0D28     		cmp	r0, #13
 221 0122 46D0     		beq	.L1
 222              	.LBB4:
 435:source\bsw\tft/tft.c ****             if(wrap && ((*x + textsize * 6) > _width)) { // Off right?
 223              		.loc 1 435 0
 224 0124 2448     		ldr	r0, .L17
 225              	.LVL30:
 226 0126 4079     		ldrb	r0, [r0, #5]	@ zero_extendqisi2
 227 0128 88B1     		cbz	r0, .L11
 228              		.loc 1 435 0 is_stmt 0 discriminator 1
 229 012a B1F90070 		ldrsh	r7, [r1]
 230 012e 224D     		ldr	r5, .L17
 231 0130 2C79     		ldrb	r4, [r5, #4]	@ zero_extendqisi2
 232 0132 04EB4406 		add	r6, r4, r4, lsl #1
 233 0136 7000     		lsls	r0, r6, #1
 234 0138 3844     		add	r0, r0, r7
 235 013a B5F90650 		ldrsh	r5, [r5, #6]
 236 013e A842     		cmp	r0, r5
 237 0140 05DD     		ble	.L11
 436:source\bsw\tft/tft.c ****                 *x  = 0;                    // Reset x to zero,
 238              		.loc 1 436 0 is_stmt 1
 239 0142 0020     		movs	r0, #0
 240 0144 0880     		strh	r0, [r1]	@ movhi
 437:source\bsw\tft/tft.c ****                 *y += textsize * 8;         // advance y one line
 241              		.loc 1 437 0
 242 0146 1088     		ldrh	r0, [r2]
 243 0148 00EBC404 		add	r4, r0, r4, lsl #3
 244 014c 1480     		strh	r4, [r2]	@ movhi
 245              	.L11:
 438:source\bsw\tft/tft.c ****             }
 439:source\bsw\tft/tft.c ****             int x2 = *x + textsize * 6 - 1, // Lower-right pixel of char
ARM GAS  C:\Users\MATEOC~1.QUE\AppData\Local\Temp\ccxtWYOp.s 			page 13


 246              		.loc 1 439 0
 247 014e B1F90060 		ldrsh	r6, [r1]
 248 0152 1948     		ldr	r0, .L17
 249 0154 0079     		ldrb	r0, [r0, #4]	@ zero_extendqisi2
 250 0156 00EB4005 		add	r5, r0, r0, lsl #1
 251 015a 6C00     		lsls	r4, r5, #1
 252 015c 3444     		add	r4, r4, r6
 253 015e 013C     		subs	r4, r4, #1
 254              	.LVL31:
 440:source\bsw\tft/tft.c ****                 y2 = *y + textsize * 8 - 1;
 255              		.loc 1 440 0
 256 0160 B2F90050 		ldrsh	r5, [r2]
 257 0164 05EBC005 		add	r5, r5, r0, lsl #3
 258 0168 013D     		subs	r5, r5, #1
 259              	.LVL32:
 441:source\bsw\tft/tft.c ****             if(x2 > *maxx) *maxx = x2;      // Track max x, y
 260              		.loc 1 441 0
 261 016a 099E     		ldr	r6, [sp, #36]
 262 016c B6F90060 		ldrsh	r6, [r6]
 263 0170 B442     		cmp	r4, r6
 264 0172 01DD     		ble	.L12
 265              		.loc 1 441 0 is_stmt 0 discriminator 1
 266 0174 099E     		ldr	r6, [sp, #36]
 267 0176 3480     		strh	r4, [r6]	@ movhi
 268              	.L12:
 442:source\bsw\tft/tft.c ****             if(y2 > *maxy) *maxy = y2;
 269              		.loc 1 442 0 is_stmt 1
 270 0178 0A9C     		ldr	r4, [sp, #40]
 271              	.LVL33:
 272 017a B4F90040 		ldrsh	r4, [r4]
 273 017e A542     		cmp	r5, r4
 274 0180 01DD     		ble	.L13
 275              		.loc 1 442 0 is_stmt 0 discriminator 1
 276 0182 0A9C     		ldr	r4, [sp, #40]
 277 0184 2580     		strh	r5, [r4]	@ movhi
 278              	.L13:
 443:source\bsw\tft/tft.c ****             if(*x < *minx) *minx = *x;      // Track min x, y
 279              		.loc 1 443 0 is_stmt 1
 280 0186 B1F90040 		ldrsh	r4, [r1]
 281 018a B3F90050 		ldrsh	r5, [r3]
 282              	.LVL34:
 283 018e AC42     		cmp	r4, r5
 284 0190 00DA     		bge	.L14
 285              		.loc 1 443 0 is_stmt 0 discriminator 1
 286 0192 1C80     		strh	r4, [r3]	@ movhi
 287              	.L14:
 444:source\bsw\tft/tft.c ****             if(*y < *miny) *miny = *y;
 288              		.loc 1 444 0 is_stmt 1
 289 0194 B2F90030 		ldrsh	r3, [r2]
 290              	.LVL35:
 291 0198 089A     		ldr	r2, [sp, #32]
 292              	.LVL36:
 293 019a B2F90020 		ldrsh	r2, [r2]
 294 019e 9342     		cmp	r3, r2
 295 01a0 01DA     		bge	.L15
 296              		.loc 1 444 0 is_stmt 0 discriminator 1
 297 01a2 089A     		ldr	r2, [sp, #32]
ARM GAS  C:\Users\MATEOC~1.QUE\AppData\Local\Temp\ccxtWYOp.s 			page 14


 298 01a4 1380     		strh	r3, [r2]	@ movhi
 299              	.L15:
 445:source\bsw\tft/tft.c ****             *x += textsize * 6;             // Advance x one char
 300              		.loc 1 445 0 is_stmt 1
 301 01a6 00EB4000 		add	r0, r0, r0, lsl #1
 302 01aa 4200     		lsls	r2, r0, #1
 303 01ac 0B88     		ldrh	r3, [r1]
 304 01ae 1344     		add	r3, r3, r2
 305 01b0 0B80     		strh	r3, [r1]	@ movhi
 306              	.L1:
 307 01b2 BDE8F087 		pop	{r4, r5, r6, r7, r8, r9, r10, pc}
 308              	.LVL37:
 309              	.L18:
 310 01b6 00BF     		.align	2
 311              	.L17:
 312 01b8 00000000 		.word	.LANCHOR0
 313              	.LBE4:
 314              		.cfi_endproc
 315              	.LFE20:
 316              		.size	charBounds, .-charBounds
 317              		.section	.text.__TFT_SPI_TX_ISR,"ax",%progbits
 318              		.align	2
 319              		.global	__TFT_SPI_TX_ISR
 320              		.thumb
 321              		.thumb_func
 322              		.type	__TFT_SPI_TX_ISR, %function
 323              	__TFT_SPI_TX_ISR:
 324              	.LFB3:
 139:source\bsw\tft/tft.c ****     
 325              		.loc 1 139 0
 326              		.cfi_startproc
 327              		@ args = 0, pretend = 0, frame = 0
 328              		@ frame_needed = 0, uses_anonymous_args = 0
 329 0000 38B5     		push	{r3, r4, r5, lr}
 330              		.cfi_def_cfa_offset 16
 331              		.cfi_offset 3, -16
 332              		.cfi_offset 4, -12
 333              		.cfi_offset 5, -8
 334              		.cfi_offset 14, -4
 142:source\bsw\tft/tft.c ****         return;
 335              		.loc 1 142 0
 336 0002 134B     		ldr	r3, .L25
 337 0004 9889     		ldrh	r0, [r3, #12]
 338 0006 08B3     		cbz	r0, .L19
 146:source\bsw\tft/tft.c ****     
 339              		.loc 1 146 0
 340 0008 1946     		mov	r1, r3
 341 000a 1C89     		ldrh	r4, [r3, #8]
 342 000c 631C     		adds	r3, r4, #1
 343 000e 9BB2     		uxth	r3, r3
 344              	.LVL38:
 149:source\bsw\tft/tft.c ****     TFT_RB_out.fill--;
 345              		.loc 1 149 0
 346 0010 104A     		ldr	r2, .L25+4
 347 0012 A2FB0352 		umull	r5, r2, r2, r3
 348 0016 5209     		lsrs	r2, r2, #5
 349 0018 6425     		movs	r5, #100
ARM GAS  C:\Users\MATEOC~1.QUE\AppData\Local\Temp\ccxtWYOp.s 			page 15


 350 001a 05FB1233 		mls	r3, r5, r2, r3
 351 001e 0B81     		strh	r3, [r1, #8]	@ movhi
 150:source\bsw\tft/tft.c ****     
 352              		.loc 1 150 0
 353 0020 0138     		subs	r0, r0, #1
 354 0022 8881     		strh	r0, [r1, #12]	@ movhi
 153:source\bsw\tft/tft.c ****         case TFT_CMD:
 355              		.loc 1 153 0
 356 0024 01EB4401 		add	r1, r1, r4, lsl #1
 357 0028 8B7B     		ldrb	r3, [r1, #14]	@ zero_extendqisi2
 358 002a 13B1     		cbz	r3, .L22
 359 002c 012B     		cmp	r3, #1
 360 002e 04D0     		beq	.L23
 361 0030 06E0     		b	.L21
 362              	.L22:
 363              	.LBB5:
 155:source\bsw\tft/tft.c ****             break;
 364              		.loc 1 155 0
 365 0032 0020     		movs	r0, #0
 366 0034 FFF7FEFF 		bl	TFT_DC_Write
 367              	.LVL39:
 156:source\bsw\tft/tft.c ****         
 368              		.loc 1 156 0
 369 0038 02E0     		b	.L21
 370              	.L23:
 159:source\bsw\tft/tft.c ****             break;
 371              		.loc 1 159 0
 372 003a 0120     		movs	r0, #1
 373 003c FFF7FEFF 		bl	TFT_DC_Write
 374              	.LVL40:
 375              	.L21:
 376              	.LBE5:
 165:source\bsw\tft/tft.c **** }
 377              		.loc 1 165 0
 378 0040 034B     		ldr	r3, .L25
 379 0042 03EB4404 		add	r4, r3, r4, lsl #1
 380              	.LVL41:
 381 0046 E07B     		ldrb	r0, [r4, #15]	@ zero_extendqisi2
 382 0048 FFF7FEFF 		bl	TFT_SPI_WriteTxData
 383              	.LVL42:
 384              	.L19:
 385 004c 38BD     		pop	{r3, r4, r5, pc}
 386              	.L26:
 387 004e 00BF     		.align	2
 388              	.L25:
 389 0050 00000000 		.word	.LANCHOR0
 390 0054 1F85EB51 		.word	1374389535
 391              		.cfi_endproc
 392              	.LFE3:
 393              		.size	__TFT_SPI_TX_ISR, .-__TFT_SPI_TX_ISR
 394              		.section	.text.TFT_send,"ax",%progbits
 395              		.align	2
 396              		.thumb
 397              		.thumb_func
 398              		.type	TFT_send, %function
 399              	TFT_send:
 400              	.LFB4:
ARM GAS  C:\Users\MATEOC~1.QUE\AppData\Local\Temp\ccxtWYOp.s 			page 16


 168:source\bsw\tft/tft.c **** 
 401              		.loc 1 168 0
 402              		.cfi_startproc
 403              		@ args = 0, pretend = 0, frame = 168
 404              		@ frame_needed = 0, uses_anonymous_args = 0
 405              	.LVL43:
 406 0000 30B5     		push	{r4, r5, lr}
 407              		.cfi_def_cfa_offset 12
 408              		.cfi_offset 4, -12
 409              		.cfi_offset 5, -8
 410              		.cfi_offset 14, -4
 411 0002 ABB0     		sub	sp, sp, #172
 412              		.cfi_def_cfa_offset 184
 171:source\bsw\tft/tft.c ****         //TODO: fire event or DET STOP
 413              		.loc 1 171 0
 414 0004 1B4B     		ldr	r3, .L32
 415 0006 9B89     		ldrh	r3, [r3, #12]
 416 0008 632B     		cmp	r3, #99
 417 000a 17D9     		bls	.L28
 418              	.LBB6:
 173:source\bsw\tft/tft.c ****         return RC_ERROR_BUFFER_FULL;
 419              		.loc 1 173 0 discriminator 1
 420 000c 2AAD     		add	r5, sp, #168
 421 000e 0323     		movs	r3, #3
 422 0010 05F8A83D 		strb	r3, [r5, #-168]!
 423 0014 184B     		ldr	r3, .L32+4
 424 0016 1868     		ldr	r0, [r3]	@ unaligned
 425              	.LVL44:
 426 0018 CDF80100 		str	r0, [sp, #1]	@ unaligned
 427 001c 174C     		ldr	r4, .L32+8
 428 001e 0FCC     		ldmia	r4!, {r0, r1, r2, r3}
 429              	.LVL45:
 430 0020 CDF81100 		str	r0, [sp, #17]	@ unaligned
 431 0024 CDF81510 		str	r1, [sp, #21]	@ unaligned
 432 0028 CDF81920 		str	r2, [sp, #25]	@ unaligned
 433 002c CDF81D30 		str	r3, [sp, #29]	@ unaligned
 434 0030 2846     		mov	r0, r5
 435 0032 FFF7FEFF 		bl	LOG_send
 436              	.LVL46:
 437              	.LBE6:
 174:source\bsw\tft/tft.c ****     }
 438              		.loc 1 174 0 discriminator 1
 439 0036 6FF00700 		mvn	r0, #7
 440 003a 19E0     		b	.L29
 441              	.LVL47:
 442              	.L28:
 178:source\bsw\tft/tft.c **** 
 443              		.loc 1 178 0
 444 003c 0D4D     		ldr	r5, .L32
 445 003e 6C89     		ldrh	r4, [r5, #10]
 446 0040 621C     		adds	r2, r4, #1
 447 0042 92B2     		uxth	r2, r2
 448 0044 05EB4404 		add	r4, r5, r4, lsl #1
 449 0048 A073     		strb	r0, [r4, #14]
 450 004a E173     		strb	r1, [r4, #15]
 181:source\bsw\tft/tft.c ****     TFT_RB_out.fill++;
 451              		.loc 1 181 0
ARM GAS  C:\Users\MATEOC~1.QUE\AppData\Local\Temp\ccxtWYOp.s 			page 17


 452 004c 0C49     		ldr	r1, .L32+12
 453              	.LVL48:
 454 004e A1FB0201 		umull	r0, r1, r1, r2
 455              	.LVL49:
 456 0052 4909     		lsrs	r1, r1, #5
 457 0054 6420     		movs	r0, #100
 458 0056 00FB1122 		mls	r2, r0, r1, r2
 459 005a 6A81     		strh	r2, [r5, #10]	@ movhi
 182:source\bsw\tft/tft.c ****     
 460              		.loc 1 182 0
 461 005c 0133     		adds	r3, r3, #1
 462 005e 9BB2     		uxth	r3, r3
 463 0060 AB81     		strh	r3, [r5, #12]	@ movhi
 185:source\bsw\tft/tft.c ****         __TFT_SPI_TX_ISR();
 464              		.loc 1 185 0
 465 0062 012B     		cmp	r3, #1
 466 0064 03D1     		bne	.L30
 186:source\bsw\tft/tft.c **** 
 467              		.loc 1 186 0
 468 0066 FFF7FEFF 		bl	__TFT_SPI_TX_ISR
 469              	.LVL50:
 188:source\bsw\tft/tft.c **** }
 470              		.loc 1 188 0
 471 006a 0020     		movs	r0, #0
 472 006c 00E0     		b	.L29
 473              	.LVL51:
 474              	.L30:
 475 006e 0020     		movs	r0, #0
 476              	.LVL52:
 477              	.L29:
 189:source\bsw\tft/tft.c **** 
 478              		.loc 1 189 0
 479 0070 2BB0     		add	sp, sp, #172
 480              		.cfi_def_cfa_offset 12
 481              		@ sp needed
 482 0072 30BD     		pop	{r4, r5, pc}
 483              	.L33:
 484              		.align	2
 485              	.L32:
 486 0074 00000000 		.word	.LANCHOR0
 487 0078 00000000 		.word	.LC0
 488 007c 04000000 		.word	.LC1
 489 0080 1F85EB51 		.word	1374389535
 490              		.cfi_endproc
 491              	.LFE4:
 492              		.size	TFT_send, .-TFT_send
 493              		.section	.text.setAddrWindow,"ax",%progbits
 494              		.align	2
 495              		.thumb
 496              		.thumb_func
 497              		.type	setAddrWindow, %function
 498              	setAddrWindow:
 499              	.LFB8:
 265:source\bsw\tft/tft.c **** 
 500              		.loc 1 265 0
 501              		.cfi_startproc
 502              		@ args = 0, pretend = 0, frame = 0
ARM GAS  C:\Users\MATEOC~1.QUE\AppData\Local\Temp\ccxtWYOp.s 			page 18


 503              		@ frame_needed = 0, uses_anonymous_args = 0
 504              	.LVL53:
 505 0000 2DE9F041 		push	{r4, r5, r6, r7, r8, lr}
 506              		.cfi_def_cfa_offset 24
 507              		.cfi_offset 4, -24
 508              		.cfi_offset 5, -20
 509              		.cfi_offset 6, -16
 510              		.cfi_offset 7, -12
 511              		.cfi_offset 8, -8
 512              		.cfi_offset 14, -4
 513 0004 8046     		mov	r8, r0
 514 0006 0E46     		mov	r6, r1
 515 0008 1746     		mov	r7, r2
 516 000a 1D46     		mov	r5, r3
 267:source\bsw\tft/tft.c ****     TFT_write_data(0x00);
 517              		.loc 1 267 0
 518 000c 2A21     		movs	r1, #42
 519              	.LVL54:
 520 000e 0020     		movs	r0, #0
 521              	.LVL55:
 522 0010 FFF7FEFF 		bl	TFT_send
 523              	.LVL56:
 268:source\bsw\tft/tft.c ****     TFT_write_data(x0+xstart);         // XSTART 
 524              		.loc 1 268 0
 525 0014 0021     		movs	r1, #0
 526 0016 0120     		movs	r0, #1
 527 0018 FFF7FEFF 		bl	TFT_send
 528              	.LVL57:
 269:source\bsw\tft/tft.c ****     TFT_write_data(0x00);
 529              		.loc 1 269 0
 530 001c 194C     		ldr	r4, .L36
 531 001e 94F8D610 		ldrb	r1, [r4, #214]	@ zero_extendqisi2
 532 0022 4144     		add	r1, r1, r8
 533 0024 C9B2     		uxtb	r1, r1
 534 0026 0120     		movs	r0, #1
 535 0028 FFF7FEFF 		bl	TFT_send
 536              	.LVL58:
 270:source\bsw\tft/tft.c ****     TFT_write_data(x1+xstart);         // XEND
 537              		.loc 1 270 0
 538 002c 0021     		movs	r1, #0
 539 002e 0120     		movs	r0, #1
 540 0030 FFF7FEFF 		bl	TFT_send
 541              	.LVL59:
 271:source\bsw\tft/tft.c **** 
 542              		.loc 1 271 0
 543 0034 94F8D610 		ldrb	r1, [r4, #214]	@ zero_extendqisi2
 544 0038 3944     		add	r1, r1, r7
 545 003a C9B2     		uxtb	r1, r1
 546 003c 0120     		movs	r0, #1
 547 003e FFF7FEFF 		bl	TFT_send
 548              	.LVL60:
 273:source\bsw\tft/tft.c ****     TFT_write_data(0x00);
 549              		.loc 1 273 0
 550 0042 2B21     		movs	r1, #43
 551 0044 0020     		movs	r0, #0
 552 0046 FFF7FEFF 		bl	TFT_send
 553              	.LVL61:
ARM GAS  C:\Users\MATEOC~1.QUE\AppData\Local\Temp\ccxtWYOp.s 			page 19


 274:source\bsw\tft/tft.c ****     TFT_write_data(y0+ystart);         // YSTART
 554              		.loc 1 274 0
 555 004a 0021     		movs	r1, #0
 556 004c 0120     		movs	r0, #1
 557 004e FFF7FEFF 		bl	TFT_send
 558              	.LVL62:
 275:source\bsw\tft/tft.c ****     TFT_write_data(0x00);
 559              		.loc 1 275 0
 560 0052 94F8D710 		ldrb	r1, [r4, #215]	@ zero_extendqisi2
 561 0056 3144     		add	r1, r1, r6
 562 0058 C9B2     		uxtb	r1, r1
 563 005a 0120     		movs	r0, #1
 564 005c FFF7FEFF 		bl	TFT_send
 565              	.LVL63:
 276:source\bsw\tft/tft.c ****     TFT_write_data(y1+ystart);         // YEND
 566              		.loc 1 276 0
 567 0060 0021     		movs	r1, #0
 568 0062 0120     		movs	r0, #1
 569 0064 FFF7FEFF 		bl	TFT_send
 570              	.LVL64:
 277:source\bsw\tft/tft.c **** 
 571              		.loc 1 277 0
 572 0068 94F8D710 		ldrb	r1, [r4, #215]	@ zero_extendqisi2
 573 006c 2944     		add	r1, r1, r5
 574 006e C9B2     		uxtb	r1, r1
 575 0070 0120     		movs	r0, #1
 576 0072 FFF7FEFF 		bl	TFT_send
 577              	.LVL65:
 279:source\bsw\tft/tft.c **** }
 578              		.loc 1 279 0
 579 0076 2C21     		movs	r1, #44
 580 0078 0020     		movs	r0, #0
 581 007a FFF7FEFF 		bl	TFT_send
 582              	.LVL66:
 583 007e BDE8F081 		pop	{r4, r5, r6, r7, r8, pc}
 584              	.L37:
 585 0082 00BF     		.align	2
 586              	.L36:
 587 0084 00000000 		.word	.LANCHOR0
 588              		.cfi_endproc
 589              	.LFE8:
 590              		.size	setAddrWindow, .-setAddrWindow
 591              		.section	.text.TFT_setBacklight,"ax",%progbits
 592              		.align	2
 593              		.global	TFT_setBacklight
 594              		.thumb
 595              		.thumb_func
 596              		.type	TFT_setBacklight, %function
 597              	TFT_setBacklight:
 598              	.LFB6:
 255:source\bsw\tft/tft.c ****     if(b>100)
 599              		.loc 1 255 0
 600              		.cfi_startproc
 601              		@ args = 0, pretend = 0, frame = 0
 602              		@ frame_needed = 0, uses_anonymous_args = 0
 603              	.LVL67:
 604 0000 08B5     		push	{r3, lr}
ARM GAS  C:\Users\MATEOC~1.QUE\AppData\Local\Temp\ccxtWYOp.s 			page 20


 605              		.cfi_def_cfa_offset 8
 606              		.cfi_offset 3, -8
 607              		.cfi_offset 14, -4
 256:source\bsw\tft/tft.c ****         b=100;
 608              		.loc 1 256 0
 609 0002 6428     		cmp	r0, #100
 610 0004 00D9     		bls	.L39
 257:source\bsw\tft/tft.c ****     MODULE_PWM(WriteCompare)(b);
 611              		.loc 1 257 0
 612 0006 6420     		movs	r0, #100
 613              	.LVL68:
 614              	.L39:
 258:source\bsw\tft/tft.c **** }
 615              		.loc 1 258 0
 616 0008 FFF7FEFF 		bl	TFT_BackLight_WriteCompare
 617              	.LVL69:
 618 000c 08BD     		pop	{r3, pc}
 619              		.cfi_endproc
 620              	.LFE6:
 621              		.size	TFT_setBacklight, .-TFT_setBacklight
 622 000e 00BF     		.section	.text.TFT_getBacklight,"ax",%progbits
 623              		.align	2
 624              		.global	TFT_getBacklight
 625              		.thumb
 626              		.thumb_func
 627              		.type	TFT_getBacklight, %function
 628              	TFT_getBacklight:
 629              	.LFB7:
 261:source\bsw\tft/tft.c ****     return MODULE_PWM(ReadCompare)();
 630              		.loc 1 261 0
 631              		.cfi_startproc
 632              		@ args = 0, pretend = 0, frame = 0
 633              		@ frame_needed = 0, uses_anonymous_args = 0
 634 0000 08B5     		push	{r3, lr}
 635              		.cfi_def_cfa_offset 8
 636              		.cfi_offset 3, -8
 637              		.cfi_offset 14, -4
 262:source\bsw\tft/tft.c **** };
 638              		.loc 1 262 0
 639 0002 FFF7FEFF 		bl	TFT_BackLight_ReadCompare
 640              	.LVL70:
 263:source\bsw\tft/tft.c **** 
 641              		.loc 1 263 0
 642 0006 C0B2     		uxtb	r0, r0
 643 0008 08BD     		pop	{r3, pc}
 644              		.cfi_endproc
 645              	.LFE7:
 646              		.size	TFT_getBacklight, .-TFT_getBacklight
 647              		.section	.text.TFT_setRotation,"ax",%progbits
 648              		.align	2
 649              		.global	TFT_setRotation
 650              		.thumb
 651              		.thumb_func
 652              		.type	TFT_setRotation, %function
 653              	TFT_setRotation:
 654              	.LFB9:
 282:source\bsw\tft/tft.c **** 
ARM GAS  C:\Users\MATEOC~1.QUE\AppData\Local\Temp\ccxtWYOp.s 			page 21


 655              		.loc 1 282 0
 656              		.cfi_startproc
 657              		@ args = 0, pretend = 0, frame = 0
 658              		@ frame_needed = 0, uses_anonymous_args = 0
 659              	.LVL71:
 660 0000 10B5     		push	{r4, lr}
 661              		.cfi_def_cfa_offset 8
 662              		.cfi_offset 4, -8
 663              		.cfi_offset 14, -4
 664 0002 0446     		mov	r4, r0
 285:source\bsw\tft/tft.c ****     rotation = m % 4; // can't be higher than 3
 665              		.loc 1 285 0
 666 0004 3621     		movs	r1, #54
 667 0006 0020     		movs	r0, #0
 668              	.LVL72:
 669 0008 FFF7FEFF 		bl	TFT_send
 670              	.LVL73:
 286:source\bsw\tft/tft.c ****     switch (rotation) {
 671              		.loc 1 286 0
 672 000c 04F00300 		and	r0, r4, #3
 673 0010 2A4B     		ldr	r3, .L52
 674 0012 83F8D800 		strb	r0, [r3, #216]
 287:source\bsw\tft/tft.c ****         case 0:
 675              		.loc 1 287 0
 676 0016 0328     		cmp	r0, #3
 677 0018 4ED8     		bhi	.L44
 678 001a DFE800F0 		tbb	[pc, r0]
 679              	.L47:
 680 001e 02       		.byte	(.L46-.L47)/2
 681 001f 15       		.byte	(.L48-.L47)/2
 682 0020 28       		.byte	(.L49-.L47)/2
 683 0021 3B       		.byte	(.L50-.L47)/2
 684              		.p2align 1
 685              	.L46:
 289:source\bsw\tft/tft.c ****             _height = CFG_TFT_HEIGHT;
 686              		.loc 1 289 0
 687 0022 C221     		movs	r1, #194
 688 0024 0120     		movs	r0, #1
 689 0026 FFF7FEFF 		bl	TFT_send
 690              	.LVL74:
 290:source\bsw\tft/tft.c ****             _width  = CFG_TFT_WIDTH;
 691              		.loc 1 290 0
 692 002a 244B     		ldr	r3, .L52
 693 002c A022     		movs	r2, #160
 694 002e A3F8DA20 		strh	r2, [r3, #218]	@ movhi
 291:source\bsw\tft/tft.c ****             xstart = colstart;
 695              		.loc 1 291 0
 696 0032 8022     		movs	r2, #128
 697 0034 DA80     		strh	r2, [r3, #6]	@ movhi
 292:source\bsw\tft/tft.c ****             ystart = rowstart;
 698              		.loc 1 292 0
 699 0036 93F8DC20 		ldrb	r2, [r3, #220]	@ zero_extendqisi2
 700 003a 83F8D620 		strb	r2, [r3, #214]
 293:source\bsw\tft/tft.c ****             break;
 701              		.loc 1 293 0
 702 003e 93F8DD20 		ldrb	r2, [r3, #221]	@ zero_extendqisi2
 703 0042 83F8D720 		strb	r2, [r3, #215]
ARM GAS  C:\Users\MATEOC~1.QUE\AppData\Local\Temp\ccxtWYOp.s 			page 22


 294:source\bsw\tft/tft.c ****         case 1:
 704              		.loc 1 294 0
 705 0046 10BD     		pop	{r4, pc}
 706              	.L48:
 296:source\bsw\tft/tft.c ****             _width = CFG_TFT_HEIGHT;
 707              		.loc 1 296 0
 708 0048 A221     		movs	r1, #162
 709 004a 0120     		movs	r0, #1
 710 004c FFF7FEFF 		bl	TFT_send
 711              	.LVL75:
 297:source\bsw\tft/tft.c ****             _height = CFG_TFT_WIDTH;
 712              		.loc 1 297 0
 713 0050 1A4B     		ldr	r3, .L52
 714 0052 A022     		movs	r2, #160
 715 0054 DA80     		strh	r2, [r3, #6]	@ movhi
 298:source\bsw\tft/tft.c ****             ystart = colstart;
 716              		.loc 1 298 0
 717 0056 8022     		movs	r2, #128
 718 0058 A3F8DA20 		strh	r2, [r3, #218]	@ movhi
 299:source\bsw\tft/tft.c ****             xstart = rowstart;
 719              		.loc 1 299 0
 720 005c 93F8DC20 		ldrb	r2, [r3, #220]	@ zero_extendqisi2
 721 0060 83F8D720 		strb	r2, [r3, #215]
 300:source\bsw\tft/tft.c ****             break;
 722              		.loc 1 300 0
 723 0064 93F8DD20 		ldrb	r2, [r3, #221]	@ zero_extendqisi2
 724 0068 83F8D620 		strb	r2, [r3, #214]
 301:source\bsw\tft/tft.c ****         case 2:
 725              		.loc 1 301 0
 726 006c 10BD     		pop	{r4, pc}
 727              	.L49:
 303:source\bsw\tft/tft.c ****             _height = CFG_TFT_HEIGHT;
 728              		.loc 1 303 0
 729 006e 0821     		movs	r1, #8
 730 0070 0120     		movs	r0, #1
 731 0072 FFF7FEFF 		bl	TFT_send
 732              	.LVL76:
 304:source\bsw\tft/tft.c ****             _width  = CFG_TFT_WIDTH;
 733              		.loc 1 304 0
 734 0076 114B     		ldr	r3, .L52
 735 0078 A022     		movs	r2, #160
 736 007a A3F8DA20 		strh	r2, [r3, #218]	@ movhi
 305:source\bsw\tft/tft.c ****             xstart = colstart;
 737              		.loc 1 305 0
 738 007e 8022     		movs	r2, #128
 739 0080 DA80     		strh	r2, [r3, #6]	@ movhi
 306:source\bsw\tft/tft.c ****             ystart = rowstart;
 740              		.loc 1 306 0
 741 0082 93F8DC20 		ldrb	r2, [r3, #220]	@ zero_extendqisi2
 742 0086 83F8D620 		strb	r2, [r3, #214]
 307:source\bsw\tft/tft.c ****             break;
 743              		.loc 1 307 0
 744 008a 93F8DD20 		ldrb	r2, [r3, #221]	@ zero_extendqisi2
 745 008e 83F8D720 		strb	r2, [r3, #215]
 308:source\bsw\tft/tft.c ****         case 3:
 746              		.loc 1 308 0
 747 0092 10BD     		pop	{r4, pc}
ARM GAS  C:\Users\MATEOC~1.QUE\AppData\Local\Temp\ccxtWYOp.s 			page 23


 748              	.L50:
 310:source\bsw\tft/tft.c ****             _width = CFG_TFT_HEIGHT;
 749              		.loc 1 310 0
 750 0094 6221     		movs	r1, #98
 751 0096 0120     		movs	r0, #1
 752 0098 FFF7FEFF 		bl	TFT_send
 753              	.LVL77:
 311:source\bsw\tft/tft.c ****             _height = CFG_TFT_WIDTH;
 754              		.loc 1 311 0
 755 009c 074B     		ldr	r3, .L52
 756 009e A022     		movs	r2, #160
 757 00a0 DA80     		strh	r2, [r3, #6]	@ movhi
 312:source\bsw\tft/tft.c ****             ystart = colstart;
 758              		.loc 1 312 0
 759 00a2 8022     		movs	r2, #128
 760 00a4 A3F8DA20 		strh	r2, [r3, #218]	@ movhi
 313:source\bsw\tft/tft.c ****             xstart = rowstart;
 761              		.loc 1 313 0
 762 00a8 93F8DC20 		ldrb	r2, [r3, #220]	@ zero_extendqisi2
 763 00ac 83F8D720 		strb	r2, [r3, #215]
 314:source\bsw\tft/tft.c ****             break;
 764              		.loc 1 314 0
 765 00b0 93F8DD20 		ldrb	r2, [r3, #221]	@ zero_extendqisi2
 766 00b4 83F8D620 		strb	r2, [r3, #214]
 767              	.L44:
 768 00b8 10BD     		pop	{r4, pc}
 769              	.L53:
 770 00ba 00BF     		.align	2
 771              	.L52:
 772 00bc 00000000 		.word	.LANCHOR0
 773              		.cfi_endproc
 774              	.LFE9:
 775              		.size	TFT_setRotation, .-TFT_setRotation
 776              		.section	.text.TFT_setCursor,"ax",%progbits
 777              		.align	2
 778              		.global	TFT_setCursor
 779              		.thumb
 780              		.thumb_func
 781              		.type	TFT_setCursor, %function
 782              	TFT_setCursor:
 783              	.LFB10:
 321:source\bsw\tft/tft.c ****     cursor_x = x;
 784              		.loc 1 321 0
 785              		.cfi_startproc
 786              		@ args = 0, pretend = 0, frame = 0
 787              		@ frame_needed = 0, uses_anonymous_args = 0
 788              		@ link register save eliminated.
 789              	.LVL78:
 322:source\bsw\tft/tft.c ****     cursor_y = y;
 790              		.loc 1 322 0
 791 0000 024B     		ldr	r3, .L55
 792 0002 A3F8DE00 		strh	r0, [r3, #222]	@ movhi
 323:source\bsw\tft/tft.c **** }
 793              		.loc 1 323 0
 794 0006 A3F8E010 		strh	r1, [r3, #224]	@ movhi
 795 000a 7047     		bx	lr
 796              	.L56:
ARM GAS  C:\Users\MATEOC~1.QUE\AppData\Local\Temp\ccxtWYOp.s 			page 24


 797              		.align	2
 798              	.L55:
 799 000c 00000000 		.word	.LANCHOR0
 800              		.cfi_endproc
 801              	.LFE10:
 802              		.size	TFT_setCursor, .-TFT_setCursor
 803              		.section	.text.TFT_setTextColor,"ax",%progbits
 804              		.align	2
 805              		.global	TFT_setTextColor
 806              		.thumb
 807              		.thumb_func
 808              		.type	TFT_setTextColor, %function
 809              	TFT_setTextColor:
 810              	.LFB11:
 326:source\bsw\tft/tft.c ****     color   = c;
 811              		.loc 1 326 0
 812              		.cfi_startproc
 813              		@ args = 0, pretend = 0, frame = 0
 814              		@ frame_needed = 0, uses_anonymous_args = 0
 815              		@ link register save eliminated.
 816              	.LVL79:
 327:source\bsw\tft/tft.c **** }
 817              		.loc 1 327 0
 818 0000 014B     		ldr	r3, .L58
 819 0002 A3F8E200 		strh	r0, [r3, #226]	@ movhi
 820 0006 7047     		bx	lr
 821              	.L59:
 822              		.align	2
 823              	.L58:
 824 0008 00000000 		.word	.LANCHOR0
 825              		.cfi_endproc
 826              	.LFE11:
 827              		.size	TFT_setTextColor, .-TFT_setTextColor
 828              		.section	.text.TFT_setcolor,"ax",%progbits
 829              		.align	2
 830              		.global	TFT_setcolor
 831              		.thumb
 832              		.thumb_func
 833              		.type	TFT_setcolor, %function
 834              	TFT_setcolor:
 835              	.LFB12:
 330:source\bsw\tft/tft.c ****     // For 'transparent' background, we'll set the bg
 836              		.loc 1 330 0
 837              		.cfi_startproc
 838              		@ args = 0, pretend = 0, frame = 0
 839              		@ frame_needed = 0, uses_anonymous_args = 0
 840              		@ link register save eliminated.
 841              	.LVL80:
 333:source\bsw\tft/tft.c **** }
 842              		.loc 1 333 0
 843 0000 024B     		ldr	r3, .L61
 844 0002 A3F8E400 		strh	r0, [r3, #228]	@ movhi
 845 0006 A3F8E200 		strh	r0, [r3, #226]	@ movhi
 846 000a 7047     		bx	lr
 847              	.L62:
 848              		.align	2
 849              	.L61:
ARM GAS  C:\Users\MATEOC~1.QUE\AppData\Local\Temp\ccxtWYOp.s 			page 25


 850 000c 00000000 		.word	.LANCHOR0
 851              		.cfi_endproc
 852              	.LFE12:
 853              		.size	TFT_setcolor, .-TFT_setcolor
 854              		.section	.text.TFT_setColors,"ax",%progbits
 855              		.align	2
 856              		.global	TFT_setColors
 857              		.thumb
 858              		.thumb_func
 859              		.type	TFT_setColors, %function
 860              	TFT_setColors:
 861              	.LFB13:
 336:source\bsw\tft/tft.c ****     color   = c;
 862              		.loc 1 336 0
 863              		.cfi_startproc
 864              		@ args = 0, pretend = 0, frame = 0
 865              		@ frame_needed = 0, uses_anonymous_args = 0
 866              		@ link register save eliminated.
 867              	.LVL81:
 337:source\bsw\tft/tft.c ****     bgcolor = b;
 868              		.loc 1 337 0
 869 0000 024B     		ldr	r3, .L64
 870 0002 A3F8E200 		strh	r0, [r3, #226]	@ movhi
 338:source\bsw\tft/tft.c **** }
 871              		.loc 1 338 0
 872 0006 A3F8E410 		strh	r1, [r3, #228]	@ movhi
 873 000a 7047     		bx	lr
 874              	.L65:
 875              		.align	2
 876              	.L64:
 877 000c 00000000 		.word	.LANCHOR0
 878              		.cfi_endproc
 879              	.LFE13:
 880              		.size	TFT_setColors, .-TFT_setColors
 881              		.section	.text.TFT_getFGcolor,"ax",%progbits
 882              		.align	2
 883              		.global	TFT_getFGcolor
 884              		.thumb
 885              		.thumb_func
 886              		.type	TFT_getFGcolor, %function
 887              	TFT_getFGcolor:
 888              	.LFB14:
 342:source\bsw\tft/tft.c **** 
 889              		.loc 1 342 0
 890              		.cfi_startproc
 891              		@ args = 0, pretend = 0, frame = 0
 892              		@ frame_needed = 0, uses_anonymous_args = 0
 893              		@ link register save eliminated.
 342:source\bsw\tft/tft.c **** 
 894              		.loc 1 342 0
 895 0000 014B     		ldr	r3, .L67
 896 0002 B3F8E200 		ldrh	r0, [r3, #226]
 897 0006 7047     		bx	lr
 898              	.L68:
 899              		.align	2
 900              	.L67:
 901 0008 00000000 		.word	.LANCHOR0
ARM GAS  C:\Users\MATEOC~1.QUE\AppData\Local\Temp\ccxtWYOp.s 			page 26


 902              		.cfi_endproc
 903              	.LFE14:
 904              		.size	TFT_getFGcolor, .-TFT_getFGcolor
 905              		.section	.text.TFT_getBGcolor,"ax",%progbits
 906              		.align	2
 907              		.global	TFT_getBGcolor
 908              		.thumb
 909              		.thumb_func
 910              		.type	TFT_getBGcolor, %function
 911              	TFT_getBGcolor:
 912              	.LFB15:
 344:source\bsw\tft/tft.c **** 
 913              		.loc 1 344 0
 914              		.cfi_startproc
 915              		@ args = 0, pretend = 0, frame = 0
 916              		@ frame_needed = 0, uses_anonymous_args = 0
 917              		@ link register save eliminated.
 344:source\bsw\tft/tft.c **** 
 918              		.loc 1 344 0
 919 0000 014B     		ldr	r3, .L70
 920 0002 B3F8E400 		ldrh	r0, [r3, #228]
 921 0006 7047     		bx	lr
 922              	.L71:
 923              		.align	2
 924              	.L70:
 925 0008 00000000 		.word	.LANCHOR0
 926              		.cfi_endproc
 927              	.LFE15:
 928              		.size	TFT_getBGcolor, .-TFT_getBGcolor
 929              		.section	.text.TFT_setTextWrap,"ax",%progbits
 930              		.align	2
 931              		.global	TFT_setTextWrap
 932              		.thumb
 933              		.thumb_func
 934              		.type	TFT_setTextWrap, %function
 935              	TFT_setTextWrap:
 936              	.LFB16:
 347:source\bsw\tft/tft.c ****     wrap = w;
 937              		.loc 1 347 0
 938              		.cfi_startproc
 939              		@ args = 0, pretend = 0, frame = 0
 940              		@ frame_needed = 0, uses_anonymous_args = 0
 941              		@ link register save eliminated.
 942              	.LVL82:
 348:source\bsw\tft/tft.c **** }
 943              		.loc 1 348 0
 944 0000 014B     		ldr	r3, .L73
 945 0002 5871     		strb	r0, [r3, #5]
 946 0004 7047     		bx	lr
 947              	.L74:
 948 0006 00BF     		.align	2
 949              	.L73:
 950 0008 00000000 		.word	.LANCHOR0
 951              		.cfi_endproc
 952              	.LFE16:
 953              		.size	TFT_setTextWrap, .-TFT_setTextWrap
 954              		.section	.text.TFT_setTextSize,"ax",%progbits
ARM GAS  C:\Users\MATEOC~1.QUE\AppData\Local\Temp\ccxtWYOp.s 			page 27


 955              		.align	2
 956              		.global	TFT_setTextSize
 957              		.thumb
 958              		.thumb_func
 959              		.type	TFT_setTextSize, %function
 960              	TFT_setTextSize:
 961              	.LFB17:
 351:source\bsw\tft/tft.c ****     textsize = (s > 0) ? s : 1;
 962              		.loc 1 351 0
 963              		.cfi_startproc
 964              		@ args = 0, pretend = 0, frame = 0
 965              		@ frame_needed = 0, uses_anonymous_args = 0
 966              		@ link register save eliminated.
 967              	.LVL83:
 352:source\bsw\tft/tft.c **** }
 968              		.loc 1 352 0
 969 0000 08B9     		cbnz	r0, .L77
 970 0002 0120     		movs	r0, #1
 971              	.LVL84:
 972 0004 FFE7     		b	.L76
 973              	.LVL85:
 974              	.L77:
 975              	.L76:
 352:source\bsw\tft/tft.c **** }
 976              		.loc 1 352 0 is_stmt 0 discriminator 4
 977 0006 014B     		ldr	r3, .L78
 978 0008 1871     		strb	r0, [r3, #4]
 979 000a 7047     		bx	lr
 980              	.L79:
 981              		.align	2
 982              	.L78:
 983 000c 00000000 		.word	.LANCHOR0
 984              		.cfi_endproc
 985              	.LFE17:
 986              		.size	TFT_setTextSize, .-TFT_setTextSize
 987              		.section	.text.TFT_setFont,"ax",%progbits
 988              		.align	2
 989              		.global	TFT_setFont
 990              		.thumb
 991              		.thumb_func
 992              		.type	TFT_setFont, %function
 993              	TFT_setFont:
 994              	.LFB18:
 355:source\bsw\tft/tft.c ****     if(f) {            // Font struct pointer passed in?
 995              		.loc 1 355 0 is_stmt 1
 996              		.cfi_startproc
 997              		@ args = 0, pretend = 0, frame = 0
 998              		@ frame_needed = 0, uses_anonymous_args = 0
 999              		@ link register save eliminated.
 1000              	.LVL86:
 356:source\bsw\tft/tft.c ****         if(!gfxFont) { // And no current font struct?
 1001              		.loc 1 356 0
 1002 0000 0246     		mov	r2, r0
 1003 0002 48B1     		cbz	r0, .L81
 357:source\bsw\tft/tft.c ****             // Switching from classic to new font behavior.
 1004              		.loc 1 357 0
 1005 0004 0A4B     		ldr	r3, .L83
ARM GAS  C:\Users\MATEOC~1.QUE\AppData\Local\Temp\ccxtWYOp.s 			page 28


 1006 0006 1B68     		ldr	r3, [r3]
 1007 0008 7BB9     		cbnz	r3, .L82
 360:source\bsw\tft/tft.c ****         }
 1008              		.loc 1 360 0
 1009 000a 0949     		ldr	r1, .L83
 1010 000c B1F8E030 		ldrh	r3, [r1, #224]
 1011 0010 0633     		adds	r3, r3, #6
 1012 0012 A1F8E030 		strh	r3, [r1, #224]	@ movhi
 1013 0016 08E0     		b	.L82
 1014              	.L81:
 362:source\bsw\tft/tft.c ****         // Switching from new to classic font behavior.
 1015              		.loc 1 362 0
 1016 0018 054B     		ldr	r3, .L83
 1017 001a 1B68     		ldr	r3, [r3]
 1018 001c 2BB1     		cbz	r3, .L82
 365:source\bsw\tft/tft.c ****     }
 1019              		.loc 1 365 0
 1020 001e 0449     		ldr	r1, .L83
 1021 0020 B1F8E030 		ldrh	r3, [r1, #224]
 1022 0024 063B     		subs	r3, r3, #6
 1023 0026 A1F8E030 		strh	r3, [r1, #224]	@ movhi
 1024              	.L82:
 367:source\bsw\tft/tft.c **** }
 1025              		.loc 1 367 0
 1026 002a 014B     		ldr	r3, .L83
 1027 002c 1A60     		str	r2, [r3]
 1028 002e 7047     		bx	lr
 1029              	.L84:
 1030              		.align	2
 1031              	.L83:
 1032 0030 00000000 		.word	.LANCHOR0
 1033              		.cfi_endproc
 1034              	.LFE18:
 1035              		.size	TFT_setFont, .-TFT_setFont
 1036              		.section	.text.TFT_getTextBounds,"ax",%progbits
 1037              		.align	2
 1038              		.global	TFT_getTextBounds
 1039              		.thumb
 1040              		.thumb_func
 1041              		.type	TFT_getTextBounds, %function
 1042              	TFT_getTextBounds:
 1043              	.LFB19:
 371:source\bsw\tft/tft.c ****     uint8_t c; // Current character
 1044              		.loc 1 371 0
 1045              		.cfi_startproc
 1046              		@ args = 12, pretend = 0, frame = 16
 1047              		@ frame_needed = 0, uses_anonymous_args = 0
 1048              	.LVL87:
 1049 0000 2DE9F041 		push	{r4, r5, r6, r7, r8, lr}
 1050              		.cfi_def_cfa_offset 24
 1051              		.cfi_offset 4, -24
 1052              		.cfi_offset 5, -20
 1053              		.cfi_offset 6, -16
 1054              		.cfi_offset 7, -12
 1055              		.cfi_offset 8, -8
 1056              		.cfi_offset 14, -4
 1057 0004 88B0     		sub	sp, sp, #32
ARM GAS  C:\Users\MATEOC~1.QUE\AppData\Local\Temp\ccxtWYOp.s 			page 29


 1058              		.cfi_def_cfa_offset 56
 1059 0006 9846     		mov	r8, r3
 1060 0008 0E9E     		ldr	r6, [sp, #56]
 1061 000a 0F9F     		ldr	r7, [sp, #60]
 1062 000c 109D     		ldr	r5, [sp, #64]
 1063 000e ADF81610 		strh	r1, [sp, #22]	@ movhi
 1064 0012 ADF81420 		strh	r2, [sp, #20]	@ movhi
 374:source\bsw\tft/tft.c ****     *y1 = y;
 1065              		.loc 1 374 0
 1066 0016 1980     		strh	r1, [r3]	@ movhi
 375:source\bsw\tft/tft.c ****     *w  = *h = 0;
 1067              		.loc 1 375 0
 1068 0018 3280     		strh	r2, [r6]	@ movhi
 376:source\bsw\tft/tft.c **** 
 1069              		.loc 1 376 0
 1070 001a 0023     		movs	r3, #0
 1071              	.LVL88:
 1072 001c 2B80     		strh	r3, [r5]	@ movhi
 1073 001e 3B80     		strh	r3, [r7]	@ movhi
 378:source\bsw\tft/tft.c **** 
 1074              		.loc 1 378 0
 1075 0020 204B     		ldr	r3, .L91
 1076 0022 DA88     		ldrh	r2, [r3, #6]
 1077              	.LVL89:
 1078 0024 ADF81E20 		strh	r2, [sp, #30]	@ movhi
 1079 0028 B3F8DA30 		ldrh	r3, [r3, #218]
 1080 002c ADF81C30 		strh	r3, [sp, #28]	@ movhi
 1081 0030 4FF6FF73 		movw	r3, #65535
 1082 0034 ADF81A30 		strh	r3, [sp, #26]	@ movhi
 1083 0038 ADF81830 		strh	r3, [sp, #24]	@ movhi
 380:source\bsw\tft/tft.c ****         charBounds(c, &x, &y, &minx, &miny, &maxx, &maxy);
 1084              		.loc 1 380 0
 1085 003c 0EE0     		b	.L86
 1086              	.LVL90:
 1087              	.L87:
 381:source\bsw\tft/tft.c **** 
 1088              		.loc 1 381 0
 1089 003e 06AB     		add	r3, sp, #24
 1090 0040 0293     		str	r3, [sp, #8]
 1091 0042 0DF11A03 		add	r3, sp, #26
 1092 0046 0193     		str	r3, [sp, #4]
 1093 0048 07AB     		add	r3, sp, #28
 1094 004a 0093     		str	r3, [sp]
 1095 004c 0DF11E03 		add	r3, sp, #30
 1096 0050 05AA     		add	r2, sp, #20
 1097 0052 0DF11601 		add	r1, sp, #22
 1098 0056 FFF7FEFF 		bl	charBounds
 1099              	.LVL91:
 380:source\bsw\tft/tft.c ****         charBounds(c, &x, &y, &minx, &miny, &maxx, &maxy);
 1100              		.loc 1 380 0
 1101 005a 2046     		mov	r0, r4
 1102              	.LVL92:
 1103              	.L86:
 1104 005c 441C     		adds	r4, r0, #1
 1105              	.LVL93:
 1106 005e 0078     		ldrb	r0, [r0]	@ zero_extendqisi2
 1107              	.LVL94:
ARM GAS  C:\Users\MATEOC~1.QUE\AppData\Local\Temp\ccxtWYOp.s 			page 30


 1108 0060 0028     		cmp	r0, #0
 1109 0062 ECD1     		bne	.L87
 383:source\bsw\tft/tft.c ****         *x1 = minx;
 1110              		.loc 1 383 0
 1111 0064 BDF91A20 		ldrsh	r2, [sp, #26]
 1112 0068 BDF91E30 		ldrsh	r3, [sp, #30]
 1113 006c 9A42     		cmp	r2, r3
 1114 006e 08DB     		blt	.L88
 384:source\bsw\tft/tft.c ****         *w  = maxx - minx + 1;
 1115              		.loc 1 384 0
 1116 0070 A8F80030 		strh	r3, [r8]	@ movhi
 385:source\bsw\tft/tft.c ****     }
 1117              		.loc 1 385 0
 1118 0074 BDF81A30 		ldrh	r3, [sp, #26]
 1119 0078 BDF81E20 		ldrh	r2, [sp, #30]
 1120 007c 9B1A     		subs	r3, r3, r2
 1121 007e 0133     		adds	r3, r3, #1
 1122 0080 3B80     		strh	r3, [r7]	@ movhi
 1123              	.L88:
 387:source\bsw\tft/tft.c ****         *y1 = miny;
 1124              		.loc 1 387 0
 1125 0082 BDF91820 		ldrsh	r2, [sp, #24]
 1126 0086 BDF91C30 		ldrsh	r3, [sp, #28]
 1127 008a 9A42     		cmp	r2, r3
 1128 008c 07DB     		blt	.L85
 388:source\bsw\tft/tft.c ****         *h  = maxy - miny + 1;
 1129              		.loc 1 388 0
 1130 008e 3380     		strh	r3, [r6]	@ movhi
 389:source\bsw\tft/tft.c ****     }
 1131              		.loc 1 389 0
 1132 0090 BDF81830 		ldrh	r3, [sp, #24]
 1133 0094 BDF81C20 		ldrh	r2, [sp, #28]
 1134 0098 9B1A     		subs	r3, r3, r2
 1135 009a 0133     		adds	r3, r3, #1
 1136 009c 2B80     		strh	r3, [r5]	@ movhi
 1137              	.L85:
 391:source\bsw\tft/tft.c **** 
 1138              		.loc 1 391 0
 1139 009e 08B0     		add	sp, sp, #32
 1140              		.cfi_def_cfa_offset 24
 1141              		@ sp needed
 1142 00a0 BDE8F081 		pop	{r4, r5, r6, r7, r8, pc}
 1143              	.LVL95:
 1144              	.L92:
 1145              		.align	2
 1146              	.L91:
 1147 00a4 00000000 		.word	.LANCHOR0
 1148              		.cfi_endproc
 1149              	.LFE19:
 1150              		.size	TFT_getTextBounds, .-TFT_getTextBounds
 1151              		.section	.text.TFT_fillRect,"ax",%progbits
 1152              		.align	2
 1153              		.global	TFT_fillRect
 1154              		.thumb
 1155              		.thumb_func
 1156              		.type	TFT_fillRect, %function
 1157              	TFT_fillRect:
ARM GAS  C:\Users\MATEOC~1.QUE\AppData\Local\Temp\ccxtWYOp.s 			page 31


 1158              	.LFB26:
 446:source\bsw\tft/tft.c ****         }
 447:source\bsw\tft/tft.c ****     }
 448:source\bsw\tft/tft.c **** }
 449:source\bsw\tft/tft.c ****         
 450:source\bsw\tft/tft.c **** //----------------- USER FCT
 451:source\bsw\tft/tft.c **** 
 452:source\bsw\tft/tft.c **** void TFT_print(char* txt){
 453:source\bsw\tft/tft.c ****     while(*(txt)!=0){
 454:source\bsw\tft/tft.c ****         TFT_write(*(txt++));
 455:source\bsw\tft/tft.c ****     }
 456:source\bsw\tft/tft.c **** }
 457:source\bsw\tft/tft.c **** 
 458:source\bsw\tft/tft.c **** void TFT_println(char* txt){
 459:source\bsw\tft/tft.c ****     while(*(txt)!=0){
 460:source\bsw\tft/tft.c ****         TFT_write(*(txt++));
 461:source\bsw\tft/tft.c ****     }
 462:source\bsw\tft/tft.c ****     TFT_write('\n');
 463:source\bsw\tft/tft.c **** }
 464:source\bsw\tft/tft.c **** 
 465:source\bsw\tft/tft.c **** void TFT_write(uint8_t c) {
 466:source\bsw\tft/tft.c **** 
 467:source\bsw\tft/tft.c ****     if(!gfxFont) {                              // 'Classic' built-in font
 468:source\bsw\tft/tft.c **** 
 469:source\bsw\tft/tft.c ****         if(c == '\n') {                         // Newline?
 470:source\bsw\tft/tft.c ****             cursor_x  = 0;                      // Reset x to zero,
 471:source\bsw\tft/tft.c ****             cursor_y += textsize * 8;           // advance y one line
 472:source\bsw\tft/tft.c ****         } else if(c != '\r') {                  // Ignore carriage returns
 473:source\bsw\tft/tft.c ****             if(wrap && ((cursor_x + textsize * 6) > _width)) { // Off right?
 474:source\bsw\tft/tft.c ****                 cursor_x  = 0;                  // Reset x to zero,
 475:source\bsw\tft/tft.c ****                 cursor_y += textsize * 8;       // advance y one line
 476:source\bsw\tft/tft.c ****             }
 477:source\bsw\tft/tft.c ****             TFT_drawChar(cursor_x, cursor_y, c, color, bgcolor, textsize);
 478:source\bsw\tft/tft.c ****             cursor_x += textsize * 6;          // Advance x one char
 479:source\bsw\tft/tft.c ****         }
 480:source\bsw\tft/tft.c **** 
 481:source\bsw\tft/tft.c ****     } else { // Custom font
 482:source\bsw\tft/tft.c **** 
 483:source\bsw\tft/tft.c ****         if(c == '\n') {
 484:source\bsw\tft/tft.c ****             cursor_x  = 0;
 485:source\bsw\tft/tft.c ****             cursor_y += (int16_t)textsize *
 486:source\bsw\tft/tft.c ****                         (uint8_t)pgm_read_byte(&gfxFont->yAdvance);
 487:source\bsw\tft/tft.c ****         } else if(c != '\r') {
 488:source\bsw\tft/tft.c ****             uint8_t first = pgm_read_byte(&gfxFont->first);
 489:source\bsw\tft/tft.c ****             if((c >= first) && (c <= (uint8_t)pgm_read_byte(&gfxFont->last))) {
 490:source\bsw\tft/tft.c ****                 GFXglyph *glyph = &(((GFXglyph *)pgm_read_pointer(
 491:source\bsw\tft/tft.c ****                   &gfxFont->glyph))[c - first]);
 492:source\bsw\tft/tft.c ****                 uint8_t   w     = pgm_read_byte(&glyph->width),
 493:source\bsw\tft/tft.c ****                           h     = pgm_read_byte(&glyph->height);
 494:source\bsw\tft/tft.c ****                 if((w > 0) && (h > 0)) { // Is there an associated bitmap?
 495:source\bsw\tft/tft.c ****                     int16_t xo = (int8_t)pgm_read_byte(&glyph->xOffset); // sic
 496:source\bsw\tft/tft.c ****                     if(wrap && ((cursor_x + textsize * (xo + w)) > _width)) {
 497:source\bsw\tft/tft.c ****                         cursor_x  = 0;
 498:source\bsw\tft/tft.c ****                         cursor_y += (int16_t)textsize *
 499:source\bsw\tft/tft.c ****                           (uint8_t)pgm_read_byte(&gfxFont->yAdvance);
 500:source\bsw\tft/tft.c ****                     }
 501:source\bsw\tft/tft.c ****                     TFT_drawChar(cursor_x, cursor_y, c, color, bgcolor, textsize);
ARM GAS  C:\Users\MATEOC~1.QUE\AppData\Local\Temp\ccxtWYOp.s 			page 32


 502:source\bsw\tft/tft.c ****                 }
 503:source\bsw\tft/tft.c ****                 cursor_x += (uint8_t)pgm_read_byte(&glyph->xAdvance) * (int16_t)textsize;
 504:source\bsw\tft/tft.c ****             }
 505:source\bsw\tft/tft.c ****         }
 506:source\bsw\tft/tft.c **** 
 507:source\bsw\tft/tft.c ****     }
 508:source\bsw\tft/tft.c **** }
 509:source\bsw\tft/tft.c **** 
 510:source\bsw\tft/tft.c **** void TFT_fillScreen(TFT_color_t color) {
 511:source\bsw\tft/tft.c ****   TFT_fillRect(0, 0,  _width, _height, color);
 512:source\bsw\tft/tft.c **** }
 513:source\bsw\tft/tft.c **** 
 514:source\bsw\tft/tft.c **** void TFT_clearScreen(void){TFT_fillScreen(TFT_getBGcolor());};
 515:source\bsw\tft/tft.c **** 
 516:source\bsw\tft/tft.c **** void TFT_fillRect(int16_t x, int16_t y, int16_t w, int16_t h, TFT_color_t color) {
 1159              		.loc 1 516 0
 1160              		.cfi_startproc
 1161              		@ args = 4, pretend = 0, frame = 0
 1162              		@ frame_needed = 0, uses_anonymous_args = 0
 1163              	.LVL96:
 1164 0000 2DE9F041 		push	{r4, r5, r6, r7, r8, lr}
 1165              		.cfi_def_cfa_offset 24
 1166              		.cfi_offset 4, -24
 1167              		.cfi_offset 5, -20
 1168              		.cfi_offset 6, -16
 1169              		.cfi_offset 7, -12
 1170              		.cfi_offset 8, -8
 1171              		.cfi_offset 14, -4
 1172 0004 1F46     		mov	r7, r3
 1173 0006 BDF81850 		ldrh	r5, [sp, #24]
 517:source\bsw\tft/tft.c ****     
 518:source\bsw\tft/tft.c ****     // rudimentary clipping (drawChar w/big text requires this)
 519:source\bsw\tft/tft.c ****     if((x >= _width) || (y >= _height)) return;
 1174              		.loc 1 519 0
 1175 000a 1F4B     		ldr	r3, .L102
 1176              	.LVL97:
 1177 000c B3F90630 		ldrsh	r3, [r3, #6]
 1178 0010 8342     		cmp	r3, r0
 1179 0012 36DD     		ble	.L93
 1180 0014 9046     		mov	r8, r2
 1181              		.loc 1 519 0 is_stmt 0 discriminator 1
 1182 0016 1C4A     		ldr	r2, .L102
 1183              	.LVL98:
 1184 0018 B2F8DA20 		ldrh	r2, [r2, #218]
 1185 001c 9142     		cmp	r1, r2
 1186 001e 30DA     		bge	.L93
 520:source\bsw\tft/tft.c ****     
 521:source\bsw\tft/tft.c ****     if((x + w - 1) >= _width)  w = _width  - x;
 1187              		.loc 1 521 0 is_stmt 1
 1188 0020 00EB0804 		add	r4, r0, r8
 1189 0024 013C     		subs	r4, r4, #1
 1190 0026 9C42     		cmp	r4, r3
 1191 0028 02DB     		blt	.L95
 1192              		.loc 1 521 0 is_stmt 0 discriminator 1
 1193 002a 1B1A     		subs	r3, r3, r0
 1194 002c 0FFA83F8 		sxth	r8, r3
 1195              	.LVL99:
ARM GAS  C:\Users\MATEOC~1.QUE\AppData\Local\Temp\ccxtWYOp.s 			page 33


 1196              	.L95:
 522:source\bsw\tft/tft.c ****     if((y + h - 1) >= _height) h = _height - y;
 1197              		.loc 1 522 0 is_stmt 1
 1198 0030 7B18     		adds	r3, r7, r1
 1199 0032 013B     		subs	r3, r3, #1
 1200 0034 9A42     		cmp	r2, r3
 1201 0036 01DC     		bgt	.L96
 1202              		.loc 1 522 0 is_stmt 0 discriminator 1
 1203 0038 571A     		subs	r7, r2, r1
 1204 003a 3FB2     		sxth	r7, r7
 1205              	.LVL100:
 1206              	.L96:
 523:source\bsw\tft/tft.c ****     
 524:source\bsw\tft/tft.c ****     setAddrWindow(x, y, x+w-1, y+h-1);
 1207              		.loc 1 524 0 is_stmt 1
 1208 003c C0B2     		uxtb	r0, r0
 1209              	.LVL101:
 1210 003e C9B2     		uxtb	r1, r1
 1211              	.LVL102:
 1212 0040 CB19     		adds	r3, r1, r7
 1213 0042 013B     		subs	r3, r3, #1
 1214 0044 00EB0802 		add	r2, r0, r8
 1215 0048 013A     		subs	r2, r2, #1
 1216 004a DBB2     		uxtb	r3, r3
 1217 004c D2B2     		uxtb	r2, r2
 1218 004e FFF7FEFF 		bl	setAddrWindow
 1219              	.LVL103:
 525:source\bsw\tft/tft.c **** 
 526:source\bsw\tft/tft.c ****     uint8_t hi = color >> 8, lo = color;
 1220              		.loc 1 526 0
 1221 0052 2E0A     		lsrs	r6, r5, #8
 1222              	.LVL104:
 1223 0054 EDB2     		uxtb	r5, r5
 1224              	.LVL105:
 527:source\bsw\tft/tft.c ****     
 528:source\bsw\tft/tft.c ****     TFT_DC_HIGH;
 1225              		.loc 1 528 0
 1226 0056 0120     		movs	r0, #1
 1227 0058 FFF7FEFF 		bl	TFT_DC_Write
 1228              	.LVL106:
 529:source\bsw\tft/tft.c ****     for(y=h; y>0; y--) {
 1229              		.loc 1 529 0
 1230 005c 0FE0     		b	.L97
 1231              	.LVL107:
 1232              	.L98:
 530:source\bsw\tft/tft.c ****         for(x=w; x>0; x--) {
 531:source\bsw\tft/tft.c ****           TFT_write_stream(hi);
 1233              		.loc 1 531 0 discriminator 3
 1234 005e 3146     		mov	r1, r6
 1235 0060 0220     		movs	r0, #2
 1236 0062 FFF7FEFF 		bl	TFT_send
 1237              	.LVL108:
 532:source\bsw\tft/tft.c ****           TFT_write_stream(lo);
 1238              		.loc 1 532 0 discriminator 3
 1239 0066 2946     		mov	r1, r5
 1240 0068 0220     		movs	r0, #2
 1241 006a FFF7FEFF 		bl	TFT_send
ARM GAS  C:\Users\MATEOC~1.QUE\AppData\Local\Temp\ccxtWYOp.s 			page 34


 1242              	.LVL109:
 530:source\bsw\tft/tft.c ****         for(x=w; x>0; x--) {
 1243              		.loc 1 530 0 discriminator 3
 1244 006e 013C     		subs	r4, r4, #1
 1245              	.LVL110:
 1246 0070 24B2     		sxth	r4, r4
 1247              	.LVL111:
 1248 0072 00E0     		b	.L99
 1249              	.LVL112:
 1250              	.L100:
 1251 0074 4446     		mov	r4, r8
 1252              	.L99:
 1253              	.LVL113:
 530:source\bsw\tft/tft.c ****         for(x=w; x>0; x--) {
 1254              		.loc 1 530 0 is_stmt 0 discriminator 1
 1255 0076 002C     		cmp	r4, #0
 1256 0078 F1DC     		bgt	.L98
 529:source\bsw\tft/tft.c ****     for(y=h; y>0; y--) {
 1257              		.loc 1 529 0 is_stmt 1 discriminator 2
 1258 007a 013F     		subs	r7, r7, #1
 1259              	.LVL114:
 1260 007c 3FB2     		sxth	r7, r7
 1261              	.LVL115:
 1262              	.L97:
 529:source\bsw\tft/tft.c ****     for(y=h; y>0; y--) {
 1263              		.loc 1 529 0 is_stmt 0 discriminator 1
 1264 007e 002F     		cmp	r7, #0
 1265 0080 F8DC     		bgt	.L100
 1266              	.LVL116:
 1267              	.L93:
 1268 0082 BDE8F081 		pop	{r4, r5, r6, r7, r8, pc}
 1269              	.LVL117:
 1270              	.L103:
 1271 0086 00BF     		.align	2
 1272              	.L102:
 1273 0088 00000000 		.word	.LANCHOR0
 1274              		.cfi_endproc
 1275              	.LFE26:
 1276              		.size	TFT_fillRect, .-TFT_fillRect
 1277              		.section	.text.TFT_fillScreen,"ax",%progbits
 1278              		.align	2
 1279              		.global	TFT_fillScreen
 1280              		.thumb
 1281              		.thumb_func
 1282              		.type	TFT_fillScreen, %function
 1283              	TFT_fillScreen:
 1284              	.LFB24:
 510:source\bsw\tft/tft.c ****   TFT_fillRect(0, 0,  _width, _height, color);
 1285              		.loc 1 510 0 is_stmt 1
 1286              		.cfi_startproc
 1287              		@ args = 0, pretend = 0, frame = 0
 1288              		@ frame_needed = 0, uses_anonymous_args = 0
 1289              	.LVL118:
 1290 0000 00B5     		push	{lr}
 1291              		.cfi_def_cfa_offset 4
 1292              		.cfi_offset 14, -4
 1293 0002 83B0     		sub	sp, sp, #12
ARM GAS  C:\Users\MATEOC~1.QUE\AppData\Local\Temp\ccxtWYOp.s 			page 35


 1294              		.cfi_def_cfa_offset 16
 511:source\bsw\tft/tft.c **** }
 1295              		.loc 1 511 0
 1296 0004 064A     		ldr	r2, .L106
 1297 0006 B2F9DA30 		ldrsh	r3, [r2, #218]
 1298 000a B2F90620 		ldrsh	r2, [r2, #6]
 1299 000e 0090     		str	r0, [sp]
 1300 0010 0021     		movs	r1, #0
 1301 0012 0846     		mov	r0, r1
 1302              	.LVL119:
 1303 0014 FFF7FEFF 		bl	TFT_fillRect
 1304              	.LVL120:
 512:source\bsw\tft/tft.c **** 
 1305              		.loc 1 512 0
 1306 0018 03B0     		add	sp, sp, #12
 1307              		.cfi_def_cfa_offset 4
 1308              		@ sp needed
 1309 001a 5DF804FB 		ldr	pc, [sp], #4
 1310              	.L107:
 1311 001e 00BF     		.align	2
 1312              	.L106:
 1313 0020 00000000 		.word	.LANCHOR0
 1314              		.cfi_endproc
 1315              	.LFE24:
 1316              		.size	TFT_fillScreen, .-TFT_fillScreen
 1317              		.section	.text.TFT_init,"ax",%progbits
 1318              		.align	2
 1319              		.global	TFT_init
 1320              		.thumb
 1321              		.thumb_func
 1322              		.type	TFT_init, %function
 1323              	TFT_init:
 1324              	.LFB5:
 193:source\bsw\tft/tft.c ****     
 1325              		.loc 1 193 0
 1326              		.cfi_startproc
 1327              		@ args = 0, pretend = 0, frame = 0
 1328              		@ frame_needed = 0, uses_anonymous_args = 0
 1329 0000 F8B5     		push	{r3, r4, r5, r6, r7, lr}
 1330              		.cfi_def_cfa_offset 24
 1331              		.cfi_offset 3, -24
 1332              		.cfi_offset 4, -20
 1333              		.cfi_offset 5, -16
 1334              		.cfi_offset 6, -12
 1335              		.cfi_offset 7, -8
 1336              		.cfi_offset 14, -4
 196:source\bsw\tft/tft.c ****     _height   = CFG_TFT_HEIGHT;
 1337              		.loc 1 196 0
 1338 0002 364B     		ldr	r3, .L114
 1339 0004 8022     		movs	r2, #128
 1340 0006 DA80     		strh	r2, [r3, #6]	@ movhi
 197:source\bsw\tft/tft.c ****     rotation=0;
 1341              		.loc 1 197 0
 1342 0008 A022     		movs	r2, #160
 1343 000a A3F8DA20 		strh	r2, [r3, #218]	@ movhi
 198:source\bsw\tft/tft.c ****     cursor_x=0;
 1344              		.loc 1 198 0
ARM GAS  C:\Users\MATEOC~1.QUE\AppData\Local\Temp\ccxtWYOp.s 			page 36


 1345 000e 0024     		movs	r4, #0
 1346 0010 83F8D840 		strb	r4, [r3, #216]
 199:source\bsw\tft/tft.c ****     cursor_y=0;
 1347              		.loc 1 199 0
 1348 0014 A3F8DE40 		strh	r4, [r3, #222]	@ movhi
 200:source\bsw\tft/tft.c ****     textsize=1;
 1349              		.loc 1 200 0
 1350 0018 A3F8E040 		strh	r4, [r3, #224]	@ movhi
 201:source\bsw\tft/tft.c ****     color=CFG_TFT_COLOR_TEXT;
 1351              		.loc 1 201 0
 1352 001c 0125     		movs	r5, #1
 1353 001e 1D71     		strb	r5, [r3, #4]
 202:source\bsw\tft/tft.c ****     bgcolor=CFG_TFT_COLOR_TEXTBG;
 1354              		.loc 1 202 0
 1355 0020 4FF6FF72 		movw	r2, #65535
 1356 0024 A3F8E220 		strh	r2, [r3, #226]	@ movhi
 203:source\bsw\tft/tft.c ****     wrap=TRUE;
 1357              		.loc 1 203 0
 1358 0028 A3F8E440 		strh	r4, [r3, #228]	@ movhi
 204:source\bsw\tft/tft.c ****     gfxFont=NULL;
 1359              		.loc 1 204 0
 1360 002c 5D71     		strb	r5, [r3, #5]
 205:source\bsw\tft/tft.c ****     ystart = xstart = colstart  = rowstart = 0;
 1361              		.loc 1 205 0
 1362 002e 1C60     		str	r4, [r3]
 206:source\bsw\tft/tft.c ****     
 1363              		.loc 1 206 0
 1364 0030 83F8DD40 		strb	r4, [r3, #221]
 1365 0034 83F8DC40 		strb	r4, [r3, #220]
 1366 0038 83F8D640 		strb	r4, [r3, #214]
 1367 003c 83F8D740 		strb	r4, [r3, #215]
 209:source\bsw\tft/tft.c ****     TFT_RB_out.write=0;
 1368              		.loc 1 209 0
 1369 0040 1C81     		strh	r4, [r3, #8]	@ movhi
 210:source\bsw\tft/tft.c ****     TFT_RB_out.fill=0;
 1370              		.loc 1 210 0
 1371 0042 5C81     		strh	r4, [r3, #10]	@ movhi
 211:source\bsw\tft/tft.c ****     
 1372              		.loc 1 211 0
 1373 0044 9C81     		strh	r4, [r3, #12]	@ movhi
 214:source\bsw\tft/tft.c ****     
 1374              		.loc 1 214 0
 1375 0046 FFF7FEFF 		bl	TFT_SPI_Start
 1376              	.LVL121:
 217:source\bsw\tft/tft.c ****     CFG_TFT_DELAY_MS(100);
 1377              		.loc 1 217 0
 1378 004a 2846     		mov	r0, r5
 1379 004c FFF7FEFF 		bl	TFT_RES_Write
 1380              	.LVL122:
 218:source\bsw\tft/tft.c ****     TFT_RES_LOW;
 1381              		.loc 1 218 0
 1382 0050 6420     		movs	r0, #100
 1383 0052 FFF7FEFF 		bl	CyDelay
 1384              	.LVL123:
 219:source\bsw\tft/tft.c **** 	CFG_TFT_DELAY_MS(100);
 1385              		.loc 1 219 0
 1386 0056 2046     		mov	r0, r4
ARM GAS  C:\Users\MATEOC~1.QUE\AppData\Local\Temp\ccxtWYOp.s 			page 37


 1387 0058 FFF7FEFF 		bl	TFT_RES_Write
 1388              	.LVL124:
 220:source\bsw\tft/tft.c **** 	TFT_RES_HIGH;
 1389              		.loc 1 220 0
 1390 005c 6420     		movs	r0, #100
 1391 005e FFF7FEFF 		bl	CyDelay
 1392              	.LVL125:
 221:source\bsw\tft/tft.c **** 	CFG_TFT_DELAY_MS(20);
 1393              		.loc 1 221 0
 1394 0062 2846     		mov	r0, r5
 1395 0064 FFF7FEFF 		bl	TFT_RES_Write
 1396              	.LVL126:
 222:source\bsw\tft/tft.c ****     
 1397              		.loc 1 222 0
 1398 0068 1420     		movs	r0, #20
 1399 006a FFF7FEFF 		bl	CyDelay
 1400              	.LVL127:
 225:source\bsw\tft/tft.c ****     CFG_TFT_DELAY_MS(50);
 1401              		.loc 1 225 0
 1402 006e 2946     		mov	r1, r5
 1403 0070 2046     		mov	r0, r4
 1404 0072 FFF7FEFF 		bl	TFT_send
 1405              	.LVL128:
 226:source\bsw\tft/tft.c ****     
 1406              		.loc 1 226 0
 1407 0076 3220     		movs	r0, #50
 1408 0078 FFF7FEFF 		bl	CyDelay
 1409              	.LVL129:
 229:source\bsw\tft/tft.c **** 	CFG_TFT_DELAY_MS(120);              //Delay 120ms
 1410              		.loc 1 229 0
 1411 007c 1121     		movs	r1, #17
 1412 007e 2046     		mov	r0, r4
 1413 0080 FFF7FEFF 		bl	TFT_send
 1414              	.LVL130:
 230:source\bsw\tft/tft.c ****     
 1415              		.loc 1 230 0
 1416 0084 7820     		movs	r0, #120
 1417 0086 FFF7FEFF 		bl	CyDelay
 1418              	.LVL131:
 235:source\bsw\tft/tft.c ****     while(numCommands--) {          // For each command...
 1419              		.loc 1 235 0
 1420 008a 0F22     		movs	r2, #15
 1421 008c 144D     		ldr	r5, .L114+4
 236:source\bsw\tft/tft.c ****         TFT_write_cmd(*(addr++));    // Read, issue command
 1422              		.loc 1 236 0
 1423 008e 14E0     		b	.L109
 1424              	.LVL132:
 1425              	.L112:
 237:source\bsw\tft/tft.c ****         numArgs  = *(addr++);       // Number of args to follow
 1426              		.loc 1 237 0
 1427 0090 2C46     		mov	r4, r5
 1428 0092 14F8021B 		ldrb	r1, [r4], #2	@ zero_extendqisi2
 1429 0096 0020     		movs	r0, #0
 1430 0098 FFF7FEFF 		bl	TFT_send
 1431              	.LVL133:
 238:source\bsw\tft/tft.c ****         while(numArgs--) {          // For each argument...
 1432              		.loc 1 238 0
ARM GAS  C:\Users\MATEOC~1.QUE\AppData\Local\Temp\ccxtWYOp.s 			page 38


 1433 009c 6A78     		ldrb	r2, [r5, #1]	@ zero_extendqisi2
 1434              	.LVL134:
 1435 009e 2546     		mov	r5, r4
 239:source\bsw\tft/tft.c ****           TFT_write_data(*(addr++));     // Read, issue argument
 1436              		.loc 1 239 0
 1437 00a0 06E0     		b	.L110
 1438              	.LVL135:
 1439              	.L111:
 240:source\bsw\tft/tft.c ****         }
 1440              		.loc 1 240 0
 1441 00a2 6E1C     		adds	r6, r5, #1
 1442              	.LVL136:
 1443 00a4 2978     		ldrb	r1, [r5]	@ zero_extendqisi2
 1444 00a6 0120     		movs	r0, #1
 1445 00a8 FFF7FEFF 		bl	TFT_send
 1446              	.LVL137:
 239:source\bsw\tft/tft.c ****           TFT_write_data(*(addr++));     // Read, issue argument
 1447              		.loc 1 239 0
 1448 00ac 2246     		mov	r2, r4
 240:source\bsw\tft/tft.c ****         }
 1449              		.loc 1 240 0
 1450 00ae 3546     		mov	r5, r6
 1451              	.LVL138:
 1452              	.L110:
 239:source\bsw\tft/tft.c ****           TFT_write_data(*(addr++));     // Read, issue argument
 1453              		.loc 1 239 0
 1454 00b0 531E     		subs	r3, r2, #1
 1455 00b2 DCB2     		uxtb	r4, r3
 1456              	.LVL139:
 1457 00b4 002A     		cmp	r2, #0
 1458 00b6 F4D1     		bne	.L111
 236:source\bsw\tft/tft.c ****         TFT_write_cmd(*(addr++));    // Read, issue command
 1459              		.loc 1 236 0
 1460 00b8 3A46     		mov	r2, r7
 1461              	.LVL140:
 1462              	.L109:
 1463 00ba 531E     		subs	r3, r2, #1
 1464 00bc DFB2     		uxtb	r7, r3
 1465              	.LVL141:
 1466 00be 002A     		cmp	r2, #0
 1467 00c0 E6D1     		bne	.L112
 245:source\bsw\tft/tft.c ****     
 1468              		.loc 1 245 0
 1469 00c2 0220     		movs	r0, #2
 1470 00c4 FFF7FEFF 		bl	TFT_setRotation
 1471              	.LVL142:
 248:source\bsw\tft/tft.c ****     
 1472              		.loc 1 248 0
 1473 00c8 0020     		movs	r0, #0
 1474 00ca FFF7FEFF 		bl	TFT_fillScreen
 1475              	.LVL143:
 251:source\bsw\tft/tft.c ****     MODULE_PWM(WriteCompare)(CFG_TFT_BACKLIGHT);
 1476              		.loc 1 251 0
 1477 00ce FFF7FEFF 		bl	TFT_BackLight_Start
 1478              	.LVL144:
 252:source\bsw\tft/tft.c **** }
 1479              		.loc 1 252 0
ARM GAS  C:\Users\MATEOC~1.QUE\AppData\Local\Temp\ccxtWYOp.s 			page 39


 1480 00d2 6420     		movs	r0, #100
 1481 00d4 FFF7FEFF 		bl	TFT_BackLight_WriteCompare
 1482              	.LVL145:
 1483 00d8 F8BD     		pop	{r3, r4, r5, r6, r7, pc}
 1484              	.LVL146:
 1485              	.L115:
 1486 00da 00BF     		.align	2
 1487              	.L114:
 1488 00dc 00000000 		.word	.LANCHOR0
 1489 00e0 01000000 		.word	.LANCHOR1+1
 1490              		.cfi_endproc
 1491              	.LFE5:
 1492              		.size	TFT_init, .-TFT_init
 1493              		.section	.text.TFT_clearScreen,"ax",%progbits
 1494              		.align	2
 1495              		.global	TFT_clearScreen
 1496              		.thumb
 1497              		.thumb_func
 1498              		.type	TFT_clearScreen, %function
 1499              	TFT_clearScreen:
 1500              	.LFB25:
 514:source\bsw\tft/tft.c **** 
 1501              		.loc 1 514 0
 1502              		.cfi_startproc
 1503              		@ args = 0, pretend = 0, frame = 0
 1504              		@ frame_needed = 0, uses_anonymous_args = 0
 1505 0000 08B5     		push	{r3, lr}
 1506              		.cfi_def_cfa_offset 8
 1507              		.cfi_offset 3, -8
 1508              		.cfi_offset 14, -4
 514:source\bsw\tft/tft.c **** 
 1509              		.loc 1 514 0
 1510 0002 FFF7FEFF 		bl	TFT_getBGcolor
 1511              	.LVL147:
 1512 0006 FFF7FEFF 		bl	TFT_fillScreen
 1513              	.LVL148:
 1514 000a 08BD     		pop	{r3, pc}
 1515              		.cfi_endproc
 1516              	.LFE25:
 1517              		.size	TFT_clearScreen, .-TFT_clearScreen
 1518              		.section	.text.TFT_drawPixel,"ax",%progbits
 1519              		.align	2
 1520              		.global	TFT_drawPixel
 1521              		.thumb
 1522              		.thumb_func
 1523              		.type	TFT_drawPixel, %function
 1524              	TFT_drawPixel:
 1525              	.LFB27:
 533:source\bsw\tft/tft.c ****         }
 534:source\bsw\tft/tft.c ****     }
 535:source\bsw\tft/tft.c **** }
 536:source\bsw\tft/tft.c **** 
 537:source\bsw\tft/tft.c **** void TFT_drawPixel(int16_t x, int16_t y, TFT_color_t color) {
 1526              		.loc 1 537 0
 1527              		.cfi_startproc
 1528              		@ args = 0, pretend = 0, frame = 0
 1529              		@ frame_needed = 0, uses_anonymous_args = 0
ARM GAS  C:\Users\MATEOC~1.QUE\AppData\Local\Temp\ccxtWYOp.s 			page 40


 1530              	.LVL149:
 538:source\bsw\tft/tft.c **** 
 539:source\bsw\tft/tft.c ****     if((x < 0) ||(x >= _width) || (y < 0) || (y >= _height)) return;
 1531              		.loc 1 539 0
 1532 0000 0028     		cmp	r0, #0
 1533              	.LVL150:
 1534 0002 21DB     		blt	.L121
 1535              		.loc 1 539 0 is_stmt 0 discriminator 1
 1536 0004 114B     		ldr	r3, .L122
 1537 0006 B3F90630 		ldrsh	r3, [r3, #6]
 1538 000a 9842     		cmp	r0, r3
 1539 000c 1CDA     		bge	.L121
 1540              		.loc 1 539 0 discriminator 2
 1541 000e 0029     		cmp	r1, #0
 1542 0010 1ADB     		blt	.L121
 1543              		.loc 1 539 0 discriminator 3
 1544 0012 0E4B     		ldr	r3, .L122
 1545 0014 B3F8DA30 		ldrh	r3, [r3, #218]
 1546 0018 9942     		cmp	r1, r3
 1547 001a 15DA     		bge	.L121
 537:source\bsw\tft/tft.c **** 
 1548              		.loc 1 537 0 is_stmt 1
 1549 001c 10B5     		push	{r4, lr}
 1550              		.cfi_def_cfa_offset 8
 1551              		.cfi_offset 4, -8
 1552              		.cfi_offset 14, -4
 1553 001e 1446     		mov	r4, r2
 540:source\bsw\tft/tft.c ****     setAddrWindow(x,y,x+1,y+1);
 1554              		.loc 1 540 0
 1555 0020 C0B2     		uxtb	r0, r0
 1556 0022 C9B2     		uxtb	r1, r1
 1557              	.LVL151:
 1558 0024 4B1C     		adds	r3, r1, #1
 1559 0026 421C     		adds	r2, r0, #1
 1560              	.LVL152:
 1561 0028 DBB2     		uxtb	r3, r3
 1562 002a D2B2     		uxtb	r2, r2
 1563 002c FFF7FEFF 		bl	setAddrWindow
 1564              	.LVL153:
 541:source\bsw\tft/tft.c **** 
 542:source\bsw\tft/tft.c ****     TFT_DC_HIGH;
 1565              		.loc 1 542 0
 1566 0030 0120     		movs	r0, #1
 1567 0032 FFF7FEFF 		bl	TFT_DC_Write
 1568              	.LVL154:
 543:source\bsw\tft/tft.c ****     TFT_write_stream(color >> 8);
 1569              		.loc 1 543 0
 1570 0036 210A     		lsrs	r1, r4, #8
 1571 0038 0220     		movs	r0, #2
 1572 003a FFF7FEFF 		bl	TFT_send
 1573              	.LVL155:
 544:source\bsw\tft/tft.c ****     TFT_write_stream(color);
 1574              		.loc 1 544 0
 1575 003e E1B2     		uxtb	r1, r4
 1576 0040 0220     		movs	r0, #2
 1577 0042 FFF7FEFF 		bl	TFT_send
 1578              	.LVL156:
ARM GAS  C:\Users\MATEOC~1.QUE\AppData\Local\Temp\ccxtWYOp.s 			page 41


 1579 0046 10BD     		pop	{r4, pc}
 1580              	.LVL157:
 1581              	.L121:
 1582              		.cfi_def_cfa_offset 0
 1583              		.cfi_restore 4
 1584              		.cfi_restore 14
 1585 0048 7047     		bx	lr
 1586              	.L123:
 1587 004a 00BF     		.align	2
 1588              	.L122:
 1589 004c 00000000 		.word	.LANCHOR0
 1590              		.cfi_endproc
 1591              	.LFE27:
 1592              		.size	TFT_drawPixel, .-TFT_drawPixel
 1593              		.section	.text.TFT_drawCircleHelper,"ax",%progbits
 1594              		.align	2
 1595              		.thumb
 1596              		.thumb_func
 1597              		.type	TFT_drawCircleHelper, %function
 1598              	TFT_drawCircleHelper:
 1599              	.LFB33:
 545:source\bsw\tft/tft.c **** 
 546:source\bsw\tft/tft.c **** }
 547:source\bsw\tft/tft.c **** 
 548:source\bsw\tft/tft.c **** void TFT_fastVLine(int16_t x, int16_t y, int16_t h, TFT_color_t color) {
 549:source\bsw\tft/tft.c **** 
 550:source\bsw\tft/tft.c ****   // Rudimentary clipping
 551:source\bsw\tft/tft.c ****   if((x >= _width) || (y >= _height)) return;
 552:source\bsw\tft/tft.c ****   if((y+h-1) >= _height) h = _height-y;
 553:source\bsw\tft/tft.c ****   setAddrWindow(x, y, x, y+h-1);
 554:source\bsw\tft/tft.c **** 
 555:source\bsw\tft/tft.c ****   uint8_t hi = color >> 8, lo = color;
 556:source\bsw\tft/tft.c ****     
 557:source\bsw\tft/tft.c ****   TFT_DC_HIGH;
 558:source\bsw\tft/tft.c ****   while (h--) {
 559:source\bsw\tft/tft.c ****     TFT_write_stream(hi);
 560:source\bsw\tft/tft.c ****     TFT_write_stream(lo);
 561:source\bsw\tft/tft.c ****   }
 562:source\bsw\tft/tft.c **** }
 563:source\bsw\tft/tft.c **** 
 564:source\bsw\tft/tft.c **** void TFT_fastHLine(int16_t x, int16_t y, int16_t w,  TFT_color_t color) {
 565:source\bsw\tft/tft.c **** 
 566:source\bsw\tft/tft.c ****     // Rudimentary clipping
 567:source\bsw\tft/tft.c ****     if((x >= _width) || (y >= _height)) return;
 568:source\bsw\tft/tft.c ****     if((x+w-1) >= _width)  w = _width-x;
 569:source\bsw\tft/tft.c ****     setAddrWindow(x, y, x+w-1, y);
 570:source\bsw\tft/tft.c **** 
 571:source\bsw\tft/tft.c ****     uint8_t hi = color >> 8, lo = color;
 572:source\bsw\tft/tft.c **** 
 573:source\bsw\tft/tft.c ****     TFT_DC_HIGH;
 574:source\bsw\tft/tft.c **** 
 575:source\bsw\tft/tft.c ****     while (w--) {
 576:source\bsw\tft/tft.c ****         TFT_write_stream(hi);
 577:source\bsw\tft/tft.c ****         TFT_write_stream(lo);
 578:source\bsw\tft/tft.c ****     }
 579:source\bsw\tft/tft.c **** }
 580:source\bsw\tft/tft.c **** 
ARM GAS  C:\Users\MATEOC~1.QUE\AppData\Local\Temp\ccxtWYOp.s 			page 42


 581:source\bsw\tft/tft.c **** // Bresenham's algorithm - thx wikpedia
 582:source\bsw\tft/tft.c **** void TFT_writeLine(int16_t x0, int16_t y0, int16_t x1, int16_t y1,  TFT_color_t color) {
 583:source\bsw\tft/tft.c ****     int16_t steep = _abs(y1 - y0) > _abs(x1 - x0);
 584:source\bsw\tft/tft.c ****     if (steep) {
 585:source\bsw\tft/tft.c ****         _swap_int16_t(x0, y0);
 586:source\bsw\tft/tft.c ****         _swap_int16_t(x1, y1);
 587:source\bsw\tft/tft.c ****     }
 588:source\bsw\tft/tft.c **** 
 589:source\bsw\tft/tft.c ****     if (x0 > x1) {
 590:source\bsw\tft/tft.c ****         _swap_int16_t(x0, x1);
 591:source\bsw\tft/tft.c ****         _swap_int16_t(y0, y1);
 592:source\bsw\tft/tft.c ****     }
 593:source\bsw\tft/tft.c **** 
 594:source\bsw\tft/tft.c ****     int16_t dx, dy;
 595:source\bsw\tft/tft.c ****     dx = x1 - x0;
 596:source\bsw\tft/tft.c ****     dy = _abs(y1 - y0);
 597:source\bsw\tft/tft.c **** 
 598:source\bsw\tft/tft.c ****     int16_t err = dx / 2;
 599:source\bsw\tft/tft.c ****     int16_t ystep;
 600:source\bsw\tft/tft.c **** 
 601:source\bsw\tft/tft.c ****     if (y0 < y1) {
 602:source\bsw\tft/tft.c ****         ystep = 1;
 603:source\bsw\tft/tft.c ****     } else {
 604:source\bsw\tft/tft.c ****         ystep = -1;
 605:source\bsw\tft/tft.c ****     }
 606:source\bsw\tft/tft.c **** 
 607:source\bsw\tft/tft.c ****     for (; x0<=x1; x0++) {
 608:source\bsw\tft/tft.c ****         if (steep) {
 609:source\bsw\tft/tft.c ****             TFT_drawPixel(y0, x0, color);
 610:source\bsw\tft/tft.c ****         } else {
 611:source\bsw\tft/tft.c ****             TFT_drawPixel(x0, y0, color);
 612:source\bsw\tft/tft.c ****         }
 613:source\bsw\tft/tft.c ****         err -= dy;
 614:source\bsw\tft/tft.c ****         if (err < 0) {
 615:source\bsw\tft/tft.c ****             y0 += ystep;
 616:source\bsw\tft/tft.c ****             err += dx;
 617:source\bsw\tft/tft.c ****         }
 618:source\bsw\tft/tft.c ****     }
 619:source\bsw\tft/tft.c **** }
 620:source\bsw\tft/tft.c **** 
 621:source\bsw\tft/tft.c **** void TFT_invertDisplay(boolean_t i) {
 622:source\bsw\tft/tft.c ****   TFT_write_cmd(i ? ST7735_INVON : ST7735_INVOFF);
 623:source\bsw\tft/tft.c **** }
 624:source\bsw\tft/tft.c **** 
 625:source\bsw\tft/tft.c **** // Draw a circle outline
 626:source\bsw\tft/tft.c **** void TFT_drawCircle(int16_t x0, int16_t y0, int16_t r, TFT_color_t color) {
 627:source\bsw\tft/tft.c ****     int16_t f = 1 - r;
 628:source\bsw\tft/tft.c ****     int16_t ddF_x = 1;
 629:source\bsw\tft/tft.c ****     int16_t ddF_y = -2 * r;
 630:source\bsw\tft/tft.c ****     int16_t x = 0;
 631:source\bsw\tft/tft.c ****     int16_t y = r;
 632:source\bsw\tft/tft.c **** 
 633:source\bsw\tft/tft.c ****     TFT_drawPixel(x0  , y0+r, color);
 634:source\bsw\tft/tft.c ****     TFT_drawPixel(x0  , y0-r, color);
 635:source\bsw\tft/tft.c ****     TFT_drawPixel(x0+r, y0  , color);
 636:source\bsw\tft/tft.c ****     TFT_drawPixel(x0-r, y0  , color);
 637:source\bsw\tft/tft.c **** 
ARM GAS  C:\Users\MATEOC~1.QUE\AppData\Local\Temp\ccxtWYOp.s 			page 43


 638:source\bsw\tft/tft.c ****     while (x<y) {
 639:source\bsw\tft/tft.c ****         if (f >= 0) {
 640:source\bsw\tft/tft.c ****             y--;
 641:source\bsw\tft/tft.c ****             ddF_y += 2;
 642:source\bsw\tft/tft.c ****             f += ddF_y;
 643:source\bsw\tft/tft.c ****         }
 644:source\bsw\tft/tft.c ****         x++;
 645:source\bsw\tft/tft.c ****         ddF_x += 2;
 646:source\bsw\tft/tft.c ****         f += ddF_x;
 647:source\bsw\tft/tft.c **** 
 648:source\bsw\tft/tft.c ****         TFT_drawPixel(x0 + x, y0 + y, color);
 649:source\bsw\tft/tft.c ****         TFT_drawPixel(x0 - x, y0 + y, color);
 650:source\bsw\tft/tft.c ****         TFT_drawPixel(x0 + x, y0 - y, color);
 651:source\bsw\tft/tft.c ****         TFT_drawPixel(x0 - x, y0 - y, color);
 652:source\bsw\tft/tft.c ****         TFT_drawPixel(x0 + y, y0 + x, color);
 653:source\bsw\tft/tft.c ****         TFT_drawPixel(x0 - y, y0 + x, color);
 654:source\bsw\tft/tft.c ****         TFT_drawPixel(x0 + y, y0 - x, color);
 655:source\bsw\tft/tft.c ****         TFT_drawPixel(x0 - y, y0 - x, color);
 656:source\bsw\tft/tft.c ****     }
 657:source\bsw\tft/tft.c **** 
 658:source\bsw\tft/tft.c **** }
 659:source\bsw\tft/tft.c **** 
 660:source\bsw\tft/tft.c **** void TFT_drawCircleHelper( int16_t x0, int16_t y0, int16_t r, uint8_t cornername, TFT_color_t color
 1600              		.loc 1 660 0
 1601              		.cfi_startproc
 1602              		@ args = 4, pretend = 0, frame = 24
 1603              		@ frame_needed = 0, uses_anonymous_args = 0
 1604              	.LVL158:
 1605 0000 2DE9F04F 		push	{r4, r5, r6, r7, r8, r9, r10, fp, lr}
 1606              		.cfi_def_cfa_offset 36
 1607              		.cfi_offset 4, -36
 1608              		.cfi_offset 5, -32
 1609              		.cfi_offset 6, -28
 1610              		.cfi_offset 7, -24
 1611              		.cfi_offset 8, -20
 1612              		.cfi_offset 9, -16
 1613              		.cfi_offset 10, -12
 1614              		.cfi_offset 11, -8
 1615              		.cfi_offset 14, -4
 1616 0004 87B0     		sub	sp, sp, #28
 1617              		.cfi_def_cfa_offset 64
 1618 0006 0490     		str	r0, [sp, #16]
 1619 0008 0591     		str	r1, [sp, #20]
 1620 000a 1746     		mov	r7, r2
 1621 000c 9946     		mov	r9, r3
 1622 000e BDF84030 		ldrh	r3, [sp, #64]
 1623              	.LVL159:
 1624 0012 0193     		str	r3, [sp, #4]
 661:source\bsw\tft/tft.c ****     int16_t f     = 1 - r;
 1625              		.loc 1 661 0
 1626 0014 93B2     		uxth	r3, r2
 1627 0016 C3F10104 		rsb	r4, r3, #1
 1628 001a 24B2     		sxth	r4, r4
 1629              	.LVL160:
 662:source\bsw\tft/tft.c ****     int16_t ddF_x = 1;
 663:source\bsw\tft/tft.c ****     int16_t ddF_y = -2 * r;
 1630              		.loc 1 663 0
ARM GAS  C:\Users\MATEOC~1.QUE\AppData\Local\Temp\ccxtWYOp.s 			page 44


 1631 001c C3EBC333 		rsb	r3, r3, r3, lsl #15
 1632 0020 5A00     		lsls	r2, r3, #1
 1633              	.LVL161:
 1634 0022 13B2     		sxth	r3, r2
 1635 0024 0393     		str	r3, [sp, #12]
 1636              	.LVL162:
 664:source\bsw\tft/tft.c ****     int16_t x     = 0;
 1637              		.loc 1 664 0
 1638 0026 4FF00008 		mov	r8, #0
 662:source\bsw\tft/tft.c ****     int16_t ddF_x = 1;
 1639              		.loc 1 662 0
 1640 002a 0123     		movs	r3, #1
 1641 002c 0293     		str	r3, [sp, #8]
 665:source\bsw\tft/tft.c ****     int16_t y     = r;
 666:source\bsw\tft/tft.c **** 
 667:source\bsw\tft/tft.c ****     while (x<y) {
 1642              		.loc 1 667 0
 1643 002e 7FE0     		b	.L125
 1644              	.LVL163:
 1645              	.L131:
 668:source\bsw\tft/tft.c ****         if (f >= 0) {
 1646              		.loc 1 668 0
 1647 0030 002C     		cmp	r4, #0
 1648 0032 08DB     		blt	.L126
 669:source\bsw\tft/tft.c ****             y--;
 1649              		.loc 1 669 0
 1650 0034 013F     		subs	r7, r7, #1
 1651              	.LVL164:
 1652 0036 3FB2     		sxth	r7, r7
 1653              	.LVL165:
 670:source\bsw\tft/tft.c ****             ddF_y += 2;
 1654              		.loc 1 670 0
 1655 0038 039B     		ldr	r3, [sp, #12]
 1656 003a 0233     		adds	r3, r3, #2
 1657 003c 9BB2     		uxth	r3, r3
 1658 003e 1AB2     		sxth	r2, r3
 1659 0040 0392     		str	r2, [sp, #12]
 1660              	.LVL166:
 671:source\bsw\tft/tft.c ****             f     += ddF_y;
 1661              		.loc 1 671 0
 1662 0042 1C44     		add	r4, r4, r3
 1663              	.LVL167:
 1664 0044 24B2     		sxth	r4, r4
 1665              	.LVL168:
 1666              	.L126:
 672:source\bsw\tft/tft.c ****         }
 673:source\bsw\tft/tft.c ****         x++;
 1667              		.loc 1 673 0
 1668 0046 08F10108 		add	r8, r8, #1
 1669              	.LVL169:
 1670 004a 1FFA88F5 		uxth	r5, r8
 1671 004e 0FFA85F8 		sxth	r8, r5
 1672              	.LVL170:
 674:source\bsw\tft/tft.c ****         ddF_x += 2;
 1673              		.loc 1 674 0
 1674 0052 029B     		ldr	r3, [sp, #8]
 1675 0054 0233     		adds	r3, r3, #2
ARM GAS  C:\Users\MATEOC~1.QUE\AppData\Local\Temp\ccxtWYOp.s 			page 45


 1676 0056 9BB2     		uxth	r3, r3
 1677 0058 1AB2     		sxth	r2, r3
 1678 005a 0292     		str	r2, [sp, #8]
 1679              	.LVL171:
 675:source\bsw\tft/tft.c ****         f     += ddF_x;
 1680              		.loc 1 675 0
 1681 005c 1C44     		add	r4, r4, r3
 1682              	.LVL172:
 1683 005e 24B2     		sxth	r4, r4
 1684              	.LVL173:
 676:source\bsw\tft/tft.c ****         if (cornername & 0x4) {
 1685              		.loc 1 676 0
 1686 0060 19F0040F 		tst	r9, #4
 1687 0064 16D0     		beq	.L127
 677:source\bsw\tft/tft.c ****             TFT_drawPixel(x0 + x, y0 + y, color);
 1688              		.loc 1 677 0
 1689 0066 BDF810B0 		ldrh	fp, [sp, #16]
 1690 006a BDF81460 		ldrh	r6, [sp, #20]
 1691 006e 1FFA87FA 		uxth	r10, r7
 1692 0072 06EB0A01 		add	r1, r6, r10
 1693 0076 05EB0B00 		add	r0, r5, fp
 1694 007a 019A     		ldr	r2, [sp, #4]
 1695 007c 09B2     		sxth	r1, r1
 1696 007e 00B2     		sxth	r0, r0
 1697 0080 FFF7FEFF 		bl	TFT_drawPixel
 1698              	.LVL174:
 678:source\bsw\tft/tft.c ****             TFT_drawPixel(x0 + y, y0 + x, color);
 1699              		.loc 1 678 0
 1700 0084 A919     		adds	r1, r5, r6
 1701 0086 0BEB0A00 		add	r0, fp, r10
 1702 008a 019A     		ldr	r2, [sp, #4]
 1703 008c 09B2     		sxth	r1, r1
 1704 008e 00B2     		sxth	r0, r0
 1705 0090 FFF7FEFF 		bl	TFT_drawPixel
 1706              	.LVL175:
 1707              	.L127:
 679:source\bsw\tft/tft.c ****         }
 680:source\bsw\tft/tft.c ****         if (cornername & 0x2) {
 1708              		.loc 1 680 0
 1709 0094 19F0020F 		tst	r9, #2
 1710 0098 16D0     		beq	.L128
 681:source\bsw\tft/tft.c ****             TFT_drawPixel(x0 + x, y0 - y, color);
 1711              		.loc 1 681 0
 1712 009a BDF810B0 		ldrh	fp, [sp, #16]
 1713 009e BDF81460 		ldrh	r6, [sp, #20]
 1714 00a2 1FFA87FA 		uxth	r10, r7
 1715 00a6 CAEB0601 		rsb	r1, r10, r6
 1716 00aa 05EB0B00 		add	r0, r5, fp
 1717 00ae 019A     		ldr	r2, [sp, #4]
 1718 00b0 09B2     		sxth	r1, r1
 1719 00b2 00B2     		sxth	r0, r0
 1720 00b4 FFF7FEFF 		bl	TFT_drawPixel
 1721              	.LVL176:
 682:source\bsw\tft/tft.c ****             TFT_drawPixel(x0 + y, y0 - x, color);
 1722              		.loc 1 682 0
 1723 00b8 711B     		subs	r1, r6, r5
 1724 00ba 0BEB0A00 		add	r0, fp, r10
ARM GAS  C:\Users\MATEOC~1.QUE\AppData\Local\Temp\ccxtWYOp.s 			page 46


 1725 00be 019A     		ldr	r2, [sp, #4]
 1726 00c0 09B2     		sxth	r1, r1
 1727 00c2 00B2     		sxth	r0, r0
 1728 00c4 FFF7FEFF 		bl	TFT_drawPixel
 1729              	.LVL177:
 1730              	.L128:
 683:source\bsw\tft/tft.c ****         }
 684:source\bsw\tft/tft.c ****         if (cornername & 0x8) {
 1731              		.loc 1 684 0
 1732 00c8 19F0080F 		tst	r9, #8
 1733 00cc 16D0     		beq	.L129
 685:source\bsw\tft/tft.c ****             TFT_drawPixel(x0 - y, y0 + x, color);
 1734              		.loc 1 685 0
 1735 00ce BDF81060 		ldrh	r6, [sp, #16]
 1736 00d2 1FFA87FB 		uxth	fp, r7
 1737 00d6 BDF814A0 		ldrh	r10, [sp, #20]
 1738 00da 05EB0A01 		add	r1, r5, r10
 1739 00de CBEB0600 		rsb	r0, fp, r6
 1740 00e2 019A     		ldr	r2, [sp, #4]
 1741 00e4 09B2     		sxth	r1, r1
 1742 00e6 00B2     		sxth	r0, r0
 1743 00e8 FFF7FEFF 		bl	TFT_drawPixel
 1744              	.LVL178:
 686:source\bsw\tft/tft.c ****             TFT_drawPixel(x0 - x, y0 + y, color);
 1745              		.loc 1 686 0
 1746 00ec 0BEB0A01 		add	r1, fp, r10
 1747 00f0 701B     		subs	r0, r6, r5
 1748 00f2 019A     		ldr	r2, [sp, #4]
 1749 00f4 09B2     		sxth	r1, r1
 1750 00f6 00B2     		sxth	r0, r0
 1751 00f8 FFF7FEFF 		bl	TFT_drawPixel
 1752              	.LVL179:
 1753              	.L129:
 687:source\bsw\tft/tft.c ****         }
 688:source\bsw\tft/tft.c ****         if (cornername & 0x1) {
 1754              		.loc 1 688 0
 1755 00fc 19F0010F 		tst	r9, #1
 1756 0100 16D0     		beq	.L125
 689:source\bsw\tft/tft.c ****             TFT_drawPixel(x0 - y, y0 - x, color);
 1757              		.loc 1 689 0
 1758 0102 BDF81060 		ldrh	r6, [sp, #16]
 1759 0106 1FFA87FB 		uxth	fp, r7
 1760 010a BDF814A0 		ldrh	r10, [sp, #20]
 1761 010e C5EB0A01 		rsb	r1, r5, r10
 1762 0112 CBEB0600 		rsb	r0, fp, r6
 1763 0116 019A     		ldr	r2, [sp, #4]
 1764 0118 09B2     		sxth	r1, r1
 1765 011a 00B2     		sxth	r0, r0
 1766 011c FFF7FEFF 		bl	TFT_drawPixel
 1767              	.LVL180:
 690:source\bsw\tft/tft.c ****             TFT_drawPixel(x0 - x, y0 - y, color);
 1768              		.loc 1 690 0
 1769 0120 CBEB0A01 		rsb	r1, fp, r10
 1770 0124 701B     		subs	r0, r6, r5
 1771 0126 019A     		ldr	r2, [sp, #4]
 1772 0128 09B2     		sxth	r1, r1
 1773 012a 00B2     		sxth	r0, r0
ARM GAS  C:\Users\MATEOC~1.QUE\AppData\Local\Temp\ccxtWYOp.s 			page 47


 1774 012c FFF7FEFF 		bl	TFT_drawPixel
 1775              	.LVL181:
 1776              	.L125:
 667:source\bsw\tft/tft.c ****         if (f >= 0) {
 1777              		.loc 1 667 0
 1778 0130 B845     		cmp	r8, r7
 1779 0132 FFF67DAF 		blt	.L131
 691:source\bsw\tft/tft.c ****         }
 692:source\bsw\tft/tft.c ****     }
 693:source\bsw\tft/tft.c **** }
 1780              		.loc 1 693 0
 1781 0136 07B0     		add	sp, sp, #28
 1782              		.cfi_def_cfa_offset 36
 1783              		@ sp needed
 1784 0138 BDE8F08F 		pop	{r4, r5, r6, r7, r8, r9, r10, fp, pc}
 1785              		.cfi_endproc
 1786              	.LFE33:
 1787              		.size	TFT_drawCircleHelper, .-TFT_drawCircleHelper
 1788              		.section	.text.TFT_fastVLine,"ax",%progbits
 1789              		.align	2
 1790              		.global	TFT_fastVLine
 1791              		.thumb
 1792              		.thumb_func
 1793              		.type	TFT_fastVLine, %function
 1794              	TFT_fastVLine:
 1795              	.LFB28:
 548:source\bsw\tft/tft.c **** 
 1796              		.loc 1 548 0
 1797              		.cfi_startproc
 1798              		@ args = 0, pretend = 0, frame = 0
 1799              		@ frame_needed = 0, uses_anonymous_args = 0
 1800              	.LVL182:
 1801 0000 F8B5     		push	{r3, r4, r5, r6, r7, lr}
 1802              		.cfi_def_cfa_offset 24
 1803              		.cfi_offset 3, -24
 1804              		.cfi_offset 4, -20
 1805              		.cfi_offset 5, -16
 1806              		.cfi_offset 6, -12
 1807              		.cfi_offset 7, -8
 1808              		.cfi_offset 14, -4
 1809 0002 1E46     		mov	r6, r3
 551:source\bsw\tft/tft.c ****   if((y+h-1) >= _height) h = _height-y;
 1810              		.loc 1 551 0
 1811 0004 164B     		ldr	r3, .L139
 1812              	.LVL183:
 1813 0006 B3F90630 		ldrsh	r3, [r3, #6]
 1814 000a 8342     		cmp	r3, r0
 1815 000c 26DD     		ble	.L133
 1816 000e 1546     		mov	r5, r2
 551:source\bsw\tft/tft.c ****   if((y+h-1) >= _height) h = _height-y;
 1817              		.loc 1 551 0 is_stmt 0 discriminator 1
 1818 0010 134B     		ldr	r3, .L139
 1819 0012 B3F8DA30 		ldrh	r3, [r3, #218]
 1820 0016 9942     		cmp	r1, r3
 1821 0018 20DA     		bge	.L133
 552:source\bsw\tft/tft.c ****   setAddrWindow(x, y, x, y+h-1);
 1822              		.loc 1 552 0 is_stmt 1
ARM GAS  C:\Users\MATEOC~1.QUE\AppData\Local\Temp\ccxtWYOp.s 			page 48


 1823 001a 0A44     		add	r2, r2, r1
 1824              	.LVL184:
 1825 001c 013A     		subs	r2, r2, #1
 1826 001e 9342     		cmp	r3, r2
 1827 0020 01DC     		bgt	.L135
 552:source\bsw\tft/tft.c ****   setAddrWindow(x, y, x, y+h-1);
 1828              		.loc 1 552 0 is_stmt 0 discriminator 1
 1829 0022 5D1A     		subs	r5, r3, r1
 1830 0024 2DB2     		sxth	r5, r5
 1831              	.LVL185:
 1832              	.L135:
 553:source\bsw\tft/tft.c **** 
 1833              		.loc 1 553 0 is_stmt 1
 1834 0026 C0B2     		uxtb	r0, r0
 1835              	.LVL186:
 1836 0028 C9B2     		uxtb	r1, r1
 1837              	.LVL187:
 1838 002a 4B19     		adds	r3, r1, r5
 1839 002c 013B     		subs	r3, r3, #1
 1840 002e DBB2     		uxtb	r3, r3
 1841 0030 0246     		mov	r2, r0
 1842 0032 FFF7FEFF 		bl	setAddrWindow
 1843              	.LVL188:
 555:source\bsw\tft/tft.c ****     
 1844              		.loc 1 555 0
 1845 0036 370A     		lsrs	r7, r6, #8
 1846              	.LVL189:
 1847 0038 F6B2     		uxtb	r6, r6
 1848              	.LVL190:
 557:source\bsw\tft/tft.c ****   while (h--) {
 1849              		.loc 1 557 0
 1850 003a 0120     		movs	r0, #1
 1851 003c FFF7FEFF 		bl	TFT_DC_Write
 1852              	.LVL191:
 558:source\bsw\tft/tft.c ****     TFT_write_stream(hi);
 1853              		.loc 1 558 0
 1854 0040 08E0     		b	.L136
 1855              	.LVL192:
 1856              	.L137:
 559:source\bsw\tft/tft.c ****     TFT_write_stream(lo);
 1857              		.loc 1 559 0
 1858 0042 3946     		mov	r1, r7
 1859 0044 0220     		movs	r0, #2
 1860 0046 FFF7FEFF 		bl	TFT_send
 1861              	.LVL193:
 560:source\bsw\tft/tft.c ****   }
 1862              		.loc 1 560 0
 1863 004a 3146     		mov	r1, r6
 1864 004c 0220     		movs	r0, #2
 1865 004e FFF7FEFF 		bl	TFT_send
 1866              	.LVL194:
 558:source\bsw\tft/tft.c ****     TFT_write_stream(hi);
 1867              		.loc 1 558 0
 1868 0052 2546     		mov	r5, r4
 1869              	.LVL195:
 1870              	.L136:
 1871 0054 6A1E     		subs	r2, r5, #1
ARM GAS  C:\Users\MATEOC~1.QUE\AppData\Local\Temp\ccxtWYOp.s 			page 49


 1872 0056 14B2     		sxth	r4, r2
 1873              	.LVL196:
 1874 0058 002D     		cmp	r5, #0
 1875 005a F2D1     		bne	.L137
 1876              	.LVL197:
 1877              	.L133:
 1878 005c F8BD     		pop	{r3, r4, r5, r6, r7, pc}
 1879              	.L140:
 1880 005e 00BF     		.align	2
 1881              	.L139:
 1882 0060 00000000 		.word	.LANCHOR0
 1883              		.cfi_endproc
 1884              	.LFE28:
 1885              		.size	TFT_fastVLine, .-TFT_fastVLine
 1886              		.section	.text.TFT_fillCircleHelper,"ax",%progbits
 1887              		.align	2
 1888              		.thumb
 1889              		.thumb_func
 1890              		.type	TFT_fillCircleHelper, %function
 1891              	TFT_fillCircleHelper:
 1892              	.LFB35:
 694:source\bsw\tft/tft.c **** 
 695:source\bsw\tft/tft.c **** void TFT_fillCircle(int16_t x0, int16_t y0, int16_t r, TFT_color_t color) {
 696:source\bsw\tft/tft.c **** 
 697:source\bsw\tft/tft.c ****     TFT_fastVLine(x0, y0-r, 2*r+1, color);
 698:source\bsw\tft/tft.c ****     TFT_fillCircleHelper(x0, y0, r, 3, 0, color);
 699:source\bsw\tft/tft.c **** }
 700:source\bsw\tft/tft.c **** 
 701:source\bsw\tft/tft.c **** // Used to do circles and roundrects
 702:source\bsw\tft/tft.c **** void TFT_fillCircleHelper(int16_t x0, int16_t y0, int16_t r, uint8_t cornername, int16_t delta, TFT
 1893              		.loc 1 702 0
 1894              		.cfi_startproc
 1895              		@ args = 8, pretend = 0, frame = 32
 1896              		@ frame_needed = 0, uses_anonymous_args = 0
 1897              	.LVL198:
 1898 0000 2DE9F04F 		push	{r4, r5, r6, r7, r8, r9, r10, fp, lr}
 1899              		.cfi_def_cfa_offset 36
 1900              		.cfi_offset 4, -36
 1901              		.cfi_offset 5, -32
 1902              		.cfi_offset 6, -28
 1903              		.cfi_offset 7, -24
 1904              		.cfi_offset 8, -20
 1905              		.cfi_offset 9, -16
 1906              		.cfi_offset 10, -12
 1907              		.cfi_offset 11, -8
 1908              		.cfi_offset 14, -4
 1909 0004 89B0     		sub	sp, sp, #36
 1910              		.cfi_def_cfa_offset 72
 1911 0006 0390     		str	r0, [sp, #12]
 1912 0008 0491     		str	r1, [sp, #16]
 1913 000a 9046     		mov	r8, r2
 1914 000c 9A46     		mov	r10, r3
 1915 000e BDF94830 		ldrsh	r3, [sp, #72]
 1916              	.LVL199:
 1917 0012 0593     		str	r3, [sp, #20]
 1918 0014 BDF84C30 		ldrh	r3, [sp, #76]
 1919 0018 0293     		str	r3, [sp, #8]
ARM GAS  C:\Users\MATEOC~1.QUE\AppData\Local\Temp\ccxtWYOp.s 			page 50


 703:source\bsw\tft/tft.c **** 
 704:source\bsw\tft/tft.c ****     int16_t f     = 1 - r;
 1920              		.loc 1 704 0
 1921 001a 93B2     		uxth	r3, r2
 1922 001c C3F10104 		rsb	r4, r3, #1
 1923 0020 24B2     		sxth	r4, r4
 1924              	.LVL200:
 705:source\bsw\tft/tft.c ****     int16_t ddF_x = 1;
 706:source\bsw\tft/tft.c ****     int16_t ddF_y = -2 * r;
 1925              		.loc 1 706 0
 1926 0022 C3EBC333 		rsb	r3, r3, r3, lsl #15
 1927 0026 5A00     		lsls	r2, r3, #1
 1928              	.LVL201:
 1929 0028 13B2     		sxth	r3, r2
 1930 002a 0193     		str	r3, [sp, #4]
 1931              	.LVL202:
 707:source\bsw\tft/tft.c ****     int16_t x     = 0;
 1932              		.loc 1 707 0
 1933 002c 0027     		movs	r7, #0
 705:source\bsw\tft/tft.c ****     int16_t ddF_x = 1;
 1934              		.loc 1 705 0
 1935 002e 4FF0010B 		mov	fp, #1
 708:source\bsw\tft/tft.c ****     int16_t y     = r;
 709:source\bsw\tft/tft.c **** 
 710:source\bsw\tft/tft.c ****     while (x<y) {
 1936              		.loc 1 710 0
 1937 0032 63E0     		b	.L142
 1938              	.LVL203:
 1939              	.L146:
 711:source\bsw\tft/tft.c ****         if (f >= 0) {
 1940              		.loc 1 711 0
 1941 0034 002C     		cmp	r4, #0
 1942 0036 0ADB     		blt	.L143
 712:source\bsw\tft/tft.c ****             y--;
 1943              		.loc 1 712 0
 1944 0038 08F1FF38 		add	r8, r8, #-1
 1945              	.LVL204:
 1946 003c 0FFA88F8 		sxth	r8, r8
 1947              	.LVL205:
 713:source\bsw\tft/tft.c ****             ddF_y += 2;
 1948              		.loc 1 713 0
 1949 0040 019B     		ldr	r3, [sp, #4]
 1950 0042 0233     		adds	r3, r3, #2
 1951 0044 9BB2     		uxth	r3, r3
 1952 0046 1AB2     		sxth	r2, r3
 1953 0048 0192     		str	r2, [sp, #4]
 1954              	.LVL206:
 714:source\bsw\tft/tft.c ****             f     += ddF_y;
 1955              		.loc 1 714 0
 1956 004a 1C44     		add	r4, r4, r3
 1957              	.LVL207:
 1958 004c 24B2     		sxth	r4, r4
 1959              	.LVL208:
 1960              	.L143:
 715:source\bsw\tft/tft.c ****         }
 716:source\bsw\tft/tft.c ****         x++;
 1961              		.loc 1 716 0
ARM GAS  C:\Users\MATEOC~1.QUE\AppData\Local\Temp\ccxtWYOp.s 			page 51


 1962 004e 0137     		adds	r7, r7, #1
 1963              	.LVL209:
 1964 0050 BDB2     		uxth	r5, r7
 1965 0052 2FB2     		sxth	r7, r5
 1966              	.LVL210:
 717:source\bsw\tft/tft.c ****         ddF_x += 2;
 1967              		.loc 1 717 0
 1968 0054 0BF1020B 		add	fp, fp, #2
 1969              	.LVL211:
 1970 0058 1FFA8BF3 		uxth	r3, fp
 1971 005c 0FFA83FB 		sxth	fp, r3
 1972              	.LVL212:
 718:source\bsw\tft/tft.c ****         f     += ddF_x;
 1973              		.loc 1 718 0
 1974 0060 1C44     		add	r4, r4, r3
 1975              	.LVL213:
 1976 0062 24B2     		sxth	r4, r4
 1977              	.LVL214:
 719:source\bsw\tft/tft.c **** 
 720:source\bsw\tft/tft.c ****         if (cornername & 0x1) {
 1978              		.loc 1 720 0
 1979 0064 1AF0010F 		tst	r10, #1
 1980 0068 21D0     		beq	.L144
 721:source\bsw\tft/tft.c ****             TFT_fastVLine(x0+x, y0-y, 2*y+1+delta, color);
 1981              		.loc 1 721 0
 1982 006a BDF80C00 		ldrh	r0, [sp, #12]
 1983 006e BDF81010 		ldrh	r1, [sp, #16]
 1984 0072 1FFA88F6 		uxth	r6, r8
 1985 0076 BDF81490 		ldrh	r9, [sp, #20]
 1986 007a 09EB4602 		add	r2, r9, r6, lsl #1
 1987 007e 0132     		adds	r2, r2, #1
 1988 0080 0791     		str	r1, [sp, #28]
 1989 0082 891B     		subs	r1, r1, r6
 1990 0084 0690     		str	r0, [sp, #24]
 1991 0086 2818     		adds	r0, r5, r0
 1992 0088 029B     		ldr	r3, [sp, #8]
 1993 008a 12B2     		sxth	r2, r2
 1994 008c 09B2     		sxth	r1, r1
 1995 008e 00B2     		sxth	r0, r0
 1996 0090 FFF7FEFF 		bl	TFT_fastVLine
 1997              	.LVL215:
 722:source\bsw\tft/tft.c ****             TFT_fastVLine(x0+y, y0-x, 2*x+1+delta, color);
 1998              		.loc 1 722 0
 1999 0094 09EB4502 		add	r2, r9, r5, lsl #1
 2000 0098 0132     		adds	r2, r2, #1
 2001 009a 0799     		ldr	r1, [sp, #28]
 2002 009c 491B     		subs	r1, r1, r5
 2003 009e 0698     		ldr	r0, [sp, #24]
 2004 00a0 3044     		add	r0, r0, r6
 2005 00a2 029B     		ldr	r3, [sp, #8]
 2006 00a4 12B2     		sxth	r2, r2
 2007 00a6 09B2     		sxth	r1, r1
 2008 00a8 00B2     		sxth	r0, r0
 2009 00aa FFF7FEFF 		bl	TFT_fastVLine
 2010              	.LVL216:
 2011              	.L144:
 723:source\bsw\tft/tft.c ****         }
ARM GAS  C:\Users\MATEOC~1.QUE\AppData\Local\Temp\ccxtWYOp.s 			page 52


 724:source\bsw\tft/tft.c ****         if (cornername & 0x2) {
 2012              		.loc 1 724 0
 2013 00ae 1AF0020F 		tst	r10, #2
 2014 00b2 23D0     		beq	.L142
 725:source\bsw\tft/tft.c ****             TFT_fastVLine(x0-x, y0-y, 2*y+1+delta, color);
 2015              		.loc 1 725 0
 2016 00b4 BDF80C60 		ldrh	r6, [sp, #12]
 2017 00b8 BDF81010 		ldrh	r1, [sp, #16]
 2018 00bc 1FFA88F0 		uxth	r0, r8
 2019 00c0 BDF81430 		ldrh	r3, [sp, #20]
 2020 00c4 8146     		mov	r9, r0
 2021 00c6 0793     		str	r3, [sp, #28]
 2022 00c8 03EB4002 		add	r2, r3, r0, lsl #1
 2023 00cc 0132     		adds	r2, r2, #1
 2024 00ce 0691     		str	r1, [sp, #24]
 2025 00d0 091A     		subs	r1, r1, r0
 2026 00d2 701B     		subs	r0, r6, r5
 2027 00d4 029B     		ldr	r3, [sp, #8]
 2028 00d6 12B2     		sxth	r2, r2
 2029 00d8 09B2     		sxth	r1, r1
 2030 00da 00B2     		sxth	r0, r0
 2031 00dc FFF7FEFF 		bl	TFT_fastVLine
 2032              	.LVL217:
 726:source\bsw\tft/tft.c ****             TFT_fastVLine(x0-y, y0-x, 2*x+1+delta, color);
 2033              		.loc 1 726 0
 2034 00e0 079A     		ldr	r2, [sp, #28]
 2035 00e2 02EB4502 		add	r2, r2, r5, lsl #1
 2036 00e6 0132     		adds	r2, r2, #1
 2037 00e8 0699     		ldr	r1, [sp, #24]
 2038 00ea 491B     		subs	r1, r1, r5
 2039 00ec C9EB0600 		rsb	r0, r9, r6
 2040 00f0 029B     		ldr	r3, [sp, #8]
 2041 00f2 12B2     		sxth	r2, r2
 2042 00f4 09B2     		sxth	r1, r1
 2043 00f6 00B2     		sxth	r0, r0
 2044 00f8 FFF7FEFF 		bl	TFT_fastVLine
 2045              	.LVL218:
 2046              	.L142:
 710:source\bsw\tft/tft.c ****         if (f >= 0) {
 2047              		.loc 1 710 0
 2048 00fc 4745     		cmp	r7, r8
 2049 00fe 99DB     		blt	.L146
 727:source\bsw\tft/tft.c ****         }
 728:source\bsw\tft/tft.c ****     }
 729:source\bsw\tft/tft.c **** }
 2050              		.loc 1 729 0
 2051 0100 09B0     		add	sp, sp, #36
 2052              		.cfi_def_cfa_offset 36
 2053              		@ sp needed
 2054 0102 BDE8F08F 		pop	{r4, r5, r6, r7, r8, r9, r10, fp, pc}
 2055              		.cfi_endproc
 2056              	.LFE35:
 2057              		.size	TFT_fillCircleHelper, .-TFT_fillCircleHelper
 2058 0106 00BF     		.section	.text.TFT_fastHLine,"ax",%progbits
 2059              		.align	2
 2060              		.global	TFT_fastHLine
 2061              		.thumb
ARM GAS  C:\Users\MATEOC~1.QUE\AppData\Local\Temp\ccxtWYOp.s 			page 53


 2062              		.thumb_func
 2063              		.type	TFT_fastHLine, %function
 2064              	TFT_fastHLine:
 2065              	.LFB29:
 564:source\bsw\tft/tft.c **** 
 2066              		.loc 1 564 0
 2067              		.cfi_startproc
 2068              		@ args = 0, pretend = 0, frame = 0
 2069              		@ frame_needed = 0, uses_anonymous_args = 0
 2070              	.LVL219:
 2071 0000 F8B5     		push	{r3, r4, r5, r6, r7, lr}
 2072              		.cfi_def_cfa_offset 24
 2073              		.cfi_offset 3, -24
 2074              		.cfi_offset 4, -20
 2075              		.cfi_offset 5, -16
 2076              		.cfi_offset 6, -12
 2077              		.cfi_offset 7, -8
 2078              		.cfi_offset 14, -4
 2079 0002 1E46     		mov	r6, r3
 567:source\bsw\tft/tft.c ****     if((x+w-1) >= _width)  w = _width-x;
 2080              		.loc 1 567 0
 2081 0004 164B     		ldr	r3, .L154
 2082              	.LVL220:
 2083 0006 B3F90630 		ldrsh	r3, [r3, #6]
 2084 000a 8342     		cmp	r3, r0
 2085 000c 26DD     		ble	.L148
 2086 000e 1546     		mov	r5, r2
 567:source\bsw\tft/tft.c ****     if((x+w-1) >= _width)  w = _width-x;
 2087              		.loc 1 567 0 is_stmt 0 discriminator 1
 2088 0010 134A     		ldr	r2, .L154
 2089              	.LVL221:
 2090 0012 B2F8DA20 		ldrh	r2, [r2, #218]
 2091 0016 9142     		cmp	r1, r2
 2092 0018 20DA     		bge	.L148
 568:source\bsw\tft/tft.c ****     setAddrWindow(x, y, x+w-1, y);
 2093              		.loc 1 568 0 is_stmt 1
 2094 001a 4219     		adds	r2, r0, r5
 2095 001c 013A     		subs	r2, r2, #1
 2096 001e 9A42     		cmp	r2, r3
 2097 0020 01DB     		blt	.L150
 568:source\bsw\tft/tft.c ****     setAddrWindow(x, y, x+w-1, y);
 2098              		.loc 1 568 0 is_stmt 0 discriminator 1
 2099 0022 1D1A     		subs	r5, r3, r0
 2100 0024 2DB2     		sxth	r5, r5
 2101              	.LVL222:
 2102              	.L150:
 569:source\bsw\tft/tft.c **** 
 2103              		.loc 1 569 0 is_stmt 1
 2104 0026 C0B2     		uxtb	r0, r0
 2105              	.LVL223:
 2106 0028 C9B2     		uxtb	r1, r1
 2107              	.LVL224:
 2108 002a 4219     		adds	r2, r0, r5
 2109 002c 013A     		subs	r2, r2, #1
 2110 002e 0B46     		mov	r3, r1
 2111 0030 D2B2     		uxtb	r2, r2
 2112 0032 FFF7FEFF 		bl	setAddrWindow
ARM GAS  C:\Users\MATEOC~1.QUE\AppData\Local\Temp\ccxtWYOp.s 			page 54


 2113              	.LVL225:
 571:source\bsw\tft/tft.c **** 
 2114              		.loc 1 571 0
 2115 0036 370A     		lsrs	r7, r6, #8
 2116              	.LVL226:
 2117 0038 F6B2     		uxtb	r6, r6
 2118              	.LVL227:
 573:source\bsw\tft/tft.c **** 
 2119              		.loc 1 573 0
 2120 003a 0120     		movs	r0, #1
 2121 003c FFF7FEFF 		bl	TFT_DC_Write
 2122              	.LVL228:
 575:source\bsw\tft/tft.c ****         TFT_write_stream(hi);
 2123              		.loc 1 575 0
 2124 0040 08E0     		b	.L151
 2125              	.LVL229:
 2126              	.L152:
 576:source\bsw\tft/tft.c ****         TFT_write_stream(lo);
 2127              		.loc 1 576 0
 2128 0042 3946     		mov	r1, r7
 2129 0044 0220     		movs	r0, #2
 2130 0046 FFF7FEFF 		bl	TFT_send
 2131              	.LVL230:
 577:source\bsw\tft/tft.c ****     }
 2132              		.loc 1 577 0
 2133 004a 3146     		mov	r1, r6
 2134 004c 0220     		movs	r0, #2
 2135 004e FFF7FEFF 		bl	TFT_send
 2136              	.LVL231:
 575:source\bsw\tft/tft.c ****         TFT_write_stream(hi);
 2137              		.loc 1 575 0
 2138 0052 2546     		mov	r5, r4
 2139              	.LVL232:
 2140              	.L151:
 2141 0054 6A1E     		subs	r2, r5, #1
 2142 0056 14B2     		sxth	r4, r2
 2143              	.LVL233:
 2144 0058 002D     		cmp	r5, #0
 2145 005a F2D1     		bne	.L152
 2146              	.LVL234:
 2147              	.L148:
 2148 005c F8BD     		pop	{r3, r4, r5, r6, r7, pc}
 2149              	.L155:
 2150 005e 00BF     		.align	2
 2151              	.L154:
 2152 0060 00000000 		.word	.LANCHOR0
 2153              		.cfi_endproc
 2154              	.LFE29:
 2155              		.size	TFT_fastHLine, .-TFT_fastHLine
 2156              		.section	.text.TFT_writeLine,"ax",%progbits
 2157              		.align	2
 2158              		.global	TFT_writeLine
 2159              		.thumb
 2160              		.thumb_func
 2161              		.type	TFT_writeLine, %function
 2162              	TFT_writeLine:
 2163              	.LFB30:
ARM GAS  C:\Users\MATEOC~1.QUE\AppData\Local\Temp\ccxtWYOp.s 			page 55


 582:source\bsw\tft/tft.c ****     int16_t steep = _abs(y1 - y0) > _abs(x1 - x0);
 2164              		.loc 1 582 0
 2165              		.cfi_startproc
 2166              		@ args = 4, pretend = 0, frame = 8
 2167              		@ frame_needed = 0, uses_anonymous_args = 0
 2168              	.LVL235:
 2169 0000 2DE9F04F 		push	{r4, r5, r6, r7, r8, r9, r10, fp, lr}
 2170              		.cfi_def_cfa_offset 36
 2171              		.cfi_offset 4, -36
 2172              		.cfi_offset 5, -32
 2173              		.cfi_offset 6, -28
 2174              		.cfi_offset 7, -24
 2175              		.cfi_offset 8, -20
 2176              		.cfi_offset 9, -16
 2177              		.cfi_offset 10, -12
 2178              		.cfi_offset 11, -8
 2179              		.cfi_offset 14, -4
 2180 0004 83B0     		sub	sp, sp, #12
 2181              		.cfi_def_cfa_offset 48
 2182 0006 0546     		mov	r5, r0
 2183 0008 0E46     		mov	r6, r1
 2184 000a 1746     		mov	r7, r2
 2185 000c BDF83020 		ldrh	r2, [sp, #48]
 2186              	.LVL236:
 2187 0010 0092     		str	r2, [sp]
 583:source\bsw\tft/tft.c ****     if (steep) {
 2188              		.loc 1 583 0
 2189 0012 C1EB0308 		rsb	r8, r1, r3
 2190 0016 B8F1000F 		cmp	r8, #0
 2191 001a B8BF     		it	lt
 2192 001c C8F10008 		rsblt	r8, r8, #0
 2193 0020 C0EB0709 		rsb	r9, r0, r7
 2194 0024 B9F1000F 		cmp	r9, #0
 2195 0028 B8BF     		it	lt
 2196 002a C9F10009 		rsblt	r9, r9, #0
 2197              	.LVL237:
 584:source\bsw\tft/tft.c ****         _swap_int16_t(x0, y0);
 2198              		.loc 1 584 0
 2199 002e C845     		cmp	r8, r9
 2200 0030 04DD     		ble	.L157
 2201 0032 3A46     		mov	r2, r7
 2202              	.LBB7:
 586:source\bsw\tft/tft.c ****     }
 2203              		.loc 1 586 0
 2204 0034 1F46     		mov	r7, r3
 2205 0036 1346     		mov	r3, r2
 2206              	.LVL238:
 2207              	.LBE7:
 2208              	.LBB8:
 585:source\bsw\tft/tft.c ****         _swap_int16_t(x1, y1);
 2209              		.loc 1 585 0
 2210 0038 0D46     		mov	r5, r1
 2211 003a 0646     		mov	r6, r0
 2212              	.L157:
 2213              	.LVL239:
 2214              	.LBE8:
 589:source\bsw\tft/tft.c ****         _swap_int16_t(x0, x1);
ARM GAS  C:\Users\MATEOC~1.QUE\AppData\Local\Temp\ccxtWYOp.s 			page 56


 2215              		.loc 1 589 0
 2216 003c BD42     		cmp	r5, r7
 2217 003e 05DD     		ble	.L158
 2218 0040 3246     		mov	r2, r6
 2219              	.LBB9:
 591:source\bsw\tft/tft.c ****     }
 2220              		.loc 1 591 0
 2221 0042 1E46     		mov	r6, r3
 2222              	.LVL240:
 2223 0044 1346     		mov	r3, r2
 2224              	.LVL241:
 2225              	.LBE9:
 2226 0046 2A46     		mov	r2, r5
 2227              	.LBB10:
 590:source\bsw\tft/tft.c ****         _swap_int16_t(y0, y1);
 2228              		.loc 1 590 0
 2229 0048 3D46     		mov	r5, r7
 2230              	.LVL242:
 2231 004a 1746     		mov	r7, r2
 2232              	.LVL243:
 2233              	.L158:
 2234              	.LBE10:
 595:source\bsw\tft/tft.c ****     dy = _abs(y1 - y0);
 2235              		.loc 1 595 0
 2236 004c C5EB070B 		rsb	fp, r5, r7
 2237 0050 1FFA8BFB 		uxth	fp, fp
 2238 0054 0FFA8BF4 		sxth	r4, fp
 2239              	.LVL244:
 596:source\bsw\tft/tft.c **** 
 2240              		.loc 1 596 0
 2241 0058 C6EB030A 		rsb	r10, r6, r3
 2242 005c BAF1000F 		cmp	r10, #0
 2243 0060 B8BF     		it	lt
 2244 0062 CAF1000A 		rsblt	r10, r10, #0
 2245              	.LVL245:
 598:source\bsw\tft/tft.c ****     int16_t ystep;
 2246              		.loc 1 598 0
 2247 0066 04EBD474 		add	r4, r4, r4, lsr #31
 2248              	.LVL246:
 2249 006a 6410     		asrs	r4, r4, #1
 2250              	.LVL247:
 601:source\bsw\tft/tft.c ****         ystep = 1;
 2251              		.loc 1 601 0
 2252 006c 9E42     		cmp	r6, r3
 2253 006e 02DA     		bge	.L167
 602:source\bsw\tft/tft.c ****     } else {
 2254              		.loc 1 602 0
 2255 0070 0123     		movs	r3, #1
 2256              	.LVL248:
 2257 0072 0193     		str	r3, [sp, #4]
 2258 0074 1EE0     		b	.L160
 2259              	.LVL249:
 2260              	.L167:
 604:source\bsw\tft/tft.c ****     }
 2261              		.loc 1 604 0
 2262 0076 4FF0FF33 		mov	r3, #-1
 2263              	.LVL250:
ARM GAS  C:\Users\MATEOC~1.QUE\AppData\Local\Temp\ccxtWYOp.s 			page 57


 2264 007a 0193     		str	r3, [sp, #4]
 2265 007c 1AE0     		b	.L160
 2266              	.LVL251:
 2267              	.L164:
 608:source\bsw\tft/tft.c ****             TFT_drawPixel(y0, x0, color);
 2268              		.loc 1 608 0
 2269 007e C845     		cmp	r8, r9
 2270 0080 05DD     		ble	.L161
 609:source\bsw\tft/tft.c ****         } else {
 2271              		.loc 1 609 0
 2272 0082 009A     		ldr	r2, [sp]
 2273 0084 2946     		mov	r1, r5
 2274 0086 3046     		mov	r0, r6
 2275 0088 FFF7FEFF 		bl	TFT_drawPixel
 2276              	.LVL252:
 2277 008c 04E0     		b	.L162
 2278              	.L161:
 611:source\bsw\tft/tft.c ****         }
 2279              		.loc 1 611 0
 2280 008e 009A     		ldr	r2, [sp]
 2281 0090 3146     		mov	r1, r6
 2282 0092 2846     		mov	r0, r5
 2283 0094 FFF7FEFF 		bl	TFT_drawPixel
 2284              	.LVL253:
 2285              	.L162:
 613:source\bsw\tft/tft.c ****         if (err < 0) {
 2286              		.loc 1 613 0
 2287 0098 CAEB0404 		rsb	r4, r10, r4
 2288              	.LVL254:
 2289 009c A3B2     		uxth	r3, r4
 2290 009e 1CB2     		sxth	r4, r3
 2291              	.LVL255:
 614:source\bsw\tft/tft.c ****             y0 += ystep;
 2292              		.loc 1 614 0
 2293 00a0 002C     		cmp	r4, #0
 2294 00a2 05DA     		bge	.L163
 615:source\bsw\tft/tft.c ****             err += dx;
 2295              		.loc 1 615 0
 2296 00a4 019A     		ldr	r2, [sp, #4]
 2297 00a6 1644     		add	r6, r6, r2
 2298              	.LVL256:
 2299 00a8 36B2     		sxth	r6, r6
 2300              	.LVL257:
 616:source\bsw\tft/tft.c ****         }
 2301              		.loc 1 616 0
 2302 00aa 0BEB0304 		add	r4, fp, r3
 2303              	.LVL258:
 2304 00ae 24B2     		sxth	r4, r4
 2305              	.LVL259:
 2306              	.L163:
 607:source\bsw\tft/tft.c ****         if (steep) {
 2307              		.loc 1 607 0
 2308 00b0 0135     		adds	r5, r5, #1
 2309              	.LVL260:
 2310 00b2 2DB2     		sxth	r5, r5
 2311              	.LVL261:
 2312              	.L160:
ARM GAS  C:\Users\MATEOC~1.QUE\AppData\Local\Temp\ccxtWYOp.s 			page 58


 607:source\bsw\tft/tft.c ****         if (steep) {
 2313              		.loc 1 607 0 is_stmt 0 discriminator 1
 2314 00b4 BD42     		cmp	r5, r7
 2315 00b6 E2DD     		ble	.L164
 619:source\bsw\tft/tft.c **** 
 2316              		.loc 1 619 0 is_stmt 1
 2317 00b8 03B0     		add	sp, sp, #12
 2318              		.cfi_def_cfa_offset 36
 2319              		@ sp needed
 2320 00ba BDE8F08F 		pop	{r4, r5, r6, r7, r8, r9, r10, fp, pc}
 2321              		.cfi_endproc
 2322              	.LFE30:
 2323              		.size	TFT_writeLine, .-TFT_writeLine
 2324 00be 00BF     		.section	.text.TFT_invertDisplay,"ax",%progbits
 2325              		.align	2
 2326              		.global	TFT_invertDisplay
 2327              		.thumb
 2328              		.thumb_func
 2329              		.type	TFT_invertDisplay, %function
 2330              	TFT_invertDisplay:
 2331              	.LFB31:
 621:source\bsw\tft/tft.c ****   TFT_write_cmd(i ? ST7735_INVON : ST7735_INVOFF);
 2332              		.loc 1 621 0
 2333              		.cfi_startproc
 2334              		@ args = 0, pretend = 0, frame = 0
 2335              		@ frame_needed = 0, uses_anonymous_args = 0
 2336              	.LVL262:
 2337 0000 08B5     		push	{r3, lr}
 2338              		.cfi_def_cfa_offset 8
 2339              		.cfi_offset 3, -8
 2340              		.cfi_offset 14, -4
 622:source\bsw\tft/tft.c **** }
 2341              		.loc 1 622 0
 2342 0002 08B1     		cbz	r0, .L171
 2343 0004 2121     		movs	r1, #33
 2344 0006 00E0     		b	.L170
 2345              	.L171:
 2346 0008 2021     		movs	r1, #32
 2347              	.L170:
 622:source\bsw\tft/tft.c **** }
 2348              		.loc 1 622 0 is_stmt 0 discriminator 4
 2349 000a 0020     		movs	r0, #0
 2350              	.LVL263:
 2351 000c FFF7FEFF 		bl	TFT_send
 2352              	.LVL264:
 2353 0010 08BD     		pop	{r3, pc}
 2354              		.cfi_endproc
 2355              	.LFE31:
 2356              		.size	TFT_invertDisplay, .-TFT_invertDisplay
 2357 0012 00BF     		.section	.text.TFT_drawCircle,"ax",%progbits
 2358              		.align	2
 2359              		.global	TFT_drawCircle
 2360              		.thumb
 2361              		.thumb_func
 2362              		.type	TFT_drawCircle, %function
 2363              	TFT_drawCircle:
 2364              	.LFB32:
ARM GAS  C:\Users\MATEOC~1.QUE\AppData\Local\Temp\ccxtWYOp.s 			page 59


 626:source\bsw\tft/tft.c ****     int16_t f = 1 - r;
 2365              		.loc 1 626 0 is_stmt 1
 2366              		.cfi_startproc
 2367              		@ args = 0, pretend = 0, frame = 24
 2368              		@ frame_needed = 0, uses_anonymous_args = 0
 2369              	.LVL265:
 2370 0000 2DE9F04F 		push	{r4, r5, r6, r7, r8, r9, r10, fp, lr}
 2371              		.cfi_def_cfa_offset 36
 2372              		.cfi_offset 4, -36
 2373              		.cfi_offset 5, -32
 2374              		.cfi_offset 6, -28
 2375              		.cfi_offset 7, -24
 2376              		.cfi_offset 8, -20
 2377              		.cfi_offset 9, -16
 2378              		.cfi_offset 10, -12
 2379              		.cfi_offset 11, -8
 2380              		.cfi_offset 14, -4
 2381 0004 87B0     		sub	sp, sp, #28
 2382              		.cfi_def_cfa_offset 64
 2383 0006 8246     		mov	r10, r0
 2384 0008 0E46     		mov	r6, r1
 2385 000a 0292     		str	r2, [sp, #8]
 2386 000c 1F46     		mov	r7, r3
 2387 000e 0193     		str	r3, [sp, #4]
 627:source\bsw\tft/tft.c ****     int16_t ddF_x = 1;
 2388              		.loc 1 627 0
 2389 0010 95B2     		uxth	r5, r2
 2390 0012 C5F10104 		rsb	r4, r5, #1
 2391 0016 24B2     		sxth	r4, r4
 2392              	.LVL266:
 629:source\bsw\tft/tft.c ****     int16_t x = 0;
 2393              		.loc 1 629 0
 2394 0018 C5EBC532 		rsb	r2, r5, r5, lsl #15
 2395              	.LVL267:
 2396 001c 5300     		lsls	r3, r2, #1
 2397              	.LVL268:
 2398 001e 1AB2     		sxth	r2, r3
 2399 0020 0592     		str	r2, [sp, #20]
 2400              	.LVL269:
 633:source\bsw\tft/tft.c ****     TFT_drawPixel(x0  , y0-r, color);
 2401              		.loc 1 633 0
 2402 0022 1FFA81FB 		uxth	fp, r1
 2403 0026 05EB0B01 		add	r1, r5, fp
 2404              	.LVL270:
 2405 002a 3A46     		mov	r2, r7
 2406 002c 09B2     		sxth	r1, r1
 2407 002e FFF7FEFF 		bl	TFT_drawPixel
 2408              	.LVL271:
 634:source\bsw\tft/tft.c ****     TFT_drawPixel(x0+r, y0  , color);
 2409              		.loc 1 634 0
 2410 0032 C5EB0B01 		rsb	r1, r5, fp
 2411 0036 3A46     		mov	r2, r7
 2412 0038 09B2     		sxth	r1, r1
 2413 003a 5046     		mov	r0, r10
 2414 003c FFF7FEFF 		bl	TFT_drawPixel
 2415              	.LVL272:
 635:source\bsw\tft/tft.c ****     TFT_drawPixel(x0-r, y0  , color);
ARM GAS  C:\Users\MATEOC~1.QUE\AppData\Local\Temp\ccxtWYOp.s 			page 60


 2416              		.loc 1 635 0
 2417 0040 1FFA8AFA 		uxth	r10, r10
 2418 0044 05EB0A00 		add	r0, r5, r10
 2419 0048 3A46     		mov	r2, r7
 2420 004a 3146     		mov	r1, r6
 2421 004c 00B2     		sxth	r0, r0
 2422 004e FFF7FEFF 		bl	TFT_drawPixel
 2423              	.LVL273:
 636:source\bsw\tft/tft.c **** 
 2424              		.loc 1 636 0
 2425 0052 C5EB0A00 		rsb	r0, r5, r10
 2426 0056 3A46     		mov	r2, r7
 2427 0058 3146     		mov	r1, r6
 2428 005a 00B2     		sxth	r0, r0
 2429 005c FFF7FEFF 		bl	TFT_drawPixel
 2430              	.LVL274:
 630:source\bsw\tft/tft.c ****     int16_t y = r;
 2431              		.loc 1 630 0
 2432 0060 4FF00009 		mov	r9, #0
 628:source\bsw\tft/tft.c ****     int16_t ddF_y = -2 * r;
 2433              		.loc 1 628 0
 2434 0064 0123     		movs	r3, #1
 2435 0066 0393     		str	r3, [sp, #12]
 638:source\bsw\tft/tft.c ****         if (f >= 0) {
 2436              		.loc 1 638 0
 2437 0068 60E0     		b	.L174
 2438              	.LVL275:
 2439              	.L176:
 639:source\bsw\tft/tft.c ****             y--;
 2440              		.loc 1 639 0
 2441 006a 002C     		cmp	r4, #0
 2442 006c 0ADB     		blt	.L175
 640:source\bsw\tft/tft.c ****             ddF_y += 2;
 2443              		.loc 1 640 0
 2444 006e 029B     		ldr	r3, [sp, #8]
 2445 0070 013B     		subs	r3, r3, #1
 2446 0072 1BB2     		sxth	r3, r3
 2447 0074 0293     		str	r3, [sp, #8]
 2448              	.LVL276:
 641:source\bsw\tft/tft.c ****             f += ddF_y;
 2449              		.loc 1 641 0
 2450 0076 059B     		ldr	r3, [sp, #20]
 2451 0078 0233     		adds	r3, r3, #2
 2452 007a 9BB2     		uxth	r3, r3
 2453 007c 1AB2     		sxth	r2, r3
 2454 007e 0592     		str	r2, [sp, #20]
 2455              	.LVL277:
 642:source\bsw\tft/tft.c ****         }
 2456              		.loc 1 642 0
 2457 0080 1C44     		add	r4, r4, r3
 2458              	.LVL278:
 2459 0082 24B2     		sxth	r4, r4
 2460              	.LVL279:
 2461              	.L175:
 644:source\bsw\tft/tft.c ****         ddF_x += 2;
 2462              		.loc 1 644 0
 2463 0084 09F10105 		add	r5, r9, #1
ARM GAS  C:\Users\MATEOC~1.QUE\AppData\Local\Temp\ccxtWYOp.s 			page 61


 2464 0088 ADB2     		uxth	r5, r5
 2465 008a 0FFA85F9 		sxth	r9, r5
 2466              	.LVL280:
 645:source\bsw\tft/tft.c ****         f += ddF_x;
 2467              		.loc 1 645 0
 2468 008e 039B     		ldr	r3, [sp, #12]
 2469 0090 0233     		adds	r3, r3, #2
 2470 0092 9BB2     		uxth	r3, r3
 2471 0094 1AB2     		sxth	r2, r3
 2472 0096 0392     		str	r2, [sp, #12]
 2473              	.LVL281:
 646:source\bsw\tft/tft.c **** 
 2474              		.loc 1 646 0
 2475 0098 1C44     		add	r4, r4, r3
 2476              	.LVL282:
 2477 009a 24B2     		sxth	r4, r4
 2478              	.LVL283:
 648:source\bsw\tft/tft.c ****         TFT_drawPixel(x0 - x, y0 + y, color);
 2479              		.loc 1 648 0
 2480 009c 0AEB0503 		add	r3, r10, r5
 2481 00a0 1BB2     		sxth	r3, r3
 2482 00a2 BDF80860 		ldrh	r6, [sp, #8]
 2483 00a6 0BEB0608 		add	r8, fp, r6
 2484 00aa 0FFA88F8 		sxth	r8, r8
 2485 00ae 019A     		ldr	r2, [sp, #4]
 2486 00b0 4146     		mov	r1, r8
 2487 00b2 0493     		str	r3, [sp, #16]
 2488 00b4 1846     		mov	r0, r3
 2489 00b6 FFF7FEFF 		bl	TFT_drawPixel
 2490              	.LVL284:
 649:source\bsw\tft/tft.c ****         TFT_drawPixel(x0 + x, y0 - y, color);
 2491              		.loc 1 649 0
 2492 00ba C5EB0A07 		rsb	r7, r5, r10
 2493 00be 3FB2     		sxth	r7, r7
 2494 00c0 019A     		ldr	r2, [sp, #4]
 2495 00c2 4146     		mov	r1, r8
 2496 00c4 3846     		mov	r0, r7
 2497 00c6 FFF7FEFF 		bl	TFT_drawPixel
 2498              	.LVL285:
 650:source\bsw\tft/tft.c ****         TFT_drawPixel(x0 - x, y0 - y, color);
 2499              		.loc 1 650 0
 2500 00ca C6EB0B08 		rsb	r8, r6, fp
 2501 00ce 0FFA88F8 		sxth	r8, r8
 2502 00d2 019A     		ldr	r2, [sp, #4]
 2503 00d4 4146     		mov	r1, r8
 2504 00d6 0498     		ldr	r0, [sp, #16]
 2505 00d8 FFF7FEFF 		bl	TFT_drawPixel
 2506              	.LVL286:
 651:source\bsw\tft/tft.c ****         TFT_drawPixel(x0 + y, y0 + x, color);
 2507              		.loc 1 651 0
 2508 00dc 019A     		ldr	r2, [sp, #4]
 2509 00de 4146     		mov	r1, r8
 2510 00e0 3846     		mov	r0, r7
 2511 00e2 FFF7FEFF 		bl	TFT_drawPixel
 2512              	.LVL287:
 652:source\bsw\tft/tft.c ****         TFT_drawPixel(x0 - y, y0 + x, color);
 2513              		.loc 1 652 0
ARM GAS  C:\Users\MATEOC~1.QUE\AppData\Local\Temp\ccxtWYOp.s 			page 62


 2514 00e6 0AEB0607 		add	r7, r10, r6
 2515 00ea 3FB2     		sxth	r7, r7
 2516 00ec 0BEB0508 		add	r8, fp, r5
 2517 00f0 0FFA88F8 		sxth	r8, r8
 2518 00f4 019A     		ldr	r2, [sp, #4]
 2519 00f6 4146     		mov	r1, r8
 2520 00f8 3846     		mov	r0, r7
 2521 00fa FFF7FEFF 		bl	TFT_drawPixel
 2522              	.LVL288:
 653:source\bsw\tft/tft.c ****         TFT_drawPixel(x0 + y, y0 - x, color);
 2523              		.loc 1 653 0
 2524 00fe C6EB0A06 		rsb	r6, r6, r10
 2525 0102 36B2     		sxth	r6, r6
 2526 0104 019A     		ldr	r2, [sp, #4]
 2527 0106 4146     		mov	r1, r8
 2528 0108 3046     		mov	r0, r6
 2529 010a FFF7FEFF 		bl	TFT_drawPixel
 2530              	.LVL289:
 654:source\bsw\tft/tft.c ****         TFT_drawPixel(x0 - y, y0 - x, color);
 2531              		.loc 1 654 0
 2532 010e C5EB0B05 		rsb	r5, r5, fp
 2533 0112 2DB2     		sxth	r5, r5
 2534 0114 DDF80480 		ldr	r8, [sp, #4]
 2535 0118 4246     		mov	r2, r8
 2536 011a 2946     		mov	r1, r5
 2537 011c 3846     		mov	r0, r7
 2538 011e FFF7FEFF 		bl	TFT_drawPixel
 2539              	.LVL290:
 655:source\bsw\tft/tft.c ****     }
 2540              		.loc 1 655 0
 2541 0122 4246     		mov	r2, r8
 2542 0124 2946     		mov	r1, r5
 2543 0126 3046     		mov	r0, r6
 2544 0128 FFF7FEFF 		bl	TFT_drawPixel
 2545              	.LVL291:
 2546              	.L174:
 638:source\bsw\tft/tft.c ****         if (f >= 0) {
 2547              		.loc 1 638 0
 2548 012c 029B     		ldr	r3, [sp, #8]
 2549 012e 9945     		cmp	r9, r3
 2550 0130 9BDB     		blt	.L176
 658:source\bsw\tft/tft.c **** 
 2551              		.loc 1 658 0
 2552 0132 07B0     		add	sp, sp, #28
 2553              		.cfi_def_cfa_offset 36
 2554              		@ sp needed
 2555 0134 BDE8F08F 		pop	{r4, r5, r6, r7, r8, r9, r10, fp, pc}
 2556              		.cfi_endproc
 2557              	.LFE32:
 2558              		.size	TFT_drawCircle, .-TFT_drawCircle
 2559              		.section	.text.TFT_fillCircle,"ax",%progbits
 2560              		.align	2
 2561              		.global	TFT_fillCircle
 2562              		.thumb
 2563              		.thumb_func
 2564              		.type	TFT_fillCircle, %function
 2565              	TFT_fillCircle:
ARM GAS  C:\Users\MATEOC~1.QUE\AppData\Local\Temp\ccxtWYOp.s 			page 63


 2566              	.LFB34:
 695:source\bsw\tft/tft.c **** 
 2567              		.loc 1 695 0
 2568              		.cfi_startproc
 2569              		@ args = 0, pretend = 0, frame = 0
 2570              		@ frame_needed = 0, uses_anonymous_args = 0
 2571              	.LVL292:
 2572 0000 F0B5     		push	{r4, r5, r6, r7, lr}
 2573              		.cfi_def_cfa_offset 20
 2574              		.cfi_offset 4, -20
 2575              		.cfi_offset 5, -16
 2576              		.cfi_offset 6, -12
 2577              		.cfi_offset 7, -8
 2578              		.cfi_offset 14, -4
 2579 0002 83B0     		sub	sp, sp, #12
 2580              		.cfi_def_cfa_offset 32
 2581 0004 0646     		mov	r6, r0
 2582 0006 0C46     		mov	r4, r1
 2583 0008 1546     		mov	r5, r2
 2584 000a 1F46     		mov	r7, r3
 697:source\bsw\tft/tft.c ****     TFT_fillCircleHelper(x0, y0, r, 3, 0, color);
 2585              		.loc 1 697 0
 2586 000c 91B2     		uxth	r1, r2
 2587              	.LVL293:
 2588 000e 4A00     		lsls	r2, r1, #1
 2589              	.LVL294:
 2590 0010 0132     		adds	r2, r2, #1
 2591 0012 611A     		subs	r1, r4, r1
 2592              	.LVL295:
 2593 0014 12B2     		sxth	r2, r2
 2594 0016 09B2     		sxth	r1, r1
 2595 0018 FFF7FEFF 		bl	TFT_fastVLine
 2596              	.LVL296:
 698:source\bsw\tft/tft.c **** }
 2597              		.loc 1 698 0
 2598 001c 0197     		str	r7, [sp, #4]
 2599 001e 0023     		movs	r3, #0
 2600 0020 0093     		str	r3, [sp]
 2601 0022 0323     		movs	r3, #3
 2602 0024 2A46     		mov	r2, r5
 2603 0026 2146     		mov	r1, r4
 2604 0028 3046     		mov	r0, r6
 2605 002a FFF7FEFF 		bl	TFT_fillCircleHelper
 2606              	.LVL297:
 699:source\bsw\tft/tft.c **** 
 2607              		.loc 1 699 0
 2608 002e 03B0     		add	sp, sp, #12
 2609              		.cfi_def_cfa_offset 20
 2610              		@ sp needed
 2611 0030 F0BD     		pop	{r4, r5, r6, r7, pc}
 2612              		.cfi_endproc
 2613              	.LFE34:
 2614              		.size	TFT_fillCircle, .-TFT_fillCircle
 2615 0032 00BF     		.section	.text.TFT_drawTriangle,"ax",%progbits
 2616              		.align	2
 2617              		.global	TFT_drawTriangle
 2618              		.thumb
ARM GAS  C:\Users\MATEOC~1.QUE\AppData\Local\Temp\ccxtWYOp.s 			page 64


 2619              		.thumb_func
 2620              		.type	TFT_drawTriangle, %function
 2621              	TFT_drawTriangle:
 2622              	.LFB36:
 730:source\bsw\tft/tft.c **** 
 731:source\bsw\tft/tft.c **** // Draw a triangle
 732:source\bsw\tft/tft.c **** void TFT_drawTriangle(int16_t x0, int16_t y0, int16_t x1, int16_t y1, int16_t x2, int16_t y2, TFT_c
 2623              		.loc 1 732 0
 2624              		.cfi_startproc
 2625              		@ args = 12, pretend = 0, frame = 0
 2626              		@ frame_needed = 0, uses_anonymous_args = 0
 2627              	.LVL298:
 2628 0000 2DE9F047 		push	{r4, r5, r6, r7, r8, r9, r10, lr}
 2629              		.cfi_def_cfa_offset 32
 2630              		.cfi_offset 4, -32
 2631              		.cfi_offset 5, -28
 2632              		.cfi_offset 6, -24
 2633              		.cfi_offset 7, -20
 2634              		.cfi_offset 8, -16
 2635              		.cfi_offset 9, -12
 2636              		.cfi_offset 10, -8
 2637              		.cfi_offset 14, -4
 2638 0004 82B0     		sub	sp, sp, #8
 2639              		.cfi_def_cfa_offset 40
 2640 0006 0746     		mov	r7, r0
 2641 0008 8846     		mov	r8, r1
 2642 000a 9146     		mov	r9, r2
 2643 000c 9A46     		mov	r10, r3
 2644 000e BDF92850 		ldrsh	r5, [sp, #40]
 2645 0012 BDF92C60 		ldrsh	r6, [sp, #44]
 2646 0016 BDF83040 		ldrh	r4, [sp, #48]
 733:source\bsw\tft/tft.c ****     TFT_writeLine(x0, y0, x1, y1, color);
 2647              		.loc 1 733 0
 2648 001a 0094     		str	r4, [sp]
 2649 001c FFF7FEFF 		bl	TFT_writeLine
 2650              	.LVL299:
 734:source\bsw\tft/tft.c ****     TFT_writeLine(x1, y1, x2, y2, color);
 2651              		.loc 1 734 0
 2652 0020 0094     		str	r4, [sp]
 2653 0022 3346     		mov	r3, r6
 2654 0024 2A46     		mov	r2, r5
 2655 0026 5146     		mov	r1, r10
 2656 0028 4846     		mov	r0, r9
 2657 002a FFF7FEFF 		bl	TFT_writeLine
 2658              	.LVL300:
 735:source\bsw\tft/tft.c ****     TFT_writeLine(x2, y2, x0, y0, color);
 2659              		.loc 1 735 0
 2660 002e 0094     		str	r4, [sp]
 2661 0030 4346     		mov	r3, r8
 2662 0032 3A46     		mov	r2, r7
 2663 0034 3146     		mov	r1, r6
 2664 0036 2846     		mov	r0, r5
 2665 0038 FFF7FEFF 		bl	TFT_writeLine
 2666              	.LVL301:
 736:source\bsw\tft/tft.c **** }
 2667              		.loc 1 736 0
 2668 003c 02B0     		add	sp, sp, #8
ARM GAS  C:\Users\MATEOC~1.QUE\AppData\Local\Temp\ccxtWYOp.s 			page 65


 2669              		.cfi_def_cfa_offset 32
 2670              		@ sp needed
 2671 003e BDE8F087 		pop	{r4, r5, r6, r7, r8, r9, r10, pc}
 2672              		.cfi_endproc
 2673              	.LFE36:
 2674              		.size	TFT_drawTriangle, .-TFT_drawTriangle
 2675 0042 00BF     		.section	.text.TFT_fillTriangle,"ax",%progbits
 2676              		.align	2
 2677              		.global	TFT_fillTriangle
 2678              		.thumb
 2679              		.thumb_func
 2680              		.type	TFT_fillTriangle, %function
 2681              	TFT_fillTriangle:
 2682              	.LFB37:
 737:source\bsw\tft/tft.c **** 
 738:source\bsw\tft/tft.c **** // Fill a triangle
 739:source\bsw\tft/tft.c **** void TFT_fillTriangle(int16_t x0, int16_t y0, int16_t x1, int16_t y1, int16_t x2, int16_t y2, TFT_c
 2683              		.loc 1 739 0
 2684              		.cfi_startproc
 2685              		@ args = 12, pretend = 0, frame = 32
 2686              		@ frame_needed = 0, uses_anonymous_args = 0
 2687              	.LVL302:
 2688 0000 2DE9F04F 		push	{r4, r5, r6, r7, r8, r9, r10, fp, lr}
 2689              		.cfi_def_cfa_offset 36
 2690              		.cfi_offset 4, -36
 2691              		.cfi_offset 5, -32
 2692              		.cfi_offset 6, -28
 2693              		.cfi_offset 7, -24
 2694              		.cfi_offset 8, -20
 2695              		.cfi_offset 9, -16
 2696              		.cfi_offset 10, -12
 2697              		.cfi_offset 11, -8
 2698              		.cfi_offset 14, -4
 2699 0004 89B0     		sub	sp, sp, #36
 2700              		.cfi_def_cfa_offset 72
 2701 0006 0C46     		mov	r4, r1
 2702 0008 0491     		str	r1, [sp, #16]
 2703 000a 1E46     		mov	r6, r3
 2704 000c 0593     		str	r3, [sp, #20]
 2705 000e BDF94850 		ldrsh	r5, [sp, #72]
 2706 0012 BDF94C90 		ldrsh	r9, [sp, #76]
 2707 0016 BDF85070 		ldrh	r7, [sp, #80]
 2708 001a 0097     		str	r7, [sp]
 740:source\bsw\tft/tft.c **** 
 741:source\bsw\tft/tft.c ****     int16_t a, b, y, last;
 742:source\bsw\tft/tft.c **** 
 743:source\bsw\tft/tft.c ****     // Sort coordinates by Y order (y2 >= y1 >= y0)
 744:source\bsw\tft/tft.c ****     if (y0 > y1) {
 2709              		.loc 1 744 0
 2710 001c 9942     		cmp	r1, r3
 2711 001e 04DD     		ble	.L183
 2712              	.LBB11:
 745:source\bsw\tft/tft.c ****         _swap_int16_t(y0, y1); _swap_int16_t(x0, x1);
 2713              		.loc 1 745 0
 2714 0020 0496     		str	r6, [sp, #16]
 2715 0022 0594     		str	r4, [sp, #20]
 2716              	.LBE11:
ARM GAS  C:\Users\MATEOC~1.QUE\AppData\Local\Temp\ccxtWYOp.s 			page 66


 2717 0024 0346     		mov	r3, r0
 2718              	.LVL303:
 2719              	.LBB12:
 2720 0026 1046     		mov	r0, r2
 2721              	.LVL304:
 2722 0028 1A46     		mov	r2, r3
 2723              	.LVL305:
 2724              	.L183:
 2725              	.LBE12:
 746:source\bsw\tft/tft.c ****     }
 747:source\bsw\tft/tft.c ****     if (y1 > y2) {
 2726              		.loc 1 747 0
 2727 002a 059B     		ldr	r3, [sp, #20]
 2728 002c 4B45     		cmp	r3, r9
 2729 002e 05DD     		ble	.L184
 2730              	.LBB13:
 748:source\bsw\tft/tft.c ****         _swap_int16_t(y2, y1); _swap_int16_t(x2, x1);
 2731              		.loc 1 748 0
 2732 0030 CDF81490 		str	r9, [sp, #20]
 2733              	.LVL306:
 2734 0034 9946     		mov	r9, r3
 2735              	.LBE13:
 2736 0036 1346     		mov	r3, r2
 2737              	.LBB14:
 2738 0038 2A46     		mov	r2, r5
 2739              	.LVL307:
 2740 003a 1D46     		mov	r5, r3
 2741              	.L184:
 2742              	.LVL308:
 2743              	.LBE14:
 749:source\bsw\tft/tft.c ****     }
 750:source\bsw\tft/tft.c ****     if (y0 > y1) {
 2744              		.loc 1 750 0
 2745 003c 049B     		ldr	r3, [sp, #16]
 2746 003e 059E     		ldr	r6, [sp, #20]
 2747 0040 B342     		cmp	r3, r6
 2748 0042 04DD     		ble	.L185
 2749              	.LBB15:
 751:source\bsw\tft/tft.c ****         _swap_int16_t(y0, y1); _swap_int16_t(x0, x1);
 2750              		.loc 1 751 0
 2751 0044 0496     		str	r6, [sp, #16]
 2752              	.LVL309:
 2753 0046 0593     		str	r3, [sp, #20]
 2754              	.LVL310:
 2755              	.LBE15:
 2756 0048 0346     		mov	r3, r0
 2757              	.LBB16:
 2758 004a 1046     		mov	r0, r2
 2759              	.LVL311:
 2760 004c 1A46     		mov	r2, r3
 2761              	.LVL312:
 2762              	.L185:
 2763              	.LBE16:
 752:source\bsw\tft/tft.c ****     }
 753:source\bsw\tft/tft.c **** 
 754:source\bsw\tft/tft.c ****     if(y0 == y2) { // Handle awkward all-on-same-line case as its own thing
 2764              		.loc 1 754 0
ARM GAS  C:\Users\MATEOC~1.QUE\AppData\Local\Temp\ccxtWYOp.s 			page 67


 2765 004e 049B     		ldr	r3, [sp, #16]
 2766 0050 4B45     		cmp	r3, r9
 2767 0052 18D1     		bne	.L186
 2768              	.LVL313:
 755:source\bsw\tft/tft.c ****         a = b = x0;
 756:source\bsw\tft/tft.c ****         if(x1 < a)      a = x1;
 2769              		.loc 1 756 0
 2770 0054 9042     		cmp	r0, r2
 2771 0056 05DC     		bgt	.L187
 757:source\bsw\tft/tft.c ****         else if(x1 > b) b = x1;
 2772              		.loc 1 757 0
 2773 0058 01DB     		blt	.L200
 755:source\bsw\tft/tft.c ****         a = b = x0;
 2774              		.loc 1 755 0
 2775 005a 0246     		mov	r2, r0
 2776              	.LVL314:
 2777 005c 02E0     		b	.L187
 2778              	.LVL315:
 2779              	.L200:
 2780 005e 1346     		mov	r3, r2
 2781 0060 0246     		mov	r2, r0
 2782              	.LVL316:
 2783              		.loc 1 757 0
 2784 0062 1846     		mov	r0, r3
 2785              	.LVL317:
 2786              	.L187:
 758:source\bsw\tft/tft.c ****         if(x2 < a)      a = x2;
 2787              		.loc 1 758 0
 2788 0064 9542     		cmp	r5, r2
 2789 0066 05DB     		blt	.L188
 759:source\bsw\tft/tft.c ****         else if(x2 > b) b = x2;
 2790              		.loc 1 759 0
 2791 0068 8542     		cmp	r5, r0
 2792 006a 01DC     		bgt	.L201
 2793 006c 1546     		mov	r5, r2
 2794              	.LVL318:
 2795 006e 01E0     		b	.L188
 2796              	.LVL319:
 2797              	.L201:
 2798 0070 2846     		mov	r0, r5
 2799              	.LVL320:
 2800 0072 1546     		mov	r5, r2
 2801              	.LVL321:
 2802              	.L188:
 760:source\bsw\tft/tft.c ****         TFT_fastHLine(a, y0, b-a+1, color);
 2803              		.loc 1 760 0
 2804 0074 401B     		subs	r0, r0, r5
 2805              	.LVL322:
 2806 0076 421C     		adds	r2, r0, #1
 2807 0078 009B     		ldr	r3, [sp]
 2808 007a 12B2     		sxth	r2, r2
 2809 007c 0499     		ldr	r1, [sp, #16]
 2810 007e 2846     		mov	r0, r5
 2811 0080 FFF7FEFF 		bl	TFT_fastHLine
 2812              	.LVL323:
 761:source\bsw\tft/tft.c ****         return;
 2813              		.loc 1 761 0
ARM GAS  C:\Users\MATEOC~1.QUE\AppData\Local\Temp\ccxtWYOp.s 			page 68


 2814 0084 74E0     		b	.L182
 2815              	.LVL324:
 2816              	.L186:
 762:source\bsw\tft/tft.c ****     }
 763:source\bsw\tft/tft.c **** 
 764:source\bsw\tft/tft.c ****     int16_t
 765:source\bsw\tft/tft.c ****     dx01 = x1 - x0,
 2817              		.loc 1 765 0
 2818 0086 93B2     		uxth	r3, r2
 2819 0088 1A46     		mov	r2, r3
 2820 008a 0193     		str	r3, [sp, #4]
 2821 008c 87B2     		uxth	r7, r0
 2822 008e DB1B     		subs	r3, r3, r7
 2823 0090 1BB2     		sxth	r3, r3
 2824 0092 0293     		str	r3, [sp, #8]
 2825              	.LVL325:
 766:source\bsw\tft/tft.c ****     dy01 = y1 - y0,
 2826              		.loc 1 766 0
 2827 0094 0599     		ldr	r1, [sp, #20]
 2828 0096 1FFA81FB 		uxth	fp, r1
 2829 009a BDF81080 		ldrh	r8, [sp, #16]
 2830 009e C8EB0B03 		rsb	r3, r8, fp
 2831 00a2 1BB2     		sxth	r3, r3
 2832 00a4 1846     		mov	r0, r3
 2833              	.LVL326:
 767:source\bsw\tft/tft.c ****     dx02 = x2 - x0,
 2834              		.loc 1 767 0
 2835 00a6 ADB2     		uxth	r5, r5
 2836 00a8 EE1B     		subs	r6, r5, r7
 2837 00aa 36B2     		sxth	r6, r6
 2838              	.LVL327:
 768:source\bsw\tft/tft.c ****     dy02 = y2 - y0,
 2839              		.loc 1 768 0
 2840 00ac 1FFA89F3 		uxth	r3, r9
 2841 00b0 C8EB0308 		rsb	r8, r8, r3
 2842 00b4 0FFA88F8 		sxth	r8, r8
 2843              	.LVL328:
 769:source\bsw\tft/tft.c ****     dx12 = x2 - x1,
 2844              		.loc 1 769 0
 2845 00b8 AD1A     		subs	r5, r5, r2
 2846              	.LVL329:
 2847 00ba 2AB2     		sxth	r2, r5
 2848              	.LVL330:
 2849 00bc 0692     		str	r2, [sp, #24]
 2850              	.LVL331:
 770:source\bsw\tft/tft.c ****     dy12 = y2 - y1;
 2851              		.loc 1 770 0
 2852 00be CBEB0303 		rsb	r3, fp, r3
 2853 00c2 1BB2     		sxth	r3, r3
 2854 00c4 0393     		str	r3, [sp, #12]
 2855              	.LVL332:
 771:source\bsw\tft/tft.c ****     int32_t
 772:source\bsw\tft/tft.c ****     sa   = 0,
 773:source\bsw\tft/tft.c ****     sb   = 0;
 774:source\bsw\tft/tft.c **** 
 775:source\bsw\tft/tft.c ****     // For upper part of triangle, find scanline crossings for segments
 776:source\bsw\tft/tft.c ****     // 0-1 and 0-2.  If y1=y2 (flat-bottomed triangle), the scanline y1
ARM GAS  C:\Users\MATEOC~1.QUE\AppData\Local\Temp\ccxtWYOp.s 			page 69


 777:source\bsw\tft/tft.c ****     // is included here (and second loop will be skipped, avoiding a /0
 778:source\bsw\tft/tft.c ****     // error there), otherwise scanline y1 is skipped here and handled
 779:source\bsw\tft/tft.c ****     // in the second loop...which also avoids a /0 error here if y0=y1
 780:source\bsw\tft/tft.c ****     // (flat-topped triangle).
 781:source\bsw\tft/tft.c ****     if(y1 == y2) last = y1;   // Include y1 scanline
 2856              		.loc 1 781 0
 2857 00c6 4945     		cmp	r1, r9
 2858 00c8 04D0     		beq	.L202
 782:source\bsw\tft/tft.c ****     else         last = y1-1; // Skip it
 2859              		.loc 1 782 0
 2860 00ca 0BF1FF3B 		add	fp, fp, #-1
 2861 00ce 0FFA8BFB 		sxth	fp, fp
 2862              	.LVL333:
 2863 00d2 01E0     		b	.L190
 2864              	.LVL334:
 2865              	.L202:
 781:source\bsw\tft/tft.c ****     else         last = y1-1; // Skip it
 2866              		.loc 1 781 0
 2867 00d4 DDF814B0 		ldr	fp, [sp, #20]
 2868              	.L190:
 2869              	.LVL335:
 783:source\bsw\tft/tft.c **** 
 784:source\bsw\tft/tft.c ****     for(y=y0; y<=last; y++) {
 2870              		.loc 1 784 0
 2871 00d8 049C     		ldr	r4, [sp, #16]
 773:source\bsw\tft/tft.c **** 
 2872              		.loc 1 773 0
 2873 00da 0025     		movs	r5, #0
 772:source\bsw\tft/tft.c ****     sb   = 0;
 2874              		.loc 1 772 0
 2875 00dc AA46     		mov	r10, r5
 2876 00de CDF81C90 		str	r9, [sp, #28]
 2877 00e2 8146     		mov	r9, r0
 2878              	.LVL336:
 2879              		.loc 1 784 0
 2880 00e4 18E0     		b	.L191
 2881              	.LVL337:
 2882              	.L193:
 785:source\bsw\tft/tft.c ****         a   = x0 + sa / dy01;
 2883              		.loc 1 785 0
 2884 00e6 9AFBF9F2 		sdiv	r2, r10, r9
 2885 00ea 3A44     		add	r2, r2, r7
 2886 00ec 12B2     		sxth	r2, r2
 2887              	.LVL338:
 786:source\bsw\tft/tft.c ****         b   = x0 + sb / dy02;
 2888              		.loc 1 786 0
 2889 00ee 95FBF8F0 		sdiv	r0, r5, r8
 2890 00f2 3844     		add	r0, r0, r7
 2891 00f4 00B2     		sxth	r0, r0
 2892              	.LVL339:
 787:source\bsw\tft/tft.c ****         sa += dx01;
 2893              		.loc 1 787 0
 2894 00f6 029B     		ldr	r3, [sp, #8]
 2895 00f8 9A44     		add	r10, r10, r3
 2896              	.LVL340:
 788:source\bsw\tft/tft.c ****         sb += dx02;
 2897              		.loc 1 788 0
ARM GAS  C:\Users\MATEOC~1.QUE\AppData\Local\Temp\ccxtWYOp.s 			page 70


 2898 00fa 3544     		add	r5, r5, r6
 2899              	.LVL341:
 789:source\bsw\tft/tft.c ****         /* longhand:
 790:source\bsw\tft/tft.c ****         a = x0 + (x1 - x0) * (y - y0) / (y1 - y0);
 791:source\bsw\tft/tft.c ****         b = x0 + (x2 - x0) * (y - y0) / (y2 - y0);
 792:source\bsw\tft/tft.c ****         */
 793:source\bsw\tft/tft.c ****         if(a > b) _swap_int16_t(a,b);
 2900              		.loc 1 793 0
 2901 00fc 8242     		cmp	r2, r0
 2902 00fe 02DC     		bgt	.L192
 2903 0100 0346     		mov	r3, r0
 785:source\bsw\tft/tft.c ****         b   = x0 + sb / dy02;
 2904              		.loc 1 785 0
 2905 0102 1046     		mov	r0, r2
 2906              	.LVL342:
 786:source\bsw\tft/tft.c ****         sa += dx01;
 2907              		.loc 1 786 0
 2908 0104 1A46     		mov	r2, r3
 2909              	.LVL343:
 2910              	.L192:
 794:source\bsw\tft/tft.c ****         TFT_fastHLine(a, y, b-a+1, color);
 2911              		.loc 1 794 0 discriminator 2
 2912 0106 121A     		subs	r2, r2, r0
 2913              	.LVL344:
 2914 0108 0132     		adds	r2, r2, #1
 2915 010a 009B     		ldr	r3, [sp]
 2916 010c 12B2     		sxth	r2, r2
 2917 010e 2146     		mov	r1, r4
 2918 0110 FFF7FEFF 		bl	TFT_fastHLine
 2919              	.LVL345:
 784:source\bsw\tft/tft.c ****         a   = x0 + sa / dy01;
 2920              		.loc 1 784 0 discriminator 2
 2921 0114 0134     		adds	r4, r4, #1
 2922              	.LVL346:
 2923 0116 24B2     		sxth	r4, r4
 2924              	.LVL347:
 2925              	.L191:
 784:source\bsw\tft/tft.c ****         a   = x0 + sa / dy01;
 2926              		.loc 1 784 0 is_stmt 0 discriminator 1
 2927 0118 5C45     		cmp	r4, fp
 2928 011a E4DD     		ble	.L193
 2929 011c DDF81C90 		ldr	r9, [sp, #28]
 2930              	.LVL348:
 795:source\bsw\tft/tft.c ****     }
 796:source\bsw\tft/tft.c **** 
 797:source\bsw\tft/tft.c ****     // For lower part of triangle, find scanline crossings for segments
 798:source\bsw\tft/tft.c ****     // 0-2 and 1-2.  This loop is skipped if y1=y2.
 799:source\bsw\tft/tft.c ****     sa = dx12 * (y - y1);
 2931              		.loc 1 799 0 is_stmt 1
 2932 0120 069A     		ldr	r2, [sp, #24]
 2933 0122 9346     		mov	fp, r2
 2934              	.LVL349:
 2935 0124 059B     		ldr	r3, [sp, #20]
 2936 0126 E51A     		subs	r5, r4, r3
 2937              	.LVL350:
 2938 0128 05FB02F5 		mul	r5, r5, r2
 2939              	.LVL351:
ARM GAS  C:\Users\MATEOC~1.QUE\AppData\Local\Temp\ccxtWYOp.s 			page 71


 800:source\bsw\tft/tft.c ****     sb = dx02 * (y - y0);
 2940              		.loc 1 800 0
 2941 012c B246     		mov	r10, r6
 2942 012e 049B     		ldr	r3, [sp, #16]
 2943 0130 E31A     		subs	r3, r4, r3
 2944 0132 03FB06F6 		mul	r6, r3, r6
 2945              	.LVL352:
 801:source\bsw\tft/tft.c ****     for(; y<=y2; y++) {
 2946              		.loc 1 801 0
 2947 0136 19E0     		b	.L194
 2948              	.L196:
 802:source\bsw\tft/tft.c ****         a   = x1 + sa / dy12;
 2949              		.loc 1 802 0
 2950 0138 039B     		ldr	r3, [sp, #12]
 2951 013a 95FBF3F2 		sdiv	r2, r5, r3
 2952 013e 019B     		ldr	r3, [sp, #4]
 2953 0140 1A44     		add	r2, r2, r3
 2954 0142 12B2     		sxth	r2, r2
 2955              	.LVL353:
 803:source\bsw\tft/tft.c ****         b   = x0 + sb / dy02;
 2956              		.loc 1 803 0
 2957 0144 96FBF8F0 		sdiv	r0, r6, r8
 2958 0148 3844     		add	r0, r0, r7
 2959 014a 00B2     		sxth	r0, r0
 2960              	.LVL354:
 804:source\bsw\tft/tft.c ****         sa += dx12;
 2961              		.loc 1 804 0
 2962 014c 5D44     		add	r5, r5, fp
 2963              	.LVL355:
 805:source\bsw\tft/tft.c ****         sb += dx02;
 2964              		.loc 1 805 0
 2965 014e 5644     		add	r6, r6, r10
 2966              	.LVL356:
 806:source\bsw\tft/tft.c ****         /* longhand:
 807:source\bsw\tft/tft.c ****         a = x1 + (x2 - x1) * (y - y1) / (y2 - y1);
 808:source\bsw\tft/tft.c ****         b = x0 + (x2 - x0) * (y - y0) / (y2 - y0);
 809:source\bsw\tft/tft.c ****         */
 810:source\bsw\tft/tft.c ****         if(a > b) _swap_int16_t(a,b);
 2967              		.loc 1 810 0
 2968 0150 8242     		cmp	r2, r0
 2969 0152 02DC     		bgt	.L195
 2970 0154 0346     		mov	r3, r0
 802:source\bsw\tft/tft.c ****         b   = x0 + sb / dy02;
 2971              		.loc 1 802 0
 2972 0156 1046     		mov	r0, r2
 2973              	.LVL357:
 803:source\bsw\tft/tft.c ****         sa += dx12;
 2974              		.loc 1 803 0
 2975 0158 1A46     		mov	r2, r3
 2976              	.LVL358:
 2977              	.L195:
 811:source\bsw\tft/tft.c ****         TFT_fastHLine(a, y, b-a+1, color);
 2978              		.loc 1 811 0
 2979 015a 121A     		subs	r2, r2, r0
 2980              	.LVL359:
 2981 015c 0132     		adds	r2, r2, #1
 2982 015e 009B     		ldr	r3, [sp]
ARM GAS  C:\Users\MATEOC~1.QUE\AppData\Local\Temp\ccxtWYOp.s 			page 72


 2983 0160 12B2     		sxth	r2, r2
 2984 0162 2146     		mov	r1, r4
 2985 0164 FFF7FEFF 		bl	TFT_fastHLine
 2986              	.LVL360:
 801:source\bsw\tft/tft.c ****         a   = x1 + sa / dy12;
 2987              		.loc 1 801 0
 2988 0168 0134     		adds	r4, r4, #1
 2989              	.LVL361:
 2990 016a 24B2     		sxth	r4, r4
 2991              	.LVL362:
 2992              	.L194:
 801:source\bsw\tft/tft.c ****         a   = x1 + sa / dy12;
 2993              		.loc 1 801 0 is_stmt 0 discriminator 1
 2994 016c A145     		cmp	r9, r4
 2995 016e E3DA     		bge	.L196
 2996              	.LVL363:
 2997              	.L182:
 812:source\bsw\tft/tft.c ****     }
 813:source\bsw\tft/tft.c **** }
 2998              		.loc 1 813 0 is_stmt 1
 2999 0170 09B0     		add	sp, sp, #36
 3000              		.cfi_def_cfa_offset 36
 3001              		@ sp needed
 3002 0172 BDE8F08F 		pop	{r4, r5, r6, r7, r8, r9, r10, fp, pc}
 3003              		.cfi_endproc
 3004              	.LFE37:
 3005              		.size	TFT_fillTriangle, .-TFT_fillTriangle
 3006 0176 00BF     		.section	.text.TFT_drawRoundRect,"ax",%progbits
 3007              		.align	2
 3008              		.global	TFT_drawRoundRect
 3009              		.thumb
 3010              		.thumb_func
 3011              		.type	TFT_drawRoundRect, %function
 3012              	TFT_drawRoundRect:
 3013              	.LFB38:
 814:source\bsw\tft/tft.c **** 
 815:source\bsw\tft/tft.c **** // Draw a rounded rectangle
 816:source\bsw\tft/tft.c **** void TFT_drawRoundRect(int16_t x, int16_t y, int16_t w, int16_t h, int16_t r, TFT_color_t color) {
 3014              		.loc 1 816 0
 3015              		.cfi_startproc
 3016              		@ args = 8, pretend = 0, frame = 16
 3017              		@ frame_needed = 0, uses_anonymous_args = 0
 3018              	.LVL364:
 3019 0000 2DE9F04F 		push	{r4, r5, r6, r7, r8, r9, r10, fp, lr}
 3020              		.cfi_def_cfa_offset 36
 3021              		.cfi_offset 4, -36
 3022              		.cfi_offset 5, -32
 3023              		.cfi_offset 6, -28
 3024              		.cfi_offset 7, -24
 3025              		.cfi_offset 8, -20
 3026              		.cfi_offset 9, -16
 3027              		.cfi_offset 10, -12
 3028              		.cfi_offset 11, -8
 3029              		.cfi_offset 14, -4
 3030 0004 87B0     		sub	sp, sp, #28
 3031              		.cfi_def_cfa_offset 64
 3032 0006 0E46     		mov	r6, r1
ARM GAS  C:\Users\MATEOC~1.QUE\AppData\Local\Temp\ccxtWYOp.s 			page 73


 3033 0008 1F46     		mov	r7, r3
 3034 000a BDF94030 		ldrsh	r3, [sp, #64]
 3035              	.LVL365:
 3036 000e BDF84480 		ldrh	r8, [sp, #68]
 817:source\bsw\tft/tft.c ****     // smarter version
 818:source\bsw\tft/tft.c ****     TFT_fastHLine(x+r  , y    , w-2*r, color); // Top
 3037              		.loc 1 818 0
 3038 0012 0390     		str	r0, [sp, #12]
 3039 0014 BDF80CB0 		ldrh	fp, [sp, #12]
 3040 0018 0493     		str	r3, [sp, #16]
 3041 001a BDF81090 		ldrh	r9, [sp, #16]
 3042 001e 0BEB0903 		add	r3, fp, r9
 3043 0022 1CB2     		sxth	r4, r3
 3044 0024 2546     		mov	r5, r4
 3045 0026 94B2     		uxth	r4, r2
 3046 0028 4FEA490A 		lsl	r10, r9, #1
 3047 002c 1FFA8AFA 		uxth	r10, r10
 3048 0030 CAEB0403 		rsb	r3, r10, r4
 3049 0034 1AB2     		sxth	r2, r3
 3050              	.LVL366:
 3051 0036 4346     		mov	r3, r8
 3052 0038 0592     		str	r2, [sp, #20]
 3053 003a 0295     		str	r5, [sp, #8]
 3054 003c 2846     		mov	r0, r5
 3055              	.LVL367:
 3056 003e FFF7FEFF 		bl	TFT_fastHLine
 3057              	.LVL368:
 819:source\bsw\tft/tft.c ****     TFT_fastHLine(x+r  , y+h-1, w-2*r, color); // Bottom
 3058              		.loc 1 819 0
 3059 0042 B6B2     		uxth	r6, r6
 3060 0044 BFB2     		uxth	r7, r7
 3061 0046 F519     		adds	r5, r6, r7
 3062 0048 ADB2     		uxth	r5, r5
 3063 004a 691E     		subs	r1, r5, #1
 3064 004c 4346     		mov	r3, r8
 3065 004e 059A     		ldr	r2, [sp, #20]
 3066 0050 09B2     		sxth	r1, r1
 3067 0052 0298     		ldr	r0, [sp, #8]
 3068 0054 FFF7FEFF 		bl	TFT_fastHLine
 3069              	.LVL369:
 820:source\bsw\tft/tft.c ****     TFT_fastVLine(x    , y+r  , h-2*r, color); // Left
 3070              		.loc 1 820 0
 3071 0058 4E44     		add	r6, r6, r9
 3072 005a 36B2     		sxth	r6, r6
 3073 005c CAEB0707 		rsb	r7, r10, r7
 3074 0060 3FB2     		sxth	r7, r7
 3075 0062 4346     		mov	r3, r8
 3076 0064 3A46     		mov	r2, r7
 3077 0066 3146     		mov	r1, r6
 3078 0068 0398     		ldr	r0, [sp, #12]
 3079 006a FFF7FEFF 		bl	TFT_fastVLine
 3080              	.LVL370:
 821:source\bsw\tft/tft.c ****     TFT_fastVLine(x+w-1, y+r  , h-2*r, color); // Right
 3081              		.loc 1 821 0
 3082 006e 5C44     		add	r4, r4, fp
 3083              	.LVL371:
 3084 0070 A4B2     		uxth	r4, r4
ARM GAS  C:\Users\MATEOC~1.QUE\AppData\Local\Temp\ccxtWYOp.s 			page 74


 3085 0072 601E     		subs	r0, r4, #1
 3086 0074 4346     		mov	r3, r8
 3087 0076 3A46     		mov	r2, r7
 3088 0078 3146     		mov	r1, r6
 3089 007a 00B2     		sxth	r0, r0
 3090 007c FFF7FEFF 		bl	TFT_fastVLine
 3091              	.LVL372:
 822:source\bsw\tft/tft.c ****     // draw four corners
 823:source\bsw\tft/tft.c ****     TFT_drawCircleHelper(x+r    , y+r    , r, 1, color);
 3092              		.loc 1 823 0
 3093 0080 CDF80080 		str	r8, [sp]
 3094 0084 0123     		movs	r3, #1
 3095 0086 049F     		ldr	r7, [sp, #16]
 3096 0088 3A46     		mov	r2, r7
 3097 008a 3146     		mov	r1, r6
 3098 008c DDF808A0 		ldr	r10, [sp, #8]
 3099 0090 5046     		mov	r0, r10
 3100 0092 FFF7FEFF 		bl	TFT_drawCircleHelper
 3101              	.LVL373:
 824:source\bsw\tft/tft.c ****     TFT_drawCircleHelper(x+w-r-1, y+r    , r, 2, color);
 3102              		.loc 1 824 0
 3103 0096 C9EB0404 		rsb	r4, r9, r4
 3104 009a 013C     		subs	r4, r4, #1
 3105 009c 24B2     		sxth	r4, r4
 3106 009e CDF80080 		str	r8, [sp]
 3107 00a2 0223     		movs	r3, #2
 3108 00a4 3A46     		mov	r2, r7
 3109 00a6 3146     		mov	r1, r6
 3110 00a8 2046     		mov	r0, r4
 3111 00aa FFF7FEFF 		bl	TFT_drawCircleHelper
 3112              	.LVL374:
 825:source\bsw\tft/tft.c ****     TFT_drawCircleHelper(x+w-r-1, y+h-r-1, r, 4, color);
 3113              		.loc 1 825 0
 3114 00ae C9EB0505 		rsb	r5, r9, r5
 3115 00b2 013D     		subs	r5, r5, #1
 3116 00b4 2DB2     		sxth	r5, r5
 3117 00b6 CDF80080 		str	r8, [sp]
 3118 00ba 0423     		movs	r3, #4
 3119 00bc 3A46     		mov	r2, r7
 3120 00be 2946     		mov	r1, r5
 3121 00c0 2046     		mov	r0, r4
 3122 00c2 FFF7FEFF 		bl	TFT_drawCircleHelper
 3123              	.LVL375:
 826:source\bsw\tft/tft.c ****     TFT_drawCircleHelper(x+r    , y+h-r-1, r, 8, color);
 3124              		.loc 1 826 0
 3125 00c6 CDF80080 		str	r8, [sp]
 3126 00ca 0823     		movs	r3, #8
 3127 00cc 3A46     		mov	r2, r7
 3128 00ce 2946     		mov	r1, r5
 3129 00d0 5046     		mov	r0, r10
 3130 00d2 FFF7FEFF 		bl	TFT_drawCircleHelper
 3131              	.LVL376:
 827:source\bsw\tft/tft.c **** 
 828:source\bsw\tft/tft.c **** }
 3132              		.loc 1 828 0
 3133 00d6 07B0     		add	sp, sp, #28
 3134              		.cfi_def_cfa_offset 36
ARM GAS  C:\Users\MATEOC~1.QUE\AppData\Local\Temp\ccxtWYOp.s 			page 75


 3135              		@ sp needed
 3136 00d8 BDE8F08F 		pop	{r4, r5, r6, r7, r8, r9, r10, fp, pc}
 3137              		.cfi_endproc
 3138              	.LFE38:
 3139              		.size	TFT_drawRoundRect, .-TFT_drawRoundRect
 3140              		.section	.text.TFT_fillRoundRect,"ax",%progbits
 3141              		.align	2
 3142              		.global	TFT_fillRoundRect
 3143              		.thumb
 3144              		.thumb_func
 3145              		.type	TFT_fillRoundRect, %function
 3146              	TFT_fillRoundRect:
 3147              	.LFB39:
 829:source\bsw\tft/tft.c **** 
 830:source\bsw\tft/tft.c **** // Fill a rounded rectangle
 831:source\bsw\tft/tft.c **** void TFT_fillRoundRect(int16_t x, int16_t y, int16_t w, int16_t h, int16_t r, TFT_color_t color) {
 3148              		.loc 1 831 0
 3149              		.cfi_startproc
 3150              		@ args = 8, pretend = 0, frame = 8
 3151              		@ frame_needed = 0, uses_anonymous_args = 0
 3152              	.LVL377:
 3153 0000 2DE9F04F 		push	{r4, r5, r6, r7, r8, r9, r10, fp, lr}
 3154              		.cfi_def_cfa_offset 36
 3155              		.cfi_offset 4, -36
 3156              		.cfi_offset 5, -32
 3157              		.cfi_offset 6, -28
 3158              		.cfi_offset 7, -24
 3159              		.cfi_offset 8, -20
 3160              		.cfi_offset 9, -16
 3161              		.cfi_offset 10, -12
 3162              		.cfi_offset 11, -8
 3163              		.cfi_offset 14, -4
 3164 0004 85B0     		sub	sp, sp, #20
 3165              		.cfi_def_cfa_offset 56
 3166 0006 0D46     		mov	r5, r1
 3167 0008 0393     		str	r3, [sp, #12]
 3168 000a BDF93890 		ldrsh	r9, [sp, #56]
 3169 000e BDF83CA0 		ldrh	r10, [sp, #60]
 832:source\bsw\tft/tft.c ****     // smarter version
 833:source\bsw\tft/tft.c **** 
 834:source\bsw\tft/tft.c ****     TFT_fillRect(x+r, y, w-2*r, h, color);
 3170              		.loc 1 834 0
 3171 0012 1FFA80FB 		uxth	fp, r0
 3172 0016 1FFA89F7 		uxth	r7, r9
 3173 001a 0BEB0706 		add	r6, fp, r7
 3174 001e 36B2     		sxth	r6, r6
 3175 0020 94B2     		uxth	r4, r2
 3176 0022 4FEA4708 		lsl	r8, r7, #1
 3177 0026 1FFA88F8 		uxth	r8, r8
 3178 002a C8EB0402 		rsb	r2, r8, r4
 3179              	.LVL378:
 3180 002e CDF800A0 		str	r10, [sp]
 3181 0032 12B2     		sxth	r2, r2
 3182 0034 3046     		mov	r0, r6
 3183              	.LVL379:
 3184 0036 FFF7FEFF 		bl	TFT_fillRect
 3185              	.LVL380:
ARM GAS  C:\Users\MATEOC~1.QUE\AppData\Local\Temp\ccxtWYOp.s 			page 76


 835:source\bsw\tft/tft.c **** 
 836:source\bsw\tft/tft.c ****     // draw four corners
 837:source\bsw\tft/tft.c ****     TFT_fillCircleHelper(x+w-r-1, y+r, r, 1, h-2*r-1, color);
 3186              		.loc 1 837 0
 3187 003a 3D44     		add	r5, r5, r7
 3188 003c 2DB2     		sxth	r5, r5
 3189 003e 039B     		ldr	r3, [sp, #12]
 3190 0040 C8EB0308 		rsb	r8, r8, r3
 3191 0044 08F1FF38 		add	r8, r8, #-1
 3192 0048 0FFA88F8 		sxth	r8, r8
 3193 004c 0BEB0400 		add	r0, fp, r4
 3194 0050 C01B     		subs	r0, r0, r7
 3195 0052 0138     		subs	r0, r0, #1
 3196 0054 CDF804A0 		str	r10, [sp, #4]
 3197 0058 CDF80080 		str	r8, [sp]
 3198 005c 0123     		movs	r3, #1
 3199 005e 4A46     		mov	r2, r9
 3200 0060 2946     		mov	r1, r5
 3201 0062 00B2     		sxth	r0, r0
 3202 0064 FFF7FEFF 		bl	TFT_fillCircleHelper
 3203              	.LVL381:
 838:source\bsw\tft/tft.c ****     TFT_fillCircleHelper(x+r    , y+r, r, 2, h-2*r-1, color);
 3204              		.loc 1 838 0
 3205 0068 CDF804A0 		str	r10, [sp, #4]
 3206 006c CDF80080 		str	r8, [sp]
 3207 0070 0223     		movs	r3, #2
 3208 0072 4A46     		mov	r2, r9
 3209 0074 2946     		mov	r1, r5
 3210 0076 3046     		mov	r0, r6
 3211 0078 FFF7FEFF 		bl	TFT_fillCircleHelper
 3212              	.LVL382:
 839:source\bsw\tft/tft.c **** 
 840:source\bsw\tft/tft.c **** }
 3213              		.loc 1 840 0
 3214 007c 05B0     		add	sp, sp, #20
 3215              		.cfi_def_cfa_offset 36
 3216              		@ sp needed
 3217 007e BDE8F08F 		pop	{r4, r5, r6, r7, r8, r9, r10, fp, pc}
 3218              		.cfi_endproc
 3219              	.LFE39:
 3220              		.size	TFT_fillRoundRect, .-TFT_fillRoundRect
 3221 0082 00BF     		.section	.text.TFT_drawRect,"ax",%progbits
 3222              		.align	2
 3223              		.global	TFT_drawRect
 3224              		.thumb
 3225              		.thumb_func
 3226              		.type	TFT_drawRect, %function
 3227              	TFT_drawRect:
 3228              	.LFB40:
 841:source\bsw\tft/tft.c **** 
 842:source\bsw\tft/tft.c **** // Draw a rectangle
 843:source\bsw\tft/tft.c **** void TFT_drawRect(int16_t x, int16_t y, int16_t w, int16_t h,  TFT_color_t color) {
 3229              		.loc 1 843 0
 3230              		.cfi_startproc
 3231              		@ args = 4, pretend = 0, frame = 0
 3232              		@ frame_needed = 0, uses_anonymous_args = 0
 3233              	.LVL383:
ARM GAS  C:\Users\MATEOC~1.QUE\AppData\Local\Temp\ccxtWYOp.s 			page 77


 3234 0000 2DE9F041 		push	{r4, r5, r6, r7, r8, lr}
 3235              		.cfi_def_cfa_offset 24
 3236              		.cfi_offset 4, -24
 3237              		.cfi_offset 5, -20
 3238              		.cfi_offset 6, -16
 3239              		.cfi_offset 7, -12
 3240              		.cfi_offset 8, -8
 3241              		.cfi_offset 14, -4
 3242 0004 8046     		mov	r8, r0
 3243 0006 0E46     		mov	r6, r1
 3244 0008 1446     		mov	r4, r2
 3245 000a 1F46     		mov	r7, r3
 3246 000c BDF81850 		ldrh	r5, [sp, #24]
 844:source\bsw\tft/tft.c ****     TFT_fastHLine(x, y, w, color);
 3247              		.loc 1 844 0
 3248 0010 2B46     		mov	r3, r5
 3249              	.LVL384:
 3250 0012 FFF7FEFF 		bl	TFT_fastHLine
 3251              	.LVL385:
 845:source\bsw\tft/tft.c ****     TFT_fastHLine(x, y+h-1, w, color);
 3252              		.loc 1 845 0
 3253 0016 F119     		adds	r1, r6, r7
 3254 0018 0139     		subs	r1, r1, #1
 3255 001a 2B46     		mov	r3, r5
 3256 001c 2246     		mov	r2, r4
 3257 001e 09B2     		sxth	r1, r1
 3258 0020 4046     		mov	r0, r8
 3259 0022 FFF7FEFF 		bl	TFT_fastHLine
 3260              	.LVL386:
 846:source\bsw\tft/tft.c ****     TFT_fastVLine(x, y, h, color);
 3261              		.loc 1 846 0
 3262 0026 2B46     		mov	r3, r5
 3263 0028 3A46     		mov	r2, r7
 3264 002a 3146     		mov	r1, r6
 3265 002c 4046     		mov	r0, r8
 3266 002e FFF7FEFF 		bl	TFT_fastVLine
 3267              	.LVL387:
 847:source\bsw\tft/tft.c ****     TFT_fastVLine(x+w-1, y, h, color);
 3268              		.loc 1 847 0
 3269 0032 08EB0400 		add	r0, r8, r4
 3270 0036 0138     		subs	r0, r0, #1
 3271 0038 2B46     		mov	r3, r5
 3272 003a 3A46     		mov	r2, r7
 3273 003c 3146     		mov	r1, r6
 3274 003e 00B2     		sxth	r0, r0
 3275 0040 FFF7FEFF 		bl	TFT_fastVLine
 3276              	.LVL388:
 3277 0044 BDE8F081 		pop	{r4, r5, r6, r7, r8, pc}
 3278              		.cfi_endproc
 3279              	.LFE40:
 3280              		.size	TFT_drawRect, .-TFT_drawRect
 3281              		.section	.text.TFT_drawChar,"ax",%progbits
 3282              		.align	2
 3283              		.global	TFT_drawChar
 3284              		.thumb
 3285              		.thumb_func
 3286              		.type	TFT_drawChar, %function
ARM GAS  C:\Users\MATEOC~1.QUE\AppData\Local\Temp\ccxtWYOp.s 			page 78


 3287              	TFT_drawChar:
 3288              	.LFB41:
 848:source\bsw\tft/tft.c **** }
 849:source\bsw\tft/tft.c **** 
 850:source\bsw\tft/tft.c **** // Draw a character
 851:source\bsw\tft/tft.c **** void TFT_drawChar(int16_t x, int16_t y, unsigned char c,  TFT_color_t color, TFT_color_t bg, uint8_
 3289              		.loc 1 851 0
 3290              		.cfi_startproc
 3291              		@ args = 8, pretend = 0, frame = 32
 3292              		@ frame_needed = 0, uses_anonymous_args = 0
 3293              	.LVL389:
 3294 0000 2DE9F04F 		push	{r4, r5, r6, r7, r8, r9, r10, fp, lr}
 3295              		.cfi_def_cfa_offset 36
 3296              		.cfi_offset 4, -36
 3297              		.cfi_offset 5, -32
 3298              		.cfi_offset 6, -28
 3299              		.cfi_offset 7, -24
 3300              		.cfi_offset 8, -20
 3301              		.cfi_offset 9, -16
 3302              		.cfi_offset 10, -12
 3303              		.cfi_offset 11, -8
 3304              		.cfi_offset 14, -4
 3305 0004 8BB0     		sub	sp, sp, #44
 3306              		.cfi_def_cfa_offset 80
 3307 0006 0290     		str	r0, [sp, #8]
 3308 0008 0391     		str	r1, [sp, #12]
 3309 000a 1546     		mov	r5, r2
 3310 000c 0493     		str	r3, [sp, #16]
 3311 000e BDF85070 		ldrh	r7, [sp, #80]
 3312 0012 9DF854A0 		ldrb	r10, [sp, #84]	@ zero_extendqisi2
 852:source\bsw\tft/tft.c **** 
 853:source\bsw\tft/tft.c ****     if(!gfxFont) { // 'Classic' built-in font
 3313              		.loc 1 853 0
 3314 0016 7F4B     		ldr	r3, .L232
 3315              	.LVL390:
 3316 0018 1A68     		ldr	r2, [r3]
 3317              	.LVL391:
 3318 001a 002A     		cmp	r2, #0
 3319 001c 40F09080 		bne	.L211
 854:source\bsw\tft/tft.c **** 
 855:source\bsw\tft/tft.c ****         if((x >= _width)            || // Clip right
 3320              		.loc 1 855 0
 3321 0020 B3F90630 		ldrsh	r3, [r3, #6]
 3322 0024 0146     		mov	r1, r0
 3323              	.LVL392:
 3324 0026 8342     		cmp	r3, r0
 3325 0028 40F3F180 		ble	.L210
 856:source\bsw\tft/tft.c ****            (y >= _height)           || // Clip bottom
 3326              		.loc 1 856 0 discriminator 1
 3327 002c 794B     		ldr	r3, .L232
 3328 002e B3F8DA30 		ldrh	r3, [r3, #218]
 855:source\bsw\tft/tft.c ****            (y >= _height)           || // Clip bottom
 3329              		.loc 1 855 0 discriminator 1
 3330 0032 0398     		ldr	r0, [sp, #12]
 3331              	.LVL393:
 3332 0034 9842     		cmp	r0, r3
 3333 0036 80F2EA80 		bge	.L210
ARM GAS  C:\Users\MATEOC~1.QUE\AppData\Local\Temp\ccxtWYOp.s 			page 79


 857:source\bsw\tft/tft.c ****            ((x + 6 * size - 1) < 0) || // Clip left
 3334              		.loc 1 857 0
 3335 003a 0AEB4A02 		add	r2, r10, r10, lsl #1
 3336 003e 5300     		lsls	r3, r2, #1
 3337 0040 0B44     		add	r3, r3, r1
 856:source\bsw\tft/tft.c ****            (y >= _height)           || // Clip bottom
 3338              		.loc 1 856 0
 3339 0042 012B     		cmp	r3, #1
 3340 0044 00F1E380 		bmi	.L210
 858:source\bsw\tft/tft.c ****            ((y + 8 * size - 1) < 0))   // Clip top
 3341              		.loc 1 858 0
 3342 0048 00EBCA03 		add	r3, r0, r10, lsl #3
 857:source\bsw\tft/tft.c ****            ((x + 6 * size - 1) < 0) || // Clip left
 3343              		.loc 1 857 0
 3344 004c 012B     		cmp	r3, #1
 3345 004e 00F1DE80 		bmi	.L210
 3346 0052 4FF00008 		mov	r8, #0
 3347 0056 8946     		mov	r9, r1
 3348 0058 8346     		mov	fp, r0
 3349 005a 0595     		str	r5, [sp, #20]
 3350 005c 049E     		ldr	r6, [sp, #16]
 3351 005e 4EE0     		b	.L213
 3352              	.LVL394:
 3353              	.L220:
 3354              	.LBB17:
 3355              	.LBB18:
 859:source\bsw\tft/tft.c ****             return;
 860:source\bsw\tft/tft.c **** 
 861:source\bsw\tft/tft.c ****         for(int8_t i=0; i<5; i++ ) { // Char bitmap = 5 columns
 862:source\bsw\tft/tft.c ****             uint8_t line = pgm_read_byte(&font[c * 5 + i]);
 3356              		.loc 1 862 0
 3357 0060 059B     		ldr	r3, [sp, #20]
 3358 0062 03EB8303 		add	r3, r3, r3, lsl #2
 3359 0066 4344     		add	r3, r3, r8
 3360 0068 6B4A     		ldr	r2, .L232+4
 3361 006a 1344     		add	r3, r3, r2
 3362 006c 93F85850 		ldrb	r5, [r3, #88]	@ zero_extendqisi2
 3363              	.LVL395:
 3364              	.LBB19:
 863:source\bsw\tft/tft.c ****             for(int8_t j=0; j<8; j++, line >>= 1) {
 3365              		.loc 1 863 0
 3366 0070 0024     		movs	r4, #0
 3367 0072 3EE0     		b	.L214
 3368              	.LVL396:
 3369              	.L219:
 864:source\bsw\tft/tft.c ****                 if(line & 1) {
 3370              		.loc 1 864 0
 3371 0074 15F0010F 		tst	r5, #1
 3372 0078 1BD0     		beq	.L215
 865:source\bsw\tft/tft.c ****                     if(size == 1)
 3373              		.loc 1 865 0
 3374 007a BAF1010F 		cmp	r10, #1
 3375 007e 09D1     		bne	.L216
 866:source\bsw\tft/tft.c ****                         TFT_drawPixel(x+i, y+j, color);
 3376              		.loc 1 866 0
 3377 0080 04EB0B01 		add	r1, r4, fp
 3378 0084 08EB0900 		add	r0, r8, r9
ARM GAS  C:\Users\MATEOC~1.QUE\AppData\Local\Temp\ccxtWYOp.s 			page 80


 3379 0088 3246     		mov	r2, r6
 3380 008a 09B2     		sxth	r1, r1
 3381 008c 00B2     		sxth	r0, r0
 3382 008e FFF7FEFF 		bl	TFT_drawPixel
 3383              	.LVL397:
 3384 0092 2BE0     		b	.L217
 3385              	.L216:
 867:source\bsw\tft/tft.c ****                     else
 868:source\bsw\tft/tft.c ****                         TFT_fillRect(x+i*size, y+j*size, size, size, color);
 3386              		.loc 1 868 0
 3387 0094 1FFA8AF0 		uxth	r0, r10
 3388 0098 0FFA8AF2 		sxth	r2, r10
 3389 009c 04FB00B1 		mla	r1, r4, r0, fp
 3390 00a0 08FB0090 		mla	r0, r8, r0, r9
 3391 00a4 0096     		str	r6, [sp]
 3392 00a6 1346     		mov	r3, r2
 3393 00a8 09B2     		sxth	r1, r1
 3394 00aa 00B2     		sxth	r0, r0
 3395 00ac FFF7FEFF 		bl	TFT_fillRect
 3396              	.LVL398:
 3397 00b0 1CE0     		b	.L217
 3398              	.L215:
 869:source\bsw\tft/tft.c ****                 } else if(bg != color) {
 3399              		.loc 1 869 0
 3400 00b2 BE42     		cmp	r6, r7
 3401 00b4 1AD0     		beq	.L217
 870:source\bsw\tft/tft.c ****                     if(size == 1)
 3402              		.loc 1 870 0
 3403 00b6 BAF1010F 		cmp	r10, #1
 3404 00ba 09D1     		bne	.L218
 871:source\bsw\tft/tft.c ****                         TFT_drawPixel(x+i, y+j, bg);
 3405              		.loc 1 871 0
 3406 00bc 04EB0B01 		add	r1, r4, fp
 3407 00c0 08EB0900 		add	r0, r8, r9
 3408 00c4 3A46     		mov	r2, r7
 3409 00c6 09B2     		sxth	r1, r1
 3410 00c8 00B2     		sxth	r0, r0
 3411 00ca FFF7FEFF 		bl	TFT_drawPixel
 3412              	.LVL399:
 3413 00ce 0DE0     		b	.L217
 3414              	.L218:
 872:source\bsw\tft/tft.c ****                     else
 873:source\bsw\tft/tft.c ****                         TFT_fillRect(x+i*size, y+j*size, size, size, bg);
 3415              		.loc 1 873 0
 3416 00d0 1FFA8AF0 		uxth	r0, r10
 3417 00d4 0FFA8AF2 		sxth	r2, r10
 3418 00d8 04FB00B1 		mla	r1, r4, r0, fp
 3419 00dc 08FB0090 		mla	r0, r8, r0, r9
 3420 00e0 0097     		str	r7, [sp]
 3421 00e2 1346     		mov	r3, r2
 3422 00e4 09B2     		sxth	r1, r1
 3423 00e6 00B2     		sxth	r0, r0
 3424 00e8 FFF7FEFF 		bl	TFT_fillRect
 3425              	.LVL400:
 3426              	.L217:
 863:source\bsw\tft/tft.c ****                 if(line & 1) {
 3427              		.loc 1 863 0 discriminator 2
ARM GAS  C:\Users\MATEOC~1.QUE\AppData\Local\Temp\ccxtWYOp.s 			page 81


 3428 00ec 0134     		adds	r4, r4, #1
 3429              	.LVL401:
 3430 00ee 64B2     		sxtb	r4, r4
 3431              	.LVL402:
 3432 00f0 6D08     		lsrs	r5, r5, #1
 3433              	.LVL403:
 3434              	.L214:
 863:source\bsw\tft/tft.c ****                 if(line & 1) {
 3435              		.loc 1 863 0 is_stmt 0 discriminator 1
 3436 00f2 072C     		cmp	r4, #7
 3437 00f4 BEDD     		ble	.L219
 3438              	.LBE19:
 3439              	.LBE18:
 861:source\bsw\tft/tft.c ****             uint8_t line = pgm_read_byte(&font[c * 5 + i]);
 3440              		.loc 1 861 0 is_stmt 1 discriminator 2
 3441 00f6 08F10108 		add	r8, r8, #1
 3442              	.LVL404:
 3443 00fa 4FFA88F8 		sxtb	r8, r8
 3444              	.LVL405:
 3445              	.L213:
 861:source\bsw\tft/tft.c ****             uint8_t line = pgm_read_byte(&font[c * 5 + i]);
 3446              		.loc 1 861 0 is_stmt 0 discriminator 1
 3447 00fe B8F1040F 		cmp	r8, #4
 3448 0102 ADDD     		ble	.L220
 3449              	.LBE17:
 874:source\bsw\tft/tft.c ****                 }
 875:source\bsw\tft/tft.c ****             }
 876:source\bsw\tft/tft.c ****         }
 877:source\bsw\tft/tft.c ****         if(bg != color) { // If opaque, draw vertical line for last column
 3450              		.loc 1 877 0 is_stmt 1
 3451 0104 049B     		ldr	r3, [sp, #16]
 3452 0106 BB42     		cmp	r3, r7
 3453 0108 00F08180 		beq	.L210
 878:source\bsw\tft/tft.c ****             if(size == 1) TFT_fastVLine(x+5, y, 8, bg);
 3454              		.loc 1 878 0
 3455 010c BAF1010F 		cmp	r10, #1
 3456 0110 08D1     		bne	.L221
 3457              		.loc 1 878 0 is_stmt 0 discriminator 1
 3458 0112 0298     		ldr	r0, [sp, #8]
 3459 0114 0530     		adds	r0, r0, #5
 3460 0116 3B46     		mov	r3, r7
 3461 0118 0822     		movs	r2, #8
 3462 011a 0399     		ldr	r1, [sp, #12]
 3463 011c 00B2     		sxth	r0, r0
 3464 011e FFF7FEFF 		bl	TFT_fastVLine
 3465              	.LVL406:
 3466 0122 74E0     		b	.L210
 3467              	.L221:
 879:source\bsw\tft/tft.c ****             else          TFT_fillRect(x+5*size, y, size, 8*size, bg);
 3468              		.loc 1 879 0 is_stmt 1
 3469 0124 1FFA8AF3 		uxth	r3, r10
 3470 0128 03EB8300 		add	r0, r3, r3, lsl #2
 3471 012c 029A     		ldr	r2, [sp, #8]
 3472 012e 1044     		add	r0, r0, r2
 3473 0130 0097     		str	r7, [sp]
 3474 0132 DB00     		lsls	r3, r3, #3
 3475 0134 5246     		mov	r2, r10
ARM GAS  C:\Users\MATEOC~1.QUE\AppData\Local\Temp\ccxtWYOp.s 			page 82


 3476 0136 0399     		ldr	r1, [sp, #12]
 3477 0138 00B2     		sxth	r0, r0
 3478 013a FFF7FEFF 		bl	TFT_fillRect
 3479              	.LVL407:
 3480 013e 66E0     		b	.L210
 3481              	.LVL408:
 3482              	.L211:
 3483              	.LBB20:
 880:source\bsw\tft/tft.c ****         }
 881:source\bsw\tft/tft.c **** 
 882:source\bsw\tft/tft.c ****     } else { // Custom font
 883:source\bsw\tft/tft.c **** 
 884:source\bsw\tft/tft.c ****         // Character is assumed previously filtered by write() to eliminate
 885:source\bsw\tft/tft.c ****         // newlines, returns, non-printable characters, etc.  Calling
 886:source\bsw\tft/tft.c ****         // drawChar() directly with 'bad' characters of font may cause mayhem!
 887:source\bsw\tft/tft.c **** 
 888:source\bsw\tft/tft.c ****         c -= (uint8_t)pgm_read_byte(&gfxFont->first);
 3484              		.loc 1 888 0
 3485 0140 137A     		ldrb	r3, [r2, #8]	@ zero_extendqisi2
 3486 0142 EB1A     		subs	r3, r5, r3
 3487 0144 DBB2     		uxtb	r3, r3
 3488              	.LVL409:
 889:source\bsw\tft/tft.c ****         GFXglyph *glyph  = &(((GFXglyph *)pgm_read_pointer(&gfxFont->glyph))[c]);
 3489              		.loc 1 889 0
 3490 0146 5068     		ldr	r0, [r2, #4]
 3491              	.LVL410:
 3492 0148 00EBC301 		add	r1, r0, r3, lsl #3
 3493              	.LVL411:
 890:source\bsw\tft/tft.c ****         uint8_t  *bitmap = (uint8_t *)pgm_read_pointer(&gfxFont->bitmap);
 3494              		.loc 1 890 0
 3495 014c D2F800B0 		ldr	fp, [r2]
 3496              	.LVL412:
 891:source\bsw\tft/tft.c **** 
 892:source\bsw\tft/tft.c ****         uint16_t bo = pgm_read_word(&glyph->bitmapOffset);
 3497              		.loc 1 892 0
 3498 0150 30F83370 		ldrh	r7, [r0, r3, lsl #3]
 3499              	.LVL413:
 893:source\bsw\tft/tft.c ****         uint8_t  w  = pgm_read_byte(&glyph->width),
 3500              		.loc 1 893 0
 3501 0154 91F80280 		ldrb	r8, [r1, #2]	@ zero_extendqisi2
 3502              	.LVL414:
 894:source\bsw\tft/tft.c ****                  h  = pgm_read_byte(&glyph->height);
 3503              		.loc 1 894 0
 3504 0158 CB78     		ldrb	r3, [r1, #3]	@ zero_extendqisi2
 3505              	.LVL415:
 3506 015a 0793     		str	r3, [sp, #28]
 3507              	.LVL416:
 895:source\bsw\tft/tft.c ****         int8_t   xo = pgm_read_byte(&glyph->xOffset),
 3508              		.loc 1 895 0
 3509 015c 91F90530 		ldrsb	r3, [r1, #5]
 3510 0160 0893     		str	r3, [sp, #32]
 3511              	.LVL417:
 896:source\bsw\tft/tft.c ****                  yo = pgm_read_byte(&glyph->yOffset);
 3512              		.loc 1 896 0
 3513 0162 91F90620 		ldrsb	r2, [r1, #6]
 3514              	.LVL418:
 3515 0166 0992     		str	r2, [sp, #36]
ARM GAS  C:\Users\MATEOC~1.QUE\AppData\Local\Temp\ccxtWYOp.s 			page 83


 3516              	.LVL419:
 897:source\bsw\tft/tft.c ****         uint8_t  xx, yy, bits = 0, bit = 0;
 898:source\bsw\tft/tft.c ****         int16_t  xo16 = 0, yo16 = 0;
 899:source\bsw\tft/tft.c **** 
 900:source\bsw\tft/tft.c ****         if(size > 1) {
 3517              		.loc 1 900 0
 3518 0168 BAF1010F 		cmp	r10, #1
 3519 016c 04D9     		bls	.L229
 901:source\bsw\tft/tft.c ****             xo16 = xo;
 3520              		.loc 1 901 0
 3521 016e 1BB2     		sxth	r3, r3
 3522              	.LVL420:
 3523 0170 0593     		str	r3, [sp, #20]
 3524              	.LVL421:
 902:source\bsw\tft/tft.c ****             yo16 = yo;
 3525              		.loc 1 902 0
 3526 0172 13B2     		sxth	r3, r2
 3527 0174 0693     		str	r3, [sp, #24]
 3528              	.LVL422:
 3529 0176 02E0     		b	.L222
 3530              	.LVL423:
 3531              	.L229:
 898:source\bsw\tft/tft.c **** 
 3532              		.loc 1 898 0
 3533 0178 0023     		movs	r3, #0
 3534              	.LVL424:
 3535 017a 0693     		str	r3, [sp, #24]
 3536 017c 0593     		str	r3, [sp, #20]
 3537              	.LVL425:
 3538              	.L222:
 897:source\bsw\tft/tft.c ****         int16_t  xo16 = 0, yo16 = 0;
 3539              		.loc 1 897 0
 3540 017e 0023     		movs	r3, #0
 3541 0180 1C46     		mov	r4, r3
 903:source\bsw\tft/tft.c ****         }
 904:source\bsw\tft/tft.c **** 
 905:source\bsw\tft/tft.c ****         // Todo: Add character clipping here
 906:source\bsw\tft/tft.c **** 
 907:source\bsw\tft/tft.c ****         // NOTE: THERE IS NO 'BACKGROUND' COLOR OPTION ON CUSTOM FONTS.
 908:source\bsw\tft/tft.c ****         // THIS IS ON PURPOSE AND BY DESIGN.  The background color feature
 909:source\bsw\tft/tft.c ****         // has typically been used with the 'classic' font to overwrite old
 910:source\bsw\tft/tft.c ****         // screen contents with new data.  This ONLY works because the
 911:source\bsw\tft/tft.c ****         // characters are a uniform size; it's not a sensible thing to do with
 912:source\bsw\tft/tft.c ****         // proportionally-spaced fonts with glyphs of varying sizes (and that
 913:source\bsw\tft/tft.c ****         // may overlap).  To replace previously-drawn text when using a custom
 914:source\bsw\tft/tft.c ****         // font, use the getTextBounds() function to determine the smallest
 915:source\bsw\tft/tft.c ****         // rectangle encompassing a string, erase the area with fillRect(),
 916:source\bsw\tft/tft.c ****         // then draw new text.  This WILL infortunately 'blink' the text, but
 917:source\bsw\tft/tft.c ****         // is unavoidable.  Drawing 'background' pixels will NOT fix this,
 918:source\bsw\tft/tft.c ****         // only creates a new set of problems.  Have an idea to work around
 919:source\bsw\tft/tft.c ****         // this (a canvas object type for MCUs that can afford the RAM and
 920:source\bsw\tft/tft.c ****         // displays supporting setAddrWindow() and pushColors()), but haven't
 921:source\bsw\tft/tft.c ****         // implemented this yet.
 922:source\bsw\tft/tft.c ****         for(yy=0; yy<h; yy++) {
 3542              		.loc 1 922 0
 3543 0182 9946     		mov	r9, r3
 3544 0184 40E0     		b	.L223
ARM GAS  C:\Users\MATEOC~1.QUE\AppData\Local\Temp\ccxtWYOp.s 			page 84


 3545              	.LVL426:
 3546              	.L227:
 923:source\bsw\tft/tft.c ****             for(xx=0; xx<w; xx++) {
 924:source\bsw\tft/tft.c ****                 if(!(bit++ & 7)) {
 3547              		.loc 1 924 0
 3548 0186 5E1C     		adds	r6, r3, #1
 3549 0188 F6B2     		uxtb	r6, r6
 3550              	.LVL427:
 3551 018a 13F0070F 		tst	r3, #7
 3552 018e 03D1     		bne	.L224
 925:source\bsw\tft/tft.c ****                     bits = pgm_read_byte(&bitmap[bo++]);
 3553              		.loc 1 925 0
 3554 0190 7B1C     		adds	r3, r7, #1
 3555              	.LVL428:
 3556 0192 1BF80740 		ldrb	r4, [fp, r7]	@ zero_extendqisi2
 3557              	.LVL429:
 3558 0196 9FB2     		uxth	r7, r3
 3559              	.LVL430:
 3560              	.L224:
 926:source\bsw\tft/tft.c ****                 }
 927:source\bsw\tft/tft.c ****                 if(bits & 0x80) {
 3561              		.loc 1 927 0
 3562 0198 14F0800F 		tst	r4, #128
 3563 019c 27D0     		beq	.L225
 928:source\bsw\tft/tft.c ****                     if(size == 1) {
 3564              		.loc 1 928 0
 3565 019e BAF1010F 		cmp	r10, #1
 3566 01a2 0DD1     		bne	.L226
 929:source\bsw\tft/tft.c ****                         TFT_drawPixel(x+xo+xx, y+yo+yy, color);
 3567              		.loc 1 929 0
 3568 01a4 099B     		ldr	r3, [sp, #36]
 3569 01a6 039A     		ldr	r2, [sp, #12]
 3570 01a8 9918     		adds	r1, r3, r2
 3571 01aa 4944     		add	r1, r1, r9
 3572 01ac 089B     		ldr	r3, [sp, #32]
 3573 01ae 029A     		ldr	r2, [sp, #8]
 3574 01b0 9818     		adds	r0, r3, r2
 3575 01b2 2844     		add	r0, r0, r5
 3576 01b4 049A     		ldr	r2, [sp, #16]
 3577 01b6 09B2     		sxth	r1, r1
 3578 01b8 00B2     		sxth	r0, r0
 3579 01ba FFF7FEFF 		bl	TFT_drawPixel
 3580              	.LVL431:
 3581 01be 16E0     		b	.L225
 3582              	.L226:
 930:source\bsw\tft/tft.c ****                     } else {
 931:source\bsw\tft/tft.c ****                         TFT_fillRect(x+(xo16+xx)*size, y+(yo16+yy)*size,
 3583              		.loc 1 931 0
 3584 01c0 059B     		ldr	r3, [sp, #20]
 3585 01c2 5819     		adds	r0, r3, r5
 3586 01c4 1FFA8AF3 		uxth	r3, r10
 3587 01c8 069A     		ldr	r2, [sp, #24]
 3588 01ca 02EB0901 		add	r1, r2, r9
 3589 01ce 0FFA8AFE 		sxth	lr, r10
 3590 01d2 039A     		ldr	r2, [sp, #12]
 3591 01d4 01FB0321 		mla	r1, r1, r3, r2
 3592 01d8 029A     		ldr	r2, [sp, #8]
ARM GAS  C:\Users\MATEOC~1.QUE\AppData\Local\Temp\ccxtWYOp.s 			page 85


 3593 01da 00FB0320 		mla	r0, r0, r3, r2
 3594 01de 049B     		ldr	r3, [sp, #16]
 3595 01e0 0093     		str	r3, [sp]
 3596 01e2 7246     		mov	r2, lr
 3597 01e4 7346     		mov	r3, lr
 3598 01e6 09B2     		sxth	r1, r1
 3599 01e8 00B2     		sxth	r0, r0
 3600 01ea FFF7FEFF 		bl	TFT_fillRect
 3601              	.LVL432:
 3602              	.L225:
 932:source\bsw\tft/tft.c ****                           size, size, color);
 933:source\bsw\tft/tft.c ****                     }
 934:source\bsw\tft/tft.c ****                 }
 935:source\bsw\tft/tft.c ****                 bits <<= 1;
 3603              		.loc 1 935 0 discriminator 2
 3604 01ee 6400     		lsls	r4, r4, #1
 3605              	.LVL433:
 3606 01f0 E4B2     		uxtb	r4, r4
 3607              	.LVL434:
 923:source\bsw\tft/tft.c ****                 if(!(bit++ & 7)) {
 3608              		.loc 1 923 0 discriminator 2
 3609 01f2 0135     		adds	r5, r5, #1
 3610              	.LVL435:
 3611 01f4 EDB2     		uxtb	r5, r5
 3612              	.LVL436:
 924:source\bsw\tft/tft.c ****                     bits = pgm_read_byte(&bitmap[bo++]);
 3613              		.loc 1 924 0 discriminator 2
 3614 01f6 3346     		mov	r3, r6
 3615 01f8 00E0     		b	.L228
 3616              	.LVL437:
 3617              	.L230:
 3618 01fa 0025     		movs	r5, #0
 3619              	.LVL438:
 3620              	.L228:
 923:source\bsw\tft/tft.c ****                 if(!(bit++ & 7)) {
 3621              		.loc 1 923 0 discriminator 1
 3622 01fc 4545     		cmp	r5, r8
 3623 01fe C2D3     		bcc	.L227
 922:source\bsw\tft/tft.c ****             for(xx=0; xx<w; xx++) {
 3624              		.loc 1 922 0 discriminator 2
 3625 0200 09F10109 		add	r9, r9, #1
 3626              	.LVL439:
 3627 0204 5FFA89F9 		uxtb	r9, r9
 3628              	.LVL440:
 3629              	.L223:
 922:source\bsw\tft/tft.c ****             for(xx=0; xx<w; xx++) {
 3630              		.loc 1 922 0 is_stmt 0 discriminator 1
 3631 0208 079A     		ldr	r2, [sp, #28]
 3632 020a 9145     		cmp	r9, r2
 3633 020c F5D3     		bcc	.L230
 3634              	.LVL441:
 3635              	.L210:
 3636              	.LBE20:
 936:source\bsw\tft/tft.c ****             }
 937:source\bsw\tft/tft.c ****         }
 938:source\bsw\tft/tft.c **** 
 939:source\bsw\tft/tft.c ****     } // End classic vs custom font
ARM GAS  C:\Users\MATEOC~1.QUE\AppData\Local\Temp\ccxtWYOp.s 			page 86


 940:source\bsw\tft/tft.c **** }
 3637              		.loc 1 940 0 is_stmt 1
 3638 020e 0BB0     		add	sp, sp, #44
 3639              		.cfi_def_cfa_offset 36
 3640              		@ sp needed
 3641 0210 BDE8F08F 		pop	{r4, r5, r6, r7, r8, r9, r10, fp, pc}
 3642              	.LVL442:
 3643              	.L233:
 3644              		.align	2
 3645              	.L232:
 3646 0214 00000000 		.word	.LANCHOR0
 3647 0218 00000000 		.word	.LANCHOR1
 3648              		.cfi_endproc
 3649              	.LFE41:
 3650              		.size	TFT_drawChar, .-TFT_drawChar
 3651              		.section	.text.TFT_write,"ax",%progbits
 3652              		.align	2
 3653              		.global	TFT_write
 3654              		.thumb
 3655              		.thumb_func
 3656              		.type	TFT_write, %function
 3657              	TFT_write:
 3658              	.LFB23:
 465:source\bsw\tft/tft.c **** 
 3659              		.loc 1 465 0
 3660              		.cfi_startproc
 3661              		@ args = 0, pretend = 0, frame = 0
 3662              		@ frame_needed = 0, uses_anonymous_args = 0
 3663              	.LVL443:
 3664 0000 70B5     		push	{r4, r5, r6, lr}
 3665              		.cfi_def_cfa_offset 16
 3666              		.cfi_offset 4, -16
 3667              		.cfi_offset 5, -12
 3668              		.cfi_offset 6, -8
 3669              		.cfi_offset 14, -4
 3670 0002 82B0     		sub	sp, sp, #8
 3671              		.cfi_def_cfa_offset 24
 467:source\bsw\tft/tft.c **** 
 3672              		.loc 1 467 0
 3673 0004 4E4B     		ldr	r3, .L243
 3674 0006 1B68     		ldr	r3, [r3]
 3675 0008 002B     		cmp	r3, #0
 3676 000a 43D1     		bne	.L235
 469:source\bsw\tft/tft.c ****             cursor_x  = 0;                      // Reset x to zero,
 3677              		.loc 1 469 0
 3678 000c 0A28     		cmp	r0, #10
 3679 000e 0BD1     		bne	.L236
 470:source\bsw\tft/tft.c ****             cursor_y += textsize * 8;           // advance y one line
 3680              		.loc 1 470 0
 3681 0010 4B4B     		ldr	r3, .L243
 3682 0012 0022     		movs	r2, #0
 3683 0014 A3F8DE20 		strh	r2, [r3, #222]	@ movhi
 471:source\bsw\tft/tft.c ****         } else if(c != '\r') {                  // Ignore carriage returns
 3684              		.loc 1 471 0
 3685 0018 1979     		ldrb	r1, [r3, #4]	@ zero_extendqisi2
 3686 001a B3F8E020 		ldrh	r2, [r3, #224]
 3687 001e 02EBC102 		add	r2, r2, r1, lsl #3
ARM GAS  C:\Users\MATEOC~1.QUE\AppData\Local\Temp\ccxtWYOp.s 			page 87


 3688 0022 A3F8E020 		strh	r2, [r3, #224]	@ movhi
 3689 0026 88E0     		b	.L234
 3690              	.L236:
 472:source\bsw\tft/tft.c ****             if(wrap && ((cursor_x + textsize * 6) > _width)) { // Off right?
 3691              		.loc 1 472 0
 3692 0028 0D28     		cmp	r0, #13
 3693 002a 00F08680 		beq	.L234
 473:source\bsw\tft/tft.c ****                 cursor_x  = 0;                  // Reset x to zero,
 3694              		.loc 1 473 0
 3695 002e 444B     		ldr	r3, .L243
 3696 0030 5B79     		ldrb	r3, [r3, #5]	@ zero_extendqisi2
 3697 0032 ABB1     		cbz	r3, .L238
 473:source\bsw\tft/tft.c ****                 cursor_x  = 0;                  // Reset x to zero,
 3698              		.loc 1 473 0 is_stmt 0 discriminator 1
 3699 0034 424A     		ldr	r2, .L243
 3700 0036 1179     		ldrb	r1, [r2, #4]	@ zero_extendqisi2
 3701 0038 01EB4104 		add	r4, r1, r1, lsl #1
 3702 003c 6300     		lsls	r3, r4, #1
 3703 003e B2F8DE40 		ldrh	r4, [r2, #222]
 3704 0042 2344     		add	r3, r3, r4
 3705 0044 B2F90620 		ldrsh	r2, [r2, #6]
 3706 0048 9342     		cmp	r3, r2
 3707 004a 09DD     		ble	.L238
 474:source\bsw\tft/tft.c ****                 cursor_y += textsize * 8;       // advance y one line
 3708              		.loc 1 474 0 is_stmt 1
 3709 004c 3C4B     		ldr	r3, .L243
 3710 004e 0022     		movs	r2, #0
 3711 0050 A3F8DE20 		strh	r2, [r3, #222]	@ movhi
 475:source\bsw\tft/tft.c ****             }
 3712              		.loc 1 475 0
 3713 0054 B3F8E020 		ldrh	r2, [r3, #224]
 3714 0058 02EBC101 		add	r1, r2, r1, lsl #3
 3715 005c A3F8E010 		strh	r1, [r3, #224]	@ movhi
 3716              	.L238:
 477:source\bsw\tft/tft.c ****             cursor_x += textsize * 6;          // Advance x one char
 3717              		.loc 1 477 0
 3718 0060 374C     		ldr	r4, .L243
 3719 0062 B4F8E230 		ldrh	r3, [r4, #226]
 3720 0066 B4F9E010 		ldrsh	r1, [r4, #224]
 3721 006a B4F9DE50 		ldrsh	r5, [r4, #222]
 3722 006e 2279     		ldrb	r2, [r4, #4]	@ zero_extendqisi2
 3723 0070 0192     		str	r2, [sp, #4]
 3724 0072 B4F8E420 		ldrh	r2, [r4, #228]
 3725 0076 0092     		str	r2, [sp]
 3726 0078 0246     		mov	r2, r0
 3727 007a 2846     		mov	r0, r5
 3728              	.LVL444:
 3729 007c FFF7FEFF 		bl	TFT_drawChar
 3730              	.LVL445:
 478:source\bsw\tft/tft.c ****         }
 3731              		.loc 1 478 0
 3732 0080 2379     		ldrb	r3, [r4, #4]	@ zero_extendqisi2
 3733 0082 03EB4303 		add	r3, r3, r3, lsl #1
 3734 0086 5A00     		lsls	r2, r3, #1
 3735 0088 B4F8DE30 		ldrh	r3, [r4, #222]
 3736 008c 1344     		add	r3, r3, r2
 3737 008e A4F8DE30 		strh	r3, [r4, #222]	@ movhi
ARM GAS  C:\Users\MATEOC~1.QUE\AppData\Local\Temp\ccxtWYOp.s 			page 88


 3738 0092 52E0     		b	.L234
 3739              	.LVL446:
 3740              	.L235:
 483:source\bsw\tft/tft.c ****             cursor_x  = 0;
 3741              		.loc 1 483 0
 3742 0094 0A28     		cmp	r0, #10
 3743 0096 0CD1     		bne	.L239
 484:source\bsw\tft/tft.c ****             cursor_y += (int16_t)textsize *
 3744              		.loc 1 484 0
 3745 0098 294A     		ldr	r2, .L243
 3746 009a 0021     		movs	r1, #0
 3747 009c A2F8DE10 		strh	r1, [r2, #222]	@ movhi
 486:source\bsw\tft/tft.c ****         } else if(c != '\r') {
 3748              		.loc 1 486 0
 3749 00a0 997A     		ldrb	r1, [r3, #10]	@ zero_extendqisi2
 485:source\bsw\tft/tft.c ****                         (uint8_t)pgm_read_byte(&gfxFont->yAdvance);
 3750              		.loc 1 485 0
 3751 00a2 1079     		ldrb	r0, [r2, #4]	@ zero_extendqisi2
 3752              	.LVL447:
 3753 00a4 B2F8E030 		ldrh	r3, [r2, #224]
 3754 00a8 00FB0133 		mla	r3, r0, r1, r3
 3755 00ac A2F8E030 		strh	r3, [r2, #224]	@ movhi
 3756 00b0 43E0     		b	.L234
 3757              	.LVL448:
 3758              	.L239:
 487:source\bsw\tft/tft.c ****             uint8_t first = pgm_read_byte(&gfxFont->first);
 3759              		.loc 1 487 0
 3760 00b2 0D28     		cmp	r0, #13
 3761 00b4 41D0     		beq	.L234
 3762              	.LBB21:
 488:source\bsw\tft/tft.c ****             if((c >= first) && (c <= (uint8_t)pgm_read_byte(&gfxFont->last))) {
 3763              		.loc 1 488 0
 3764 00b6 1A7A     		ldrb	r2, [r3, #8]	@ zero_extendqisi2
 3765              	.LVL449:
 489:source\bsw\tft/tft.c ****                 GFXglyph *glyph = &(((GFXglyph *)pgm_read_pointer(
 3766              		.loc 1 489 0
 3767 00b8 9042     		cmp	r0, r2
 3768 00ba 3ED3     		bcc	.L234
 489:source\bsw\tft/tft.c ****                 GFXglyph *glyph = &(((GFXglyph *)pgm_read_pointer(
 3769              		.loc 1 489 0 is_stmt 0 discriminator 1
 3770 00bc 597A     		ldrb	r1, [r3, #9]	@ zero_extendqisi2
 3771 00be 8842     		cmp	r0, r1
 3772 00c0 3BD8     		bhi	.L234
 3773              	.LBB22:
 491:source\bsw\tft/tft.c ****                 uint8_t   w     = pgm_read_byte(&glyph->width),
 3774              		.loc 1 491 0 is_stmt 1
 3775 00c2 821A     		subs	r2, r0, r2
 3776              	.LVL450:
 3777 00c4 5C68     		ldr	r4, [r3, #4]
 3778 00c6 04EBC204 		add	r4, r4, r2, lsl #3
 3779              	.LVL451:
 492:source\bsw\tft/tft.c ****                           h     = pgm_read_byte(&glyph->height);
 3780              		.loc 1 492 0
 3781 00ca A278     		ldrb	r2, [r4, #2]	@ zero_extendqisi2
 3782              	.LVL452:
 493:source\bsw\tft/tft.c ****                 if((w > 0) && (h > 0)) { // Is there an associated bitmap?
 3783              		.loc 1 493 0
ARM GAS  C:\Users\MATEOC~1.QUE\AppData\Local\Temp\ccxtWYOp.s 			page 89


 3784 00cc E178     		ldrb	r1, [r4, #3]	@ zero_extendqisi2
 3785              	.LVL453:
 494:source\bsw\tft/tft.c ****                     int16_t xo = (int8_t)pgm_read_byte(&glyph->xOffset); // sic
 3786              		.loc 1 494 0
 3787 00ce 5AB3     		cbz	r2, .L240
 494:source\bsw\tft/tft.c ****                     int16_t xo = (int8_t)pgm_read_byte(&glyph->xOffset); // sic
 3788              		.loc 1 494 0 is_stmt 0 discriminator 1
 3789 00d0 51B3     		cbz	r1, .L240
 3790              	.LBB23:
 495:source\bsw\tft/tft.c ****                     if(wrap && ((cursor_x + textsize * (xo + w)) > _width)) {
 3791              		.loc 1 495 0 is_stmt 1
 3792 00d2 94F90550 		ldrsb	r5, [r4, #5]
 3793              	.LVL454:
 496:source\bsw\tft/tft.c ****                         cursor_x  = 0;
 3794              		.loc 1 496 0
 3795 00d6 1A49     		ldr	r1, .L243
 3796              	.LVL455:
 3797 00d8 4979     		ldrb	r1, [r1, #5]	@ zero_extendqisi2
 3798 00da A9B1     		cbz	r1, .L241
 496:source\bsw\tft/tft.c ****                         cursor_x  = 0;
 3799              		.loc 1 496 0 is_stmt 0 discriminator 1
 3800 00dc 1849     		ldr	r1, .L243
 3801 00de 0E79     		ldrb	r6, [r1, #4]	@ zero_extendqisi2
 3802 00e0 2A44     		add	r2, r2, r5
 3803              	.LVL456:
 3804 00e2 B1F8DE50 		ldrh	r5, [r1, #222]
 3805              	.LVL457:
 3806 00e6 02FB0652 		mla	r2, r2, r6, r5
 3807 00ea B1F90610 		ldrsh	r1, [r1, #6]
 3808 00ee 8A42     		cmp	r2, r1
 3809 00f0 0ADD     		ble	.L241
 497:source\bsw\tft/tft.c ****                         cursor_y += (int16_t)textsize *
 3810              		.loc 1 497 0 is_stmt 1
 3811 00f2 134A     		ldr	r2, .L243
 3812 00f4 0021     		movs	r1, #0
 3813 00f6 A2F8DE10 		strh	r1, [r2, #222]	@ movhi
 499:source\bsw\tft/tft.c ****                     }
 3814              		.loc 1 499 0
 3815 00fa 9B7A     		ldrb	r3, [r3, #10]	@ zero_extendqisi2
 3816              	.LVL458:
 498:source\bsw\tft/tft.c ****                           (uint8_t)pgm_read_byte(&gfxFont->yAdvance);
 3817              		.loc 1 498 0
 3818 00fc B2F8E010 		ldrh	r1, [r2, #224]
 3819 0100 06FB0316 		mla	r6, r6, r3, r1
 3820 0104 A2F8E060 		strh	r6, [r2, #224]	@ movhi
 3821              	.L241:
 501:source\bsw\tft/tft.c ****                 }
 3822              		.loc 1 501 0
 3823 0108 0D4A     		ldr	r2, .L243
 3824 010a B2F8E230 		ldrh	r3, [r2, #226]
 3825 010e B2F9E010 		ldrsh	r1, [r2, #224]
 3826 0112 B2F9DE50 		ldrsh	r5, [r2, #222]
 3827 0116 1679     		ldrb	r6, [r2, #4]	@ zero_extendqisi2
 3828 0118 0196     		str	r6, [sp, #4]
 3829              	.LVL459:
 3830 011a B2F8E420 		ldrh	r2, [r2, #228]
 3831 011e 0092     		str	r2, [sp]
ARM GAS  C:\Users\MATEOC~1.QUE\AppData\Local\Temp\ccxtWYOp.s 			page 90


 3832 0120 0246     		mov	r2, r0
 3833 0122 2846     		mov	r0, r5
 3834              	.LVL460:
 3835 0124 FFF7FEFF 		bl	TFT_drawChar
 3836              	.LVL461:
 3837              	.L240:
 3838              	.LBE23:
 503:source\bsw\tft/tft.c ****             }
 3839              		.loc 1 503 0
 3840 0128 2179     		ldrb	r1, [r4, #4]	@ zero_extendqisi2
 3841 012a 054B     		ldr	r3, .L243
 3842 012c 1879     		ldrb	r0, [r3, #4]	@ zero_extendqisi2
 3843 012e B3F8DE20 		ldrh	r2, [r3, #222]
 3844 0132 00FB0122 		mla	r2, r0, r1, r2
 3845 0136 A3F8DE20 		strh	r2, [r3, #222]	@ movhi
 3846              	.LVL462:
 3847              	.L234:
 3848              	.LBE22:
 3849              	.LBE21:
 508:source\bsw\tft/tft.c **** 
 3850              		.loc 1 508 0
 3851 013a 02B0     		add	sp, sp, #8
 3852              		.cfi_def_cfa_offset 16
 3853              		@ sp needed
 3854 013c 70BD     		pop	{r4, r5, r6, pc}
 3855              	.L244:
 3856 013e 00BF     		.align	2
 3857              	.L243:
 3858 0140 00000000 		.word	.LANCHOR0
 3859              		.cfi_endproc
 3860              	.LFE23:
 3861              		.size	TFT_write, .-TFT_write
 3862              		.section	.text.TFT_print,"ax",%progbits
 3863              		.align	2
 3864              		.global	TFT_print
 3865              		.thumb
 3866              		.thumb_func
 3867              		.type	TFT_print, %function
 3868              	TFT_print:
 3869              	.LFB21:
 452:source\bsw\tft/tft.c ****     while(*(txt)!=0){
 3870              		.loc 1 452 0
 3871              		.cfi_startproc
 3872              		@ args = 0, pretend = 0, frame = 0
 3873              		@ frame_needed = 0, uses_anonymous_args = 0
 3874              	.LVL463:
 3875 0000 10B5     		push	{r4, lr}
 3876              		.cfi_def_cfa_offset 8
 3877              		.cfi_offset 4, -8
 3878              		.cfi_offset 14, -4
 3879 0002 0446     		mov	r4, r0
 453:source\bsw\tft/tft.c ****         TFT_write(*(txt++));
 3880              		.loc 1 453 0
 3881 0004 02E0     		b	.L246
 3882              	.LVL464:
 3883              	.L247:
 454:source\bsw\tft/tft.c ****     }
ARM GAS  C:\Users\MATEOC~1.QUE\AppData\Local\Temp\ccxtWYOp.s 			page 91


 3884              		.loc 1 454 0
 3885 0006 0134     		adds	r4, r4, #1
 3886              	.LVL465:
 3887 0008 FFF7FEFF 		bl	TFT_write
 3888              	.LVL466:
 3889              	.L246:
 453:source\bsw\tft/tft.c ****         TFT_write(*(txt++));
 3890              		.loc 1 453 0
 3891 000c 2078     		ldrb	r0, [r4]	@ zero_extendqisi2
 3892 000e 0028     		cmp	r0, #0
 3893 0010 F9D1     		bne	.L247
 456:source\bsw\tft/tft.c **** 
 3894              		.loc 1 456 0
 3895 0012 10BD     		pop	{r4, pc}
 3896              		.cfi_endproc
 3897              	.LFE21:
 3898              		.size	TFT_print, .-TFT_print
 3899              		.section	.text.TFT_println,"ax",%progbits
 3900              		.align	2
 3901              		.global	TFT_println
 3902              		.thumb
 3903              		.thumb_func
 3904              		.type	TFT_println, %function
 3905              	TFT_println:
 3906              	.LFB22:
 458:source\bsw\tft/tft.c ****     while(*(txt)!=0){
 3907              		.loc 1 458 0
 3908              		.cfi_startproc
 3909              		@ args = 0, pretend = 0, frame = 0
 3910              		@ frame_needed = 0, uses_anonymous_args = 0
 3911              	.LVL467:
 3912 0000 10B5     		push	{r4, lr}
 3913              		.cfi_def_cfa_offset 8
 3914              		.cfi_offset 4, -8
 3915              		.cfi_offset 14, -4
 3916 0002 0446     		mov	r4, r0
 459:source\bsw\tft/tft.c ****         TFT_write(*(txt++));
 3917              		.loc 1 459 0
 3918 0004 02E0     		b	.L250
 3919              	.LVL468:
 3920              	.L251:
 460:source\bsw\tft/tft.c ****     }
 3921              		.loc 1 460 0
 3922 0006 0134     		adds	r4, r4, #1
 3923              	.LVL469:
 3924 0008 FFF7FEFF 		bl	TFT_write
 3925              	.LVL470:
 3926              	.L250:
 459:source\bsw\tft/tft.c ****         TFT_write(*(txt++));
 3927              		.loc 1 459 0
 3928 000c 2078     		ldrb	r0, [r4]	@ zero_extendqisi2
 3929 000e 0028     		cmp	r0, #0
 3930 0010 F9D1     		bne	.L251
 462:source\bsw\tft/tft.c **** }
 3931              		.loc 1 462 0
 3932 0012 0A20     		movs	r0, #10
 3933 0014 FFF7FEFF 		bl	TFT_write
ARM GAS  C:\Users\MATEOC~1.QUE\AppData\Local\Temp\ccxtWYOp.s 			page 92


 3934              	.LVL471:
 3935 0018 10BD     		pop	{r4, pc}
 3936              		.cfi_endproc
 3937              	.LFE22:
 3938              		.size	TFT_println, .-TFT_println
 3939 001a 00BF     		.section	.text.TFT_width,"ax",%progbits
 3940              		.align	2
 3941              		.global	TFT_width
 3942              		.thumb
 3943              		.thumb_func
 3944              		.type	TFT_width, %function
 3945              	TFT_width:
 3946              	.LFB42:
 941:source\bsw\tft/tft.c **** 
 942:source\bsw\tft/tft.c **** int16_t TFT_width(void){
 3947              		.loc 1 942 0
 3948              		.cfi_startproc
 3949              		@ args = 0, pretend = 0, frame = 0
 3950              		@ frame_needed = 0, uses_anonymous_args = 0
 3951              		@ link register save eliminated.
 943:source\bsw\tft/tft.c ****     return _width;
 944:source\bsw\tft/tft.c **** }
 3952              		.loc 1 944 0
 3953 0000 014B     		ldr	r3, .L254
 3954 0002 B3F90600 		ldrsh	r0, [r3, #6]
 3955 0006 7047     		bx	lr
 3956              	.L255:
 3957              		.align	2
 3958              	.L254:
 3959 0008 00000000 		.word	.LANCHOR0
 3960              		.cfi_endproc
 3961              	.LFE42:
 3962              		.size	TFT_width, .-TFT_width
 3963              		.section	.text.TFT_height,"ax",%progbits
 3964              		.align	2
 3965              		.global	TFT_height
 3966              		.thumb
 3967              		.thumb_func
 3968              		.type	TFT_height, %function
 3969              	TFT_height:
 3970              	.LFB43:
 945:source\bsw\tft/tft.c **** 
 946:source\bsw\tft/tft.c **** int16_t TFT_height(void) {
 3971              		.loc 1 946 0
 3972              		.cfi_startproc
 3973              		@ args = 0, pretend = 0, frame = 0
 3974              		@ frame_needed = 0, uses_anonymous_args = 0
 3975              		@ link register save eliminated.
 947:source\bsw\tft/tft.c ****     return _height;
 948:source\bsw\tft/tft.c **** }
 3976              		.loc 1 948 0
 3977 0000 014B     		ldr	r3, .L257
 3978 0002 B3F9DA00 		ldrsh	r0, [r3, #218]
 3979 0006 7047     		bx	lr
 3980              	.L258:
 3981              		.align	2
 3982              	.L257:
ARM GAS  C:\Users\MATEOC~1.QUE\AppData\Local\Temp\ccxtWYOp.s 			page 93


 3983 0008 00000000 		.word	.LANCHOR0
 3984              		.cfi_endproc
 3985              	.LFE43:
 3986              		.size	TFT_height, .-TFT_height
 3987              		.section	.text.TFT_getRotation,"ax",%progbits
 3988              		.align	2
 3989              		.global	TFT_getRotation
 3990              		.thumb
 3991              		.thumb_func
 3992              		.type	TFT_getRotation, %function
 3993              	TFT_getRotation:
 3994              	.LFB44:
 949:source\bsw\tft/tft.c **** 
 950:source\bsw\tft/tft.c **** TFT_rotation_t TFT_getRotation(void){
 3995              		.loc 1 950 0
 3996              		.cfi_startproc
 3997              		@ args = 0, pretend = 0, frame = 0
 3998              		@ frame_needed = 0, uses_anonymous_args = 0
 3999              		@ link register save eliminated.
 951:source\bsw\tft/tft.c ****     return rotation;
 952:source\bsw\tft/tft.c **** }
 4000              		.loc 1 952 0
 4001 0000 014B     		ldr	r3, .L260
 4002 0002 93F8D800 		ldrb	r0, [r3, #216]	@ zero_extendqisi2
 4003 0006 7047     		bx	lr
 4004              	.L261:
 4005              		.align	2
 4006              	.L260:
 4007 0008 00000000 		.word	.LANCHOR0
 4008              		.cfi_endproc
 4009              	.LFE44:
 4010              		.size	TFT_getRotation, .-TFT_getRotation
 4011              		.section	.text.TFT_getCursorX,"ax",%progbits
 4012              		.align	2
 4013              		.global	TFT_getCursorX
 4014              		.thumb
 4015              		.thumb_func
 4016              		.type	TFT_getCursorX, %function
 4017              	TFT_getCursorX:
 4018              	.LFB45:
 953:source\bsw\tft/tft.c **** 
 954:source\bsw\tft/tft.c **** int16_t TFT_getCursorX(void){
 4019              		.loc 1 954 0
 4020              		.cfi_startproc
 4021              		@ args = 0, pretend = 0, frame = 0
 4022              		@ frame_needed = 0, uses_anonymous_args = 0
 4023              		@ link register save eliminated.
 955:source\bsw\tft/tft.c ****     return cursor_x;
 956:source\bsw\tft/tft.c **** }
 4024              		.loc 1 956 0
 4025 0000 014B     		ldr	r3, .L263
 4026 0002 B3F9DE00 		ldrsh	r0, [r3, #222]
 4027 0006 7047     		bx	lr
 4028              	.L264:
 4029              		.align	2
 4030              	.L263:
 4031 0008 00000000 		.word	.LANCHOR0
ARM GAS  C:\Users\MATEOC~1.QUE\AppData\Local\Temp\ccxtWYOp.s 			page 94


 4032              		.cfi_endproc
 4033              	.LFE45:
 4034              		.size	TFT_getCursorX, .-TFT_getCursorX
 4035              		.section	.text.TFT_getCursorY,"ax",%progbits
 4036              		.align	2
 4037              		.global	TFT_getCursorY
 4038              		.thumb
 4039              		.thumb_func
 4040              		.type	TFT_getCursorY, %function
 4041              	TFT_getCursorY:
 4042              	.LFB46:
 957:source\bsw\tft/tft.c **** 
 958:source\bsw\tft/tft.c **** int16_t TFT_getCursorY(void) {
 4043              		.loc 1 958 0
 4044              		.cfi_startproc
 4045              		@ args = 0, pretend = 0, frame = 0
 4046              		@ frame_needed = 0, uses_anonymous_args = 0
 4047              		@ link register save eliminated.
 959:source\bsw\tft/tft.c ****     return cursor_y;
 960:source\bsw\tft/tft.c **** }
 4048              		.loc 1 960 0
 4049 0000 014B     		ldr	r3, .L266
 4050 0002 B3F9E000 		ldrsh	r0, [r3, #224]
 4051 0006 7047     		bx	lr
 4052              	.L267:
 4053              		.align	2
 4054              	.L266:
 4055 0008 00000000 		.word	.LANCHOR0
 4056              		.cfi_endproc
 4057              	.LFE46:
 4058              		.size	TFT_getCursorY, .-TFT_getCursorY
 4059              		.section	.rodata
 4060              		.align	2
 4061              		.set	.LANCHOR1,. + 0
 4062              		.type	SST35S_init_seq, %object
 4063              		.size	SST35S_init_seq, 88
 4064              	SST35S_init_seq:
 4065 0000 0F       		.byte	15
 4066 0001 B1       		.byte	-79
 4067 0002 03       		.byte	3
 4068 0003 05       		.byte	5
 4069 0004 3C       		.byte	60
 4070 0005 3C       		.byte	60
 4071 0006 B2       		.byte	-78
 4072 0007 03       		.byte	3
 4073 0008 05       		.byte	5
 4074 0009 3C       		.byte	60
 4075 000a 3C       		.byte	60
 4076 000b B3       		.byte	-77
 4077 000c 06       		.byte	6
 4078 000d 05       		.byte	5
 4079 000e 3C       		.byte	60
 4080 000f 3C       		.byte	60
 4081 0010 05       		.byte	5
 4082 0011 3C       		.byte	60
 4083 0012 3C       		.byte	60
 4084 0013 B4       		.byte	-76
ARM GAS  C:\Users\MATEOC~1.QUE\AppData\Local\Temp\ccxtWYOp.s 			page 95


 4085 0014 01       		.byte	1
 4086 0015 03       		.byte	3
 4087 0016 C0       		.byte	-64
 4088 0017 03       		.byte	3
 4089 0018 28       		.byte	40
 4090 0019 08       		.byte	8
 4091 001a 04       		.byte	4
 4092 001b C1       		.byte	-63
 4093 001c 01       		.byte	1
 4094 001d C0       		.byte	-64
 4095 001e C2       		.byte	-62
 4096 001f 02       		.byte	2
 4097 0020 0D       		.byte	13
 4098 0021 00       		.byte	0
 4099 0022 C3       		.byte	-61
 4100 0023 02       		.byte	2
 4101 0024 8D       		.byte	-115
 4102 0025 2A       		.byte	42
 4103 0026 C4       		.byte	-60
 4104 0027 02       		.byte	2
 4105 0028 8D       		.byte	-115
 4106 0029 EE       		.byte	-18
 4107 002a C5       		.byte	-59
 4108 002b 01       		.byte	1
 4109 002c 1A       		.byte	26
 4110 002d 36       		.byte	54
 4111 002e 01       		.byte	1
 4112 002f C0       		.byte	-64
 4113 0030 E0       		.byte	-32
 4114 0031 10       		.byte	16
 4115 0032 04       		.byte	4
 4116 0033 22       		.byte	34
 4117 0034 07       		.byte	7
 4118 0035 0A       		.byte	10
 4119 0036 2E       		.byte	46
 4120 0037 30       		.byte	48
 4121 0038 25       		.byte	37
 4122 0039 2A       		.byte	42
 4123 003a 28       		.byte	40
 4124 003b 26       		.byte	38
 4125 003c 2E       		.byte	46
 4126 003d 3A       		.byte	58
 4127 003e 00       		.byte	0
 4128 003f 01       		.byte	1
 4129 0040 03       		.byte	3
 4130 0041 13       		.byte	19
 4131 0042 E1       		.byte	-31
 4132 0043 0F       		.byte	15
 4133 0044 16       		.byte	22
 4134 0045 06       		.byte	6
 4135 0046 0D       		.byte	13
 4136 0047 2D       		.byte	45
 4137 0048 26       		.byte	38
 4138 0049 23       		.byte	35
 4139 004a 27       		.byte	39
 4140 004b 27       		.byte	39
 4141 004c 25       		.byte	37
ARM GAS  C:\Users\MATEOC~1.QUE\AppData\Local\Temp\ccxtWYOp.s 			page 96


 4142 004d 2D       		.byte	45
 4143 004e 3B       		.byte	59
 4144 004f 00       		.byte	0
 4145 0050 01       		.byte	1
 4146 0051 04       		.byte	4
 4147 0052 13       		.byte	19
 4148 0053 3A       		.byte	58
 4149 0054 01       		.byte	1
 4150 0055 05       		.byte	5
 4151 0056 29       		.byte	41
 4152 0057 00       		.byte	0
 4153              		.type	font, %object
 4154              		.size	font, 1280
 4155              	font:
 4156 0058 00       		.byte	0
 4157 0059 00       		.byte	0
 4158 005a 00       		.byte	0
 4159 005b 00       		.byte	0
 4160 005c 00       		.byte	0
 4161 005d 3E       		.byte	62
 4162 005e 5B       		.byte	91
 4163 005f 4F       		.byte	79
 4164 0060 5B       		.byte	91
 4165 0061 3E       		.byte	62
 4166 0062 3E       		.byte	62
 4167 0063 6B       		.byte	107
 4168 0064 4F       		.byte	79
 4169 0065 6B       		.byte	107
 4170 0066 3E       		.byte	62
 4171 0067 1C       		.byte	28
 4172 0068 3E       		.byte	62
 4173 0069 7C       		.byte	124
 4174 006a 3E       		.byte	62
 4175 006b 1C       		.byte	28
 4176 006c 18       		.byte	24
 4177 006d 3C       		.byte	60
 4178 006e 7E       		.byte	126
 4179 006f 3C       		.byte	60
 4180 0070 18       		.byte	24
 4181 0071 1C       		.byte	28
 4182 0072 57       		.byte	87
 4183 0073 7D       		.byte	125
 4184 0074 57       		.byte	87
 4185 0075 1C       		.byte	28
 4186 0076 1C       		.byte	28
 4187 0077 5E       		.byte	94
 4188 0078 7F       		.byte	127
 4189 0079 5E       		.byte	94
 4190 007a 1C       		.byte	28
 4191 007b 00       		.byte	0
 4192 007c 18       		.byte	24
 4193 007d 3C       		.byte	60
 4194 007e 18       		.byte	24
 4195 007f 00       		.byte	0
 4196 0080 FF       		.byte	-1
 4197 0081 E7       		.byte	-25
 4198 0082 C3       		.byte	-61
ARM GAS  C:\Users\MATEOC~1.QUE\AppData\Local\Temp\ccxtWYOp.s 			page 97


 4199 0083 E7       		.byte	-25
 4200 0084 FF       		.byte	-1
 4201 0085 00       		.byte	0
 4202 0086 18       		.byte	24
 4203 0087 24       		.byte	36
 4204 0088 18       		.byte	24
 4205 0089 00       		.byte	0
 4206 008a FF       		.byte	-1
 4207 008b E7       		.byte	-25
 4208 008c DB       		.byte	-37
 4209 008d E7       		.byte	-25
 4210 008e FF       		.byte	-1
 4211 008f 30       		.byte	48
 4212 0090 48       		.byte	72
 4213 0091 3A       		.byte	58
 4214 0092 06       		.byte	6
 4215 0093 0E       		.byte	14
 4216 0094 26       		.byte	38
 4217 0095 29       		.byte	41
 4218 0096 79       		.byte	121
 4219 0097 29       		.byte	41
 4220 0098 26       		.byte	38
 4221 0099 40       		.byte	64
 4222 009a 7F       		.byte	127
 4223 009b 05       		.byte	5
 4224 009c 05       		.byte	5
 4225 009d 07       		.byte	7
 4226 009e 40       		.byte	64
 4227 009f 7F       		.byte	127
 4228 00a0 05       		.byte	5
 4229 00a1 25       		.byte	37
 4230 00a2 3F       		.byte	63
 4231 00a3 5A       		.byte	90
 4232 00a4 3C       		.byte	60
 4233 00a5 E7       		.byte	-25
 4234 00a6 3C       		.byte	60
 4235 00a7 5A       		.byte	90
 4236 00a8 7F       		.byte	127
 4237 00a9 3E       		.byte	62
 4238 00aa 1C       		.byte	28
 4239 00ab 1C       		.byte	28
 4240 00ac 08       		.byte	8
 4241 00ad 08       		.byte	8
 4242 00ae 1C       		.byte	28
 4243 00af 1C       		.byte	28
 4244 00b0 3E       		.byte	62
 4245 00b1 7F       		.byte	127
 4246 00b2 14       		.byte	20
 4247 00b3 22       		.byte	34
 4248 00b4 7F       		.byte	127
 4249 00b5 22       		.byte	34
 4250 00b6 14       		.byte	20
 4251 00b7 5F       		.byte	95
 4252 00b8 5F       		.byte	95
 4253 00b9 00       		.byte	0
 4254 00ba 5F       		.byte	95
 4255 00bb 5F       		.byte	95
ARM GAS  C:\Users\MATEOC~1.QUE\AppData\Local\Temp\ccxtWYOp.s 			page 98


 4256 00bc 06       		.byte	6
 4257 00bd 09       		.byte	9
 4258 00be 7F       		.byte	127
 4259 00bf 01       		.byte	1
 4260 00c0 7F       		.byte	127
 4261 00c1 00       		.byte	0
 4262 00c2 66       		.byte	102
 4263 00c3 89       		.byte	-119
 4264 00c4 95       		.byte	-107
 4265 00c5 6A       		.byte	106
 4266 00c6 60       		.byte	96
 4267 00c7 60       		.byte	96
 4268 00c8 60       		.byte	96
 4269 00c9 60       		.byte	96
 4270 00ca 60       		.byte	96
 4271 00cb 94       		.byte	-108
 4272 00cc A2       		.byte	-94
 4273 00cd FF       		.byte	-1
 4274 00ce A2       		.byte	-94
 4275 00cf 94       		.byte	-108
 4276 00d0 08       		.byte	8
 4277 00d1 04       		.byte	4
 4278 00d2 7E       		.byte	126
 4279 00d3 04       		.byte	4
 4280 00d4 08       		.byte	8
 4281 00d5 10       		.byte	16
 4282 00d6 20       		.byte	32
 4283 00d7 7E       		.byte	126
 4284 00d8 20       		.byte	32
 4285 00d9 10       		.byte	16
 4286 00da 08       		.byte	8
 4287 00db 08       		.byte	8
 4288 00dc 2A       		.byte	42
 4289 00dd 1C       		.byte	28
 4290 00de 08       		.byte	8
 4291 00df 08       		.byte	8
 4292 00e0 1C       		.byte	28
 4293 00e1 2A       		.byte	42
 4294 00e2 08       		.byte	8
 4295 00e3 08       		.byte	8
 4296 00e4 1E       		.byte	30
 4297 00e5 10       		.byte	16
 4298 00e6 10       		.byte	16
 4299 00e7 10       		.byte	16
 4300 00e8 10       		.byte	16
 4301 00e9 0C       		.byte	12
 4302 00ea 1E       		.byte	30
 4303 00eb 0C       		.byte	12
 4304 00ec 1E       		.byte	30
 4305 00ed 0C       		.byte	12
 4306 00ee 30       		.byte	48
 4307 00ef 38       		.byte	56
 4308 00f0 3E       		.byte	62
 4309 00f1 38       		.byte	56
 4310 00f2 30       		.byte	48
 4311 00f3 06       		.byte	6
 4312 00f4 0E       		.byte	14
ARM GAS  C:\Users\MATEOC~1.QUE\AppData\Local\Temp\ccxtWYOp.s 			page 99


 4313 00f5 3E       		.byte	62
 4314 00f6 0E       		.byte	14
 4315 00f7 06       		.byte	6
 4316 00f8 00       		.byte	0
 4317 00f9 00       		.byte	0
 4318 00fa 00       		.byte	0
 4319 00fb 00       		.byte	0
 4320 00fc 00       		.byte	0
 4321 00fd 00       		.byte	0
 4322 00fe 00       		.byte	0
 4323 00ff 5F       		.byte	95
 4324 0100 00       		.byte	0
 4325 0101 00       		.byte	0
 4326 0102 00       		.byte	0
 4327 0103 07       		.byte	7
 4328 0104 00       		.byte	0
 4329 0105 07       		.byte	7
 4330 0106 00       		.byte	0
 4331 0107 14       		.byte	20
 4332 0108 7F       		.byte	127
 4333 0109 14       		.byte	20
 4334 010a 7F       		.byte	127
 4335 010b 14       		.byte	20
 4336 010c 24       		.byte	36
 4337 010d 2A       		.byte	42
 4338 010e 7F       		.byte	127
 4339 010f 2A       		.byte	42
 4340 0110 12       		.byte	18
 4341 0111 23       		.byte	35
 4342 0112 13       		.byte	19
 4343 0113 08       		.byte	8
 4344 0114 64       		.byte	100
 4345 0115 62       		.byte	98
 4346 0116 36       		.byte	54
 4347 0117 49       		.byte	73
 4348 0118 56       		.byte	86
 4349 0119 20       		.byte	32
 4350 011a 50       		.byte	80
 4351 011b 00       		.byte	0
 4352 011c 08       		.byte	8
 4353 011d 07       		.byte	7
 4354 011e 03       		.byte	3
 4355 011f 00       		.byte	0
 4356 0120 00       		.byte	0
 4357 0121 1C       		.byte	28
 4358 0122 22       		.byte	34
 4359 0123 41       		.byte	65
 4360 0124 00       		.byte	0
 4361 0125 00       		.byte	0
 4362 0126 41       		.byte	65
 4363 0127 22       		.byte	34
 4364 0128 1C       		.byte	28
 4365 0129 00       		.byte	0
 4366 012a 2A       		.byte	42
 4367 012b 1C       		.byte	28
 4368 012c 7F       		.byte	127
 4369 012d 1C       		.byte	28
ARM GAS  C:\Users\MATEOC~1.QUE\AppData\Local\Temp\ccxtWYOp.s 			page 100


 4370 012e 2A       		.byte	42
 4371 012f 08       		.byte	8
 4372 0130 08       		.byte	8
 4373 0131 3E       		.byte	62
 4374 0132 08       		.byte	8
 4375 0133 08       		.byte	8
 4376 0134 00       		.byte	0
 4377 0135 80       		.byte	-128
 4378 0136 70       		.byte	112
 4379 0137 30       		.byte	48
 4380 0138 00       		.byte	0
 4381 0139 08       		.byte	8
 4382 013a 08       		.byte	8
 4383 013b 08       		.byte	8
 4384 013c 08       		.byte	8
 4385 013d 08       		.byte	8
 4386 013e 00       		.byte	0
 4387 013f 00       		.byte	0
 4388 0140 60       		.byte	96
 4389 0141 60       		.byte	96
 4390 0142 00       		.byte	0
 4391 0143 20       		.byte	32
 4392 0144 10       		.byte	16
 4393 0145 08       		.byte	8
 4394 0146 04       		.byte	4
 4395 0147 02       		.byte	2
 4396 0148 3E       		.byte	62
 4397 0149 51       		.byte	81
 4398 014a 49       		.byte	73
 4399 014b 45       		.byte	69
 4400 014c 3E       		.byte	62
 4401 014d 00       		.byte	0
 4402 014e 42       		.byte	66
 4403 014f 7F       		.byte	127
 4404 0150 40       		.byte	64
 4405 0151 00       		.byte	0
 4406 0152 72       		.byte	114
 4407 0153 49       		.byte	73
 4408 0154 49       		.byte	73
 4409 0155 49       		.byte	73
 4410 0156 46       		.byte	70
 4411 0157 21       		.byte	33
 4412 0158 41       		.byte	65
 4413 0159 49       		.byte	73
 4414 015a 4D       		.byte	77
 4415 015b 33       		.byte	51
 4416 015c 18       		.byte	24
 4417 015d 14       		.byte	20
 4418 015e 12       		.byte	18
 4419 015f 7F       		.byte	127
 4420 0160 10       		.byte	16
 4421 0161 27       		.byte	39
 4422 0162 45       		.byte	69
 4423 0163 45       		.byte	69
 4424 0164 45       		.byte	69
 4425 0165 39       		.byte	57
 4426 0166 3C       		.byte	60
ARM GAS  C:\Users\MATEOC~1.QUE\AppData\Local\Temp\ccxtWYOp.s 			page 101


 4427 0167 4A       		.byte	74
 4428 0168 49       		.byte	73
 4429 0169 49       		.byte	73
 4430 016a 31       		.byte	49
 4431 016b 41       		.byte	65
 4432 016c 21       		.byte	33
 4433 016d 11       		.byte	17
 4434 016e 09       		.byte	9
 4435 016f 07       		.byte	7
 4436 0170 36       		.byte	54
 4437 0171 49       		.byte	73
 4438 0172 49       		.byte	73
 4439 0173 49       		.byte	73
 4440 0174 36       		.byte	54
 4441 0175 46       		.byte	70
 4442 0176 49       		.byte	73
 4443 0177 49       		.byte	73
 4444 0178 29       		.byte	41
 4445 0179 1E       		.byte	30
 4446 017a 00       		.byte	0
 4447 017b 00       		.byte	0
 4448 017c 14       		.byte	20
 4449 017d 00       		.byte	0
 4450 017e 00       		.byte	0
 4451 017f 00       		.byte	0
 4452 0180 40       		.byte	64
 4453 0181 34       		.byte	52
 4454 0182 00       		.byte	0
 4455 0183 00       		.byte	0
 4456 0184 00       		.byte	0
 4457 0185 08       		.byte	8
 4458 0186 14       		.byte	20
 4459 0187 22       		.byte	34
 4460 0188 41       		.byte	65
 4461 0189 14       		.byte	20
 4462 018a 14       		.byte	20
 4463 018b 14       		.byte	20
 4464 018c 14       		.byte	20
 4465 018d 14       		.byte	20
 4466 018e 00       		.byte	0
 4467 018f 41       		.byte	65
 4468 0190 22       		.byte	34
 4469 0191 14       		.byte	20
 4470 0192 08       		.byte	8
 4471 0193 02       		.byte	2
 4472 0194 01       		.byte	1
 4473 0195 59       		.byte	89
 4474 0196 09       		.byte	9
 4475 0197 06       		.byte	6
 4476 0198 3E       		.byte	62
 4477 0199 41       		.byte	65
 4478 019a 5D       		.byte	93
 4479 019b 59       		.byte	89
 4480 019c 4E       		.byte	78
 4481 019d 7C       		.byte	124
 4482 019e 12       		.byte	18
 4483 019f 11       		.byte	17
ARM GAS  C:\Users\MATEOC~1.QUE\AppData\Local\Temp\ccxtWYOp.s 			page 102


 4484 01a0 12       		.byte	18
 4485 01a1 7C       		.byte	124
 4486 01a2 7F       		.byte	127
 4487 01a3 49       		.byte	73
 4488 01a4 49       		.byte	73
 4489 01a5 49       		.byte	73
 4490 01a6 36       		.byte	54
 4491 01a7 3E       		.byte	62
 4492 01a8 41       		.byte	65
 4493 01a9 41       		.byte	65
 4494 01aa 41       		.byte	65
 4495 01ab 22       		.byte	34
 4496 01ac 7F       		.byte	127
 4497 01ad 41       		.byte	65
 4498 01ae 41       		.byte	65
 4499 01af 41       		.byte	65
 4500 01b0 3E       		.byte	62
 4501 01b1 7F       		.byte	127
 4502 01b2 49       		.byte	73
 4503 01b3 49       		.byte	73
 4504 01b4 49       		.byte	73
 4505 01b5 41       		.byte	65
 4506 01b6 7F       		.byte	127
 4507 01b7 09       		.byte	9
 4508 01b8 09       		.byte	9
 4509 01b9 09       		.byte	9
 4510 01ba 01       		.byte	1
 4511 01bb 3E       		.byte	62
 4512 01bc 41       		.byte	65
 4513 01bd 41       		.byte	65
 4514 01be 51       		.byte	81
 4515 01bf 73       		.byte	115
 4516 01c0 7F       		.byte	127
 4517 01c1 08       		.byte	8
 4518 01c2 08       		.byte	8
 4519 01c3 08       		.byte	8
 4520 01c4 7F       		.byte	127
 4521 01c5 00       		.byte	0
 4522 01c6 41       		.byte	65
 4523 01c7 7F       		.byte	127
 4524 01c8 41       		.byte	65
 4525 01c9 00       		.byte	0
 4526 01ca 20       		.byte	32
 4527 01cb 40       		.byte	64
 4528 01cc 41       		.byte	65
 4529 01cd 3F       		.byte	63
 4530 01ce 01       		.byte	1
 4531 01cf 7F       		.byte	127
 4532 01d0 08       		.byte	8
 4533 01d1 14       		.byte	20
 4534 01d2 22       		.byte	34
 4535 01d3 41       		.byte	65
 4536 01d4 7F       		.byte	127
 4537 01d5 40       		.byte	64
 4538 01d6 40       		.byte	64
 4539 01d7 40       		.byte	64
 4540 01d8 40       		.byte	64
ARM GAS  C:\Users\MATEOC~1.QUE\AppData\Local\Temp\ccxtWYOp.s 			page 103


 4541 01d9 7F       		.byte	127
 4542 01da 02       		.byte	2
 4543 01db 1C       		.byte	28
 4544 01dc 02       		.byte	2
 4545 01dd 7F       		.byte	127
 4546 01de 7F       		.byte	127
 4547 01df 04       		.byte	4
 4548 01e0 08       		.byte	8
 4549 01e1 10       		.byte	16
 4550 01e2 7F       		.byte	127
 4551 01e3 3E       		.byte	62
 4552 01e4 41       		.byte	65
 4553 01e5 41       		.byte	65
 4554 01e6 41       		.byte	65
 4555 01e7 3E       		.byte	62
 4556 01e8 7F       		.byte	127
 4557 01e9 09       		.byte	9
 4558 01ea 09       		.byte	9
 4559 01eb 09       		.byte	9
 4560 01ec 06       		.byte	6
 4561 01ed 3E       		.byte	62
 4562 01ee 41       		.byte	65
 4563 01ef 51       		.byte	81
 4564 01f0 21       		.byte	33
 4565 01f1 5E       		.byte	94
 4566 01f2 7F       		.byte	127
 4567 01f3 09       		.byte	9
 4568 01f4 19       		.byte	25
 4569 01f5 29       		.byte	41
 4570 01f6 46       		.byte	70
 4571 01f7 26       		.byte	38
 4572 01f8 49       		.byte	73
 4573 01f9 49       		.byte	73
 4574 01fa 49       		.byte	73
 4575 01fb 32       		.byte	50
 4576 01fc 03       		.byte	3
 4577 01fd 01       		.byte	1
 4578 01fe 7F       		.byte	127
 4579 01ff 01       		.byte	1
 4580 0200 03       		.byte	3
 4581 0201 3F       		.byte	63
 4582 0202 40       		.byte	64
 4583 0203 40       		.byte	64
 4584 0204 40       		.byte	64
 4585 0205 3F       		.byte	63
 4586 0206 1F       		.byte	31
 4587 0207 20       		.byte	32
 4588 0208 40       		.byte	64
 4589 0209 20       		.byte	32
 4590 020a 1F       		.byte	31
 4591 020b 3F       		.byte	63
 4592 020c 40       		.byte	64
 4593 020d 38       		.byte	56
 4594 020e 40       		.byte	64
 4595 020f 3F       		.byte	63
 4596 0210 63       		.byte	99
 4597 0211 14       		.byte	20
ARM GAS  C:\Users\MATEOC~1.QUE\AppData\Local\Temp\ccxtWYOp.s 			page 104


 4598 0212 08       		.byte	8
 4599 0213 14       		.byte	20
 4600 0214 63       		.byte	99
 4601 0215 03       		.byte	3
 4602 0216 04       		.byte	4
 4603 0217 78       		.byte	120
 4604 0218 04       		.byte	4
 4605 0219 03       		.byte	3
 4606 021a 61       		.byte	97
 4607 021b 59       		.byte	89
 4608 021c 49       		.byte	73
 4609 021d 4D       		.byte	77
 4610 021e 43       		.byte	67
 4611 021f 00       		.byte	0
 4612 0220 7F       		.byte	127
 4613 0221 41       		.byte	65
 4614 0222 41       		.byte	65
 4615 0223 41       		.byte	65
 4616 0224 02       		.byte	2
 4617 0225 04       		.byte	4
 4618 0226 08       		.byte	8
 4619 0227 10       		.byte	16
 4620 0228 20       		.byte	32
 4621 0229 00       		.byte	0
 4622 022a 41       		.byte	65
 4623 022b 41       		.byte	65
 4624 022c 41       		.byte	65
 4625 022d 7F       		.byte	127
 4626 022e 04       		.byte	4
 4627 022f 02       		.byte	2
 4628 0230 01       		.byte	1
 4629 0231 02       		.byte	2
 4630 0232 04       		.byte	4
 4631 0233 40       		.byte	64
 4632 0234 40       		.byte	64
 4633 0235 40       		.byte	64
 4634 0236 40       		.byte	64
 4635 0237 40       		.byte	64
 4636 0238 00       		.byte	0
 4637 0239 03       		.byte	3
 4638 023a 07       		.byte	7
 4639 023b 08       		.byte	8
 4640 023c 00       		.byte	0
 4641 023d 20       		.byte	32
 4642 023e 54       		.byte	84
 4643 023f 54       		.byte	84
 4644 0240 78       		.byte	120
 4645 0241 40       		.byte	64
 4646 0242 7F       		.byte	127
 4647 0243 28       		.byte	40
 4648 0244 44       		.byte	68
 4649 0245 44       		.byte	68
 4650 0246 38       		.byte	56
 4651 0247 38       		.byte	56
 4652 0248 44       		.byte	68
 4653 0249 44       		.byte	68
 4654 024a 44       		.byte	68
ARM GAS  C:\Users\MATEOC~1.QUE\AppData\Local\Temp\ccxtWYOp.s 			page 105


 4655 024b 28       		.byte	40
 4656 024c 38       		.byte	56
 4657 024d 44       		.byte	68
 4658 024e 44       		.byte	68
 4659 024f 28       		.byte	40
 4660 0250 7F       		.byte	127
 4661 0251 38       		.byte	56
 4662 0252 54       		.byte	84
 4663 0253 54       		.byte	84
 4664 0254 54       		.byte	84
 4665 0255 18       		.byte	24
 4666 0256 00       		.byte	0
 4667 0257 08       		.byte	8
 4668 0258 7E       		.byte	126
 4669 0259 09       		.byte	9
 4670 025a 02       		.byte	2
 4671 025b 18       		.byte	24
 4672 025c A4       		.byte	-92
 4673 025d A4       		.byte	-92
 4674 025e 9C       		.byte	-100
 4675 025f 78       		.byte	120
 4676 0260 7F       		.byte	127
 4677 0261 08       		.byte	8
 4678 0262 04       		.byte	4
 4679 0263 04       		.byte	4
 4680 0264 78       		.byte	120
 4681 0265 00       		.byte	0
 4682 0266 44       		.byte	68
 4683 0267 7D       		.byte	125
 4684 0268 40       		.byte	64
 4685 0269 00       		.byte	0
 4686 026a 20       		.byte	32
 4687 026b 40       		.byte	64
 4688 026c 40       		.byte	64
 4689 026d 3D       		.byte	61
 4690 026e 00       		.byte	0
 4691 026f 7F       		.byte	127
 4692 0270 10       		.byte	16
 4693 0271 28       		.byte	40
 4694 0272 44       		.byte	68
 4695 0273 00       		.byte	0
 4696 0274 00       		.byte	0
 4697 0275 41       		.byte	65
 4698 0276 7F       		.byte	127
 4699 0277 40       		.byte	64
 4700 0278 00       		.byte	0
 4701 0279 7C       		.byte	124
 4702 027a 04       		.byte	4
 4703 027b 78       		.byte	120
 4704 027c 04       		.byte	4
 4705 027d 78       		.byte	120
 4706 027e 7C       		.byte	124
 4707 027f 08       		.byte	8
 4708 0280 04       		.byte	4
 4709 0281 04       		.byte	4
 4710 0282 78       		.byte	120
 4711 0283 38       		.byte	56
ARM GAS  C:\Users\MATEOC~1.QUE\AppData\Local\Temp\ccxtWYOp.s 			page 106


 4712 0284 44       		.byte	68
 4713 0285 44       		.byte	68
 4714 0286 44       		.byte	68
 4715 0287 38       		.byte	56
 4716 0288 FC       		.byte	-4
 4717 0289 18       		.byte	24
 4718 028a 24       		.byte	36
 4719 028b 24       		.byte	36
 4720 028c 18       		.byte	24
 4721 028d 18       		.byte	24
 4722 028e 24       		.byte	36
 4723 028f 24       		.byte	36
 4724 0290 18       		.byte	24
 4725 0291 FC       		.byte	-4
 4726 0292 7C       		.byte	124
 4727 0293 08       		.byte	8
 4728 0294 04       		.byte	4
 4729 0295 04       		.byte	4
 4730 0296 08       		.byte	8
 4731 0297 48       		.byte	72
 4732 0298 54       		.byte	84
 4733 0299 54       		.byte	84
 4734 029a 54       		.byte	84
 4735 029b 24       		.byte	36
 4736 029c 04       		.byte	4
 4737 029d 04       		.byte	4
 4738 029e 3F       		.byte	63
 4739 029f 44       		.byte	68
 4740 02a0 24       		.byte	36
 4741 02a1 3C       		.byte	60
 4742 02a2 40       		.byte	64
 4743 02a3 40       		.byte	64
 4744 02a4 20       		.byte	32
 4745 02a5 7C       		.byte	124
 4746 02a6 1C       		.byte	28
 4747 02a7 20       		.byte	32
 4748 02a8 40       		.byte	64
 4749 02a9 20       		.byte	32
 4750 02aa 1C       		.byte	28
 4751 02ab 3C       		.byte	60
 4752 02ac 40       		.byte	64
 4753 02ad 30       		.byte	48
 4754 02ae 40       		.byte	64
 4755 02af 3C       		.byte	60
 4756 02b0 44       		.byte	68
 4757 02b1 28       		.byte	40
 4758 02b2 10       		.byte	16
 4759 02b3 28       		.byte	40
 4760 02b4 44       		.byte	68
 4761 02b5 4C       		.byte	76
 4762 02b6 90       		.byte	-112
 4763 02b7 90       		.byte	-112
 4764 02b8 90       		.byte	-112
 4765 02b9 7C       		.byte	124
 4766 02ba 44       		.byte	68
 4767 02bb 64       		.byte	100
 4768 02bc 54       		.byte	84
ARM GAS  C:\Users\MATEOC~1.QUE\AppData\Local\Temp\ccxtWYOp.s 			page 107


 4769 02bd 4C       		.byte	76
 4770 02be 44       		.byte	68
 4771 02bf 00       		.byte	0
 4772 02c0 08       		.byte	8
 4773 02c1 36       		.byte	54
 4774 02c2 41       		.byte	65
 4775 02c3 00       		.byte	0
 4776 02c4 00       		.byte	0
 4777 02c5 00       		.byte	0
 4778 02c6 77       		.byte	119
 4779 02c7 00       		.byte	0
 4780 02c8 00       		.byte	0
 4781 02c9 00       		.byte	0
 4782 02ca 41       		.byte	65
 4783 02cb 36       		.byte	54
 4784 02cc 08       		.byte	8
 4785 02cd 00       		.byte	0
 4786 02ce 02       		.byte	2
 4787 02cf 01       		.byte	1
 4788 02d0 02       		.byte	2
 4789 02d1 04       		.byte	4
 4790 02d2 02       		.byte	2
 4791 02d3 3C       		.byte	60
 4792 02d4 26       		.byte	38
 4793 02d5 23       		.byte	35
 4794 02d6 26       		.byte	38
 4795 02d7 3C       		.byte	60
 4796 02d8 1E       		.byte	30
 4797 02d9 A1       		.byte	-95
 4798 02da A1       		.byte	-95
 4799 02db 61       		.byte	97
 4800 02dc 12       		.byte	18
 4801 02dd 3A       		.byte	58
 4802 02de 40       		.byte	64
 4803 02df 40       		.byte	64
 4804 02e0 20       		.byte	32
 4805 02e1 7A       		.byte	122
 4806 02e2 38       		.byte	56
 4807 02e3 54       		.byte	84
 4808 02e4 54       		.byte	84
 4809 02e5 55       		.byte	85
 4810 02e6 59       		.byte	89
 4811 02e7 21       		.byte	33
 4812 02e8 55       		.byte	85
 4813 02e9 55       		.byte	85
 4814 02ea 79       		.byte	121
 4815 02eb 41       		.byte	65
 4816 02ec 22       		.byte	34
 4817 02ed 54       		.byte	84
 4818 02ee 54       		.byte	84
 4819 02ef 78       		.byte	120
 4820 02f0 42       		.byte	66
 4821 02f1 21       		.byte	33
 4822 02f2 55       		.byte	85
 4823 02f3 54       		.byte	84
 4824 02f4 78       		.byte	120
 4825 02f5 40       		.byte	64
ARM GAS  C:\Users\MATEOC~1.QUE\AppData\Local\Temp\ccxtWYOp.s 			page 108


 4826 02f6 20       		.byte	32
 4827 02f7 54       		.byte	84
 4828 02f8 55       		.byte	85
 4829 02f9 79       		.byte	121
 4830 02fa 40       		.byte	64
 4831 02fb 0C       		.byte	12
 4832 02fc 1E       		.byte	30
 4833 02fd 52       		.byte	82
 4834 02fe 72       		.byte	114
 4835 02ff 12       		.byte	18
 4836 0300 39       		.byte	57
 4837 0301 55       		.byte	85
 4838 0302 55       		.byte	85
 4839 0303 55       		.byte	85
 4840 0304 59       		.byte	89
 4841 0305 39       		.byte	57
 4842 0306 54       		.byte	84
 4843 0307 54       		.byte	84
 4844 0308 54       		.byte	84
 4845 0309 59       		.byte	89
 4846 030a 39       		.byte	57
 4847 030b 55       		.byte	85
 4848 030c 54       		.byte	84
 4849 030d 54       		.byte	84
 4850 030e 58       		.byte	88
 4851 030f 00       		.byte	0
 4852 0310 00       		.byte	0
 4853 0311 45       		.byte	69
 4854 0312 7C       		.byte	124
 4855 0313 41       		.byte	65
 4856 0314 00       		.byte	0
 4857 0315 02       		.byte	2
 4858 0316 45       		.byte	69
 4859 0317 7D       		.byte	125
 4860 0318 42       		.byte	66
 4861 0319 00       		.byte	0
 4862 031a 01       		.byte	1
 4863 031b 45       		.byte	69
 4864 031c 7C       		.byte	124
 4865 031d 40       		.byte	64
 4866 031e 7D       		.byte	125
 4867 031f 12       		.byte	18
 4868 0320 11       		.byte	17
 4869 0321 12       		.byte	18
 4870 0322 7D       		.byte	125
 4871 0323 F0       		.byte	-16
 4872 0324 28       		.byte	40
 4873 0325 25       		.byte	37
 4874 0326 28       		.byte	40
 4875 0327 F0       		.byte	-16
 4876 0328 7C       		.byte	124
 4877 0329 54       		.byte	84
 4878 032a 55       		.byte	85
 4879 032b 45       		.byte	69
 4880 032c 00       		.byte	0
 4881 032d 20       		.byte	32
 4882 032e 54       		.byte	84
ARM GAS  C:\Users\MATEOC~1.QUE\AppData\Local\Temp\ccxtWYOp.s 			page 109


 4883 032f 54       		.byte	84
 4884 0330 7C       		.byte	124
 4885 0331 54       		.byte	84
 4886 0332 7C       		.byte	124
 4887 0333 0A       		.byte	10
 4888 0334 09       		.byte	9
 4889 0335 7F       		.byte	127
 4890 0336 49       		.byte	73
 4891 0337 32       		.byte	50
 4892 0338 49       		.byte	73
 4893 0339 49       		.byte	73
 4894 033a 49       		.byte	73
 4895 033b 32       		.byte	50
 4896 033c 3A       		.byte	58
 4897 033d 44       		.byte	68
 4898 033e 44       		.byte	68
 4899 033f 44       		.byte	68
 4900 0340 3A       		.byte	58
 4901 0341 32       		.byte	50
 4902 0342 4A       		.byte	74
 4903 0343 48       		.byte	72
 4904 0344 48       		.byte	72
 4905 0345 30       		.byte	48
 4906 0346 3A       		.byte	58
 4907 0347 41       		.byte	65
 4908 0348 41       		.byte	65
 4909 0349 21       		.byte	33
 4910 034a 7A       		.byte	122
 4911 034b 3A       		.byte	58
 4912 034c 42       		.byte	66
 4913 034d 40       		.byte	64
 4914 034e 20       		.byte	32
 4915 034f 78       		.byte	120
 4916 0350 00       		.byte	0
 4917 0351 9D       		.byte	-99
 4918 0352 A0       		.byte	-96
 4919 0353 A0       		.byte	-96
 4920 0354 7D       		.byte	125
 4921 0355 3D       		.byte	61
 4922 0356 42       		.byte	66
 4923 0357 42       		.byte	66
 4924 0358 42       		.byte	66
 4925 0359 3D       		.byte	61
 4926 035a 3D       		.byte	61
 4927 035b 40       		.byte	64
 4928 035c 40       		.byte	64
 4929 035d 40       		.byte	64
 4930 035e 3D       		.byte	61
 4931 035f 3C       		.byte	60
 4932 0360 24       		.byte	36
 4933 0361 FF       		.byte	-1
 4934 0362 24       		.byte	36
 4935 0363 24       		.byte	36
 4936 0364 48       		.byte	72
 4937 0365 7E       		.byte	126
 4938 0366 49       		.byte	73
 4939 0367 43       		.byte	67
ARM GAS  C:\Users\MATEOC~1.QUE\AppData\Local\Temp\ccxtWYOp.s 			page 110


 4940 0368 66       		.byte	102
 4941 0369 2B       		.byte	43
 4942 036a 2F       		.byte	47
 4943 036b FC       		.byte	-4
 4944 036c 2F       		.byte	47
 4945 036d 2B       		.byte	43
 4946 036e FF       		.byte	-1
 4947 036f 09       		.byte	9
 4948 0370 29       		.byte	41
 4949 0371 F6       		.byte	-10
 4950 0372 20       		.byte	32
 4951 0373 C0       		.byte	-64
 4952 0374 88       		.byte	-120
 4953 0375 7E       		.byte	126
 4954 0376 09       		.byte	9
 4955 0377 03       		.byte	3
 4956 0378 20       		.byte	32
 4957 0379 54       		.byte	84
 4958 037a 54       		.byte	84
 4959 037b 79       		.byte	121
 4960 037c 41       		.byte	65
 4961 037d 00       		.byte	0
 4962 037e 00       		.byte	0
 4963 037f 44       		.byte	68
 4964 0380 7D       		.byte	125
 4965 0381 41       		.byte	65
 4966 0382 30       		.byte	48
 4967 0383 48       		.byte	72
 4968 0384 48       		.byte	72
 4969 0385 4A       		.byte	74
 4970 0386 32       		.byte	50
 4971 0387 38       		.byte	56
 4972 0388 40       		.byte	64
 4973 0389 40       		.byte	64
 4974 038a 22       		.byte	34
 4975 038b 7A       		.byte	122
 4976 038c 00       		.byte	0
 4977 038d 7A       		.byte	122
 4978 038e 0A       		.byte	10
 4979 038f 0A       		.byte	10
 4980 0390 72       		.byte	114
 4981 0391 7D       		.byte	125
 4982 0392 0D       		.byte	13
 4983 0393 19       		.byte	25
 4984 0394 31       		.byte	49
 4985 0395 7D       		.byte	125
 4986 0396 26       		.byte	38
 4987 0397 29       		.byte	41
 4988 0398 29       		.byte	41
 4989 0399 2F       		.byte	47
 4990 039a 28       		.byte	40
 4991 039b 26       		.byte	38
 4992 039c 29       		.byte	41
 4993 039d 29       		.byte	41
 4994 039e 29       		.byte	41
 4995 039f 26       		.byte	38
 4996 03a0 30       		.byte	48
ARM GAS  C:\Users\MATEOC~1.QUE\AppData\Local\Temp\ccxtWYOp.s 			page 111


 4997 03a1 48       		.byte	72
 4998 03a2 4D       		.byte	77
 4999 03a3 40       		.byte	64
 5000 03a4 20       		.byte	32
 5001 03a5 38       		.byte	56
 5002 03a6 08       		.byte	8
 5003 03a7 08       		.byte	8
 5004 03a8 08       		.byte	8
 5005 03a9 08       		.byte	8
 5006 03aa 08       		.byte	8
 5007 03ab 08       		.byte	8
 5008 03ac 08       		.byte	8
 5009 03ad 08       		.byte	8
 5010 03ae 38       		.byte	56
 5011 03af 2F       		.byte	47
 5012 03b0 10       		.byte	16
 5013 03b1 C8       		.byte	-56
 5014 03b2 AC       		.byte	-84
 5015 03b3 BA       		.byte	-70
 5016 03b4 2F       		.byte	47
 5017 03b5 10       		.byte	16
 5018 03b6 28       		.byte	40
 5019 03b7 34       		.byte	52
 5020 03b8 FA       		.byte	-6
 5021 03b9 00       		.byte	0
 5022 03ba 00       		.byte	0
 5023 03bb 7B       		.byte	123
 5024 03bc 00       		.byte	0
 5025 03bd 00       		.byte	0
 5026 03be 08       		.byte	8
 5027 03bf 14       		.byte	20
 5028 03c0 2A       		.byte	42
 5029 03c1 14       		.byte	20
 5030 03c2 22       		.byte	34
 5031 03c3 22       		.byte	34
 5032 03c4 14       		.byte	20
 5033 03c5 2A       		.byte	42
 5034 03c6 14       		.byte	20
 5035 03c7 08       		.byte	8
 5036 03c8 55       		.byte	85
 5037 03c9 00       		.byte	0
 5038 03ca 55       		.byte	85
 5039 03cb 00       		.byte	0
 5040 03cc 55       		.byte	85
 5041 03cd AA       		.byte	-86
 5042 03ce 55       		.byte	85
 5043 03cf AA       		.byte	-86
 5044 03d0 55       		.byte	85
 5045 03d1 AA       		.byte	-86
 5046 03d2 FF       		.byte	-1
 5047 03d3 55       		.byte	85
 5048 03d4 FF       		.byte	-1
 5049 03d5 55       		.byte	85
 5050 03d6 FF       		.byte	-1
 5051 03d7 00       		.byte	0
 5052 03d8 00       		.byte	0
 5053 03d9 00       		.byte	0
ARM GAS  C:\Users\MATEOC~1.QUE\AppData\Local\Temp\ccxtWYOp.s 			page 112


 5054 03da FF       		.byte	-1
 5055 03db 00       		.byte	0
 5056 03dc 10       		.byte	16
 5057 03dd 10       		.byte	16
 5058 03de 10       		.byte	16
 5059 03df FF       		.byte	-1
 5060 03e0 00       		.byte	0
 5061 03e1 14       		.byte	20
 5062 03e2 14       		.byte	20
 5063 03e3 14       		.byte	20
 5064 03e4 FF       		.byte	-1
 5065 03e5 00       		.byte	0
 5066 03e6 10       		.byte	16
 5067 03e7 10       		.byte	16
 5068 03e8 FF       		.byte	-1
 5069 03e9 00       		.byte	0
 5070 03ea FF       		.byte	-1
 5071 03eb 10       		.byte	16
 5072 03ec 10       		.byte	16
 5073 03ed F0       		.byte	-16
 5074 03ee 10       		.byte	16
 5075 03ef F0       		.byte	-16
 5076 03f0 14       		.byte	20
 5077 03f1 14       		.byte	20
 5078 03f2 14       		.byte	20
 5079 03f3 FC       		.byte	-4
 5080 03f4 00       		.byte	0
 5081 03f5 14       		.byte	20
 5082 03f6 14       		.byte	20
 5083 03f7 F7       		.byte	-9
 5084 03f8 00       		.byte	0
 5085 03f9 FF       		.byte	-1
 5086 03fa 00       		.byte	0
 5087 03fb 00       		.byte	0
 5088 03fc FF       		.byte	-1
 5089 03fd 00       		.byte	0
 5090 03fe FF       		.byte	-1
 5091 03ff 14       		.byte	20
 5092 0400 14       		.byte	20
 5093 0401 F4       		.byte	-12
 5094 0402 04       		.byte	4
 5095 0403 FC       		.byte	-4
 5096 0404 14       		.byte	20
 5097 0405 14       		.byte	20
 5098 0406 17       		.byte	23
 5099 0407 10       		.byte	16
 5100 0408 1F       		.byte	31
 5101 0409 10       		.byte	16
 5102 040a 10       		.byte	16
 5103 040b 1F       		.byte	31
 5104 040c 10       		.byte	16
 5105 040d 1F       		.byte	31
 5106 040e 14       		.byte	20
 5107 040f 14       		.byte	20
 5108 0410 14       		.byte	20
 5109 0411 1F       		.byte	31
 5110 0412 00       		.byte	0
ARM GAS  C:\Users\MATEOC~1.QUE\AppData\Local\Temp\ccxtWYOp.s 			page 113


 5111 0413 10       		.byte	16
 5112 0414 10       		.byte	16
 5113 0415 10       		.byte	16
 5114 0416 F0       		.byte	-16
 5115 0417 00       		.byte	0
 5116 0418 00       		.byte	0
 5117 0419 00       		.byte	0
 5118 041a 00       		.byte	0
 5119 041b 1F       		.byte	31
 5120 041c 10       		.byte	16
 5121 041d 10       		.byte	16
 5122 041e 10       		.byte	16
 5123 041f 10       		.byte	16
 5124 0420 1F       		.byte	31
 5125 0421 10       		.byte	16
 5126 0422 10       		.byte	16
 5127 0423 10       		.byte	16
 5128 0424 10       		.byte	16
 5129 0425 F0       		.byte	-16
 5130 0426 10       		.byte	16
 5131 0427 00       		.byte	0
 5132 0428 00       		.byte	0
 5133 0429 00       		.byte	0
 5134 042a FF       		.byte	-1
 5135 042b 10       		.byte	16
 5136 042c 10       		.byte	16
 5137 042d 10       		.byte	16
 5138 042e 10       		.byte	16
 5139 042f 10       		.byte	16
 5140 0430 10       		.byte	16
 5141 0431 10       		.byte	16
 5142 0432 10       		.byte	16
 5143 0433 10       		.byte	16
 5144 0434 FF       		.byte	-1
 5145 0435 10       		.byte	16
 5146 0436 00       		.byte	0
 5147 0437 00       		.byte	0
 5148 0438 00       		.byte	0
 5149 0439 FF       		.byte	-1
 5150 043a 14       		.byte	20
 5151 043b 00       		.byte	0
 5152 043c 00       		.byte	0
 5153 043d FF       		.byte	-1
 5154 043e 00       		.byte	0
 5155 043f FF       		.byte	-1
 5156 0440 00       		.byte	0
 5157 0441 00       		.byte	0
 5158 0442 1F       		.byte	31
 5159 0443 10       		.byte	16
 5160 0444 17       		.byte	23
 5161 0445 00       		.byte	0
 5162 0446 00       		.byte	0
 5163 0447 FC       		.byte	-4
 5164 0448 04       		.byte	4
 5165 0449 F4       		.byte	-12
 5166 044a 14       		.byte	20
 5167 044b 14       		.byte	20
ARM GAS  C:\Users\MATEOC~1.QUE\AppData\Local\Temp\ccxtWYOp.s 			page 114


 5168 044c 17       		.byte	23
 5169 044d 10       		.byte	16
 5170 044e 17       		.byte	23
 5171 044f 14       		.byte	20
 5172 0450 14       		.byte	20
 5173 0451 F4       		.byte	-12
 5174 0452 04       		.byte	4
 5175 0453 F4       		.byte	-12
 5176 0454 00       		.byte	0
 5177 0455 00       		.byte	0
 5178 0456 FF       		.byte	-1
 5179 0457 00       		.byte	0
 5180 0458 F7       		.byte	-9
 5181 0459 14       		.byte	20
 5182 045a 14       		.byte	20
 5183 045b 14       		.byte	20
 5184 045c 14       		.byte	20
 5185 045d 14       		.byte	20
 5186 045e 14       		.byte	20
 5187 045f 14       		.byte	20
 5188 0460 F7       		.byte	-9
 5189 0461 00       		.byte	0
 5190 0462 F7       		.byte	-9
 5191 0463 14       		.byte	20
 5192 0464 14       		.byte	20
 5193 0465 14       		.byte	20
 5194 0466 17       		.byte	23
 5195 0467 14       		.byte	20
 5196 0468 10       		.byte	16
 5197 0469 10       		.byte	16
 5198 046a 1F       		.byte	31
 5199 046b 10       		.byte	16
 5200 046c 1F       		.byte	31
 5201 046d 14       		.byte	20
 5202 046e 14       		.byte	20
 5203 046f 14       		.byte	20
 5204 0470 F4       		.byte	-12
 5205 0471 14       		.byte	20
 5206 0472 10       		.byte	16
 5207 0473 10       		.byte	16
 5208 0474 F0       		.byte	-16
 5209 0475 10       		.byte	16
 5210 0476 F0       		.byte	-16
 5211 0477 00       		.byte	0
 5212 0478 00       		.byte	0
 5213 0479 1F       		.byte	31
 5214 047a 10       		.byte	16
 5215 047b 1F       		.byte	31
 5216 047c 00       		.byte	0
 5217 047d 00       		.byte	0
 5218 047e 00       		.byte	0
 5219 047f 1F       		.byte	31
 5220 0480 14       		.byte	20
 5221 0481 00       		.byte	0
 5222 0482 00       		.byte	0
 5223 0483 00       		.byte	0
 5224 0484 FC       		.byte	-4
ARM GAS  C:\Users\MATEOC~1.QUE\AppData\Local\Temp\ccxtWYOp.s 			page 115


 5225 0485 14       		.byte	20
 5226 0486 00       		.byte	0
 5227 0487 00       		.byte	0
 5228 0488 F0       		.byte	-16
 5229 0489 10       		.byte	16
 5230 048a F0       		.byte	-16
 5231 048b 10       		.byte	16
 5232 048c 10       		.byte	16
 5233 048d FF       		.byte	-1
 5234 048e 10       		.byte	16
 5235 048f FF       		.byte	-1
 5236 0490 14       		.byte	20
 5237 0491 14       		.byte	20
 5238 0492 14       		.byte	20
 5239 0493 FF       		.byte	-1
 5240 0494 14       		.byte	20
 5241 0495 10       		.byte	16
 5242 0496 10       		.byte	16
 5243 0497 10       		.byte	16
 5244 0498 1F       		.byte	31
 5245 0499 00       		.byte	0
 5246 049a 00       		.byte	0
 5247 049b 00       		.byte	0
 5248 049c 00       		.byte	0
 5249 049d F0       		.byte	-16
 5250 049e 10       		.byte	16
 5251 049f FF       		.byte	-1
 5252 04a0 FF       		.byte	-1
 5253 04a1 FF       		.byte	-1
 5254 04a2 FF       		.byte	-1
 5255 04a3 FF       		.byte	-1
 5256 04a4 F0       		.byte	-16
 5257 04a5 F0       		.byte	-16
 5258 04a6 F0       		.byte	-16
 5259 04a7 F0       		.byte	-16
 5260 04a8 F0       		.byte	-16
 5261 04a9 FF       		.byte	-1
 5262 04aa FF       		.byte	-1
 5263 04ab FF       		.byte	-1
 5264 04ac 00       		.byte	0
 5265 04ad 00       		.byte	0
 5266 04ae 00       		.byte	0
 5267 04af 00       		.byte	0
 5268 04b0 00       		.byte	0
 5269 04b1 FF       		.byte	-1
 5270 04b2 FF       		.byte	-1
 5271 04b3 0F       		.byte	15
 5272 04b4 0F       		.byte	15
 5273 04b5 0F       		.byte	15
 5274 04b6 0F       		.byte	15
 5275 04b7 0F       		.byte	15
 5276 04b8 38       		.byte	56
 5277 04b9 44       		.byte	68
 5278 04ba 44       		.byte	68
 5279 04bb 38       		.byte	56
 5280 04bc 44       		.byte	68
 5281 04bd FC       		.byte	-4
ARM GAS  C:\Users\MATEOC~1.QUE\AppData\Local\Temp\ccxtWYOp.s 			page 116


 5282 04be 4A       		.byte	74
 5283 04bf 4A       		.byte	74
 5284 04c0 4A       		.byte	74
 5285 04c1 34       		.byte	52
 5286 04c2 7E       		.byte	126
 5287 04c3 02       		.byte	2
 5288 04c4 02       		.byte	2
 5289 04c5 06       		.byte	6
 5290 04c6 06       		.byte	6
 5291 04c7 02       		.byte	2
 5292 04c8 7E       		.byte	126
 5293 04c9 02       		.byte	2
 5294 04ca 7E       		.byte	126
 5295 04cb 02       		.byte	2
 5296 04cc 63       		.byte	99
 5297 04cd 55       		.byte	85
 5298 04ce 49       		.byte	73
 5299 04cf 41       		.byte	65
 5300 04d0 63       		.byte	99
 5301 04d1 38       		.byte	56
 5302 04d2 44       		.byte	68
 5303 04d3 44       		.byte	68
 5304 04d4 3C       		.byte	60
 5305 04d5 04       		.byte	4
 5306 04d6 40       		.byte	64
 5307 04d7 7E       		.byte	126
 5308 04d8 20       		.byte	32
 5309 04d9 1E       		.byte	30
 5310 04da 20       		.byte	32
 5311 04db 06       		.byte	6
 5312 04dc 02       		.byte	2
 5313 04dd 7E       		.byte	126
 5314 04de 02       		.byte	2
 5315 04df 02       		.byte	2
 5316 04e0 99       		.byte	-103
 5317 04e1 A5       		.byte	-91
 5318 04e2 E7       		.byte	-25
 5319 04e3 A5       		.byte	-91
 5320 04e4 99       		.byte	-103
 5321 04e5 1C       		.byte	28
 5322 04e6 2A       		.byte	42
 5323 04e7 49       		.byte	73
 5324 04e8 2A       		.byte	42
 5325 04e9 1C       		.byte	28
 5326 04ea 4C       		.byte	76
 5327 04eb 72       		.byte	114
 5328 04ec 01       		.byte	1
 5329 04ed 72       		.byte	114
 5330 04ee 4C       		.byte	76
 5331 04ef 30       		.byte	48
 5332 04f0 4A       		.byte	74
 5333 04f1 4D       		.byte	77
 5334 04f2 4D       		.byte	77
 5335 04f3 30       		.byte	48
 5336 04f4 30       		.byte	48
 5337 04f5 48       		.byte	72
 5338 04f6 78       		.byte	120
ARM GAS  C:\Users\MATEOC~1.QUE\AppData\Local\Temp\ccxtWYOp.s 			page 117


 5339 04f7 48       		.byte	72
 5340 04f8 30       		.byte	48
 5341 04f9 BC       		.byte	-68
 5342 04fa 62       		.byte	98
 5343 04fb 5A       		.byte	90
 5344 04fc 46       		.byte	70
 5345 04fd 3D       		.byte	61
 5346 04fe 3E       		.byte	62
 5347 04ff 49       		.byte	73
 5348 0500 49       		.byte	73
 5349 0501 49       		.byte	73
 5350 0502 00       		.byte	0
 5351 0503 7E       		.byte	126
 5352 0504 01       		.byte	1
 5353 0505 01       		.byte	1
 5354 0506 01       		.byte	1
 5355 0507 7E       		.byte	126
 5356 0508 2A       		.byte	42
 5357 0509 2A       		.byte	42
 5358 050a 2A       		.byte	42
 5359 050b 2A       		.byte	42
 5360 050c 2A       		.byte	42
 5361 050d 44       		.byte	68
 5362 050e 44       		.byte	68
 5363 050f 5F       		.byte	95
 5364 0510 44       		.byte	68
 5365 0511 44       		.byte	68
 5366 0512 40       		.byte	64
 5367 0513 51       		.byte	81
 5368 0514 4A       		.byte	74
 5369 0515 44       		.byte	68
 5370 0516 40       		.byte	64
 5371 0517 40       		.byte	64
 5372 0518 44       		.byte	68
 5373 0519 4A       		.byte	74
 5374 051a 51       		.byte	81
 5375 051b 40       		.byte	64
 5376 051c 00       		.byte	0
 5377 051d 00       		.byte	0
 5378 051e FF       		.byte	-1
 5379 051f 01       		.byte	1
 5380 0520 03       		.byte	3
 5381 0521 E0       		.byte	-32
 5382 0522 80       		.byte	-128
 5383 0523 FF       		.byte	-1
 5384 0524 00       		.byte	0
 5385 0525 00       		.byte	0
 5386 0526 08       		.byte	8
 5387 0527 08       		.byte	8
 5388 0528 6B       		.byte	107
 5389 0529 6B       		.byte	107
 5390 052a 08       		.byte	8
 5391 052b 36       		.byte	54
 5392 052c 12       		.byte	18
 5393 052d 36       		.byte	54
 5394 052e 24       		.byte	36
 5395 052f 36       		.byte	54
ARM GAS  C:\Users\MATEOC~1.QUE\AppData\Local\Temp\ccxtWYOp.s 			page 118


 5396 0530 06       		.byte	6
 5397 0531 0F       		.byte	15
 5398 0532 09       		.byte	9
 5399 0533 0F       		.byte	15
 5400 0534 06       		.byte	6
 5401 0535 00       		.byte	0
 5402 0536 00       		.byte	0
 5403 0537 18       		.byte	24
 5404 0538 18       		.byte	24
 5405 0539 00       		.byte	0
 5406 053a 00       		.byte	0
 5407 053b 00       		.byte	0
 5408 053c 10       		.byte	16
 5409 053d 10       		.byte	16
 5410 053e 00       		.byte	0
 5411 053f 30       		.byte	48
 5412 0540 40       		.byte	64
 5413 0541 FF       		.byte	-1
 5414 0542 01       		.byte	1
 5415 0543 01       		.byte	1
 5416 0544 00       		.byte	0
 5417 0545 1F       		.byte	31
 5418 0546 01       		.byte	1
 5419 0547 01       		.byte	1
 5420 0548 1E       		.byte	30
 5421 0549 00       		.byte	0
 5422 054a 19       		.byte	25
 5423 054b 1D       		.byte	29
 5424 054c 17       		.byte	23
 5425 054d 12       		.byte	18
 5426 054e 00       		.byte	0
 5427 054f 3C       		.byte	60
 5428 0550 3C       		.byte	60
 5429 0551 3C       		.byte	60
 5430 0552 3C       		.byte	60
 5431 0553 00       		.byte	0
 5432 0554 00       		.byte	0
 5433 0555 00       		.byte	0
 5434 0556 00       		.byte	0
 5435 0557 00       		.byte	0
 5436              		.section	.rodata.str1.4,"aMS",%progbits,1
 5437              		.align	2
 5438              	.LC0:
 5439 0000 54465400 		.ascii	"TFT\000"
 5440              	.LC1:
 5441 0004 42756666 		.ascii	"Buffer overflow\000"
 5441      6572206F 
 5441      76657266 
 5441      6C6F7700 
 5442              		.bss
 5443              		.align	2
 5444              		.set	.LANCHOR0,. + 0
 5445              		.type	gfxFont, %object
 5446              		.size	gfxFont, 4
 5447              	gfxFont:
 5448 0000 00000000 		.space	4
 5449              		.type	textsize, %object
ARM GAS  C:\Users\MATEOC~1.QUE\AppData\Local\Temp\ccxtWYOp.s 			page 119


 5450              		.size	textsize, 1
 5451              	textsize:
 5452 0004 00       		.space	1
 5453              		.type	wrap, %object
 5454              		.size	wrap, 1
 5455              	wrap:
 5456 0005 00       		.space	1
 5457              		.type	_width, %object
 5458              		.size	_width, 2
 5459              	_width:
 5460 0006 0000     		.space	2
 5461              		.type	TFT_RB_out, %object
 5462              		.size	TFT_RB_out, 206
 5463              	TFT_RB_out:
 5464 0008 00000000 		.space	206
 5464      00000000 
 5464      00000000 
 5464      00000000 
 5464      00000000 
 5465              		.type	xstart, %object
 5466              		.size	xstart, 1
 5467              	xstart:
 5468 00d6 00       		.space	1
 5469              		.type	ystart, %object
 5470              		.size	ystart, 1
 5471              	ystart:
 5472 00d7 00       		.space	1
 5473              		.type	rotation, %object
 5474              		.size	rotation, 1
 5475              	rotation:
 5476 00d8 00       		.space	1
 5477 00d9 00       		.space	1
 5478              		.type	_height, %object
 5479              		.size	_height, 2
 5480              	_height:
 5481 00da 0000     		.space	2
 5482              		.type	colstart, %object
 5483              		.size	colstart, 1
 5484              	colstart:
 5485 00dc 00       		.space	1
 5486              		.type	rowstart, %object
 5487              		.size	rowstart, 1
 5488              	rowstart:
 5489 00dd 00       		.space	1
 5490              		.type	cursor_x, %object
 5491              		.size	cursor_x, 2
 5492              	cursor_x:
 5493 00de 0000     		.space	2
 5494              		.type	cursor_y, %object
 5495              		.size	cursor_y, 2
 5496              	cursor_y:
 5497 00e0 0000     		.space	2
 5498              		.type	color, %object
 5499              		.size	color, 2
 5500              	color:
 5501 00e2 0000     		.space	2
 5502              		.type	bgcolor, %object
ARM GAS  C:\Users\MATEOC~1.QUE\AppData\Local\Temp\ccxtWYOp.s 			page 120


 5503              		.size	bgcolor, 2
 5504              	bgcolor:
 5505 00e4 0000     		.space	2
 5506              		.text
 5507              	.Letext0:
 5508              		.file 2 ".\\source\\bsw/global.h"
 5509              		.file 3 "c:\\program files (x86)\\cypress\\psoc creator\\4.4\\psoc creator\\import\\gnu\\arm\\5.4.
 5510              		.file 4 "c:\\program files (x86)\\cypress\\psoc creator\\4.4\\psoc creator\\import\\gnu\\arm\\5.4.
 5511              		.file 5 "source\\bsw\\tft\\TFT.h"
 5512              		.file 6 "source\\bsw\\tft\\ST7735.h"
 5513              		.file 7 ".\\source\\bsw\\Services/logging.h"
 5514              		.file 8 ".\\source\\bsw\\tft\\fonts/glcdfont.h"
 5515              		.section	.debug_info,"",%progbits
 5516              	.Ldebug_info0:
 5517 0000 99270000 		.4byte	0x2799
 5518 0004 0400     		.2byte	0x4
 5519 0006 00000000 		.4byte	.Ldebug_abbrev0
 5520 000a 04       		.byte	0x4
 5521 000b 01       		.uleb128 0x1
 5522 000c 7F030000 		.4byte	.LASF249
 5523 0010 0C       		.byte	0xc
 5524 0011 2B070000 		.4byte	.LASF250
 5525 0015 52090000 		.4byte	.LASF251
 5526 0019 00000000 		.4byte	.Ldebug_ranges0+0
 5527 001d 00000000 		.4byte	0
 5528 0021 00000000 		.4byte	.Ldebug_line0
 5529 0025 02       		.uleb128 0x2
 5530 0026 04       		.byte	0x4
 5531 0027 07       		.byte	0x7
 5532 0028 BD000000 		.4byte	.LASF0
 5533 002c 02       		.uleb128 0x2
 5534 002d 01       		.byte	0x1
 5535 002e 06       		.byte	0x6
 5536 002f 130C0000 		.4byte	.LASF1
 5537 0033 03       		.uleb128 0x3
 5538 0034 B9050000 		.4byte	.LASF4
 5539 0038 02       		.byte	0x2
 5540 0039 91       		.byte	0x91
 5541 003a 3E000000 		.4byte	0x3e
 5542 003e 02       		.uleb128 0x2
 5543 003f 01       		.byte	0x1
 5544 0040 08       		.byte	0x8
 5545 0041 F80A0000 		.4byte	.LASF2
 5546 0045 02       		.uleb128 0x2
 5547 0046 02       		.byte	0x2
 5548 0047 05       		.byte	0x5
 5549 0048 F0070000 		.4byte	.LASF3
 5550 004c 03       		.uleb128 0x3
 5551 004d 8F070000 		.4byte	.LASF5
 5552 0051 02       		.byte	0x2
 5553 0052 93       		.byte	0x93
 5554 0053 57000000 		.4byte	0x57
 5555 0057 02       		.uleb128 0x2
 5556 0058 02       		.byte	0x2
 5557 0059 07       		.byte	0x7
 5558 005a 320C0000 		.4byte	.LASF6
 5559 005e 02       		.uleb128 0x2
ARM GAS  C:\Users\MATEOC~1.QUE\AppData\Local\Temp\ccxtWYOp.s 			page 121


 5560 005f 04       		.byte	0x4
 5561 0060 05       		.byte	0x5
 5562 0061 1C080000 		.4byte	.LASF7
 5563 0065 02       		.uleb128 0x2
 5564 0066 04       		.byte	0x4
 5565 0067 07       		.byte	0x7
 5566 0068 4C0A0000 		.4byte	.LASF8
 5567 006c 02       		.uleb128 0x2
 5568 006d 04       		.byte	0x4
 5569 006e 04       		.byte	0x4
 5570 006f 7C020000 		.4byte	.LASF9
 5571 0073 02       		.uleb128 0x2
 5572 0074 08       		.byte	0x8
 5573 0075 04       		.byte	0x4
 5574 0076 4F0C0000 		.4byte	.LASF10
 5575 007a 02       		.uleb128 0x2
 5576 007b 08       		.byte	0x8
 5577 007c 05       		.byte	0x5
 5578 007d 08060000 		.4byte	.LASF11
 5579 0081 02       		.uleb128 0x2
 5580 0082 08       		.byte	0x8
 5581 0083 07       		.byte	0x7
 5582 0084 D4020000 		.4byte	.LASF12
 5583 0088 03       		.uleb128 0x3
 5584 0089 6B050000 		.4byte	.LASF13
 5585 008d 02       		.byte	0x2
 5586 008e 9C       		.byte	0x9c
 5587 008f 3E000000 		.4byte	0x3e
 5588 0093 02       		.uleb128 0x2
 5589 0094 01       		.byte	0x1
 5590 0095 08       		.byte	0x8
 5591 0096 1F050000 		.4byte	.LASF14
 5592 009a 04       		.uleb128 0x4
 5593 009b 04       		.byte	0x4
 5594 009c A0000000 		.4byte	0xa0
 5595 00a0 05       		.uleb128 0x5
 5596 00a1 93000000 		.4byte	0x93
 5597 00a5 06       		.uleb128 0x6
 5598 00a6 01       		.byte	0x1
 5599 00a7 2C000000 		.4byte	0x2c
 5600 00ab 02       		.byte	0x2
 5601 00ac CF       		.byte	0xcf
 5602 00ad 4E010000 		.4byte	0x14e
 5603 00b1 07       		.uleb128 0x7
 5604 00b2 24050000 		.4byte	.LASF15
 5605 00b6 00       		.byte	0
 5606 00b7 08       		.uleb128 0x8
 5607 00b8 2B020000 		.4byte	.LASF16
 5608 00bc 7F       		.sleb128 -1
 5609 00bd 08       		.uleb128 0x8
 5610 00be 1D010000 		.4byte	.LASF17
 5611 00c2 7E       		.sleb128 -2
 5612 00c3 08       		.uleb128 0x8
 5613 00c4 CA000000 		.4byte	.LASF18
 5614 00c8 7D       		.sleb128 -3
 5615 00c9 08       		.uleb128 0x8
 5616 00ca A7060000 		.4byte	.LASF19
ARM GAS  C:\Users\MATEOC~1.QUE\AppData\Local\Temp\ccxtWYOp.s 			page 122


 5617 00ce 7C       		.sleb128 -4
 5618 00cf 08       		.uleb128 0x8
 5619 00d0 CA0C0000 		.4byte	.LASF20
 5620 00d4 7B       		.sleb128 -5
 5621 00d5 08       		.uleb128 0x8
 5622 00d6 DB0A0000 		.4byte	.LASF21
 5623 00da 7A       		.sleb128 -6
 5624 00db 08       		.uleb128 0x8
 5625 00dc 81060000 		.4byte	.LASF22
 5626 00e0 79       		.sleb128 -7
 5627 00e1 08       		.uleb128 0x8
 5628 00e2 55070000 		.4byte	.LASF23
 5629 00e6 78       		.sleb128 -8
 5630 00e7 08       		.uleb128 0x8
 5631 00e8 1D0B0000 		.4byte	.LASF24
 5632 00ec 77       		.sleb128 -9
 5633 00ed 08       		.uleb128 0x8
 5634 00ee CF070000 		.4byte	.LASF25
 5635 00f2 76       		.sleb128 -10
 5636 00f3 08       		.uleb128 0x8
 5637 00f4 2B010000 		.4byte	.LASF26
 5638 00f8 75       		.sleb128 -11
 5639 00f9 08       		.uleb128 0x8
 5640 00fa C6020000 		.4byte	.LASF27
 5641 00fe 74       		.sleb128 -12
 5642 00ff 08       		.uleb128 0x8
 5643 0100 42040000 		.4byte	.LASF28
 5644 0104 73       		.sleb128 -13
 5645 0105 08       		.uleb128 0x8
 5646 0106 BC070000 		.4byte	.LASF29
 5647 010a 72       		.sleb128 -14
 5648 010b 08       		.uleb128 0x8
 5649 010c 59000000 		.4byte	.LASF30
 5650 0110 71       		.sleb128 -15
 5651 0111 08       		.uleb128 0x8
 5652 0112 F9080000 		.4byte	.LASF31
 5653 0116 70       		.sleb128 -16
 5654 0117 08       		.uleb128 0x8
 5655 0118 090A0000 		.4byte	.LASF32
 5656 011c 6F       		.sleb128 -17
 5657 011d 08       		.uleb128 0x8
 5658 011e 34020000 		.4byte	.LASF33
 5659 0122 6E       		.sleb128 -18
 5660 0123 08       		.uleb128 0x8
 5661 0124 28000000 		.4byte	.LASF34
 5662 0128 6D       		.sleb128 -19
 5663 0129 08       		.uleb128 0x8
 5664 012a DD070000 		.4byte	.LASF35
 5665 012e 6C       		.sleb128 -20
 5666 012f 08       		.uleb128 0x8
 5667 0130 9D050000 		.4byte	.LASF36
 5668 0134 6B       		.sleb128 -21
 5669 0135 08       		.uleb128 0x8
 5670 0136 1C060000 		.4byte	.LASF37
 5671 013a 6A       		.sleb128 -22
 5672 013b 08       		.uleb128 0x8
 5673 013c 3D010000 		.4byte	.LASF38
ARM GAS  C:\Users\MATEOC~1.QUE\AppData\Local\Temp\ccxtWYOp.s 			page 123


 5674 0140 69       		.sleb128 -23
 5675 0141 08       		.uleb128 0x8
 5676 0142 5F0B0000 		.4byte	.LASF39
 5677 0146 68       		.sleb128 -24
 5678 0147 08       		.uleb128 0x8
 5679 0148 3D080000 		.4byte	.LASF40
 5680 014c 67       		.sleb128 -25
 5681 014d 00       		.byte	0
 5682 014e 03       		.uleb128 0x3
 5683 014f 720A0000 		.4byte	.LASF41
 5684 0153 02       		.byte	0x2
 5685 0154 EA       		.byte	0xea
 5686 0155 A5000000 		.4byte	0xa5
 5687 0159 03       		.uleb128 0x3
 5688 015a 22070000 		.4byte	.LASF42
 5689 015e 03       		.byte	0x3
 5690 015f 1B       		.byte	0x1b
 5691 0160 2C000000 		.4byte	0x2c
 5692 0164 03       		.uleb128 0x3
 5693 0165 61060000 		.4byte	.LASF43
 5694 0169 03       		.byte	0x3
 5695 016a 29       		.byte	0x29
 5696 016b 45000000 		.4byte	0x45
 5697 016f 03       		.uleb128 0x3
 5698 0170 05010000 		.4byte	.LASF44
 5699 0174 03       		.byte	0x3
 5700 0175 3F       		.byte	0x3f
 5701 0176 5E000000 		.4byte	0x5e
 5702 017a 09       		.uleb128 0x9
 5703 017b 04       		.byte	0x4
 5704 017c 05       		.byte	0x5
 5705 017d 696E7400 		.ascii	"int\000"
 5706 0181 02       		.uleb128 0x2
 5707 0182 08       		.byte	0x8
 5708 0183 04       		.byte	0x4
 5709 0184 79070000 		.4byte	.LASF45
 5710 0188 02       		.uleb128 0x2
 5711 0189 04       		.byte	0x4
 5712 018a 07       		.byte	0x7
 5713 018b 430A0000 		.4byte	.LASF46
 5714 018f 04       		.uleb128 0x4
 5715 0190 04       		.byte	0x4
 5716 0191 93000000 		.4byte	0x93
 5717 0195 03       		.uleb128 0x3
 5718 0196 24020000 		.4byte	.LASF47
 5719 019a 04       		.byte	0x4
 5720 019b 14       		.byte	0x14
 5721 019c 59010000 		.4byte	0x159
 5722 01a0 03       		.uleb128 0x3
 5723 01a1 BE020000 		.4byte	.LASF48
 5724 01a5 04       		.byte	0x4
 5725 01a6 20       		.byte	0x20
 5726 01a7 64010000 		.4byte	0x164
 5727 01ab 03       		.uleb128 0x3
 5728 01ac 770A0000 		.4byte	.LASF49
 5729 01b0 04       		.byte	0x4
 5730 01b1 2C       		.byte	0x2c
ARM GAS  C:\Users\MATEOC~1.QUE\AppData\Local\Temp\ccxtWYOp.s 			page 124


 5731 01b2 6F010000 		.4byte	0x16f
 5732 01b6 03       		.uleb128 0x3
 5733 01b7 EC0A0000 		.4byte	.LASF50
 5734 01bb 05       		.byte	0x5
 5735 01bc 38       		.byte	0x38
 5736 01bd 4C000000 		.4byte	0x4c
 5737 01c1 0A       		.uleb128 0xa
 5738 01c2 08       		.byte	0x8
 5739 01c3 05       		.byte	0x5
 5740 01c4 3D       		.byte	0x3d
 5741 01c5 12020000 		.4byte	0x212
 5742 01c9 0B       		.uleb128 0xb
 5743 01ca 27040000 		.4byte	.LASF51
 5744 01ce 05       		.byte	0x5
 5745 01cf 3E       		.byte	0x3e
 5746 01d0 4C000000 		.4byte	0x4c
 5747 01d4 00       		.byte	0
 5748 01d5 0B       		.uleb128 0xb
 5749 01d6 3C040000 		.4byte	.LASF52
 5750 01da 05       		.byte	0x5
 5751 01db 3F       		.byte	0x3f
 5752 01dc 33000000 		.4byte	0x33
 5753 01e0 02       		.byte	0x2
 5754 01e1 0B       		.uleb128 0xb
 5755 01e2 FA060000 		.4byte	.LASF53
 5756 01e6 05       		.byte	0x5
 5757 01e7 3F       		.byte	0x3f
 5758 01e8 33000000 		.4byte	0x33
 5759 01ec 03       		.byte	0x3
 5760 01ed 0B       		.uleb128 0xb
 5761 01ee F10B0000 		.4byte	.LASF54
 5762 01f2 05       		.byte	0x5
 5763 01f3 40       		.byte	0x40
 5764 01f4 33000000 		.4byte	0x33
 5765 01f8 04       		.byte	0x4
 5766 01f9 0B       		.uleb128 0xb
 5767 01fa FF0B0000 		.4byte	.LASF55
 5768 01fe 05       		.byte	0x5
 5769 01ff 41       		.byte	0x41
 5770 0200 95010000 		.4byte	0x195
 5771 0204 05       		.byte	0x5
 5772 0205 0B       		.uleb128 0xb
 5773 0206 C1050000 		.4byte	.LASF56
 5774 020a 05       		.byte	0x5
 5775 020b 41       		.byte	0x41
 5776 020c 95010000 		.4byte	0x195
 5777 0210 06       		.byte	0x6
 5778 0211 00       		.byte	0
 5779 0212 03       		.uleb128 0x3
 5780 0213 4D050000 		.4byte	.LASF57
 5781 0217 05       		.byte	0x5
 5782 0218 42       		.byte	0x42
 5783 0219 C1010000 		.4byte	0x1c1
 5784 021d 0A       		.uleb128 0xa
 5785 021e 0C       		.byte	0xc
 5786 021f 05       		.byte	0x5
 5787 0220 47       		.byte	0x47
ARM GAS  C:\Users\MATEOC~1.QUE\AppData\Local\Temp\ccxtWYOp.s 			page 125


 5788 0221 62020000 		.4byte	0x262
 5789 0225 0B       		.uleb128 0xb
 5790 0226 060B0000 		.4byte	.LASF58
 5791 022a 05       		.byte	0x5
 5792 022b 48       		.byte	0x48
 5793 022c 62020000 		.4byte	0x262
 5794 0230 00       		.byte	0
 5795 0231 0B       		.uleb128 0xb
 5796 0232 A10A0000 		.4byte	.LASF59
 5797 0236 05       		.byte	0x5
 5798 0237 49       		.byte	0x49
 5799 0238 68020000 		.4byte	0x268
 5800 023c 04       		.byte	0x4
 5801 023d 0B       		.uleb128 0xb
 5802 023e D7040000 		.4byte	.LASF60
 5803 0242 05       		.byte	0x5
 5804 0243 4A       		.byte	0x4a
 5805 0244 33000000 		.4byte	0x33
 5806 0248 08       		.byte	0x8
 5807 0249 0B       		.uleb128 0xb
 5808 024a 00000000 		.4byte	.LASF61
 5809 024e 05       		.byte	0x5
 5810 024f 4A       		.byte	0x4a
 5811 0250 33000000 		.4byte	0x33
 5812 0254 09       		.byte	0x9
 5813 0255 0B       		.uleb128 0xb
 5814 0256 45030000 		.4byte	.LASF62
 5815 025a 05       		.byte	0x5
 5816 025b 4B       		.byte	0x4b
 5817 025c 33000000 		.4byte	0x33
 5818 0260 0A       		.byte	0xa
 5819 0261 00       		.byte	0
 5820 0262 04       		.uleb128 0x4
 5821 0263 04       		.byte	0x4
 5822 0264 33000000 		.4byte	0x33
 5823 0268 04       		.uleb128 0x4
 5824 0269 04       		.byte	0x4
 5825 026a 12020000 		.4byte	0x212
 5826 026e 03       		.uleb128 0x3
 5827 026f 3B000000 		.4byte	.LASF63
 5828 0273 05       		.byte	0x5
 5829 0274 4C       		.byte	0x4c
 5830 0275 1D020000 		.4byte	0x21d
 5831 0279 06       		.uleb128 0x6
 5832 027a 01       		.byte	0x1
 5833 027b 3E000000 		.4byte	0x3e
 5834 027f 05       		.byte	0x5
 5835 0280 51       		.byte	0x51
 5836 0281 9E020000 		.4byte	0x29e
 5837 0285 07       		.uleb128 0x7
 5838 0286 2E060000 		.4byte	.LASF64
 5839 028a 00       		.byte	0
 5840 028b 07       		.uleb128 0x7
 5841 028c 7F050000 		.4byte	.LASF65
 5842 0290 01       		.byte	0x1
 5843 0291 07       		.uleb128 0x7
 5844 0292 790B0000 		.4byte	.LASF66
ARM GAS  C:\Users\MATEOC~1.QUE\AppData\Local\Temp\ccxtWYOp.s 			page 126


 5845 0296 02       		.byte	0x2
 5846 0297 07       		.uleb128 0x7
 5847 0298 18020000 		.4byte	.LASF67
 5848 029c 03       		.byte	0x3
 5849 029d 00       		.byte	0
 5850 029e 03       		.uleb128 0x3
 5851 029f 09020000 		.4byte	.LASF68
 5852 02a3 05       		.byte	0x5
 5853 02a4 56       		.byte	0x56
 5854 02a5 79020000 		.4byte	0x279
 5855 02a9 06       		.uleb128 0x6
 5856 02aa 02       		.byte	0x2
 5857 02ab 57000000 		.4byte	0x57
 5858 02af 05       		.byte	0x5
 5859 02b0 5C       		.byte	0x5c
 5860 02b1 47030000 		.4byte	0x347
 5861 02b5 0C       		.uleb128 0xc
 5862 02b6 37080000 		.4byte	.LASF69
 5863 02ba FFFF     		.2byte	0xffff
 5864 02bc 07       		.uleb128 0x7
 5865 02bd 8C000000 		.4byte	.LASF70
 5866 02c1 00       		.byte	0
 5867 02c2 0C       		.uleb128 0xc
 5868 02c3 75050000 		.4byte	.LASF71
 5869 02c7 00F8     		.2byte	0xf800
 5870 02c9 0C       		.uleb128 0xc
 5871 02ca FE090000 		.4byte	.LASF72
 5872 02ce 1FF8     		.2byte	0xf81f
 5873 02d0 0C       		.uleb128 0xc
 5874 02d1 B7070000 		.4byte	.LASF73
 5875 02d5 FF07     		.2byte	0x7ff
 5876 02d7 0C       		.uleb128 0xc
 5877 02d8 E4000000 		.4byte	.LASF74
 5878 02dc E0FF     		.2byte	0xffe0
 5879 02de 0D       		.uleb128 0xd
 5880 02df 52454400 		.ascii	"RED\000"
 5881 02e3 1F       		.byte	0x1f
 5882 02e4 0C       		.uleb128 0xc
 5883 02e5 CF040000 		.4byte	.LASF75
 5884 02e9 1FF8     		.2byte	0xf81f
 5885 02eb 0C       		.uleb128 0xc
 5886 02ec 02060000 		.4byte	.LASF76
 5887 02f0 E007     		.2byte	0x7e0
 5888 02f2 0C       		.uleb128 0xc
 5889 02f3 850B0000 		.4byte	.LASF77
 5890 02f7 E0FF     		.2byte	0xffe0
 5891 02f9 0C       		.uleb128 0xc
 5892 02fa F3060000 		.4byte	.LASF78
 5893 02fe FF07     		.2byte	0x7ff
 5894 0300 0C       		.uleb128 0xc
 5895 0301 06050000 		.4byte	.LASF79
 5896 0305 3D02     		.2byte	0x23d
 5897 0307 0C       		.uleb128 0xc
 5898 0308 00050000 		.4byte	.LASF80
 5899 030c 3FE0     		.2byte	0xe03f
 5900 030e 0C       		.uleb128 0xc
 5901 030f 1A050000 		.4byte	.LASF81
ARM GAS  C:\Users\MATEOC~1.QUE\AppData\Local\Temp\ccxtWYOp.s 			page 127


 5902 0313 210C     		.2byte	0xc21
 5903 0315 0C       		.uleb128 0xc
 5904 0316 82020000 		.4byte	.LASF82
 5905 031a 89F3     		.2byte	0xf389
 5906 031c 0C       		.uleb128 0xc
 5907 031d E6010000 		.4byte	.LASF83
 5908 0321 BE3E     		.2byte	0x3ebe
 5909 0323 0C       		.uleb128 0xc
 5910 0324 700B0000 		.4byte	.LASF84
 5911 0328 2A1A     		.2byte	0x1a2a
 5912 032a 0C       		.uleb128 0xc
 5913 032b D6060000 		.4byte	.LASF85
 5914 032f 21F8     		.2byte	0xf821
 5915 0331 0C       		.uleb128 0xc
 5916 0332 0D040000 		.4byte	.LASF86
 5917 0336 6318     		.2byte	0x1863
 5918 0338 0C       		.uleb128 0xc
 5919 0339 4B070000 		.4byte	.LASF87
 5920 033d 658A     		.2byte	0x8a65
 5921 033f 0C       		.uleb128 0xc
 5922 0340 A5040000 		.4byte	.LASF88
 5923 0344 D448     		.2byte	0x48d4
 5924 0346 00       		.byte	0
 5925 0347 06       		.uleb128 0x6
 5926 0348 01       		.byte	0x1
 5927 0349 3E000000 		.4byte	0x3e
 5928 034d 06       		.byte	0x6
 5929 034e 1D       		.byte	0x1d
 5930 034f 32040000 		.4byte	0x432
 5931 0353 07       		.uleb128 0x7
 5932 0354 C3010000 		.4byte	.LASF89
 5933 0358 00       		.byte	0
 5934 0359 07       		.uleb128 0x7
 5935 035a 1D0A0000 		.4byte	.LASF90
 5936 035e 01       		.byte	0x1
 5937 035f 07       		.uleb128 0x7
 5938 0360 56080000 		.4byte	.LASF91
 5939 0364 04       		.byte	0x4
 5940 0365 07       		.uleb128 0x7
 5941 0366 F3040000 		.4byte	.LASF92
 5942 036a 09       		.byte	0x9
 5943 036b 07       		.uleb128 0x7
 5944 036c 16090000 		.4byte	.LASF93
 5945 0370 10       		.byte	0x10
 5946 0371 07       		.uleb128 0x7
 5947 0372 4E030000 		.4byte	.LASF94
 5948 0376 11       		.byte	0x11
 5949 0377 07       		.uleb128 0x7
 5950 0378 6F020000 		.4byte	.LASF95
 5951 037c 12       		.byte	0x12
 5952 037d 07       		.uleb128 0x7
 5953 037e 98040000 		.4byte	.LASF96
 5954 0382 13       		.byte	0x13
 5955 0383 07       		.uleb128 0x7
 5956 0384 770C0000 		.4byte	.LASF97
 5957 0388 20       		.byte	0x20
 5958 0389 07       		.uleb128 0x7
ARM GAS  C:\Users\MATEOC~1.QUE\AppData\Local\Temp\ccxtWYOp.s 			page 128


 5959 038a D9010000 		.4byte	.LASF98
 5960 038e 21       		.byte	0x21
 5961 038f 07       		.uleb128 0x7
 5962 0390 AC040000 		.4byte	.LASF99
 5963 0394 28       		.byte	0x28
 5964 0395 07       		.uleb128 0x7
 5965 0396 BC0C0000 		.4byte	.LASF100
 5966 039a 29       		.byte	0x29
 5967 039b 07       		.uleb128 0x7
 5968 039c 1F0C0000 		.4byte	.LASF101
 5969 03a0 2A       		.byte	0x2a
 5970 03a1 07       		.uleb128 0x7
 5971 03a2 0F080000 		.4byte	.LASF102
 5972 03a6 2B       		.byte	0x2b
 5973 03a7 07       		.uleb128 0x7
 5974 03a8 EF050000 		.4byte	.LASF103
 5975 03ac 2C       		.byte	0x2c
 5976 03ad 07       		.uleb128 0x7
 5977 03ae AA010000 		.4byte	.LASF104
 5978 03b2 2E       		.byte	0x2e
 5979 03b3 07       		.uleb128 0x7
 5980 03b4 72030000 		.4byte	.LASF105
 5981 03b8 30       		.byte	0x30
 5982 03b9 07       		.uleb128 0x7
 5983 03ba 1A000000 		.4byte	.LASF106
 5984 03be 3A       		.byte	0x3a
 5985 03bf 07       		.uleb128 0x7
 5986 03c0 A7080000 		.4byte	.LASF107
 5987 03c4 36       		.byte	0x36
 5988 03c5 07       		.uleb128 0x7
 5989 03c6 18030000 		.4byte	.LASF108
 5990 03ca B1       		.byte	0xb1
 5991 03cb 07       		.uleb128 0x7
 5992 03cc 27030000 		.4byte	.LASF109
 5993 03d0 B2       		.byte	0xb2
 5994 03d1 07       		.uleb128 0x7
 5995 03d2 36030000 		.4byte	.LASF110
 5996 03d6 B3       		.byte	0xb3
 5997 03d7 07       		.uleb128 0x7
 5998 03d8 8C010000 		.4byte	.LASF111
 5999 03dc B4       		.byte	0xb4
 6000 03dd 07       		.uleb128 0x7
 6001 03de B7060000 		.4byte	.LASF112
 6002 03e2 B6       		.byte	0xb6
 6003 03e3 07       		.uleb128 0x7
 6004 03e4 A00B0000 		.4byte	.LASF113
 6005 03e8 C0       		.byte	0xc0
 6006 03e9 07       		.uleb128 0x7
 6007 03ea AE0B0000 		.4byte	.LASF114
 6008 03ee C1       		.byte	0xc1
 6009 03ef 07       		.uleb128 0x7
 6010 03f0 A7020000 		.4byte	.LASF115
 6011 03f4 C2       		.byte	0xc2
 6012 03f5 07       		.uleb128 0x7
 6013 03f6 BC0B0000 		.4byte	.LASF116
 6014 03fa C3       		.byte	0xc3
 6015 03fb 07       		.uleb128 0x7
ARM GAS  C:\Users\MATEOC~1.QUE\AppData\Local\Temp\ccxtWYOp.s 			page 129


 6016 03fc CA0B0000 		.4byte	.LASF117
 6017 0400 C4       		.byte	0xc4
 6018 0401 07       		.uleb128 0x7
 6019 0402 950C0000 		.4byte	.LASF118
 6020 0406 C5       		.byte	0xc5
 6021 0407 07       		.uleb128 0x7
 6022 0408 64040000 		.4byte	.LASF119
 6023 040c DA       		.byte	0xda
 6024 040d 07       		.uleb128 0x7
 6025 040e 71040000 		.4byte	.LASF120
 6026 0412 DB       		.byte	0xdb
 6027 0413 07       		.uleb128 0x7
 6028 0414 7E040000 		.4byte	.LASF121
 6029 0418 DC       		.byte	0xdc
 6030 0419 07       		.uleb128 0x7
 6031 041a 8B040000 		.4byte	.LASF122
 6032 041e DD       		.byte	0xdd
 6033 041f 07       		.uleb128 0x7
 6034 0420 D80B0000 		.4byte	.LASF123
 6035 0424 FC       		.byte	0xfc
 6036 0425 07       		.uleb128 0x7
 6037 0426 60020000 		.4byte	.LASF124
 6038 042a E0       		.byte	0xe0
 6039 042b 07       		.uleb128 0x7
 6040 042c EA000000 		.4byte	.LASF125
 6041 0430 E1       		.byte	0xe1
 6042 0431 00       		.byte	0
 6043 0432 06       		.uleb128 0x6
 6044 0433 01       		.byte	0x1
 6045 0434 3E000000 		.4byte	0x3e
 6046 0438 06       		.byte	0x6
 6047 0439 48       		.byte	0x48
 6048 043a 69040000 		.4byte	0x469
 6049 043e 07       		.uleb128 0x7
 6050 043f E8080000 		.4byte	.LASF126
 6051 0443 80       		.byte	0x80
 6052 0444 07       		.uleb128 0x7
 6053 0445 D7080000 		.4byte	.LASF127
 6054 0449 40       		.byte	0x40
 6055 044a 07       		.uleb128 0x7
 6056 044b C6080000 		.4byte	.LASF128
 6057 044f 20       		.byte	0x20
 6058 0450 07       		.uleb128 0x7
 6059 0451 96080000 		.4byte	.LASF129
 6060 0455 10       		.byte	0x10
 6061 0456 07       		.uleb128 0x7
 6062 0457 3D060000 		.4byte	.LASF130
 6063 045b 08       		.byte	0x8
 6064 045c 07       		.uleb128 0x7
 6065 045d 85080000 		.4byte	.LASF131
 6066 0461 04       		.byte	0x4
 6067 0462 07       		.uleb128 0x7
 6068 0463 330B0000 		.4byte	.LASF132
 6069 0467 02       		.byte	0x2
 6070 0468 00       		.byte	0
 6071 0469 06       		.uleb128 0x6
 6072 046a 01       		.byte	0x1
ARM GAS  C:\Users\MATEOC~1.QUE\AppData\Local\Temp\ccxtWYOp.s 			page 130


 6073 046b 3E000000 		.4byte	0x3e
 6074 046f 07       		.byte	0x7
 6075 0470 3D       		.byte	0x3d
 6076 0471 9A040000 		.4byte	0x49a
 6077 0475 07       		.uleb128 0x7
 6078 0476 F9000000 		.4byte	.LASF133
 6079 047a 00       		.byte	0
 6080 047b 07       		.uleb128 0x7
 6081 047c 2E080000 		.4byte	.LASF134
 6082 0480 01       		.byte	0x1
 6083 0481 07       		.uleb128 0x7
 6084 0482 0A090000 		.4byte	.LASF135
 6085 0486 02       		.byte	0x2
 6086 0487 07       		.uleb128 0x7
 6087 0488 75080000 		.4byte	.LASF136
 6088 048c 03       		.byte	0x3
 6089 048d 07       		.uleb128 0x7
 6090 048e 01070000 		.4byte	.LASF137
 6091 0492 04       		.byte	0x4
 6092 0493 07       		.uleb128 0x7
 6093 0494 990A0000 		.4byte	.LASF138
 6094 0498 05       		.byte	0x5
 6095 0499 00       		.byte	0
 6096 049a 03       		.uleb128 0x3
 6097 049b 54040000 		.4byte	.LASF139
 6098 049f 07       		.byte	0x7
 6099 04a0 44       		.byte	0x44
 6100 04a1 69040000 		.4byte	0x469
 6101 04a5 0A       		.uleb128 0xa
 6102 04a6 A8       		.byte	0xa8
 6103 04a7 07       		.byte	0x7
 6104 04a8 4B       		.byte	0x4b
 6105 04a9 D2040000 		.4byte	0x4d2
 6106 04ad 0B       		.uleb128 0xb
 6107 04ae 73010000 		.4byte	.LASF140
 6108 04b2 07       		.byte	0x7
 6109 04b3 4C       		.byte	0x4c
 6110 04b4 9A040000 		.4byte	0x49a
 6111 04b8 00       		.byte	0
 6112 04b9 0B       		.uleb128 0xb
 6113 04ba 08080000 		.4byte	.LASF141
 6114 04be 07       		.byte	0x7
 6115 04bf 4D       		.byte	0x4d
 6116 04c0 D2040000 		.4byte	0x4d2
 6117 04c4 01       		.byte	0x1
 6118 04c5 0B       		.uleb128 0xb
 6119 04c6 84000000 		.4byte	.LASF142
 6120 04ca 07       		.byte	0x7
 6121 04cb 4E       		.byte	0x4e
 6122 04cc E2040000 		.4byte	0x4e2
 6123 04d0 11       		.byte	0x11
 6124 04d1 00       		.byte	0
 6125 04d2 0E       		.uleb128 0xe
 6126 04d3 93000000 		.4byte	0x93
 6127 04d7 E2040000 		.4byte	0x4e2
 6128 04db 0F       		.uleb128 0xf
 6129 04dc 88010000 		.4byte	0x188
ARM GAS  C:\Users\MATEOC~1.QUE\AppData\Local\Temp\ccxtWYOp.s 			page 131


 6130 04e0 0F       		.byte	0xf
 6131 04e1 00       		.byte	0
 6132 04e2 0E       		.uleb128 0xe
 6133 04e3 93000000 		.4byte	0x93
 6134 04e7 F2040000 		.4byte	0x4f2
 6135 04eb 0F       		.uleb128 0xf
 6136 04ec 88010000 		.4byte	0x188
 6137 04f0 96       		.byte	0x96
 6138 04f1 00       		.byte	0
 6139 04f2 03       		.uleb128 0x3
 6140 04f3 9D020000 		.4byte	.LASF143
 6141 04f7 07       		.byte	0x7
 6142 04f8 4F       		.byte	0x4f
 6143 04f9 A5040000 		.4byte	0x4a5
 6144 04fd 06       		.uleb128 0x6
 6145 04fe 01       		.byte	0x1
 6146 04ff 3E000000 		.4byte	0x3e
 6147 0503 01       		.byte	0x1
 6148 0504 50       		.byte	0x50
 6149 0505 1C050000 		.4byte	0x51c
 6150 0509 07       		.uleb128 0x7
 6151 050a 560C0000 		.4byte	.LASF144
 6152 050e 00       		.byte	0
 6153 050f 07       		.uleb128 0x7
 6154 0510 BB040000 		.4byte	.LASF145
 6155 0514 01       		.byte	0x1
 6156 0515 07       		.uleb128 0x7
 6157 0516 C4040000 		.4byte	.LASF146
 6158 051a 02       		.byte	0x2
 6159 051b 00       		.byte	0
 6160 051c 03       		.uleb128 0x3
 6161 051d 0C000000 		.4byte	.LASF147
 6162 0521 01       		.byte	0x1
 6163 0522 54       		.byte	0x54
 6164 0523 FD040000 		.4byte	0x4fd
 6165 0527 0A       		.uleb128 0xa
 6166 0528 02       		.byte	0x2
 6167 0529 01       		.byte	0x1
 6168 052a 59       		.byte	0x59
 6169 052b 47050000 		.4byte	0x547
 6170 052f 10       		.uleb128 0x10
 6171 0530 444300   		.ascii	"DC\000"
 6172 0533 01       		.byte	0x1
 6173 0534 5A       		.byte	0x5a
 6174 0535 1C050000 		.4byte	0x51c
 6175 0539 00       		.byte	0
 6176 053a 0B       		.uleb128 0xb
 6177 053b 34040000 		.4byte	.LASF148
 6178 053f 01       		.byte	0x1
 6179 0540 5B       		.byte	0x5b
 6180 0541 33000000 		.4byte	0x33
 6181 0545 01       		.byte	0x1
 6182 0546 00       		.byte	0
 6183 0547 03       		.uleb128 0x3
 6184 0548 40070000 		.4byte	.LASF149
 6185 054c 01       		.byte	0x1
 6186 054d 5C       		.byte	0x5c
ARM GAS  C:\Users\MATEOC~1.QUE\AppData\Local\Temp\ccxtWYOp.s 			page 132


 6187 054e 27050000 		.4byte	0x527
 6188 0552 0A       		.uleb128 0xa
 6189 0553 CE       		.byte	0xce
 6190 0554 01       		.byte	0x1
 6191 0555 5E       		.byte	0x5e
 6192 0556 8B050000 		.4byte	0x58b
 6193 055a 0B       		.uleb128 0xb
 6194 055b 32090000 		.4byte	.LASF150
 6195 055f 01       		.byte	0x1
 6196 0560 5F       		.byte	0x5f
 6197 0561 4C000000 		.4byte	0x4c
 6198 0565 00       		.byte	0
 6199 0566 0B       		.uleb128 0xb
 6200 0567 16060000 		.4byte	.LASF151
 6201 056b 01       		.byte	0x1
 6202 056c 60       		.byte	0x60
 6203 056d 4C000000 		.4byte	0x4c
 6204 0571 02       		.byte	0x2
 6205 0572 0B       		.uleb128 0xb
 6206 0573 06030000 		.4byte	.LASF152
 6207 0577 01       		.byte	0x1
 6208 0578 61       		.byte	0x61
 6209 0579 4C000000 		.4byte	0x4c
 6210 057d 04       		.byte	0x4
 6211 057e 0B       		.uleb128 0xb
 6212 057f A9000000 		.4byte	.LASF153
 6213 0583 01       		.byte	0x1
 6214 0584 62       		.byte	0x62
 6215 0585 8B050000 		.4byte	0x58b
 6216 0589 06       		.byte	0x6
 6217 058a 00       		.byte	0
 6218 058b 0E       		.uleb128 0xe
 6219 058c 47050000 		.4byte	0x547
 6220 0590 9B050000 		.4byte	0x59b
 6221 0594 0F       		.uleb128 0xf
 6222 0595 88010000 		.4byte	0x188
 6223 0599 63       		.byte	0x63
 6224 059a 00       		.byte	0
 6225 059b 03       		.uleb128 0x3
 6226 059c 6D000000 		.4byte	.LASF154
 6227 05a0 01       		.byte	0x1
 6228 05a1 63       		.byte	0x63
 6229 05a2 52050000 		.4byte	0x552
 6230 05a6 11       		.uleb128 0x11
 6231 05a7 92050000 		.4byte	.LASF163
 6232 05ab 01       		.byte	0x1
 6233 05ac 8901     		.2byte	0x189
 6234 05ae 00000000 		.4byte	.LFB20
 6235 05b2 BC010000 		.4byte	.LFE20-.LFB20
 6236 05b6 01       		.uleb128 0x1
 6237 05b7 9C       		.byte	0x9c
 6238 05b8 2D070000 		.4byte	0x72d
 6239 05bc 12       		.uleb128 0x12
 6240 05bd 6300     		.ascii	"c\000"
 6241 05bf 01       		.byte	0x1
 6242 05c0 8901     		.2byte	0x189
 6243 05c2 93000000 		.4byte	0x93
ARM GAS  C:\Users\MATEOC~1.QUE\AppData\Local\Temp\ccxtWYOp.s 			page 133


 6244 05c6 00000000 		.4byte	.LLST0
 6245 05ca 12       		.uleb128 0x12
 6246 05cb 7800     		.ascii	"x\000"
 6247 05cd 01       		.byte	0x1
 6248 05ce 8901     		.2byte	0x189
 6249 05d0 2D070000 		.4byte	0x72d
 6250 05d4 53000000 		.4byte	.LLST1
 6251 05d8 12       		.uleb128 0x12
 6252 05d9 7900     		.ascii	"y\000"
 6253 05db 01       		.byte	0x1
 6254 05dc 8901     		.2byte	0x189
 6255 05de 2D070000 		.4byte	0x72d
 6256 05e2 98000000 		.4byte	.LLST2
 6257 05e6 13       		.uleb128 0x13
 6258 05e7 8F0B0000 		.4byte	.LASF155
 6259 05eb 01       		.byte	0x1
 6260 05ec 8901     		.2byte	0x189
 6261 05ee 2D070000 		.4byte	0x72d
 6262 05f2 D2000000 		.4byte	.LLST3
 6263 05f6 13       		.uleb128 0x13
 6264 05f7 7A050000 		.4byte	.LASF156
 6265 05fb 01       		.byte	0x1
 6266 05fc 8901     		.2byte	0x189
 6267 05fe 2D070000 		.4byte	0x72d
 6268 0602 3E010000 		.4byte	.LLST4
 6269 0606 13       		.uleb128 0x13
 6270 0607 450C0000 		.4byte	.LASF157
 6271 060b 01       		.byte	0x1
 6272 060c 8901     		.2byte	0x189
 6273 060e 2D070000 		.4byte	0x72d
 6274 0612 6A010000 		.4byte	.LLST5
 6275 0616 13       		.uleb128 0x13
 6276 0617 4A0C0000 		.4byte	.LASF158
 6277 061b 01       		.byte	0x1
 6278 061c 8901     		.2byte	0x189
 6279 061e 2D070000 		.4byte	0x72d
 6280 0622 96010000 		.4byte	.LLST6
 6281 0626 14       		.uleb128 0x14
 6282 0627 2C000000 		.4byte	.LBB2
 6283 062b DC000000 		.4byte	.LBE2-.LBB2
 6284 062f 04070000 		.4byte	0x704
 6285 0633 15       		.uleb128 0x15
 6286 0634 D7040000 		.4byte	.LASF60
 6287 0638 01       		.byte	0x1
 6288 0639 9101     		.2byte	0x191
 6289 063b 33000000 		.4byte	0x33
 6290 063f C2010000 		.4byte	.LLST7
 6291 0643 15       		.uleb128 0x15
 6292 0644 00000000 		.4byte	.LASF61
 6293 0648 01       		.byte	0x1
 6294 0649 9201     		.2byte	0x192
 6295 064b 33000000 		.4byte	0x33
 6296 064f E1010000 		.4byte	.LLST8
 6297 0653 16       		.uleb128 0x16
 6298 0654 3C000000 		.4byte	.LBB3
 6299 0658 CC000000 		.4byte	.LBE3-.LBB3
 6300 065c 15       		.uleb128 0x15
ARM GAS  C:\Users\MATEOC~1.QUE\AppData\Local\Temp\ccxtWYOp.s 			page 134


 6301 065d A10A0000 		.4byte	.LASF59
 6302 0661 01       		.byte	0x1
 6303 0662 9401     		.2byte	0x194
 6304 0664 68020000 		.4byte	0x268
 6305 0668 00020000 		.4byte	.LLST9
 6306 066c 17       		.uleb128 0x17
 6307 066d 677700   		.ascii	"gw\000"
 6308 0670 01       		.byte	0x1
 6309 0671 9601     		.2byte	0x196
 6310 0673 33000000 		.4byte	0x33
 6311 0677 13020000 		.4byte	.LLST10
 6312 067b 17       		.uleb128 0x17
 6313 067c 676800   		.ascii	"gh\000"
 6314 067f 01       		.byte	0x1
 6315 0680 9701     		.2byte	0x197
 6316 0682 33000000 		.4byte	0x33
 6317 0686 26020000 		.4byte	.LLST11
 6318 068a 17       		.uleb128 0x17
 6319 068b 786100   		.ascii	"xa\000"
 6320 068e 01       		.byte	0x1
 6321 068f 9801     		.2byte	0x198
 6322 0691 33000000 		.4byte	0x33
 6323 0695 39020000 		.4byte	.LLST12
 6324 0699 17       		.uleb128 0x17
 6325 069a 786F00   		.ascii	"xo\000"
 6326 069d 01       		.byte	0x1
 6327 069e 9901     		.2byte	0x199
 6328 06a0 95010000 		.4byte	0x195
 6329 06a4 4C020000 		.4byte	.LLST13
 6330 06a8 17       		.uleb128 0x17
 6331 06a9 796F00   		.ascii	"yo\000"
 6332 06ac 01       		.byte	0x1
 6333 06ad 9A01     		.2byte	0x19a
 6334 06af 95010000 		.4byte	0x195
 6335 06b3 5F020000 		.4byte	.LLST14
 6336 06b7 17       		.uleb128 0x17
 6337 06b8 747300   		.ascii	"ts\000"
 6338 06bb 01       		.byte	0x1
 6339 06bc 9F01     		.2byte	0x19f
 6340 06be A0010000 		.4byte	0x1a0
 6341 06c2 72020000 		.4byte	.LLST15
 6342 06c6 17       		.uleb128 0x17
 6343 06c7 783100   		.ascii	"x1\000"
 6344 06ca 01       		.byte	0x1
 6345 06cb A001     		.2byte	0x1a0
 6346 06cd A0010000 		.4byte	0x1a0
 6347 06d1 8F020000 		.4byte	.LLST16
 6348 06d5 17       		.uleb128 0x17
 6349 06d6 793100   		.ascii	"y1\000"
 6350 06d9 01       		.byte	0x1
 6351 06da A101     		.2byte	0x1a1
 6352 06dc A0010000 		.4byte	0x1a0
 6353 06e0 A2020000 		.4byte	.LLST17
 6354 06e4 17       		.uleb128 0x17
 6355 06e5 783200   		.ascii	"x2\000"
 6356 06e8 01       		.byte	0x1
 6357 06e9 A201     		.2byte	0x1a2
ARM GAS  C:\Users\MATEOC~1.QUE\AppData\Local\Temp\ccxtWYOp.s 			page 135


 6358 06eb A0010000 		.4byte	0x1a0
 6359 06ef B5020000 		.4byte	.LLST18
 6360 06f3 17       		.uleb128 0x17
 6361 06f4 793200   		.ascii	"y2\000"
 6362 06f7 01       		.byte	0x1
 6363 06f8 A301     		.2byte	0x1a3
 6364 06fa A0010000 		.4byte	0x1a0
 6365 06fe C8020000 		.4byte	.LLST19
 6366 0702 00       		.byte	0
 6367 0703 00       		.byte	0
 6368 0704 16       		.uleb128 0x16
 6369 0705 24010000 		.4byte	.LBB4
 6370 0709 98000000 		.4byte	.LBE4-.LBB4
 6371 070d 17       		.uleb128 0x17
 6372 070e 783200   		.ascii	"x2\000"
 6373 0711 01       		.byte	0x1
 6374 0712 B701     		.2byte	0x1b7
 6375 0714 7A010000 		.4byte	0x17a
 6376 0718 DB020000 		.4byte	.LLST20
 6377 071c 17       		.uleb128 0x17
 6378 071d 793200   		.ascii	"y2\000"
 6379 0720 01       		.byte	0x1
 6380 0721 B801     		.2byte	0x1b8
 6381 0723 7A010000 		.4byte	0x17a
 6382 0727 EE020000 		.4byte	.LLST21
 6383 072b 00       		.byte	0
 6384 072c 00       		.byte	0
 6385 072d 04       		.uleb128 0x4
 6386 072e 04       		.byte	0x4
 6387 072f A0010000 		.4byte	0x1a0
 6388 0733 18       		.uleb128 0x18
 6389 0734 880A0000 		.4byte	.LASF165
 6390 0738 01       		.byte	0x1
 6391 0739 8B       		.byte	0x8b
 6392 073a 00000000 		.4byte	.LFB3
 6393 073e 58000000 		.4byte	.LFE3-.LFB3
 6394 0742 01       		.uleb128 0x1
 6395 0743 9C       		.byte	0x9c
 6396 0744 B3070000 		.4byte	0x7b3
 6397 0748 19       		.uleb128 0x19
 6398 0749 37090000 		.4byte	.LASF159
 6399 074d 01       		.byte	0x1
 6400 074e 92       		.byte	0x92
 6401 074f B3070000 		.4byte	0x7b3
 6402 0753 01030000 		.4byte	.LLST22
 6403 0757 1A       		.uleb128 0x1a
 6404 0758 A30C0000 		.4byte	.LASF160
 6405 075c 01       		.byte	0x1
 6406 075d A5       		.byte	0xa5
 6407 075e 7A010000 		.4byte	0x17a
 6408 0762 68070000 		.4byte	0x768
 6409 0766 1B       		.uleb128 0x1b
 6410 0767 00       		.byte	0
 6411 0768 14       		.uleb128 0x14
 6412 0769 32000000 		.4byte	.LBB5
 6413 076d 0E000000 		.4byte	.LBE5-.LBB5
 6414 0771 A9070000 		.4byte	0x7a9
ARM GAS  C:\Users\MATEOC~1.QUE\AppData\Local\Temp\ccxtWYOp.s 			page 136


 6415 0775 1A       		.uleb128 0x1a
 6416 0776 450B0000 		.4byte	.LASF161
 6417 077a 01       		.byte	0x1
 6418 077b 9B       		.byte	0x9b
 6419 077c 7A010000 		.4byte	0x17a
 6420 0780 86070000 		.4byte	0x786
 6421 0784 1B       		.uleb128 0x1b
 6422 0785 00       		.byte	0
 6423 0786 1C       		.uleb128 0x1c
 6424 0787 38000000 		.4byte	.LVL39
 6425 078b 38270000 		.4byte	0x2738
 6426 078f 99070000 		.4byte	0x799
 6427 0793 1D       		.uleb128 0x1d
 6428 0794 01       		.uleb128 0x1
 6429 0795 50       		.byte	0x50
 6430 0796 01       		.uleb128 0x1
 6431 0797 30       		.byte	0x30
 6432 0798 00       		.byte	0
 6433 0799 1E       		.uleb128 0x1e
 6434 079a 40000000 		.4byte	.LVL40
 6435 079e 38270000 		.4byte	0x2738
 6436 07a2 1D       		.uleb128 0x1d
 6437 07a3 01       		.uleb128 0x1
 6438 07a4 50       		.byte	0x50
 6439 07a5 01       		.uleb128 0x1
 6440 07a6 31       		.byte	0x31
 6441 07a7 00       		.byte	0
 6442 07a8 00       		.byte	0
 6443 07a9 1F       		.uleb128 0x1f
 6444 07aa 4C000000 		.4byte	.LVL42
 6445 07ae 43270000 		.4byte	0x2743
 6446 07b2 00       		.byte	0
 6447 07b3 04       		.uleb128 0x4
 6448 07b4 04       		.byte	0x4
 6449 07b5 47050000 		.4byte	0x547
 6450 07b9 20       		.uleb128 0x20
 6451 07ba 6B060000 		.4byte	.LASF252
 6452 07be 01       		.byte	0x1
 6453 07bf A8       		.byte	0xa8
 6454 07c0 4E010000 		.4byte	0x14e
 6455 07c4 00000000 		.4byte	.LFB4
 6456 07c8 84000000 		.4byte	.LFE4-.LFB4
 6457 07cc 01       		.uleb128 0x1
 6458 07cd 9C       		.byte	0x9c
 6459 07ce 27080000 		.4byte	0x827
 6460 07d2 21       		.uleb128 0x21
 6461 07d3 D60A0000 		.4byte	.LASF162
 6462 07d7 01       		.byte	0x1
 6463 07d8 A8       		.byte	0xa8
 6464 07d9 1C050000 		.4byte	0x51c
 6465 07dd 1E030000 		.4byte	.LLST23
 6466 07e1 21       		.uleb128 0x21
 6467 07e2 34040000 		.4byte	.LASF148
 6468 07e6 01       		.byte	0x1
 6469 07e7 A8       		.byte	0xa8
 6470 07e8 33000000 		.4byte	0x33
 6471 07ec 7E030000 		.4byte	.LLST24
ARM GAS  C:\Users\MATEOC~1.QUE\AppData\Local\Temp\ccxtWYOp.s 			page 137


 6472 07f0 14       		.uleb128 0x14
 6473 07f1 0C000000 		.4byte	.LBB6
 6474 07f5 2A000000 		.4byte	.LBE6-.LBB6
 6475 07f9 1D080000 		.4byte	0x81d
 6476 07fd 22       		.uleb128 0x22
 6477 07fe 6D736700 		.ascii	"msg\000"
 6478 0802 01       		.byte	0x1
 6479 0803 AD       		.byte	0xad
 6480 0804 F2040000 		.4byte	0x4f2
 6481 0808 03       		.uleb128 0x3
 6482 0809 91       		.byte	0x91
 6483 080a C87E     		.sleb128 -184
 6484 080c 1E       		.uleb128 0x1e
 6485 080d 36000000 		.4byte	.LVL46
 6486 0811 4E270000 		.4byte	0x274e
 6487 0815 1D       		.uleb128 0x1d
 6488 0816 01       		.uleb128 0x1
 6489 0817 50       		.byte	0x50
 6490 0818 02       		.uleb128 0x2
 6491 0819 75       		.byte	0x75
 6492 081a 00       		.sleb128 0
 6493 081b 00       		.byte	0
 6494 081c 00       		.byte	0
 6495 081d 1F       		.uleb128 0x1f
 6496 081e 6A000000 		.4byte	.LVL50
 6497 0822 33070000 		.4byte	0x733
 6498 0826 00       		.byte	0
 6499 0827 11       		.uleb128 0x11
 6500 0828 7E010000 		.4byte	.LASF164
 6501 082c 01       		.byte	0x1
 6502 082d 0901     		.2byte	0x109
 6503 082f 00000000 		.4byte	.LFB8
 6504 0833 88000000 		.4byte	.LFE8-.LFB8
 6505 0837 01       		.uleb128 0x1
 6506 0838 9C       		.byte	0x9c
 6507 0839 6D090000 		.4byte	0x96d
 6508 083d 12       		.uleb128 0x12
 6509 083e 783000   		.ascii	"x0\000"
 6510 0841 01       		.byte	0x1
 6511 0842 0901     		.2byte	0x109
 6512 0844 33000000 		.4byte	0x33
 6513 0848 DE030000 		.4byte	.LLST25
 6514 084c 12       		.uleb128 0x12
 6515 084d 793000   		.ascii	"y0\000"
 6516 0850 01       		.byte	0x1
 6517 0851 0901     		.2byte	0x109
 6518 0853 33000000 		.4byte	0x33
 6519 0857 FF030000 		.4byte	.LLST26
 6520 085b 12       		.uleb128 0x12
 6521 085c 783100   		.ascii	"x1\000"
 6522 085f 01       		.byte	0x1
 6523 0860 0901     		.2byte	0x109
 6524 0862 33000000 		.4byte	0x33
 6525 0866 20040000 		.4byte	.LLST27
 6526 086a 12       		.uleb128 0x12
 6527 086b 793100   		.ascii	"y1\000"
 6528 086e 01       		.byte	0x1
ARM GAS  C:\Users\MATEOC~1.QUE\AppData\Local\Temp\ccxtWYOp.s 			page 138


 6529 086f 0901     		.2byte	0x109
 6530 0871 33000000 		.4byte	0x33
 6531 0875 41040000 		.4byte	.LLST28
 6532 0879 1C       		.uleb128 0x1c
 6533 087a 14000000 		.4byte	.LVL56
 6534 087e B9070000 		.4byte	0x7b9
 6535 0882 92080000 		.4byte	0x892
 6536 0886 1D       		.uleb128 0x1d
 6537 0887 01       		.uleb128 0x1
 6538 0888 50       		.byte	0x50
 6539 0889 01       		.uleb128 0x1
 6540 088a 30       		.byte	0x30
 6541 088b 1D       		.uleb128 0x1d
 6542 088c 01       		.uleb128 0x1
 6543 088d 51       		.byte	0x51
 6544 088e 02       		.uleb128 0x2
 6545 088f 08       		.byte	0x8
 6546 0890 2A       		.byte	0x2a
 6547 0891 00       		.byte	0
 6548 0892 1C       		.uleb128 0x1c
 6549 0893 1C000000 		.4byte	.LVL57
 6550 0897 B9070000 		.4byte	0x7b9
 6551 089b AA080000 		.4byte	0x8aa
 6552 089f 1D       		.uleb128 0x1d
 6553 08a0 01       		.uleb128 0x1
 6554 08a1 50       		.byte	0x50
 6555 08a2 01       		.uleb128 0x1
 6556 08a3 31       		.byte	0x31
 6557 08a4 1D       		.uleb128 0x1d
 6558 08a5 01       		.uleb128 0x1
 6559 08a6 51       		.byte	0x51
 6560 08a7 01       		.uleb128 0x1
 6561 08a8 30       		.byte	0x30
 6562 08a9 00       		.byte	0
 6563 08aa 1C       		.uleb128 0x1c
 6564 08ab 2C000000 		.4byte	.LVL58
 6565 08af B9070000 		.4byte	0x7b9
 6566 08b3 BD080000 		.4byte	0x8bd
 6567 08b7 1D       		.uleb128 0x1d
 6568 08b8 01       		.uleb128 0x1
 6569 08b9 50       		.byte	0x50
 6570 08ba 01       		.uleb128 0x1
 6571 08bb 31       		.byte	0x31
 6572 08bc 00       		.byte	0
 6573 08bd 1C       		.uleb128 0x1c
 6574 08be 34000000 		.4byte	.LVL59
 6575 08c2 B9070000 		.4byte	0x7b9
 6576 08c6 D5080000 		.4byte	0x8d5
 6577 08ca 1D       		.uleb128 0x1d
 6578 08cb 01       		.uleb128 0x1
 6579 08cc 50       		.byte	0x50
 6580 08cd 01       		.uleb128 0x1
 6581 08ce 31       		.byte	0x31
 6582 08cf 1D       		.uleb128 0x1d
 6583 08d0 01       		.uleb128 0x1
 6584 08d1 51       		.byte	0x51
 6585 08d2 01       		.uleb128 0x1
ARM GAS  C:\Users\MATEOC~1.QUE\AppData\Local\Temp\ccxtWYOp.s 			page 139


 6586 08d3 30       		.byte	0x30
 6587 08d4 00       		.byte	0
 6588 08d5 1C       		.uleb128 0x1c
 6589 08d6 42000000 		.4byte	.LVL60
 6590 08da B9070000 		.4byte	0x7b9
 6591 08de E8080000 		.4byte	0x8e8
 6592 08e2 1D       		.uleb128 0x1d
 6593 08e3 01       		.uleb128 0x1
 6594 08e4 50       		.byte	0x50
 6595 08e5 01       		.uleb128 0x1
 6596 08e6 31       		.byte	0x31
 6597 08e7 00       		.byte	0
 6598 08e8 1C       		.uleb128 0x1c
 6599 08e9 4A000000 		.4byte	.LVL61
 6600 08ed B9070000 		.4byte	0x7b9
 6601 08f1 01090000 		.4byte	0x901
 6602 08f5 1D       		.uleb128 0x1d
 6603 08f6 01       		.uleb128 0x1
 6604 08f7 50       		.byte	0x50
 6605 08f8 01       		.uleb128 0x1
 6606 08f9 30       		.byte	0x30
 6607 08fa 1D       		.uleb128 0x1d
 6608 08fb 01       		.uleb128 0x1
 6609 08fc 51       		.byte	0x51
 6610 08fd 02       		.uleb128 0x2
 6611 08fe 08       		.byte	0x8
 6612 08ff 2B       		.byte	0x2b
 6613 0900 00       		.byte	0
 6614 0901 1C       		.uleb128 0x1c
 6615 0902 52000000 		.4byte	.LVL62
 6616 0906 B9070000 		.4byte	0x7b9
 6617 090a 19090000 		.4byte	0x919
 6618 090e 1D       		.uleb128 0x1d
 6619 090f 01       		.uleb128 0x1
 6620 0910 50       		.byte	0x50
 6621 0911 01       		.uleb128 0x1
 6622 0912 31       		.byte	0x31
 6623 0913 1D       		.uleb128 0x1d
 6624 0914 01       		.uleb128 0x1
 6625 0915 51       		.byte	0x51
 6626 0916 01       		.uleb128 0x1
 6627 0917 30       		.byte	0x30
 6628 0918 00       		.byte	0
 6629 0919 1C       		.uleb128 0x1c
 6630 091a 60000000 		.4byte	.LVL63
 6631 091e B9070000 		.4byte	0x7b9
 6632 0922 2C090000 		.4byte	0x92c
 6633 0926 1D       		.uleb128 0x1d
 6634 0927 01       		.uleb128 0x1
 6635 0928 50       		.byte	0x50
 6636 0929 01       		.uleb128 0x1
 6637 092a 31       		.byte	0x31
 6638 092b 00       		.byte	0
 6639 092c 1C       		.uleb128 0x1c
 6640 092d 68000000 		.4byte	.LVL64
 6641 0931 B9070000 		.4byte	0x7b9
 6642 0935 44090000 		.4byte	0x944
ARM GAS  C:\Users\MATEOC~1.QUE\AppData\Local\Temp\ccxtWYOp.s 			page 140


 6643 0939 1D       		.uleb128 0x1d
 6644 093a 01       		.uleb128 0x1
 6645 093b 50       		.byte	0x50
 6646 093c 01       		.uleb128 0x1
 6647 093d 31       		.byte	0x31
 6648 093e 1D       		.uleb128 0x1d
 6649 093f 01       		.uleb128 0x1
 6650 0940 51       		.byte	0x51
 6651 0941 01       		.uleb128 0x1
 6652 0942 30       		.byte	0x30
 6653 0943 00       		.byte	0
 6654 0944 1C       		.uleb128 0x1c
 6655 0945 76000000 		.4byte	.LVL65
 6656 0949 B9070000 		.4byte	0x7b9
 6657 094d 57090000 		.4byte	0x957
 6658 0951 1D       		.uleb128 0x1d
 6659 0952 01       		.uleb128 0x1
 6660 0953 50       		.byte	0x50
 6661 0954 01       		.uleb128 0x1
 6662 0955 31       		.byte	0x31
 6663 0956 00       		.byte	0
 6664 0957 1E       		.uleb128 0x1e
 6665 0958 7E000000 		.4byte	.LVL66
 6666 095c B9070000 		.4byte	0x7b9
 6667 0960 1D       		.uleb128 0x1d
 6668 0961 01       		.uleb128 0x1
 6669 0962 50       		.byte	0x50
 6670 0963 01       		.uleb128 0x1
 6671 0964 30       		.byte	0x30
 6672 0965 1D       		.uleb128 0x1d
 6673 0966 01       		.uleb128 0x1
 6674 0967 51       		.byte	0x51
 6675 0968 02       		.uleb128 0x2
 6676 0969 08       		.byte	0x8
 6677 096a 2C       		.byte	0x2c
 6678 096b 00       		.byte	0
 6679 096c 00       		.byte	0
 6680 096d 18       		.uleb128 0x18
 6681 096e E2040000 		.4byte	.LASF166
 6682 0972 01       		.byte	0x1
 6683 0973 FF       		.byte	0xff
 6684 0974 00000000 		.4byte	.LFB6
 6685 0978 0E000000 		.4byte	.LFE6-.LFB6
 6686 097c 01       		.uleb128 0x1
 6687 097d 9C       		.byte	0x9c
 6688 097e AA090000 		.4byte	0x9aa
 6689 0982 23       		.uleb128 0x23
 6690 0983 6200     		.ascii	"b\000"
 6691 0985 01       		.byte	0x1
 6692 0986 FF       		.byte	0xff
 6693 0987 33000000 		.4byte	0x33
 6694 098b 62040000 		.4byte	.LLST29
 6695 098f 1A       		.uleb128 0x1a
 6696 0990 EB020000 		.4byte	.LASF167
 6697 0994 01       		.byte	0x1
 6698 0995 FC       		.byte	0xfc
 6699 0996 7A010000 		.4byte	0x17a
ARM GAS  C:\Users\MATEOC~1.QUE\AppData\Local\Temp\ccxtWYOp.s 			page 141


 6700 099a A0090000 		.4byte	0x9a0
 6701 099e 1B       		.uleb128 0x1b
 6702 099f 00       		.byte	0
 6703 09a0 1F       		.uleb128 0x1f
 6704 09a1 0C000000 		.4byte	.LVL69
 6705 09a5 59270000 		.4byte	0x2759
 6706 09a9 00       		.byte	0
 6707 09aa 24       		.uleb128 0x24
 6708 09ab 54010000 		.4byte	.LASF168
 6709 09af 01       		.byte	0x1
 6710 09b0 0501     		.2byte	0x105
 6711 09b2 33000000 		.4byte	0x33
 6712 09b6 00000000 		.4byte	.LFB7
 6713 09ba 0A000000 		.4byte	.LFE7-.LFB7
 6714 09be 01       		.uleb128 0x1
 6715 09bf 9C       		.byte	0x9c
 6716 09c0 E0090000 		.4byte	0x9e0
 6717 09c4 25       		.uleb128 0x25
 6718 09c5 D0050000 		.4byte	.LASF169
 6719 09c9 01       		.byte	0x1
 6720 09ca 0601     		.2byte	0x106
 6721 09cc 7A010000 		.4byte	0x17a
 6722 09d0 D6090000 		.4byte	0x9d6
 6723 09d4 1B       		.uleb128 0x1b
 6724 09d5 00       		.byte	0
 6725 09d6 1F       		.uleb128 0x1f
 6726 09d7 06000000 		.4byte	.LVL70
 6727 09db 64270000 		.4byte	0x2764
 6728 09df 00       		.byte	0
 6729 09e0 26       		.uleb128 0x26
 6730 09e1 670C0000 		.4byte	.LASF170
 6731 09e5 01       		.byte	0x1
 6732 09e6 1A01     		.2byte	0x11a
 6733 09e8 00000000 		.4byte	.LFB9
 6734 09ec C0000000 		.4byte	.LFE9-.LFB9
 6735 09f0 01       		.uleb128 0x1
 6736 09f1 9C       		.byte	0x9c
 6737 09f2 7D0A0000 		.4byte	0xa7d
 6738 09f6 12       		.uleb128 0x12
 6739 09f7 6D00     		.ascii	"m\000"
 6740 09f9 01       		.byte	0x1
 6741 09fa 1A01     		.2byte	0x11a
 6742 09fc 9E020000 		.4byte	0x29e
 6743 0a00 80040000 		.4byte	.LLST30
 6744 0a04 1C       		.uleb128 0x1c
 6745 0a05 0C000000 		.4byte	.LVL73
 6746 0a09 B9070000 		.4byte	0x7b9
 6747 0a0d 1D0A0000 		.4byte	0xa1d
 6748 0a11 1D       		.uleb128 0x1d
 6749 0a12 01       		.uleb128 0x1
 6750 0a13 50       		.byte	0x50
 6751 0a14 01       		.uleb128 0x1
 6752 0a15 30       		.byte	0x30
 6753 0a16 1D       		.uleb128 0x1d
 6754 0a17 01       		.uleb128 0x1
 6755 0a18 51       		.byte	0x51
 6756 0a19 02       		.uleb128 0x2
ARM GAS  C:\Users\MATEOC~1.QUE\AppData\Local\Temp\ccxtWYOp.s 			page 142


 6757 0a1a 08       		.byte	0x8
 6758 0a1b 36       		.byte	0x36
 6759 0a1c 00       		.byte	0
 6760 0a1d 1C       		.uleb128 0x1c
 6761 0a1e 2A000000 		.4byte	.LVL74
 6762 0a22 B9070000 		.4byte	0x7b9
 6763 0a26 360A0000 		.4byte	0xa36
 6764 0a2a 1D       		.uleb128 0x1d
 6765 0a2b 01       		.uleb128 0x1
 6766 0a2c 50       		.byte	0x50
 6767 0a2d 01       		.uleb128 0x1
 6768 0a2e 31       		.byte	0x31
 6769 0a2f 1D       		.uleb128 0x1d
 6770 0a30 01       		.uleb128 0x1
 6771 0a31 51       		.byte	0x51
 6772 0a32 02       		.uleb128 0x2
 6773 0a33 09       		.byte	0x9
 6774 0a34 C2       		.byte	0xc2
 6775 0a35 00       		.byte	0
 6776 0a36 1C       		.uleb128 0x1c
 6777 0a37 50000000 		.4byte	.LVL75
 6778 0a3b B9070000 		.4byte	0x7b9
 6779 0a3f 4F0A0000 		.4byte	0xa4f
 6780 0a43 1D       		.uleb128 0x1d
 6781 0a44 01       		.uleb128 0x1
 6782 0a45 50       		.byte	0x50
 6783 0a46 01       		.uleb128 0x1
 6784 0a47 31       		.byte	0x31
 6785 0a48 1D       		.uleb128 0x1d
 6786 0a49 01       		.uleb128 0x1
 6787 0a4a 51       		.byte	0x51
 6788 0a4b 02       		.uleb128 0x2
 6789 0a4c 09       		.byte	0x9
 6790 0a4d A2       		.byte	0xa2
 6791 0a4e 00       		.byte	0
 6792 0a4f 1C       		.uleb128 0x1c
 6793 0a50 76000000 		.4byte	.LVL76
 6794 0a54 B9070000 		.4byte	0x7b9
 6795 0a58 670A0000 		.4byte	0xa67
 6796 0a5c 1D       		.uleb128 0x1d
 6797 0a5d 01       		.uleb128 0x1
 6798 0a5e 50       		.byte	0x50
 6799 0a5f 01       		.uleb128 0x1
 6800 0a60 31       		.byte	0x31
 6801 0a61 1D       		.uleb128 0x1d
 6802 0a62 01       		.uleb128 0x1
 6803 0a63 51       		.byte	0x51
 6804 0a64 01       		.uleb128 0x1
 6805 0a65 38       		.byte	0x38
 6806 0a66 00       		.byte	0
 6807 0a67 1E       		.uleb128 0x1e
 6808 0a68 9C000000 		.4byte	.LVL77
 6809 0a6c B9070000 		.4byte	0x7b9
 6810 0a70 1D       		.uleb128 0x1d
 6811 0a71 01       		.uleb128 0x1
 6812 0a72 50       		.byte	0x50
 6813 0a73 01       		.uleb128 0x1
ARM GAS  C:\Users\MATEOC~1.QUE\AppData\Local\Temp\ccxtWYOp.s 			page 143


 6814 0a74 31       		.byte	0x31
 6815 0a75 1D       		.uleb128 0x1d
 6816 0a76 01       		.uleb128 0x1
 6817 0a77 51       		.byte	0x51
 6818 0a78 02       		.uleb128 0x2
 6819 0a79 08       		.byte	0x8
 6820 0a7a 62       		.byte	0x62
 6821 0a7b 00       		.byte	0
 6822 0a7c 00       		.byte	0
 6823 0a7d 26       		.uleb128 0x26
 6824 0a7e 5C030000 		.4byte	.LASF171
 6825 0a82 01       		.byte	0x1
 6826 0a83 4101     		.2byte	0x141
 6827 0a85 00000000 		.4byte	.LFB10
 6828 0a89 10000000 		.4byte	.LFE10-.LFB10
 6829 0a8d 01       		.uleb128 0x1
 6830 0a8e 9C       		.byte	0x9c
 6831 0a8f AC0A0000 		.4byte	0xaac
 6832 0a93 27       		.uleb128 0x27
 6833 0a94 7800     		.ascii	"x\000"
 6834 0a96 01       		.byte	0x1
 6835 0a97 4101     		.2byte	0x141
 6836 0a99 A0010000 		.4byte	0x1a0
 6837 0a9d 01       		.uleb128 0x1
 6838 0a9e 50       		.byte	0x50
 6839 0a9f 27       		.uleb128 0x27
 6840 0aa0 7900     		.ascii	"y\000"
 6841 0aa2 01       		.byte	0x1
 6842 0aa3 4101     		.2byte	0x141
 6843 0aa5 A0010000 		.4byte	0x1a0
 6844 0aa9 01       		.uleb128 0x1
 6845 0aaa 51       		.byte	0x51
 6846 0aab 00       		.byte	0
 6847 0aac 26       		.uleb128 0x26
 6848 0aad 98070000 		.4byte	.LASF172
 6849 0ab1 01       		.byte	0x1
 6850 0ab2 4601     		.2byte	0x146
 6851 0ab4 00000000 		.4byte	.LFB11
 6852 0ab8 0C000000 		.4byte	.LFE11-.LFB11
 6853 0abc 01       		.uleb128 0x1
 6854 0abd 9C       		.byte	0x9c
 6855 0abe CF0A0000 		.4byte	0xacf
 6856 0ac2 27       		.uleb128 0x27
 6857 0ac3 6300     		.ascii	"c\000"
 6858 0ac5 01       		.byte	0x1
 6859 0ac6 4601     		.2byte	0x146
 6860 0ac8 4C000000 		.4byte	0x4c
 6861 0acc 01       		.uleb128 0x1
 6862 0acd 50       		.byte	0x50
 6863 0ace 00       		.byte	0
 6864 0acf 26       		.uleb128 0x26
 6865 0ad0 5E0A0000 		.4byte	.LASF173
 6866 0ad4 01       		.byte	0x1
 6867 0ad5 4A01     		.2byte	0x14a
 6868 0ad7 00000000 		.4byte	.LFB12
 6869 0adb 10000000 		.4byte	.LFE12-.LFB12
 6870 0adf 01       		.uleb128 0x1
ARM GAS  C:\Users\MATEOC~1.QUE\AppData\Local\Temp\ccxtWYOp.s 			page 144


 6871 0ae0 9C       		.byte	0x9c
 6872 0ae1 F20A0000 		.4byte	0xaf2
 6873 0ae5 27       		.uleb128 0x27
 6874 0ae6 6300     		.ascii	"c\000"
 6875 0ae8 01       		.byte	0x1
 6876 0ae9 4A01     		.2byte	0x14a
 6877 0aeb 4C000000 		.4byte	0x4c
 6878 0aef 01       		.uleb128 0x1
 6879 0af0 50       		.byte	0x50
 6880 0af1 00       		.byte	0
 6881 0af2 26       		.uleb128 0x26
 6882 0af3 0B070000 		.4byte	.LASF174
 6883 0af7 01       		.byte	0x1
 6884 0af8 5001     		.2byte	0x150
 6885 0afa 00000000 		.4byte	.LFB13
 6886 0afe 10000000 		.4byte	.LFE13-.LFB13
 6887 0b02 01       		.uleb128 0x1
 6888 0b03 9C       		.byte	0x9c
 6889 0b04 210B0000 		.4byte	0xb21
 6890 0b08 27       		.uleb128 0x27
 6891 0b09 6300     		.ascii	"c\000"
 6892 0b0b 01       		.byte	0x1
 6893 0b0c 5001     		.2byte	0x150
 6894 0b0e 4C000000 		.4byte	0x4c
 6895 0b12 01       		.uleb128 0x1
 6896 0b13 50       		.byte	0x50
 6897 0b14 27       		.uleb128 0x27
 6898 0b15 6200     		.ascii	"b\000"
 6899 0b17 01       		.byte	0x1
 6900 0b18 5001     		.2byte	0x150
 6901 0b1a 4C000000 		.4byte	0x4c
 6902 0b1e 01       		.uleb128 0x1
 6903 0b1f 51       		.byte	0x51
 6904 0b20 00       		.byte	0
 6905 0b21 28       		.uleb128 0x28
 6906 0b22 2C0A0000 		.4byte	.LASF175
 6907 0b26 01       		.byte	0x1
 6908 0b27 5601     		.2byte	0x156
 6909 0b29 B6010000 		.4byte	0x1b6
 6910 0b2d 00000000 		.4byte	.LFB14
 6911 0b31 0C000000 		.4byte	.LFE14-.LFB14
 6912 0b35 01       		.uleb128 0x1
 6913 0b36 9C       		.byte	0x9c
 6914 0b37 28       		.uleb128 0x28
 6915 0b38 6A070000 		.4byte	.LASF176
 6916 0b3c 01       		.byte	0x1
 6917 0b3d 5801     		.2byte	0x158
 6918 0b3f B6010000 		.4byte	0x1b6
 6919 0b43 00000000 		.4byte	.LFB15
 6920 0b47 0C000000 		.4byte	.LFE15-.LFB15
 6921 0b4b 01       		.uleb128 0x1
 6922 0b4c 9C       		.byte	0x9c
 6923 0b4d 26       		.uleb128 0x26
 6924 0b4e B10A0000 		.4byte	.LASF177
 6925 0b52 01       		.byte	0x1
 6926 0b53 5B01     		.2byte	0x15b
 6927 0b55 00000000 		.4byte	.LFB16
ARM GAS  C:\Users\MATEOC~1.QUE\AppData\Local\Temp\ccxtWYOp.s 			page 145


 6928 0b59 0C000000 		.4byte	.LFE16-.LFB16
 6929 0b5d 01       		.uleb128 0x1
 6930 0b5e 9C       		.byte	0x9c
 6931 0b5f 700B0000 		.4byte	0xb70
 6932 0b63 27       		.uleb128 0x27
 6933 0b64 7700     		.ascii	"w\000"
 6934 0b66 01       		.byte	0x1
 6935 0b67 5B01     		.2byte	0x15b
 6936 0b69 88000000 		.4byte	0x88
 6937 0b6d 01       		.uleb128 0x1
 6938 0b6e 50       		.byte	0x50
 6939 0b6f 00       		.byte	0
 6940 0b70 26       		.uleb128 0x26
 6941 0b71 C6060000 		.4byte	.LASF178
 6942 0b75 01       		.byte	0x1
 6943 0b76 5F01     		.2byte	0x15f
 6944 0b78 00000000 		.4byte	.LFB17
 6945 0b7c 10000000 		.4byte	.LFE17-.LFB17
 6946 0b80 01       		.uleb128 0x1
 6947 0b81 9C       		.byte	0x9c
 6948 0b82 950B0000 		.4byte	0xb95
 6949 0b86 12       		.uleb128 0x12
 6950 0b87 7300     		.ascii	"s\000"
 6951 0b89 01       		.byte	0x1
 6952 0b8a 5F01     		.2byte	0x15f
 6953 0b8c 33000000 		.4byte	0x33
 6954 0b90 A1040000 		.4byte	.LLST31
 6955 0b94 00       		.byte	0
 6956 0b95 26       		.uleb128 0x26
 6957 0b96 B7010000 		.4byte	.LASF179
 6958 0b9a 01       		.byte	0x1
 6959 0b9b 6301     		.2byte	0x163
 6960 0b9d 00000000 		.4byte	.LFB18
 6961 0ba1 34000000 		.4byte	.LFE18-.LFB18
 6962 0ba5 01       		.uleb128 0x1
 6963 0ba6 9C       		.byte	0x9c
 6964 0ba7 B80B0000 		.4byte	0xbb8
 6965 0bab 27       		.uleb128 0x27
 6966 0bac 6600     		.ascii	"f\000"
 6967 0bae 01       		.byte	0x1
 6968 0baf 6301     		.2byte	0x163
 6969 0bb1 B80B0000 		.4byte	0xbb8
 6970 0bb5 01       		.uleb128 0x1
 6971 0bb6 50       		.byte	0x50
 6972 0bb7 00       		.byte	0
 6973 0bb8 04       		.uleb128 0x4
 6974 0bb9 04       		.byte	0x4
 6975 0bba BE0B0000 		.4byte	0xbbe
 6976 0bbe 05       		.uleb128 0x5
 6977 0bbf 6E020000 		.4byte	0x26e
 6978 0bc3 26       		.uleb128 0x26
 6979 0bc4 97000000 		.4byte	.LASF180
 6980 0bc8 01       		.byte	0x1
 6981 0bc9 7301     		.2byte	0x173
 6982 0bcb 00000000 		.4byte	.LFB19
 6983 0bcf A8000000 		.4byte	.LFE19-.LFB19
 6984 0bd3 01       		.uleb128 0x1
ARM GAS  C:\Users\MATEOC~1.QUE\AppData\Local\Temp\ccxtWYOp.s 			page 146


 6985 0bd4 9C       		.byte	0x9c
 6986 0bd5 BB0C0000 		.4byte	0xcbb
 6987 0bd9 12       		.uleb128 0x12
 6988 0bda 73747200 		.ascii	"str\000"
 6989 0bde 01       		.byte	0x1
 6990 0bdf 7301     		.2byte	0x173
 6991 0be1 8F010000 		.4byte	0x18f
 6992 0be5 C2040000 		.4byte	.LLST32
 6993 0be9 12       		.uleb128 0x12
 6994 0bea 7800     		.ascii	"x\000"
 6995 0bec 01       		.byte	0x1
 6996 0bed 7301     		.2byte	0x173
 6997 0bef A0010000 		.4byte	0x1a0
 6998 0bf3 F6040000 		.4byte	.LLST33
 6999 0bf7 12       		.uleb128 0x12
 7000 0bf8 7900     		.ascii	"y\000"
 7001 0bfa 01       		.byte	0x1
 7002 0bfb 7301     		.2byte	0x173
 7003 0bfd A0010000 		.4byte	0x1a0
 7004 0c01 17050000 		.4byte	.LLST34
 7005 0c05 12       		.uleb128 0x12
 7006 0c06 783100   		.ascii	"x1\000"
 7007 0c09 01       		.byte	0x1
 7008 0c0a 7301     		.2byte	0x173
 7009 0c0c 2D070000 		.4byte	0x72d
 7010 0c10 38050000 		.4byte	.LLST35
 7011 0c14 12       		.uleb128 0x12
 7012 0c15 793100   		.ascii	"y1\000"
 7013 0c18 01       		.byte	0x1
 7014 0c19 7301     		.2byte	0x173
 7015 0c1b 2D070000 		.4byte	0x72d
 7016 0c1f 64050000 		.4byte	.LLST36
 7017 0c23 12       		.uleb128 0x12
 7018 0c24 7700     		.ascii	"w\000"
 7019 0c26 01       		.byte	0x1
 7020 0c27 7301     		.2byte	0x173
 7021 0c29 BB0C0000 		.4byte	0xcbb
 7022 0c2d 84050000 		.4byte	.LLST37
 7023 0c31 12       		.uleb128 0x12
 7024 0c32 6800     		.ascii	"h\000"
 7025 0c34 01       		.byte	0x1
 7026 0c35 7301     		.2byte	0x173
 7027 0c37 BB0C0000 		.4byte	0xcbb
 7028 0c3b A4050000 		.4byte	.LLST38
 7029 0c3f 17       		.uleb128 0x17
 7030 0c40 6300     		.ascii	"c\000"
 7031 0c42 01       		.byte	0x1
 7032 0c43 7401     		.2byte	0x174
 7033 0c45 33000000 		.4byte	0x33
 7034 0c49 C4050000 		.4byte	.LLST39
 7035 0c4d 29       		.uleb128 0x29
 7036 0c4e 8F0B0000 		.4byte	.LASF155
 7037 0c52 01       		.byte	0x1
 7038 0c53 7A01     		.2byte	0x17a
 7039 0c55 A0010000 		.4byte	0x1a0
 7040 0c59 02       		.uleb128 0x2
 7041 0c5a 91       		.byte	0x91
ARM GAS  C:\Users\MATEOC~1.QUE\AppData\Local\Temp\ccxtWYOp.s 			page 147


 7042 0c5b 66       		.sleb128 -26
 7043 0c5c 29       		.uleb128 0x29
 7044 0c5d 7A050000 		.4byte	.LASF156
 7045 0c61 01       		.byte	0x1
 7046 0c62 7A01     		.2byte	0x17a
 7047 0c64 A0010000 		.4byte	0x1a0
 7048 0c68 02       		.uleb128 0x2
 7049 0c69 91       		.byte	0x91
 7050 0c6a 64       		.sleb128 -28
 7051 0c6b 29       		.uleb128 0x29
 7052 0c6c 450C0000 		.4byte	.LASF157
 7053 0c70 01       		.byte	0x1
 7054 0c71 7A01     		.2byte	0x17a
 7055 0c73 A0010000 		.4byte	0x1a0
 7056 0c77 02       		.uleb128 0x2
 7057 0c78 91       		.byte	0x91
 7058 0c79 62       		.sleb128 -30
 7059 0c7a 29       		.uleb128 0x29
 7060 0c7b 4A0C0000 		.4byte	.LASF158
 7061 0c7f 01       		.byte	0x1
 7062 0c80 7A01     		.2byte	0x17a
 7063 0c82 A0010000 		.4byte	0x1a0
 7064 0c86 02       		.uleb128 0x2
 7065 0c87 91       		.byte	0x91
 7066 0c88 60       		.sleb128 -32
 7067 0c89 1E       		.uleb128 0x1e
 7068 0c8a 5A000000 		.4byte	.LVL91
 7069 0c8e A6050000 		.4byte	0x5a6
 7070 0c92 1D       		.uleb128 0x1d
 7071 0c93 01       		.uleb128 0x1
 7072 0c94 51       		.byte	0x51
 7073 0c95 02       		.uleb128 0x2
 7074 0c96 91       		.byte	0x91
 7075 0c97 5E       		.sleb128 -34
 7076 0c98 1D       		.uleb128 0x1d
 7077 0c99 01       		.uleb128 0x1
 7078 0c9a 52       		.byte	0x52
 7079 0c9b 02       		.uleb128 0x2
 7080 0c9c 91       		.byte	0x91
 7081 0c9d 5C       		.sleb128 -36
 7082 0c9e 1D       		.uleb128 0x1d
 7083 0c9f 01       		.uleb128 0x1
 7084 0ca0 53       		.byte	0x53
 7085 0ca1 02       		.uleb128 0x2
 7086 0ca2 91       		.byte	0x91
 7087 0ca3 66       		.sleb128 -26
 7088 0ca4 1D       		.uleb128 0x1d
 7089 0ca5 02       		.uleb128 0x2
 7090 0ca6 7D       		.byte	0x7d
 7091 0ca7 00       		.sleb128 0
 7092 0ca8 02       		.uleb128 0x2
 7093 0ca9 91       		.byte	0x91
 7094 0caa 64       		.sleb128 -28
 7095 0cab 1D       		.uleb128 0x1d
 7096 0cac 02       		.uleb128 0x2
 7097 0cad 7D       		.byte	0x7d
 7098 0cae 04       		.sleb128 4
ARM GAS  C:\Users\MATEOC~1.QUE\AppData\Local\Temp\ccxtWYOp.s 			page 148


 7099 0caf 02       		.uleb128 0x2
 7100 0cb0 91       		.byte	0x91
 7101 0cb1 62       		.sleb128 -30
 7102 0cb2 1D       		.uleb128 0x1d
 7103 0cb3 02       		.uleb128 0x2
 7104 0cb4 7D       		.byte	0x7d
 7105 0cb5 08       		.sleb128 8
 7106 0cb6 02       		.uleb128 0x2
 7107 0cb7 91       		.byte	0x91
 7108 0cb8 60       		.sleb128 -32
 7109 0cb9 00       		.byte	0
 7110 0cba 00       		.byte	0
 7111 0cbb 04       		.uleb128 0x4
 7112 0cbc 04       		.byte	0x4
 7113 0cbd 4C000000 		.4byte	0x4c
 7114 0cc1 26       		.uleb128 0x26
 7115 0cc2 B0000000 		.4byte	.LASF181
 7116 0cc6 01       		.byte	0x1
 7117 0cc7 0402     		.2byte	0x204
 7118 0cc9 00000000 		.4byte	.LFB26
 7119 0ccd 8C000000 		.4byte	.LFE26-.LFB26
 7120 0cd1 01       		.uleb128 0x1
 7121 0cd2 9C       		.byte	0x9c
 7122 0cd3 990D0000 		.4byte	0xd99
 7123 0cd7 12       		.uleb128 0x12
 7124 0cd8 7800     		.ascii	"x\000"
 7125 0cda 01       		.byte	0x1
 7126 0cdb 0402     		.2byte	0x204
 7127 0cdd A0010000 		.4byte	0x1a0
 7128 0ce1 E2050000 		.4byte	.LLST40
 7129 0ce5 12       		.uleb128 0x12
 7130 0ce6 7900     		.ascii	"y\000"
 7131 0ce8 01       		.byte	0x1
 7132 0ce9 0402     		.2byte	0x204
 7133 0ceb A0010000 		.4byte	0x1a0
 7134 0cef 24060000 		.4byte	.LLST41
 7135 0cf3 12       		.uleb128 0x12
 7136 0cf4 7700     		.ascii	"w\000"
 7137 0cf6 01       		.byte	0x1
 7138 0cf7 0402     		.2byte	0x204
 7139 0cf9 A0010000 		.4byte	0x1a0
 7140 0cfd 5B060000 		.4byte	.LLST42
 7141 0d01 12       		.uleb128 0x12
 7142 0d02 6800     		.ascii	"h\000"
 7143 0d04 01       		.byte	0x1
 7144 0d05 0402     		.2byte	0x204
 7145 0d07 A0010000 		.4byte	0x1a0
 7146 0d0b 87060000 		.4byte	.LLST43
 7147 0d0f 13       		.uleb128 0x13
 7148 0d10 7F080000 		.4byte	.LASF182
 7149 0d14 01       		.byte	0x1
 7150 0d15 0402     		.2byte	0x204
 7151 0d17 B6010000 		.4byte	0x1b6
 7152 0d1b B3060000 		.4byte	.LLST44
 7153 0d1f 17       		.uleb128 0x17
 7154 0d20 686900   		.ascii	"hi\000"
 7155 0d23 01       		.byte	0x1
ARM GAS  C:\Users\MATEOC~1.QUE\AppData\Local\Temp\ccxtWYOp.s 			page 149


 7156 0d24 0E02     		.2byte	0x20e
 7157 0d26 33000000 		.4byte	0x33
 7158 0d2a D3060000 		.4byte	.LLST45
 7159 0d2e 17       		.uleb128 0x17
 7160 0d2f 6C6F00   		.ascii	"lo\000"
 7161 0d32 01       		.byte	0x1
 7162 0d33 0E02     		.2byte	0x20e
 7163 0d35 33000000 		.4byte	0x33
 7164 0d39 E6060000 		.4byte	.LLST46
 7165 0d3d 1A       		.uleb128 0x1a
 7166 0d3e 450B0000 		.4byte	.LASF161
 7167 0d42 01       		.byte	0x1
 7168 0d43 9B       		.byte	0x9b
 7169 0d44 7A010000 		.4byte	0x17a
 7170 0d48 4E0D0000 		.4byte	0xd4e
 7171 0d4c 1B       		.uleb128 0x1b
 7172 0d4d 00       		.byte	0
 7173 0d4e 1F       		.uleb128 0x1f
 7174 0d4f 52000000 		.4byte	.LVL103
 7175 0d53 27080000 		.4byte	0x827
 7176 0d57 1C       		.uleb128 0x1c
 7177 0d58 5C000000 		.4byte	.LVL106
 7178 0d5c 38270000 		.4byte	0x2738
 7179 0d60 6A0D0000 		.4byte	0xd6a
 7180 0d64 1D       		.uleb128 0x1d
 7181 0d65 01       		.uleb128 0x1
 7182 0d66 50       		.byte	0x50
 7183 0d67 01       		.uleb128 0x1
 7184 0d68 31       		.byte	0x31
 7185 0d69 00       		.byte	0
 7186 0d6a 1C       		.uleb128 0x1c
 7187 0d6b 66000000 		.4byte	.LVL108
 7188 0d6f B9070000 		.4byte	0x7b9
 7189 0d73 830D0000 		.4byte	0xd83
 7190 0d77 1D       		.uleb128 0x1d
 7191 0d78 01       		.uleb128 0x1
 7192 0d79 50       		.byte	0x50
 7193 0d7a 01       		.uleb128 0x1
 7194 0d7b 32       		.byte	0x32
 7195 0d7c 1D       		.uleb128 0x1d
 7196 0d7d 01       		.uleb128 0x1
 7197 0d7e 51       		.byte	0x51
 7198 0d7f 02       		.uleb128 0x2
 7199 0d80 76       		.byte	0x76
 7200 0d81 00       		.sleb128 0
 7201 0d82 00       		.byte	0
 7202 0d83 1E       		.uleb128 0x1e
 7203 0d84 6E000000 		.4byte	.LVL109
 7204 0d88 B9070000 		.4byte	0x7b9
 7205 0d8c 1D       		.uleb128 0x1d
 7206 0d8d 01       		.uleb128 0x1
 7207 0d8e 50       		.byte	0x50
 7208 0d8f 01       		.uleb128 0x1
 7209 0d90 32       		.byte	0x32
 7210 0d91 1D       		.uleb128 0x1d
 7211 0d92 01       		.uleb128 0x1
 7212 0d93 51       		.byte	0x51
ARM GAS  C:\Users\MATEOC~1.QUE\AppData\Local\Temp\ccxtWYOp.s 			page 150


 7213 0d94 02       		.uleb128 0x2
 7214 0d95 75       		.byte	0x75
 7215 0d96 00       		.sleb128 0
 7216 0d97 00       		.byte	0
 7217 0d98 00       		.byte	0
 7218 0d99 26       		.uleb128 0x26
 7219 0d9a 93060000 		.4byte	.LASF183
 7220 0d9e 01       		.byte	0x1
 7221 0d9f FE01     		.2byte	0x1fe
 7222 0da1 00000000 		.4byte	.LFB24
 7223 0da5 24000000 		.4byte	.LFE24-.LFB24
 7224 0da9 01       		.uleb128 0x1
 7225 0daa 9C       		.byte	0x9c
 7226 0dab D40D0000 		.4byte	0xdd4
 7227 0daf 13       		.uleb128 0x13
 7228 0db0 7F080000 		.4byte	.LASF182
 7229 0db4 01       		.byte	0x1
 7230 0db5 FE01     		.2byte	0x1fe
 7231 0db7 B6010000 		.4byte	0x1b6
 7232 0dbb F9060000 		.4byte	.LLST47
 7233 0dbf 1E       		.uleb128 0x1e
 7234 0dc0 18000000 		.4byte	.LVL120
 7235 0dc4 C10C0000 		.4byte	0xcc1
 7236 0dc8 1D       		.uleb128 0x1d
 7237 0dc9 01       		.uleb128 0x1
 7238 0dca 50       		.byte	0x50
 7239 0dcb 01       		.uleb128 0x1
 7240 0dcc 30       		.byte	0x30
 7241 0dcd 1D       		.uleb128 0x1d
 7242 0dce 01       		.uleb128 0x1
 7243 0dcf 51       		.byte	0x51
 7244 0dd0 01       		.uleb128 0x1
 7245 0dd1 30       		.byte	0x30
 7246 0dd2 00       		.byte	0
 7247 0dd3 00       		.byte	0
 7248 0dd4 2A       		.uleb128 0x2a
 7249 0dd5 7F0A0000 		.4byte	.LASF253
 7250 0dd9 01       		.byte	0x1
 7251 0dda C1       		.byte	0xc1
 7252 0ddb 00000000 		.4byte	.LFB5
 7253 0ddf E4000000 		.4byte	.LFE5-.LFB5
 7254 0de3 01       		.uleb128 0x1
 7255 0de4 9C       		.byte	0x9c
 7256 0de5 AC0F0000 		.4byte	0xfac
 7257 0de9 1A       		.uleb128 0x1a
 7258 0dea FA070000 		.4byte	.LASF184
 7259 0dee 01       		.byte	0x1
 7260 0def D6       		.byte	0xd6
 7261 0df0 7A010000 		.4byte	0x17a
 7262 0df4 FA0D0000 		.4byte	0xdfa
 7263 0df8 1B       		.uleb128 0x1b
 7264 0df9 00       		.byte	0
 7265 0dfa 1A       		.uleb128 0x1a
 7266 0dfb A9070000 		.4byte	.LASF185
 7267 0dff 01       		.byte	0x1
 7268 0e00 D9       		.byte	0xd9
 7269 0e01 7A010000 		.4byte	0x17a
ARM GAS  C:\Users\MATEOC~1.QUE\AppData\Local\Temp\ccxtWYOp.s 			page 151


 7270 0e05 0B0E0000 		.4byte	0xe0b
 7271 0e09 1B       		.uleb128 0x1b
 7272 0e0a 00       		.byte	0
 7273 0e0b 1A       		.uleb128 0x1a
 7274 0e0c 8A050000 		.4byte	.LASF186
 7275 0e10 01       		.byte	0x1
 7276 0e11 DA       		.byte	0xda
 7277 0e12 7A010000 		.4byte	0x17a
 7278 0e16 1C0E0000 		.4byte	0xe1c
 7279 0e1a 1B       		.uleb128 0x1b
 7280 0e1b 00       		.byte	0
 7281 0e1c 19       		.uleb128 0x19
 7282 0e1d 8A0B0000 		.4byte	.LASF187
 7283 0e21 01       		.byte	0x1
 7284 0e22 E9       		.byte	0xe9
 7285 0e23 62020000 		.4byte	0x262
 7286 0e27 1A070000 		.4byte	.LLST48
 7287 0e2b 19       		.uleb128 0x19
 7288 0e2c 940B0000 		.4byte	.LASF188
 7289 0e30 01       		.byte	0x1
 7290 0e31 EA       		.byte	0xea
 7291 0e32 33000000 		.4byte	0x33
 7292 0e36 6B070000 		.4byte	.LLST49
 7293 0e3a 19       		.uleb128 0x19
 7294 0e3b 49020000 		.4byte	.LASF189
 7295 0e3f 01       		.byte	0x1
 7296 0e40 EA       		.byte	0xea
 7297 0e41 33000000 		.4byte	0x33
 7298 0e45 A0070000 		.4byte	.LLST50
 7299 0e49 1A       		.uleb128 0x1a
 7300 0e4a 13040000 		.4byte	.LASF190
 7301 0e4e 01       		.byte	0x1
 7302 0e4f FB       		.byte	0xfb
 7303 0e50 7A010000 		.4byte	0x17a
 7304 0e54 5A0E0000 		.4byte	0xe5a
 7305 0e58 1B       		.uleb128 0x1b
 7306 0e59 00       		.byte	0
 7307 0e5a 1A       		.uleb128 0x1a
 7308 0e5b EB020000 		.4byte	.LASF167
 7309 0e5f 01       		.byte	0x1
 7310 0e60 FC       		.byte	0xfc
 7311 0e61 7A010000 		.4byte	0x17a
 7312 0e65 6B0E0000 		.4byte	0xe6b
 7313 0e69 1B       		.uleb128 0x1b
 7314 0e6a 00       		.byte	0
 7315 0e6b 1F       		.uleb128 0x1f
 7316 0e6c 4A000000 		.4byte	.LVL121
 7317 0e70 70270000 		.4byte	0x2770
 7318 0e74 1C       		.uleb128 0x1c
 7319 0e75 50000000 		.4byte	.LVL122
 7320 0e79 7B270000 		.4byte	0x277b
 7321 0e7d 880E0000 		.4byte	0xe88
 7322 0e81 1D       		.uleb128 0x1d
 7323 0e82 01       		.uleb128 0x1
 7324 0e83 50       		.byte	0x50
 7325 0e84 02       		.uleb128 0x2
 7326 0e85 75       		.byte	0x75
ARM GAS  C:\Users\MATEOC~1.QUE\AppData\Local\Temp\ccxtWYOp.s 			page 152


 7327 0e86 00       		.sleb128 0
 7328 0e87 00       		.byte	0
 7329 0e88 1C       		.uleb128 0x1c
 7330 0e89 56000000 		.4byte	.LVL123
 7331 0e8d 86270000 		.4byte	0x2786
 7332 0e91 9C0E0000 		.4byte	0xe9c
 7333 0e95 1D       		.uleb128 0x1d
 7334 0e96 01       		.uleb128 0x1
 7335 0e97 50       		.byte	0x50
 7336 0e98 02       		.uleb128 0x2
 7337 0e99 08       		.byte	0x8
 7338 0e9a 64       		.byte	0x64
 7339 0e9b 00       		.byte	0
 7340 0e9c 1C       		.uleb128 0x1c
 7341 0e9d 5C000000 		.4byte	.LVL124
 7342 0ea1 7B270000 		.4byte	0x277b
 7343 0ea5 B00E0000 		.4byte	0xeb0
 7344 0ea9 1D       		.uleb128 0x1d
 7345 0eaa 01       		.uleb128 0x1
 7346 0eab 50       		.byte	0x50
 7347 0eac 02       		.uleb128 0x2
 7348 0ead 74       		.byte	0x74
 7349 0eae 00       		.sleb128 0
 7350 0eaf 00       		.byte	0
 7351 0eb0 1C       		.uleb128 0x1c
 7352 0eb1 62000000 		.4byte	.LVL125
 7353 0eb5 86270000 		.4byte	0x2786
 7354 0eb9 C40E0000 		.4byte	0xec4
 7355 0ebd 1D       		.uleb128 0x1d
 7356 0ebe 01       		.uleb128 0x1
 7357 0ebf 50       		.byte	0x50
 7358 0ec0 02       		.uleb128 0x2
 7359 0ec1 08       		.byte	0x8
 7360 0ec2 64       		.byte	0x64
 7361 0ec3 00       		.byte	0
 7362 0ec4 1C       		.uleb128 0x1c
 7363 0ec5 68000000 		.4byte	.LVL126
 7364 0ec9 7B270000 		.4byte	0x277b
 7365 0ecd D80E0000 		.4byte	0xed8
 7366 0ed1 1D       		.uleb128 0x1d
 7367 0ed2 01       		.uleb128 0x1
 7368 0ed3 50       		.byte	0x50
 7369 0ed4 02       		.uleb128 0x2
 7370 0ed5 75       		.byte	0x75
 7371 0ed6 00       		.sleb128 0
 7372 0ed7 00       		.byte	0
 7373 0ed8 1C       		.uleb128 0x1c
 7374 0ed9 6E000000 		.4byte	.LVL127
 7375 0edd 86270000 		.4byte	0x2786
 7376 0ee1 EB0E0000 		.4byte	0xeeb
 7377 0ee5 1D       		.uleb128 0x1d
 7378 0ee6 01       		.uleb128 0x1
 7379 0ee7 50       		.byte	0x50
 7380 0ee8 01       		.uleb128 0x1
 7381 0ee9 44       		.byte	0x44
 7382 0eea 00       		.byte	0
 7383 0eeb 1C       		.uleb128 0x1c
ARM GAS  C:\Users\MATEOC~1.QUE\AppData\Local\Temp\ccxtWYOp.s 			page 153


 7384 0eec 76000000 		.4byte	.LVL128
 7385 0ef0 B9070000 		.4byte	0x7b9
 7386 0ef4 050F0000 		.4byte	0xf05
 7387 0ef8 1D       		.uleb128 0x1d
 7388 0ef9 01       		.uleb128 0x1
 7389 0efa 50       		.byte	0x50
 7390 0efb 02       		.uleb128 0x2
 7391 0efc 74       		.byte	0x74
 7392 0efd 00       		.sleb128 0
 7393 0efe 1D       		.uleb128 0x1d
 7394 0eff 01       		.uleb128 0x1
 7395 0f00 51       		.byte	0x51
 7396 0f01 02       		.uleb128 0x2
 7397 0f02 75       		.byte	0x75
 7398 0f03 00       		.sleb128 0
 7399 0f04 00       		.byte	0
 7400 0f05 1C       		.uleb128 0x1c
 7401 0f06 7C000000 		.4byte	.LVL129
 7402 0f0a 86270000 		.4byte	0x2786
 7403 0f0e 190F0000 		.4byte	0xf19
 7404 0f12 1D       		.uleb128 0x1d
 7405 0f13 01       		.uleb128 0x1
 7406 0f14 50       		.byte	0x50
 7407 0f15 02       		.uleb128 0x2
 7408 0f16 08       		.byte	0x8
 7409 0f17 32       		.byte	0x32
 7410 0f18 00       		.byte	0
 7411 0f19 1C       		.uleb128 0x1c
 7412 0f1a 84000000 		.4byte	.LVL130
 7413 0f1e B9070000 		.4byte	0x7b9
 7414 0f22 320F0000 		.4byte	0xf32
 7415 0f26 1D       		.uleb128 0x1d
 7416 0f27 01       		.uleb128 0x1
 7417 0f28 50       		.byte	0x50
 7418 0f29 02       		.uleb128 0x2
 7419 0f2a 74       		.byte	0x74
 7420 0f2b 00       		.sleb128 0
 7421 0f2c 1D       		.uleb128 0x1d
 7422 0f2d 01       		.uleb128 0x1
 7423 0f2e 51       		.byte	0x51
 7424 0f2f 01       		.uleb128 0x1
 7425 0f30 41       		.byte	0x41
 7426 0f31 00       		.byte	0
 7427 0f32 1C       		.uleb128 0x1c
 7428 0f33 8A000000 		.4byte	.LVL131
 7429 0f37 86270000 		.4byte	0x2786
 7430 0f3b 460F0000 		.4byte	0xf46
 7431 0f3f 1D       		.uleb128 0x1d
 7432 0f40 01       		.uleb128 0x1
 7433 0f41 50       		.byte	0x50
 7434 0f42 02       		.uleb128 0x2
 7435 0f43 08       		.byte	0x8
 7436 0f44 78       		.byte	0x78
 7437 0f45 00       		.byte	0
 7438 0f46 1C       		.uleb128 0x1c
 7439 0f47 9C000000 		.4byte	.LVL133
 7440 0f4b B9070000 		.4byte	0x7b9
ARM GAS  C:\Users\MATEOC~1.QUE\AppData\Local\Temp\ccxtWYOp.s 			page 154


 7441 0f4f 590F0000 		.4byte	0xf59
 7442 0f53 1D       		.uleb128 0x1d
 7443 0f54 01       		.uleb128 0x1
 7444 0f55 50       		.byte	0x50
 7445 0f56 01       		.uleb128 0x1
 7446 0f57 30       		.byte	0x30
 7447 0f58 00       		.byte	0
 7448 0f59 1C       		.uleb128 0x1c
 7449 0f5a AC000000 		.4byte	.LVL137
 7450 0f5e B9070000 		.4byte	0x7b9
 7451 0f62 6C0F0000 		.4byte	0xf6c
 7452 0f66 1D       		.uleb128 0x1d
 7453 0f67 01       		.uleb128 0x1
 7454 0f68 50       		.byte	0x50
 7455 0f69 01       		.uleb128 0x1
 7456 0f6a 31       		.byte	0x31
 7457 0f6b 00       		.byte	0
 7458 0f6c 1C       		.uleb128 0x1c
 7459 0f6d C8000000 		.4byte	.LVL142
 7460 0f71 E0090000 		.4byte	0x9e0
 7461 0f75 7F0F0000 		.4byte	0xf7f
 7462 0f79 1D       		.uleb128 0x1d
 7463 0f7a 01       		.uleb128 0x1
 7464 0f7b 50       		.byte	0x50
 7465 0f7c 01       		.uleb128 0x1
 7466 0f7d 32       		.byte	0x32
 7467 0f7e 00       		.byte	0
 7468 0f7f 1C       		.uleb128 0x1c
 7469 0f80 CE000000 		.4byte	.LVL143
 7470 0f84 990D0000 		.4byte	0xd99
 7471 0f88 920F0000 		.4byte	0xf92
 7472 0f8c 1D       		.uleb128 0x1d
 7473 0f8d 01       		.uleb128 0x1
 7474 0f8e 50       		.byte	0x50
 7475 0f8f 01       		.uleb128 0x1
 7476 0f90 30       		.byte	0x30
 7477 0f91 00       		.byte	0
 7478 0f92 1F       		.uleb128 0x1f
 7479 0f93 D2000000 		.4byte	.LVL144
 7480 0f97 91270000 		.4byte	0x2791
 7481 0f9b 1E       		.uleb128 0x1e
 7482 0f9c D8000000 		.4byte	.LVL145
 7483 0fa0 59270000 		.4byte	0x2759
 7484 0fa4 1D       		.uleb128 0x1d
 7485 0fa5 01       		.uleb128 0x1
 7486 0fa6 50       		.byte	0x50
 7487 0fa7 02       		.uleb128 0x2
 7488 0fa8 08       		.byte	0x8
 7489 0fa9 64       		.byte	0x64
 7490 0faa 00       		.byte	0
 7491 0fab 00       		.byte	0
 7492 0fac 26       		.uleb128 0x26
 7493 0fad 9A010000 		.4byte	.LASF191
 7494 0fb1 01       		.byte	0x1
 7495 0fb2 0202     		.2byte	0x202
 7496 0fb4 00000000 		.4byte	.LFB25
 7497 0fb8 0C000000 		.4byte	.LFE25-.LFB25
ARM GAS  C:\Users\MATEOC~1.QUE\AppData\Local\Temp\ccxtWYOp.s 			page 155


 7498 0fbc 01       		.uleb128 0x1
 7499 0fbd 9C       		.byte	0x9c
 7500 0fbe D50F0000 		.4byte	0xfd5
 7501 0fc2 1F       		.uleb128 0x1f
 7502 0fc3 06000000 		.4byte	.LVL147
 7503 0fc7 370B0000 		.4byte	0xb37
 7504 0fcb 1F       		.uleb128 0x1f
 7505 0fcc 0A000000 		.4byte	.LVL148
 7506 0fd0 990D0000 		.4byte	0xd99
 7507 0fd4 00       		.byte	0
 7508 0fd5 26       		.uleb128 0x26
 7509 0fd6 44090000 		.4byte	.LASF192
 7510 0fda 01       		.byte	0x1
 7511 0fdb 1902     		.2byte	0x219
 7512 0fdd 00000000 		.4byte	.LFB27
 7513 0fe1 50000000 		.4byte	.LFE27-.LFB27
 7514 0fe5 01       		.uleb128 0x1
 7515 0fe6 9C       		.byte	0x9c
 7516 0fe7 8D100000 		.4byte	0x108d
 7517 0feb 12       		.uleb128 0x12
 7518 0fec 7800     		.ascii	"x\000"
 7519 0fee 01       		.byte	0x1
 7520 0fef 1902     		.2byte	0x219
 7521 0ff1 A0010000 		.4byte	0x1a0
 7522 0ff5 D4070000 		.4byte	.LLST51
 7523 0ff9 12       		.uleb128 0x12
 7524 0ffa 7900     		.ascii	"y\000"
 7525 0ffc 01       		.byte	0x1
 7526 0ffd 1902     		.2byte	0x219
 7527 0fff A0010000 		.4byte	0x1a0
 7528 1003 F5070000 		.4byte	.LLST52
 7529 1007 13       		.uleb128 0x13
 7530 1008 7F080000 		.4byte	.LASF182
 7531 100c 01       		.byte	0x1
 7532 100d 1902     		.2byte	0x219
 7533 100f B6010000 		.4byte	0x1b6
 7534 1013 21080000 		.4byte	.LLST53
 7535 1017 1A       		.uleb128 0x1a
 7536 1018 450B0000 		.4byte	.LASF161
 7537 101c 01       		.byte	0x1
 7538 101d 9B       		.byte	0x9b
 7539 101e 7A010000 		.4byte	0x17a
 7540 1022 28100000 		.4byte	0x1028
 7541 1026 1B       		.uleb128 0x1b
 7542 1027 00       		.byte	0
 7543 1028 1C       		.uleb128 0x1c
 7544 1029 30000000 		.4byte	.LVL153
 7545 102d 27080000 		.4byte	0x827
 7546 1031 49100000 		.4byte	0x1049
 7547 1035 1D       		.uleb128 0x1d
 7548 1036 01       		.uleb128 0x1
 7549 1037 51       		.byte	0x51
 7550 1038 03       		.uleb128 0x3
 7551 1039 F3       		.byte	0xf3
 7552 103a 01       		.uleb128 0x1
 7553 103b 51       		.byte	0x51
 7554 103c 1D       		.uleb128 0x1d
ARM GAS  C:\Users\MATEOC~1.QUE\AppData\Local\Temp\ccxtWYOp.s 			page 156


 7555 103d 01       		.uleb128 0x1
 7556 103e 53       		.byte	0x53
 7557 103f 08       		.uleb128 0x8
 7558 1040 F3       		.byte	0xf3
 7559 1041 01       		.uleb128 0x1
 7560 1042 51       		.byte	0x51
 7561 1043 08       		.byte	0x8
 7562 1044 FF       		.byte	0xff
 7563 1045 1A       		.byte	0x1a
 7564 1046 23       		.byte	0x23
 7565 1047 01       		.uleb128 0x1
 7566 1048 00       		.byte	0
 7567 1049 1C       		.uleb128 0x1c
 7568 104a 36000000 		.4byte	.LVL154
 7569 104e 38270000 		.4byte	0x2738
 7570 1052 5C100000 		.4byte	0x105c
 7571 1056 1D       		.uleb128 0x1d
 7572 1057 01       		.uleb128 0x1
 7573 1058 50       		.byte	0x50
 7574 1059 01       		.uleb128 0x1
 7575 105a 31       		.byte	0x31
 7576 105b 00       		.byte	0
 7577 105c 1C       		.uleb128 0x1c
 7578 105d 3E000000 		.4byte	.LVL155
 7579 1061 B9070000 		.4byte	0x7b9
 7580 1065 77100000 		.4byte	0x1077
 7581 1069 1D       		.uleb128 0x1d
 7582 106a 01       		.uleb128 0x1
 7583 106b 50       		.byte	0x50
 7584 106c 01       		.uleb128 0x1
 7585 106d 32       		.byte	0x32
 7586 106e 1D       		.uleb128 0x1d
 7587 106f 01       		.uleb128 0x1
 7588 1070 51       		.byte	0x51
 7589 1071 04       		.uleb128 0x4
 7590 1072 74       		.byte	0x74
 7591 1073 00       		.sleb128 0
 7592 1074 38       		.byte	0x38
 7593 1075 25       		.byte	0x25
 7594 1076 00       		.byte	0
 7595 1077 1E       		.uleb128 0x1e
 7596 1078 46000000 		.4byte	.LVL156
 7597 107c B9070000 		.4byte	0x7b9
 7598 1080 1D       		.uleb128 0x1d
 7599 1081 01       		.uleb128 0x1
 7600 1082 50       		.byte	0x50
 7601 1083 01       		.uleb128 0x1
 7602 1084 32       		.byte	0x32
 7603 1085 1D       		.uleb128 0x1d
 7604 1086 01       		.uleb128 0x1
 7605 1087 51       		.byte	0x51
 7606 1088 02       		.uleb128 0x2
 7607 1089 74       		.byte	0x74
 7608 108a 00       		.sleb128 0
 7609 108b 00       		.byte	0
 7610 108c 00       		.byte	0
 7611 108d 11       		.uleb128 0x11
ARM GAS  C:\Users\MATEOC~1.QUE\AppData\Local\Temp\ccxtWYOp.s 			page 157


 7612 108e 56050000 		.4byte	.LASF193
 7613 1092 01       		.byte	0x1
 7614 1093 9402     		.2byte	0x294
 7615 1095 00000000 		.4byte	.LFB33
 7616 1099 3C010000 		.4byte	.LFE33-.LFB33
 7617 109d 01       		.uleb128 0x1
 7618 109e 9C       		.byte	0x9c
 7619 109f 74120000 		.4byte	0x1274
 7620 10a3 12       		.uleb128 0x12
 7621 10a4 783000   		.ascii	"x0\000"
 7622 10a7 01       		.byte	0x1
 7623 10a8 9402     		.2byte	0x294
 7624 10aa A0010000 		.4byte	0x1a0
 7625 10ae 4D080000 		.4byte	.LLST54
 7626 10b2 12       		.uleb128 0x12
 7627 10b3 793000   		.ascii	"y0\000"
 7628 10b6 01       		.byte	0x1
 7629 10b7 9402     		.2byte	0x294
 7630 10b9 A0010000 		.4byte	0x1a0
 7631 10bd 6E080000 		.4byte	.LLST55
 7632 10c1 12       		.uleb128 0x12
 7633 10c2 7200     		.ascii	"r\000"
 7634 10c4 01       		.byte	0x1
 7635 10c5 9402     		.2byte	0x294
 7636 10c7 A0010000 		.4byte	0x1a0
 7637 10cb 8F080000 		.4byte	.LLST56
 7638 10cf 13       		.uleb128 0x13
 7639 10d0 E60B0000 		.4byte	.LASF194
 7640 10d4 01       		.byte	0x1
 7641 10d5 9402     		.2byte	0x294
 7642 10d7 33000000 		.4byte	0x33
 7643 10db B0080000 		.4byte	.LLST57
 7644 10df 2B       		.uleb128 0x2b
 7645 10e0 7F080000 		.4byte	.LASF182
 7646 10e4 01       		.byte	0x1
 7647 10e5 9402     		.2byte	0x294
 7648 10e7 B6010000 		.4byte	0x1b6
 7649 10eb 02       		.uleb128 0x2
 7650 10ec 91       		.byte	0x91
 7651 10ed 00       		.sleb128 0
 7652 10ee 17       		.uleb128 0x17
 7653 10ef 6600     		.ascii	"f\000"
 7654 10f1 01       		.byte	0x1
 7655 10f2 9502     		.2byte	0x295
 7656 10f4 A0010000 		.4byte	0x1a0
 7657 10f8 D1080000 		.4byte	.LLST58
 7658 10fc 15       		.uleb128 0x15
 7659 10fd 070C0000 		.4byte	.LASF195
 7660 1101 01       		.byte	0x1
 7661 1102 9602     		.2byte	0x296
 7662 1104 A0010000 		.4byte	0x1a0
 7663 1108 FA080000 		.4byte	.LLST59
 7664 110c 29       		.uleb128 0x29
 7665 110d 0D0C0000 		.4byte	.LASF196
 7666 1111 01       		.byte	0x1
 7667 1112 9702     		.2byte	0x297
 7668 1114 A0010000 		.4byte	0x1a0
ARM GAS  C:\Users\MATEOC~1.QUE\AppData\Local\Temp\ccxtWYOp.s 			page 158


 7669 1118 02       		.uleb128 0x2
 7670 1119 91       		.byte	0x91
 7671 111a 4C       		.sleb128 -52
 7672 111b 17       		.uleb128 0x17
 7673 111c 7800     		.ascii	"x\000"
 7674 111e 01       		.byte	0x1
 7675 111f 9802     		.2byte	0x298
 7676 1121 A0010000 		.4byte	0x1a0
 7677 1125 1A090000 		.4byte	.LLST60
 7678 1129 17       		.uleb128 0x17
 7679 112a 7900     		.ascii	"y\000"
 7680 112c 01       		.byte	0x1
 7681 112d 9902     		.2byte	0x299
 7682 112f A0010000 		.4byte	0x1a0
 7683 1133 44090000 		.4byte	.LLST61
 7684 1137 1C       		.uleb128 0x1c
 7685 1138 84000000 		.4byte	.LVL174
 7686 113c D50F0000 		.4byte	0xfd5
 7687 1140 5F110000 		.4byte	0x115f
 7688 1144 1D       		.uleb128 0x1d
 7689 1145 01       		.uleb128 0x1
 7690 1146 50       		.byte	0x50
 7691 1147 05       		.uleb128 0x5
 7692 1148 75       		.byte	0x75
 7693 1149 00       		.sleb128 0
 7694 114a 7B       		.byte	0x7b
 7695 114b 00       		.sleb128 0
 7696 114c 22       		.byte	0x22
 7697 114d 1D       		.uleb128 0x1d
 7698 114e 01       		.uleb128 0x1
 7699 114f 51       		.byte	0x51
 7700 1150 05       		.uleb128 0x5
 7701 1151 76       		.byte	0x76
 7702 1152 00       		.sleb128 0
 7703 1153 7A       		.byte	0x7a
 7704 1154 00       		.sleb128 0
 7705 1155 22       		.byte	0x22
 7706 1156 1D       		.uleb128 0x1d
 7707 1157 01       		.uleb128 0x1
 7708 1158 52       		.byte	0x52
 7709 1159 04       		.uleb128 0x4
 7710 115a 91       		.byte	0x91
 7711 115b 44       		.sleb128 -60
 7712 115c 94       		.byte	0x94
 7713 115d 02       		.byte	0x2
 7714 115e 00       		.byte	0
 7715 115f 1C       		.uleb128 0x1c
 7716 1160 94000000 		.4byte	.LVL175
 7717 1164 D50F0000 		.4byte	0xfd5
 7718 1168 87110000 		.4byte	0x1187
 7719 116c 1D       		.uleb128 0x1d
 7720 116d 01       		.uleb128 0x1
 7721 116e 50       		.byte	0x50
 7722 116f 05       		.uleb128 0x5
 7723 1170 7B       		.byte	0x7b
 7724 1171 00       		.sleb128 0
 7725 1172 7A       		.byte	0x7a
ARM GAS  C:\Users\MATEOC~1.QUE\AppData\Local\Temp\ccxtWYOp.s 			page 159


 7726 1173 00       		.sleb128 0
 7727 1174 22       		.byte	0x22
 7728 1175 1D       		.uleb128 0x1d
 7729 1176 01       		.uleb128 0x1
 7730 1177 51       		.byte	0x51
 7731 1178 05       		.uleb128 0x5
 7732 1179 75       		.byte	0x75
 7733 117a 00       		.sleb128 0
 7734 117b 76       		.byte	0x76
 7735 117c 00       		.sleb128 0
 7736 117d 22       		.byte	0x22
 7737 117e 1D       		.uleb128 0x1d
 7738 117f 01       		.uleb128 0x1
 7739 1180 52       		.byte	0x52
 7740 1181 04       		.uleb128 0x4
 7741 1182 91       		.byte	0x91
 7742 1183 44       		.sleb128 -60
 7743 1184 94       		.byte	0x94
 7744 1185 02       		.byte	0x2
 7745 1186 00       		.byte	0
 7746 1187 1C       		.uleb128 0x1c
 7747 1188 B8000000 		.4byte	.LVL176
 7748 118c D50F0000 		.4byte	0xfd5
 7749 1190 AF110000 		.4byte	0x11af
 7750 1194 1D       		.uleb128 0x1d
 7751 1195 01       		.uleb128 0x1
 7752 1196 50       		.byte	0x50
 7753 1197 05       		.uleb128 0x5
 7754 1198 75       		.byte	0x75
 7755 1199 00       		.sleb128 0
 7756 119a 7B       		.byte	0x7b
 7757 119b 00       		.sleb128 0
 7758 119c 22       		.byte	0x22
 7759 119d 1D       		.uleb128 0x1d
 7760 119e 01       		.uleb128 0x1
 7761 119f 51       		.byte	0x51
 7762 11a0 05       		.uleb128 0x5
 7763 11a1 76       		.byte	0x76
 7764 11a2 00       		.sleb128 0
 7765 11a3 7A       		.byte	0x7a
 7766 11a4 00       		.sleb128 0
 7767 11a5 1C       		.byte	0x1c
 7768 11a6 1D       		.uleb128 0x1d
 7769 11a7 01       		.uleb128 0x1
 7770 11a8 52       		.byte	0x52
 7771 11a9 04       		.uleb128 0x4
 7772 11aa 91       		.byte	0x91
 7773 11ab 44       		.sleb128 -60
 7774 11ac 94       		.byte	0x94
 7775 11ad 02       		.byte	0x2
 7776 11ae 00       		.byte	0
 7777 11af 1C       		.uleb128 0x1c
 7778 11b0 C8000000 		.4byte	.LVL177
 7779 11b4 D50F0000 		.4byte	0xfd5
 7780 11b8 D7110000 		.4byte	0x11d7
 7781 11bc 1D       		.uleb128 0x1d
 7782 11bd 01       		.uleb128 0x1
ARM GAS  C:\Users\MATEOC~1.QUE\AppData\Local\Temp\ccxtWYOp.s 			page 160


 7783 11be 50       		.byte	0x50
 7784 11bf 05       		.uleb128 0x5
 7785 11c0 7B       		.byte	0x7b
 7786 11c1 00       		.sleb128 0
 7787 11c2 7A       		.byte	0x7a
 7788 11c3 00       		.sleb128 0
 7789 11c4 22       		.byte	0x22
 7790 11c5 1D       		.uleb128 0x1d
 7791 11c6 01       		.uleb128 0x1
 7792 11c7 51       		.byte	0x51
 7793 11c8 05       		.uleb128 0x5
 7794 11c9 76       		.byte	0x76
 7795 11ca 00       		.sleb128 0
 7796 11cb 75       		.byte	0x75
 7797 11cc 00       		.sleb128 0
 7798 11cd 1C       		.byte	0x1c
 7799 11ce 1D       		.uleb128 0x1d
 7800 11cf 01       		.uleb128 0x1
 7801 11d0 52       		.byte	0x52
 7802 11d1 04       		.uleb128 0x4
 7803 11d2 91       		.byte	0x91
 7804 11d3 44       		.sleb128 -60
 7805 11d4 94       		.byte	0x94
 7806 11d5 02       		.byte	0x2
 7807 11d6 00       		.byte	0
 7808 11d7 1C       		.uleb128 0x1c
 7809 11d8 EC000000 		.4byte	.LVL178
 7810 11dc D50F0000 		.4byte	0xfd5
 7811 11e0 FF110000 		.4byte	0x11ff
 7812 11e4 1D       		.uleb128 0x1d
 7813 11e5 01       		.uleb128 0x1
 7814 11e6 50       		.byte	0x50
 7815 11e7 05       		.uleb128 0x5
 7816 11e8 76       		.byte	0x76
 7817 11e9 00       		.sleb128 0
 7818 11ea 7B       		.byte	0x7b
 7819 11eb 00       		.sleb128 0
 7820 11ec 1C       		.byte	0x1c
 7821 11ed 1D       		.uleb128 0x1d
 7822 11ee 01       		.uleb128 0x1
 7823 11ef 51       		.byte	0x51
 7824 11f0 05       		.uleb128 0x5
 7825 11f1 75       		.byte	0x75
 7826 11f2 00       		.sleb128 0
 7827 11f3 7A       		.byte	0x7a
 7828 11f4 00       		.sleb128 0
 7829 11f5 22       		.byte	0x22
 7830 11f6 1D       		.uleb128 0x1d
 7831 11f7 01       		.uleb128 0x1
 7832 11f8 52       		.byte	0x52
 7833 11f9 04       		.uleb128 0x4
 7834 11fa 91       		.byte	0x91
 7835 11fb 44       		.sleb128 -60
 7836 11fc 94       		.byte	0x94
 7837 11fd 02       		.byte	0x2
 7838 11fe 00       		.byte	0
 7839 11ff 1C       		.uleb128 0x1c
ARM GAS  C:\Users\MATEOC~1.QUE\AppData\Local\Temp\ccxtWYOp.s 			page 161


 7840 1200 FC000000 		.4byte	.LVL179
 7841 1204 D50F0000 		.4byte	0xfd5
 7842 1208 27120000 		.4byte	0x1227
 7843 120c 1D       		.uleb128 0x1d
 7844 120d 01       		.uleb128 0x1
 7845 120e 50       		.byte	0x50
 7846 120f 05       		.uleb128 0x5
 7847 1210 76       		.byte	0x76
 7848 1211 00       		.sleb128 0
 7849 1212 75       		.byte	0x75
 7850 1213 00       		.sleb128 0
 7851 1214 1C       		.byte	0x1c
 7852 1215 1D       		.uleb128 0x1d
 7853 1216 01       		.uleb128 0x1
 7854 1217 51       		.byte	0x51
 7855 1218 05       		.uleb128 0x5
 7856 1219 7B       		.byte	0x7b
 7857 121a 00       		.sleb128 0
 7858 121b 7A       		.byte	0x7a
 7859 121c 00       		.sleb128 0
 7860 121d 22       		.byte	0x22
 7861 121e 1D       		.uleb128 0x1d
 7862 121f 01       		.uleb128 0x1
 7863 1220 52       		.byte	0x52
 7864 1221 04       		.uleb128 0x4
 7865 1222 91       		.byte	0x91
 7866 1223 44       		.sleb128 -60
 7867 1224 94       		.byte	0x94
 7868 1225 02       		.byte	0x2
 7869 1226 00       		.byte	0
 7870 1227 1C       		.uleb128 0x1c
 7871 1228 20010000 		.4byte	.LVL180
 7872 122c D50F0000 		.4byte	0xfd5
 7873 1230 4F120000 		.4byte	0x124f
 7874 1234 1D       		.uleb128 0x1d
 7875 1235 01       		.uleb128 0x1
 7876 1236 50       		.byte	0x50
 7877 1237 05       		.uleb128 0x5
 7878 1238 76       		.byte	0x76
 7879 1239 00       		.sleb128 0
 7880 123a 7B       		.byte	0x7b
 7881 123b 00       		.sleb128 0
 7882 123c 1C       		.byte	0x1c
 7883 123d 1D       		.uleb128 0x1d
 7884 123e 01       		.uleb128 0x1
 7885 123f 51       		.byte	0x51
 7886 1240 05       		.uleb128 0x5
 7887 1241 7A       		.byte	0x7a
 7888 1242 00       		.sleb128 0
 7889 1243 75       		.byte	0x75
 7890 1244 00       		.sleb128 0
 7891 1245 1C       		.byte	0x1c
 7892 1246 1D       		.uleb128 0x1d
 7893 1247 01       		.uleb128 0x1
 7894 1248 52       		.byte	0x52
 7895 1249 04       		.uleb128 0x4
 7896 124a 91       		.byte	0x91
ARM GAS  C:\Users\MATEOC~1.QUE\AppData\Local\Temp\ccxtWYOp.s 			page 162


 7897 124b 44       		.sleb128 -60
 7898 124c 94       		.byte	0x94
 7899 124d 02       		.byte	0x2
 7900 124e 00       		.byte	0
 7901 124f 1E       		.uleb128 0x1e
 7902 1250 30010000 		.4byte	.LVL181
 7903 1254 D50F0000 		.4byte	0xfd5
 7904 1258 1D       		.uleb128 0x1d
 7905 1259 01       		.uleb128 0x1
 7906 125a 50       		.byte	0x50
 7907 125b 05       		.uleb128 0x5
 7908 125c 76       		.byte	0x76
 7909 125d 00       		.sleb128 0
 7910 125e 75       		.byte	0x75
 7911 125f 00       		.sleb128 0
 7912 1260 1C       		.byte	0x1c
 7913 1261 1D       		.uleb128 0x1d
 7914 1262 01       		.uleb128 0x1
 7915 1263 51       		.byte	0x51
 7916 1264 05       		.uleb128 0x5
 7917 1265 7A       		.byte	0x7a
 7918 1266 00       		.sleb128 0
 7919 1267 7B       		.byte	0x7b
 7920 1268 00       		.sleb128 0
 7921 1269 1C       		.byte	0x1c
 7922 126a 1D       		.uleb128 0x1d
 7923 126b 01       		.uleb128 0x1
 7924 126c 52       		.byte	0x52
 7925 126d 04       		.uleb128 0x4
 7926 126e 91       		.byte	0x91
 7927 126f 44       		.sleb128 -60
 7928 1270 94       		.byte	0x94
 7929 1271 02       		.byte	0x2
 7930 1272 00       		.byte	0
 7931 1273 00       		.byte	0
 7932 1274 26       		.uleb128 0x26
 7933 1275 65010000 		.4byte	.LASF197
 7934 1279 01       		.byte	0x1
 7935 127a 2402     		.2byte	0x224
 7936 127c 00000000 		.4byte	.LFB28
 7937 1280 64000000 		.4byte	.LFE28-.LFB28
 7938 1284 01       		.uleb128 0x1
 7939 1285 9C       		.byte	0x9c
 7940 1286 3E130000 		.4byte	0x133e
 7941 128a 12       		.uleb128 0x12
 7942 128b 7800     		.ascii	"x\000"
 7943 128d 01       		.byte	0x1
 7944 128e 2402     		.2byte	0x224
 7945 1290 A0010000 		.4byte	0x1a0
 7946 1294 62090000 		.4byte	.LLST62
 7947 1298 12       		.uleb128 0x12
 7948 1299 7900     		.ascii	"y\000"
 7949 129b 01       		.byte	0x1
 7950 129c 2402     		.2byte	0x224
 7951 129e A0010000 		.4byte	0x1a0
 7952 12a2 83090000 		.4byte	.LLST63
 7953 12a6 12       		.uleb128 0x12
ARM GAS  C:\Users\MATEOC~1.QUE\AppData\Local\Temp\ccxtWYOp.s 			page 163


 7954 12a7 6800     		.ascii	"h\000"
 7955 12a9 01       		.byte	0x1
 7956 12aa 2402     		.2byte	0x224
 7957 12ac A0010000 		.4byte	0x1a0
 7958 12b0 A4090000 		.4byte	.LLST64
 7959 12b4 13       		.uleb128 0x13
 7960 12b5 7F080000 		.4byte	.LASF182
 7961 12b9 01       		.byte	0x1
 7962 12ba 2402     		.2byte	0x224
 7963 12bc B6010000 		.4byte	0x1b6
 7964 12c0 F1090000 		.4byte	.LLST65
 7965 12c4 17       		.uleb128 0x17
 7966 12c5 686900   		.ascii	"hi\000"
 7967 12c8 01       		.byte	0x1
 7968 12c9 2B02     		.2byte	0x22b
 7969 12cb 33000000 		.4byte	0x33
 7970 12cf 120A0000 		.4byte	.LLST66
 7971 12d3 17       		.uleb128 0x17
 7972 12d4 6C6F00   		.ascii	"lo\000"
 7973 12d7 01       		.byte	0x1
 7974 12d8 2B02     		.2byte	0x22b
 7975 12da 33000000 		.4byte	0x33
 7976 12de 250A0000 		.4byte	.LLST67
 7977 12e2 1A       		.uleb128 0x1a
 7978 12e3 450B0000 		.4byte	.LASF161
 7979 12e7 01       		.byte	0x1
 7980 12e8 9B       		.byte	0x9b
 7981 12e9 7A010000 		.4byte	0x17a
 7982 12ed F3120000 		.4byte	0x12f3
 7983 12f1 1B       		.uleb128 0x1b
 7984 12f2 00       		.byte	0
 7985 12f3 1F       		.uleb128 0x1f
 7986 12f4 36000000 		.4byte	.LVL188
 7987 12f8 27080000 		.4byte	0x827
 7988 12fc 1C       		.uleb128 0x1c
 7989 12fd 40000000 		.4byte	.LVL191
 7990 1301 38270000 		.4byte	0x2738
 7991 1305 0F130000 		.4byte	0x130f
 7992 1309 1D       		.uleb128 0x1d
 7993 130a 01       		.uleb128 0x1
 7994 130b 50       		.byte	0x50
 7995 130c 01       		.uleb128 0x1
 7996 130d 31       		.byte	0x31
 7997 130e 00       		.byte	0
 7998 130f 1C       		.uleb128 0x1c
 7999 1310 4A000000 		.4byte	.LVL193
 8000 1314 B9070000 		.4byte	0x7b9
 8001 1318 28130000 		.4byte	0x1328
 8002 131c 1D       		.uleb128 0x1d
 8003 131d 01       		.uleb128 0x1
 8004 131e 50       		.byte	0x50
 8005 131f 01       		.uleb128 0x1
 8006 1320 32       		.byte	0x32
 8007 1321 1D       		.uleb128 0x1d
 8008 1322 01       		.uleb128 0x1
 8009 1323 51       		.byte	0x51
 8010 1324 02       		.uleb128 0x2
ARM GAS  C:\Users\MATEOC~1.QUE\AppData\Local\Temp\ccxtWYOp.s 			page 164


 8011 1325 77       		.byte	0x77
 8012 1326 00       		.sleb128 0
 8013 1327 00       		.byte	0
 8014 1328 1E       		.uleb128 0x1e
 8015 1329 52000000 		.4byte	.LVL194
 8016 132d B9070000 		.4byte	0x7b9
 8017 1331 1D       		.uleb128 0x1d
 8018 1332 01       		.uleb128 0x1
 8019 1333 50       		.byte	0x50
 8020 1334 01       		.uleb128 0x1
 8021 1335 32       		.byte	0x32
 8022 1336 1D       		.uleb128 0x1d
 8023 1337 01       		.uleb128 0x1
 8024 1338 51       		.byte	0x51
 8025 1339 02       		.uleb128 0x2
 8026 133a 76       		.byte	0x76
 8027 133b 00       		.sleb128 0
 8028 133c 00       		.byte	0
 8029 133d 00       		.byte	0
 8030 133e 11       		.uleb128 0x11
 8031 133f C10A0000 		.4byte	.LASF198
 8032 1343 01       		.byte	0x1
 8033 1344 BE02     		.2byte	0x2be
 8034 1346 00000000 		.4byte	.LFB35
 8035 134a 06010000 		.4byte	.LFE35-.LFB35
 8036 134e 01       		.uleb128 0x1
 8037 134f 9C       		.byte	0x9c
 8038 1350 D1140000 		.4byte	0x14d1
 8039 1354 12       		.uleb128 0x12
 8040 1355 783000   		.ascii	"x0\000"
 8041 1358 01       		.byte	0x1
 8042 1359 BE02     		.2byte	0x2be
 8043 135b A0010000 		.4byte	0x1a0
 8044 135f 380A0000 		.4byte	.LLST68
 8045 1363 12       		.uleb128 0x12
 8046 1364 793000   		.ascii	"y0\000"
 8047 1367 01       		.byte	0x1
 8048 1368 BE02     		.2byte	0x2be
 8049 136a A0010000 		.4byte	0x1a0
 8050 136e 590A0000 		.4byte	.LLST69
 8051 1372 12       		.uleb128 0x12
 8052 1373 7200     		.ascii	"r\000"
 8053 1375 01       		.byte	0x1
 8054 1376 BE02     		.2byte	0x2be
 8055 1378 A0010000 		.4byte	0x1a0
 8056 137c 7A0A0000 		.4byte	.LLST70
 8057 1380 13       		.uleb128 0x13
 8058 1381 E60B0000 		.4byte	.LASF194
 8059 1385 01       		.byte	0x1
 8060 1386 BE02     		.2byte	0x2be
 8061 1388 33000000 		.4byte	0x33
 8062 138c 9B0A0000 		.4byte	.LLST71
 8063 1390 2B       		.uleb128 0x2b
 8064 1391 2C0C0000 		.4byte	.LASF199
 8065 1395 01       		.byte	0x1
 8066 1396 BE02     		.2byte	0x2be
 8067 1398 A0010000 		.4byte	0x1a0
ARM GAS  C:\Users\MATEOC~1.QUE\AppData\Local\Temp\ccxtWYOp.s 			page 165


 8068 139c 02       		.uleb128 0x2
 8069 139d 91       		.byte	0x91
 8070 139e 00       		.sleb128 0
 8071 139f 2B       		.uleb128 0x2b
 8072 13a0 7F080000 		.4byte	.LASF182
 8073 13a4 01       		.byte	0x1
 8074 13a5 BE02     		.2byte	0x2be
 8075 13a7 B6010000 		.4byte	0x1b6
 8076 13ab 02       		.uleb128 0x2
 8077 13ac 91       		.byte	0x91
 8078 13ad 04       		.sleb128 4
 8079 13ae 17       		.uleb128 0x17
 8080 13af 6600     		.ascii	"f\000"
 8081 13b1 01       		.byte	0x1
 8082 13b2 C002     		.2byte	0x2c0
 8083 13b4 A0010000 		.4byte	0x1a0
 8084 13b8 BC0A0000 		.4byte	.LLST72
 8085 13bc 15       		.uleb128 0x15
 8086 13bd 070C0000 		.4byte	.LASF195
 8087 13c1 01       		.byte	0x1
 8088 13c2 C102     		.2byte	0x2c1
 8089 13c4 A0010000 		.4byte	0x1a0
 8090 13c8 E50A0000 		.4byte	.LLST73
 8091 13cc 29       		.uleb128 0x29
 8092 13cd 0D0C0000 		.4byte	.LASF196
 8093 13d1 01       		.byte	0x1
 8094 13d2 C202     		.2byte	0x2c2
 8095 13d4 A0010000 		.4byte	0x1a0
 8096 13d8 03       		.uleb128 0x3
 8097 13d9 91       		.byte	0x91
 8098 13da BC7F     		.sleb128 -68
 8099 13dc 17       		.uleb128 0x17
 8100 13dd 7800     		.ascii	"x\000"
 8101 13df 01       		.byte	0x1
 8102 13e0 C302     		.2byte	0x2c3
 8103 13e2 A0010000 		.4byte	0x1a0
 8104 13e6 0F0B0000 		.4byte	.LLST74
 8105 13ea 17       		.uleb128 0x17
 8106 13eb 7900     		.ascii	"y\000"
 8107 13ed 01       		.byte	0x1
 8108 13ee C402     		.2byte	0x2c4
 8109 13f0 A0010000 		.4byte	0x1a0
 8110 13f4 390B0000 		.4byte	.LLST75
 8111 13f8 1C       		.uleb128 0x1c
 8112 13f9 94000000 		.4byte	.LVL215
 8113 13fd 74120000 		.4byte	0x1274
 8114 1401 2F140000 		.4byte	0x142f
 8115 1405 1D       		.uleb128 0x1d
 8116 1406 01       		.uleb128 0x1
 8117 1407 50       		.byte	0x50
 8118 1408 06       		.uleb128 0x6
 8119 1409 75       		.byte	0x75
 8120 140a 00       		.sleb128 0
 8121 140b 91       		.byte	0x91
 8122 140c 50       		.sleb128 -48
 8123 140d 06       		.byte	0x6
 8124 140e 22       		.byte	0x22
ARM GAS  C:\Users\MATEOC~1.QUE\AppData\Local\Temp\ccxtWYOp.s 			page 166


 8125 140f 1D       		.uleb128 0x1d
 8126 1410 01       		.uleb128 0x1
 8127 1411 51       		.byte	0x51
 8128 1412 06       		.uleb128 0x6
 8129 1413 91       		.byte	0x91
 8130 1414 54       		.sleb128 -44
 8131 1415 06       		.byte	0x6
 8132 1416 76       		.byte	0x76
 8133 1417 00       		.sleb128 0
 8134 1418 1C       		.byte	0x1c
 8135 1419 1D       		.uleb128 0x1d
 8136 141a 01       		.uleb128 0x1
 8137 141b 52       		.byte	0x52
 8138 141c 09       		.uleb128 0x9
 8139 141d 76       		.byte	0x76
 8140 141e 00       		.sleb128 0
 8141 141f 31       		.byte	0x31
 8142 1420 24       		.byte	0x24
 8143 1421 79       		.byte	0x79
 8144 1422 00       		.sleb128 0
 8145 1423 22       		.byte	0x22
 8146 1424 23       		.byte	0x23
 8147 1425 01       		.uleb128 0x1
 8148 1426 1D       		.uleb128 0x1d
 8149 1427 01       		.uleb128 0x1
 8150 1428 53       		.byte	0x53
 8151 1429 04       		.uleb128 0x4
 8152 142a 91       		.byte	0x91
 8153 142b 40       		.sleb128 -64
 8154 142c 94       		.byte	0x94
 8155 142d 02       		.byte	0x2
 8156 142e 00       		.byte	0
 8157 142f 1C       		.uleb128 0x1c
 8158 1430 AE000000 		.4byte	.LVL216
 8159 1434 74120000 		.4byte	0x1274
 8160 1438 66140000 		.4byte	0x1466
 8161 143c 1D       		.uleb128 0x1d
 8162 143d 01       		.uleb128 0x1
 8163 143e 50       		.byte	0x50
 8164 143f 06       		.uleb128 0x6
 8165 1440 91       		.byte	0x91
 8166 1441 50       		.sleb128 -48
 8167 1442 06       		.byte	0x6
 8168 1443 76       		.byte	0x76
 8169 1444 00       		.sleb128 0
 8170 1445 22       		.byte	0x22
 8171 1446 1D       		.uleb128 0x1d
 8172 1447 01       		.uleb128 0x1
 8173 1448 51       		.byte	0x51
 8174 1449 06       		.uleb128 0x6
 8175 144a 91       		.byte	0x91
 8176 144b 54       		.sleb128 -44
 8177 144c 06       		.byte	0x6
 8178 144d 75       		.byte	0x75
 8179 144e 00       		.sleb128 0
 8180 144f 1C       		.byte	0x1c
 8181 1450 1D       		.uleb128 0x1d
ARM GAS  C:\Users\MATEOC~1.QUE\AppData\Local\Temp\ccxtWYOp.s 			page 167


 8182 1451 01       		.uleb128 0x1
 8183 1452 52       		.byte	0x52
 8184 1453 09       		.uleb128 0x9
 8185 1454 75       		.byte	0x75
 8186 1455 00       		.sleb128 0
 8187 1456 31       		.byte	0x31
 8188 1457 24       		.byte	0x24
 8189 1458 79       		.byte	0x79
 8190 1459 00       		.sleb128 0
 8191 145a 22       		.byte	0x22
 8192 145b 23       		.byte	0x23
 8193 145c 01       		.uleb128 0x1
 8194 145d 1D       		.uleb128 0x1d
 8195 145e 01       		.uleb128 0x1
 8196 145f 53       		.byte	0x53
 8197 1460 04       		.uleb128 0x4
 8198 1461 91       		.byte	0x91
 8199 1462 40       		.sleb128 -64
 8200 1463 94       		.byte	0x94
 8201 1464 02       		.byte	0x2
 8202 1465 00       		.byte	0
 8203 1466 1C       		.uleb128 0x1c
 8204 1467 E0000000 		.4byte	.LVL217
 8205 146b 74120000 		.4byte	0x1274
 8206 146f 9D140000 		.4byte	0x149d
 8207 1473 1D       		.uleb128 0x1d
 8208 1474 01       		.uleb128 0x1
 8209 1475 50       		.byte	0x50
 8210 1476 05       		.uleb128 0x5
 8211 1477 76       		.byte	0x76
 8212 1478 00       		.sleb128 0
 8213 1479 75       		.byte	0x75
 8214 147a 00       		.sleb128 0
 8215 147b 1C       		.byte	0x1c
 8216 147c 1D       		.uleb128 0x1d
 8217 147d 01       		.uleb128 0x1
 8218 147e 51       		.byte	0x51
 8219 147f 06       		.uleb128 0x6
 8220 1480 91       		.byte	0x91
 8221 1481 50       		.sleb128 -48
 8222 1482 06       		.byte	0x6
 8223 1483 79       		.byte	0x79
 8224 1484 00       		.sleb128 0
 8225 1485 1C       		.byte	0x1c
 8226 1486 1D       		.uleb128 0x1d
 8227 1487 01       		.uleb128 0x1
 8228 1488 52       		.byte	0x52
 8229 1489 0A       		.uleb128 0xa
 8230 148a 79       		.byte	0x79
 8231 148b 00       		.sleb128 0
 8232 148c 31       		.byte	0x31
 8233 148d 24       		.byte	0x24
 8234 148e 91       		.byte	0x91
 8235 148f 54       		.sleb128 -44
 8236 1490 06       		.byte	0x6
 8237 1491 22       		.byte	0x22
 8238 1492 23       		.byte	0x23
ARM GAS  C:\Users\MATEOC~1.QUE\AppData\Local\Temp\ccxtWYOp.s 			page 168


 8239 1493 01       		.uleb128 0x1
 8240 1494 1D       		.uleb128 0x1d
 8241 1495 01       		.uleb128 0x1
 8242 1496 53       		.byte	0x53
 8243 1497 04       		.uleb128 0x4
 8244 1498 91       		.byte	0x91
 8245 1499 40       		.sleb128 -64
 8246 149a 94       		.byte	0x94
 8247 149b 02       		.byte	0x2
 8248 149c 00       		.byte	0
 8249 149d 1E       		.uleb128 0x1e
 8250 149e FC000000 		.4byte	.LVL218
 8251 14a2 74120000 		.4byte	0x1274
 8252 14a6 1D       		.uleb128 0x1d
 8253 14a7 01       		.uleb128 0x1
 8254 14a8 50       		.byte	0x50
 8255 14a9 05       		.uleb128 0x5
 8256 14aa 76       		.byte	0x76
 8257 14ab 00       		.sleb128 0
 8258 14ac 79       		.byte	0x79
 8259 14ad 00       		.sleb128 0
 8260 14ae 1C       		.byte	0x1c
 8261 14af 1D       		.uleb128 0x1d
 8262 14b0 01       		.uleb128 0x1
 8263 14b1 51       		.byte	0x51
 8264 14b2 06       		.uleb128 0x6
 8265 14b3 91       		.byte	0x91
 8266 14b4 50       		.sleb128 -48
 8267 14b5 06       		.byte	0x6
 8268 14b6 75       		.byte	0x75
 8269 14b7 00       		.sleb128 0
 8270 14b8 1C       		.byte	0x1c
 8271 14b9 1D       		.uleb128 0x1d
 8272 14ba 01       		.uleb128 0x1
 8273 14bb 52       		.byte	0x52
 8274 14bc 0A       		.uleb128 0xa
 8275 14bd 75       		.byte	0x75
 8276 14be 00       		.sleb128 0
 8277 14bf 31       		.byte	0x31
 8278 14c0 24       		.byte	0x24
 8279 14c1 91       		.byte	0x91
 8280 14c2 54       		.sleb128 -44
 8281 14c3 06       		.byte	0x6
 8282 14c4 22       		.byte	0x22
 8283 14c5 23       		.byte	0x23
 8284 14c6 01       		.uleb128 0x1
 8285 14c7 1D       		.uleb128 0x1d
 8286 14c8 01       		.uleb128 0x1
 8287 14c9 53       		.byte	0x53
 8288 14ca 04       		.uleb128 0x4
 8289 14cb 91       		.byte	0x91
 8290 14cc 40       		.sleb128 -64
 8291 14cd 94       		.byte	0x94
 8292 14ce 02       		.byte	0x2
 8293 14cf 00       		.byte	0
 8294 14d0 00       		.byte	0
 8295 14d1 26       		.uleb128 0x26
ARM GAS  C:\Users\MATEOC~1.QUE\AppData\Local\Temp\ccxtWYOp.s 			page 169


 8296 14d2 0F010000 		.4byte	.LASF200
 8297 14d6 01       		.byte	0x1
 8298 14d7 3402     		.2byte	0x234
 8299 14d9 00000000 		.4byte	.LFB29
 8300 14dd 64000000 		.4byte	.LFE29-.LFB29
 8301 14e1 01       		.uleb128 0x1
 8302 14e2 9C       		.byte	0x9c
 8303 14e3 9B150000 		.4byte	0x159b
 8304 14e7 12       		.uleb128 0x12
 8305 14e8 7800     		.ascii	"x\000"
 8306 14ea 01       		.byte	0x1
 8307 14eb 3402     		.2byte	0x234
 8308 14ed A0010000 		.4byte	0x1a0
 8309 14f1 570B0000 		.4byte	.LLST76
 8310 14f5 12       		.uleb128 0x12
 8311 14f6 7900     		.ascii	"y\000"
 8312 14f8 01       		.byte	0x1
 8313 14f9 3402     		.2byte	0x234
 8314 14fb A0010000 		.4byte	0x1a0
 8315 14ff 780B0000 		.4byte	.LLST77
 8316 1503 12       		.uleb128 0x12
 8317 1504 7700     		.ascii	"w\000"
 8318 1506 01       		.byte	0x1
 8319 1507 3402     		.2byte	0x234
 8320 1509 A0010000 		.4byte	0x1a0
 8321 150d 990B0000 		.4byte	.LLST78
 8322 1511 13       		.uleb128 0x13
 8323 1512 7F080000 		.4byte	.LASF182
 8324 1516 01       		.byte	0x1
 8325 1517 3402     		.2byte	0x234
 8326 1519 B6010000 		.4byte	0x1b6
 8327 151d E60B0000 		.4byte	.LLST79
 8328 1521 17       		.uleb128 0x17
 8329 1522 686900   		.ascii	"hi\000"
 8330 1525 01       		.byte	0x1
 8331 1526 3B02     		.2byte	0x23b
 8332 1528 33000000 		.4byte	0x33
 8333 152c 070C0000 		.4byte	.LLST80
 8334 1530 17       		.uleb128 0x17
 8335 1531 6C6F00   		.ascii	"lo\000"
 8336 1534 01       		.byte	0x1
 8337 1535 3B02     		.2byte	0x23b
 8338 1537 33000000 		.4byte	0x33
 8339 153b 1A0C0000 		.4byte	.LLST81
 8340 153f 1A       		.uleb128 0x1a
 8341 1540 450B0000 		.4byte	.LASF161
 8342 1544 01       		.byte	0x1
 8343 1545 9B       		.byte	0x9b
 8344 1546 7A010000 		.4byte	0x17a
 8345 154a 50150000 		.4byte	0x1550
 8346 154e 1B       		.uleb128 0x1b
 8347 154f 00       		.byte	0
 8348 1550 1F       		.uleb128 0x1f
 8349 1551 36000000 		.4byte	.LVL225
 8350 1555 27080000 		.4byte	0x827
 8351 1559 1C       		.uleb128 0x1c
 8352 155a 40000000 		.4byte	.LVL228
ARM GAS  C:\Users\MATEOC~1.QUE\AppData\Local\Temp\ccxtWYOp.s 			page 170


 8353 155e 38270000 		.4byte	0x2738
 8354 1562 6C150000 		.4byte	0x156c
 8355 1566 1D       		.uleb128 0x1d
 8356 1567 01       		.uleb128 0x1
 8357 1568 50       		.byte	0x50
 8358 1569 01       		.uleb128 0x1
 8359 156a 31       		.byte	0x31
 8360 156b 00       		.byte	0
 8361 156c 1C       		.uleb128 0x1c
 8362 156d 4A000000 		.4byte	.LVL230
 8363 1571 B9070000 		.4byte	0x7b9
 8364 1575 85150000 		.4byte	0x1585
 8365 1579 1D       		.uleb128 0x1d
 8366 157a 01       		.uleb128 0x1
 8367 157b 50       		.byte	0x50
 8368 157c 01       		.uleb128 0x1
 8369 157d 32       		.byte	0x32
 8370 157e 1D       		.uleb128 0x1d
 8371 157f 01       		.uleb128 0x1
 8372 1580 51       		.byte	0x51
 8373 1581 02       		.uleb128 0x2
 8374 1582 77       		.byte	0x77
 8375 1583 00       		.sleb128 0
 8376 1584 00       		.byte	0
 8377 1585 1E       		.uleb128 0x1e
 8378 1586 52000000 		.4byte	.LVL231
 8379 158a B9070000 		.4byte	0x7b9
 8380 158e 1D       		.uleb128 0x1d
 8381 158f 01       		.uleb128 0x1
 8382 1590 50       		.byte	0x50
 8383 1591 01       		.uleb128 0x1
 8384 1592 32       		.byte	0x32
 8385 1593 1D       		.uleb128 0x1d
 8386 1594 01       		.uleb128 0x1
 8387 1595 51       		.byte	0x51
 8388 1596 02       		.uleb128 0x2
 8389 1597 76       		.byte	0x76
 8390 1598 00       		.sleb128 0
 8391 1599 00       		.byte	0
 8392 159a 00       		.byte	0
 8393 159b 26       		.uleb128 0x26
 8394 159c 0C050000 		.4byte	.LASF201
 8395 15a0 01       		.byte	0x1
 8396 15a1 4602     		.2byte	0x246
 8397 15a3 00000000 		.4byte	.LFB30
 8398 15a7 BE000000 		.4byte	.LFE30-.LFB30
 8399 15ab 01       		.uleb128 0x1
 8400 15ac 9C       		.byte	0x9c
 8401 15ad EE160000 		.4byte	0x16ee
 8402 15b1 12       		.uleb128 0x12
 8403 15b2 783000   		.ascii	"x0\000"
 8404 15b5 01       		.byte	0x1
 8405 15b6 4602     		.2byte	0x246
 8406 15b8 A0010000 		.4byte	0x1a0
 8407 15bc 2D0C0000 		.4byte	.LLST82
 8408 15c0 12       		.uleb128 0x12
 8409 15c1 793000   		.ascii	"y0\000"
ARM GAS  C:\Users\MATEOC~1.QUE\AppData\Local\Temp\ccxtWYOp.s 			page 171


 8410 15c4 01       		.byte	0x1
 8411 15c5 4602     		.2byte	0x246
 8412 15c7 A0010000 		.4byte	0x1a0
 8413 15cb 610C0000 		.4byte	.LLST83
 8414 15cf 12       		.uleb128 0x12
 8415 15d0 783100   		.ascii	"x1\000"
 8416 15d3 01       		.byte	0x1
 8417 15d4 4602     		.2byte	0x246
 8418 15d6 A0010000 		.4byte	0x1a0
 8419 15da 950C0000 		.4byte	.LLST84
 8420 15de 12       		.uleb128 0x12
 8421 15df 793100   		.ascii	"y1\000"
 8422 15e2 01       		.byte	0x1
 8423 15e3 4602     		.2byte	0x246
 8424 15e5 A0010000 		.4byte	0x1a0
 8425 15e9 C10C0000 		.4byte	.LLST85
 8426 15ed 2B       		.uleb128 0x2b
 8427 15ee 7F080000 		.4byte	.LASF182
 8428 15f2 01       		.byte	0x1
 8429 15f3 4602     		.2byte	0x246
 8430 15f5 B6010000 		.4byte	0x1b6
 8431 15f9 02       		.uleb128 0x2
 8432 15fa 91       		.byte	0x91
 8433 15fb 00       		.sleb128 0
 8434 15fc 29       		.uleb128 0x29
 8435 15fd FC050000 		.4byte	.LASF202
 8436 1601 01       		.byte	0x1
 8437 1602 4702     		.2byte	0x247
 8438 1604 A0010000 		.4byte	0x1a0
 8439 1608 09       		.uleb128 0x9
 8440 1609 78       		.byte	0x78
 8441 160a 00       		.sleb128 0
 8442 160b 79       		.byte	0x79
 8443 160c 00       		.sleb128 0
 8444 160d 2B       		.byte	0x2b
 8445 160e 08       		.byte	0x8
 8446 160f FF       		.byte	0xff
 8447 1610 1A       		.byte	0x1a
 8448 1611 9F       		.byte	0x9f
 8449 1612 17       		.uleb128 0x17
 8450 1613 647800   		.ascii	"dx\000"
 8451 1616 01       		.byte	0x1
 8452 1617 5202     		.2byte	0x252
 8453 1619 A0010000 		.4byte	0x1a0
 8454 161d 030D0000 		.4byte	.LLST86
 8455 1621 2C       		.uleb128 0x2c
 8456 1622 647900   		.ascii	"dy\000"
 8457 1625 01       		.byte	0x1
 8458 1626 5202     		.2byte	0x252
 8459 1628 A0010000 		.4byte	0x1a0
 8460 162c 01       		.uleb128 0x1
 8461 162d 5A       		.byte	0x5a
 8462 162e 17       		.uleb128 0x17
 8463 162f 65727200 		.ascii	"err\000"
 8464 1633 01       		.byte	0x1
 8465 1634 5602     		.2byte	0x256
 8466 1636 A0010000 		.4byte	0x1a0
ARM GAS  C:\Users\MATEOC~1.QUE\AppData\Local\Temp\ccxtWYOp.s 			page 172


 8467 163a 210D0000 		.4byte	.LLST87
 8468 163e 29       		.uleb128 0x29
 8469 163f 030A0000 		.4byte	.LASF203
 8470 1643 01       		.byte	0x1
 8471 1644 5702     		.2byte	0x257
 8472 1646 A0010000 		.4byte	0x1a0
 8473 164a 02       		.uleb128 0x2
 8474 164b 91       		.byte	0x91
 8475 164c 54       		.sleb128 -44
 8476 164d 14       		.uleb128 0x14
 8477 164e 34000000 		.4byte	.LBB7
 8478 1652 04000000 		.4byte	.LBE7-.LBB7
 8479 1656 65160000 		.4byte	0x1665
 8480 165a 2D       		.uleb128 0x2d
 8481 165b 7400     		.ascii	"t\000"
 8482 165d 01       		.byte	0x1
 8483 165e 4A02     		.2byte	0x24a
 8484 1660 A0010000 		.4byte	0x1a0
 8485 1664 00       		.byte	0
 8486 1665 14       		.uleb128 0x14
 8487 1666 38000000 		.4byte	.LBB8
 8488 166a 04000000 		.4byte	.LBE8-.LBB8
 8489 166e 7D160000 		.4byte	0x167d
 8490 1672 2D       		.uleb128 0x2d
 8491 1673 7400     		.ascii	"t\000"
 8492 1675 01       		.byte	0x1
 8493 1676 4902     		.2byte	0x249
 8494 1678 A0010000 		.4byte	0x1a0
 8495 167c 00       		.byte	0
 8496 167d 14       		.uleb128 0x14
 8497 167e 42000000 		.4byte	.LBB9
 8498 1682 04000000 		.4byte	.LBE9-.LBB9
 8499 1686 95160000 		.4byte	0x1695
 8500 168a 2D       		.uleb128 0x2d
 8501 168b 7400     		.ascii	"t\000"
 8502 168d 01       		.byte	0x1
 8503 168e 4F02     		.2byte	0x24f
 8504 1690 A0010000 		.4byte	0x1a0
 8505 1694 00       		.byte	0
 8506 1695 14       		.uleb128 0x14
 8507 1696 48000000 		.4byte	.LBB10
 8508 169a 04000000 		.4byte	.LBE10-.LBB10
 8509 169e AD160000 		.4byte	0x16ad
 8510 16a2 2D       		.uleb128 0x2d
 8511 16a3 7400     		.ascii	"t\000"
 8512 16a5 01       		.byte	0x1
 8513 16a6 4E02     		.2byte	0x24e
 8514 16a8 A0010000 		.4byte	0x1a0
 8515 16ac 00       		.byte	0
 8516 16ad 1C       		.uleb128 0x1c
 8517 16ae 8C000000 		.4byte	.LVL252
 8518 16b2 D50F0000 		.4byte	0xfd5
 8519 16b6 CF160000 		.4byte	0x16cf
 8520 16ba 1D       		.uleb128 0x1d
 8521 16bb 01       		.uleb128 0x1
 8522 16bc 50       		.byte	0x50
 8523 16bd 02       		.uleb128 0x2
ARM GAS  C:\Users\MATEOC~1.QUE\AppData\Local\Temp\ccxtWYOp.s 			page 173


 8524 16be 76       		.byte	0x76
 8525 16bf 00       		.sleb128 0
 8526 16c0 1D       		.uleb128 0x1d
 8527 16c1 01       		.uleb128 0x1
 8528 16c2 51       		.byte	0x51
 8529 16c3 02       		.uleb128 0x2
 8530 16c4 75       		.byte	0x75
 8531 16c5 00       		.sleb128 0
 8532 16c6 1D       		.uleb128 0x1d
 8533 16c7 01       		.uleb128 0x1
 8534 16c8 52       		.byte	0x52
 8535 16c9 04       		.uleb128 0x4
 8536 16ca 7D       		.byte	0x7d
 8537 16cb 00       		.sleb128 0
 8538 16cc 94       		.byte	0x94
 8539 16cd 02       		.byte	0x2
 8540 16ce 00       		.byte	0
 8541 16cf 1E       		.uleb128 0x1e
 8542 16d0 98000000 		.4byte	.LVL253
 8543 16d4 D50F0000 		.4byte	0xfd5
 8544 16d8 1D       		.uleb128 0x1d
 8545 16d9 01       		.uleb128 0x1
 8546 16da 50       		.byte	0x50
 8547 16db 02       		.uleb128 0x2
 8548 16dc 75       		.byte	0x75
 8549 16dd 00       		.sleb128 0
 8550 16de 1D       		.uleb128 0x1d
 8551 16df 01       		.uleb128 0x1
 8552 16e0 51       		.byte	0x51
 8553 16e1 02       		.uleb128 0x2
 8554 16e2 76       		.byte	0x76
 8555 16e3 00       		.sleb128 0
 8556 16e4 1D       		.uleb128 0x1d
 8557 16e5 01       		.uleb128 0x1
 8558 16e6 52       		.byte	0x52
 8559 16e7 04       		.uleb128 0x4
 8560 16e8 7D       		.byte	0x7d
 8561 16e9 00       		.sleb128 0
 8562 16ea 94       		.byte	0x94
 8563 16eb 02       		.byte	0x2
 8564 16ec 00       		.byte	0
 8565 16ed 00       		.byte	0
 8566 16ee 26       		.uleb128 0x26
 8567 16ef 63080000 		.4byte	.LASF204
 8568 16f3 01       		.byte	0x1
 8569 16f4 6D02     		.2byte	0x26d
 8570 16f6 00000000 		.4byte	.LFB31
 8571 16fa 12000000 		.4byte	.LFE31-.LFB31
 8572 16fe 01       		.uleb128 0x1
 8573 16ff 9C       		.byte	0x9c
 8574 1700 22170000 		.4byte	0x1722
 8575 1704 12       		.uleb128 0x12
 8576 1705 6900     		.ascii	"i\000"
 8577 1707 01       		.byte	0x1
 8578 1708 6D02     		.2byte	0x26d
 8579 170a 88000000 		.4byte	0x88
 8580 170e 550D0000 		.4byte	.LLST88
ARM GAS  C:\Users\MATEOC~1.QUE\AppData\Local\Temp\ccxtWYOp.s 			page 174


 8581 1712 1E       		.uleb128 0x1e
 8582 1713 10000000 		.4byte	.LVL264
 8583 1717 B9070000 		.4byte	0x7b9
 8584 171b 1D       		.uleb128 0x1d
 8585 171c 01       		.uleb128 0x1
 8586 171d 50       		.byte	0x50
 8587 171e 01       		.uleb128 0x1
 8588 171f 30       		.byte	0x30
 8589 1720 00       		.byte	0
 8590 1721 00       		.byte	0
 8591 1722 26       		.uleb128 0x26
 8592 1723 23090000 		.4byte	.LASF205
 8593 1727 01       		.byte	0x1
 8594 1728 7202     		.2byte	0x272
 8595 172a 00000000 		.4byte	.LFB32
 8596 172e 38010000 		.4byte	.LFE32-.LFB32
 8597 1732 01       		.uleb128 0x1
 8598 1733 9C       		.byte	0x9c
 8599 1734 55190000 		.4byte	0x1955
 8600 1738 12       		.uleb128 0x12
 8601 1739 783000   		.ascii	"x0\000"
 8602 173c 01       		.byte	0x1
 8603 173d 7202     		.2byte	0x272
 8604 173f A0010000 		.4byte	0x1a0
 8605 1743 760D0000 		.4byte	.LLST89
 8606 1747 12       		.uleb128 0x12
 8607 1748 793000   		.ascii	"y0\000"
 8608 174b 01       		.byte	0x1
 8609 174c 7202     		.2byte	0x272
 8610 174e A0010000 		.4byte	0x1a0
 8611 1752 970D0000 		.4byte	.LLST90
 8612 1756 12       		.uleb128 0x12
 8613 1757 7200     		.ascii	"r\000"
 8614 1759 01       		.byte	0x1
 8615 175a 7202     		.2byte	0x272
 8616 175c A0010000 		.4byte	0x1a0
 8617 1760 B50D0000 		.4byte	.LLST91
 8618 1764 13       		.uleb128 0x13
 8619 1765 7F080000 		.4byte	.LASF182
 8620 1769 01       		.byte	0x1
 8621 176a 7202     		.2byte	0x272
 8622 176c B6010000 		.4byte	0x1b6
 8623 1770 E10D0000 		.4byte	.LLST92
 8624 1774 17       		.uleb128 0x17
 8625 1775 6600     		.ascii	"f\000"
 8626 1777 01       		.byte	0x1
 8627 1778 7302     		.2byte	0x273
 8628 177a A0010000 		.4byte	0x1a0
 8629 177e 020E0000 		.4byte	.LLST93
 8630 1782 15       		.uleb128 0x15
 8631 1783 070C0000 		.4byte	.LASF195
 8632 1787 01       		.byte	0x1
 8633 1788 7402     		.2byte	0x274
 8634 178a A0010000 		.4byte	0x1a0
 8635 178e 2B0E0000 		.4byte	.LLST94
 8636 1792 29       		.uleb128 0x29
 8637 1793 0D0C0000 		.4byte	.LASF196
ARM GAS  C:\Users\MATEOC~1.QUE\AppData\Local\Temp\ccxtWYOp.s 			page 175


 8638 1797 01       		.byte	0x1
 8639 1798 7502     		.2byte	0x275
 8640 179a A0010000 		.4byte	0x1a0
 8641 179e 02       		.uleb128 0x2
 8642 179f 91       		.byte	0x91
 8643 17a0 54       		.sleb128 -44
 8644 17a1 17       		.uleb128 0x17
 8645 17a2 7800     		.ascii	"x\000"
 8646 17a4 01       		.byte	0x1
 8647 17a5 7602     		.2byte	0x276
 8648 17a7 A0010000 		.4byte	0x1a0
 8649 17ab 4B0E0000 		.4byte	.LLST95
 8650 17af 2C       		.uleb128 0x2c
 8651 17b0 7900     		.ascii	"y\000"
 8652 17b2 01       		.byte	0x1
 8653 17b3 7702     		.2byte	0x277
 8654 17b5 A0010000 		.4byte	0x1a0
 8655 17b9 02       		.uleb128 0x2
 8656 17ba 91       		.byte	0x91
 8657 17bb 48       		.sleb128 -56
 8658 17bc 1C       		.uleb128 0x1c
 8659 17bd 32000000 		.4byte	.LVL271
 8660 17c1 D50F0000 		.4byte	0xfd5
 8661 17c5 DF170000 		.4byte	0x17df
 8662 17c9 1D       		.uleb128 0x1d
 8663 17ca 01       		.uleb128 0x1
 8664 17cb 50       		.byte	0x50
 8665 17cc 02       		.uleb128 0x2
 8666 17cd 7A       		.byte	0x7a
 8667 17ce 00       		.sleb128 0
 8668 17cf 1D       		.uleb128 0x1d
 8669 17d0 01       		.uleb128 0x1
 8670 17d1 51       		.byte	0x51
 8671 17d2 05       		.uleb128 0x5
 8672 17d3 75       		.byte	0x75
 8673 17d4 00       		.sleb128 0
 8674 17d5 7B       		.byte	0x7b
 8675 17d6 00       		.sleb128 0
 8676 17d7 22       		.byte	0x22
 8677 17d8 1D       		.uleb128 0x1d
 8678 17d9 01       		.uleb128 0x1
 8679 17da 52       		.byte	0x52
 8680 17db 02       		.uleb128 0x2
 8681 17dc 77       		.byte	0x77
 8682 17dd 00       		.sleb128 0
 8683 17de 00       		.byte	0
 8684 17df 1C       		.uleb128 0x1c
 8685 17e0 40000000 		.4byte	.LVL272
 8686 17e4 D50F0000 		.4byte	0xfd5
 8687 17e8 02180000 		.4byte	0x1802
 8688 17ec 1D       		.uleb128 0x1d
 8689 17ed 01       		.uleb128 0x1
 8690 17ee 50       		.byte	0x50
 8691 17ef 02       		.uleb128 0x2
 8692 17f0 7A       		.byte	0x7a
 8693 17f1 00       		.sleb128 0
 8694 17f2 1D       		.uleb128 0x1d
ARM GAS  C:\Users\MATEOC~1.QUE\AppData\Local\Temp\ccxtWYOp.s 			page 176


 8695 17f3 01       		.uleb128 0x1
 8696 17f4 51       		.byte	0x51
 8697 17f5 05       		.uleb128 0x5
 8698 17f6 7B       		.byte	0x7b
 8699 17f7 00       		.sleb128 0
 8700 17f8 75       		.byte	0x75
 8701 17f9 00       		.sleb128 0
 8702 17fa 1C       		.byte	0x1c
 8703 17fb 1D       		.uleb128 0x1d
 8704 17fc 01       		.uleb128 0x1
 8705 17fd 52       		.byte	0x52
 8706 17fe 02       		.uleb128 0x2
 8707 17ff 77       		.byte	0x77
 8708 1800 00       		.sleb128 0
 8709 1801 00       		.byte	0
 8710 1802 1C       		.uleb128 0x1c
 8711 1803 52000000 		.4byte	.LVL273
 8712 1807 D50F0000 		.4byte	0xfd5
 8713 180b 25180000 		.4byte	0x1825
 8714 180f 1D       		.uleb128 0x1d
 8715 1810 01       		.uleb128 0x1
 8716 1811 50       		.byte	0x50
 8717 1812 05       		.uleb128 0x5
 8718 1813 75       		.byte	0x75
 8719 1814 00       		.sleb128 0
 8720 1815 7A       		.byte	0x7a
 8721 1816 00       		.sleb128 0
 8722 1817 22       		.byte	0x22
 8723 1818 1D       		.uleb128 0x1d
 8724 1819 01       		.uleb128 0x1
 8725 181a 51       		.byte	0x51
 8726 181b 02       		.uleb128 0x2
 8727 181c 76       		.byte	0x76
 8728 181d 00       		.sleb128 0
 8729 181e 1D       		.uleb128 0x1d
 8730 181f 01       		.uleb128 0x1
 8731 1820 52       		.byte	0x52
 8732 1821 02       		.uleb128 0x2
 8733 1822 77       		.byte	0x77
 8734 1823 00       		.sleb128 0
 8735 1824 00       		.byte	0
 8736 1825 1C       		.uleb128 0x1c
 8737 1826 60000000 		.4byte	.LVL274
 8738 182a D50F0000 		.4byte	0xfd5
 8739 182e 48180000 		.4byte	0x1848
 8740 1832 1D       		.uleb128 0x1d
 8741 1833 01       		.uleb128 0x1
 8742 1834 50       		.byte	0x50
 8743 1835 05       		.uleb128 0x5
 8744 1836 7A       		.byte	0x7a
 8745 1837 00       		.sleb128 0
 8746 1838 75       		.byte	0x75
 8747 1839 00       		.sleb128 0
 8748 183a 1C       		.byte	0x1c
 8749 183b 1D       		.uleb128 0x1d
 8750 183c 01       		.uleb128 0x1
 8751 183d 51       		.byte	0x51
ARM GAS  C:\Users\MATEOC~1.QUE\AppData\Local\Temp\ccxtWYOp.s 			page 177


 8752 183e 02       		.uleb128 0x2
 8753 183f 76       		.byte	0x76
 8754 1840 00       		.sleb128 0
 8755 1841 1D       		.uleb128 0x1d
 8756 1842 01       		.uleb128 0x1
 8757 1843 52       		.byte	0x52
 8758 1844 02       		.uleb128 0x2
 8759 1845 77       		.byte	0x77
 8760 1846 00       		.sleb128 0
 8761 1847 00       		.byte	0
 8762 1848 1C       		.uleb128 0x1c
 8763 1849 BA000000 		.4byte	.LVL284
 8764 184d D50F0000 		.4byte	0xfd5
 8765 1851 6C180000 		.4byte	0x186c
 8766 1855 1D       		.uleb128 0x1d
 8767 1856 01       		.uleb128 0x1
 8768 1857 50       		.byte	0x50
 8769 1858 04       		.uleb128 0x4
 8770 1859 91       		.byte	0x91
 8771 185a 50       		.sleb128 -48
 8772 185b 94       		.byte	0x94
 8773 185c 02       		.byte	0x2
 8774 185d 1D       		.uleb128 0x1d
 8775 185e 01       		.uleb128 0x1
 8776 185f 51       		.byte	0x51
 8777 1860 02       		.uleb128 0x2
 8778 1861 78       		.byte	0x78
 8779 1862 00       		.sleb128 0
 8780 1863 1D       		.uleb128 0x1d
 8781 1864 01       		.uleb128 0x1
 8782 1865 52       		.byte	0x52
 8783 1866 04       		.uleb128 0x4
 8784 1867 91       		.byte	0x91
 8785 1868 44       		.sleb128 -60
 8786 1869 94       		.byte	0x94
 8787 186a 02       		.byte	0x2
 8788 186b 00       		.byte	0
 8789 186c 1C       		.uleb128 0x1c
 8790 186d CA000000 		.4byte	.LVL285
 8791 1871 D50F0000 		.4byte	0xfd5
 8792 1875 8E180000 		.4byte	0x188e
 8793 1879 1D       		.uleb128 0x1d
 8794 187a 01       		.uleb128 0x1
 8795 187b 50       		.byte	0x50
 8796 187c 02       		.uleb128 0x2
 8797 187d 77       		.byte	0x77
 8798 187e 00       		.sleb128 0
 8799 187f 1D       		.uleb128 0x1d
 8800 1880 01       		.uleb128 0x1
 8801 1881 51       		.byte	0x51
 8802 1882 02       		.uleb128 0x2
 8803 1883 78       		.byte	0x78
 8804 1884 00       		.sleb128 0
 8805 1885 1D       		.uleb128 0x1d
 8806 1886 01       		.uleb128 0x1
 8807 1887 52       		.byte	0x52
 8808 1888 04       		.uleb128 0x4
ARM GAS  C:\Users\MATEOC~1.QUE\AppData\Local\Temp\ccxtWYOp.s 			page 178


 8809 1889 91       		.byte	0x91
 8810 188a 44       		.sleb128 -60
 8811 188b 94       		.byte	0x94
 8812 188c 02       		.byte	0x2
 8813 188d 00       		.byte	0
 8814 188e 1C       		.uleb128 0x1c
 8815 188f DC000000 		.4byte	.LVL286
 8816 1893 D50F0000 		.4byte	0xfd5
 8817 1897 B2180000 		.4byte	0x18b2
 8818 189b 1D       		.uleb128 0x1d
 8819 189c 01       		.uleb128 0x1
 8820 189d 50       		.byte	0x50
 8821 189e 04       		.uleb128 0x4
 8822 189f 91       		.byte	0x91
 8823 18a0 50       		.sleb128 -48
 8824 18a1 94       		.byte	0x94
 8825 18a2 02       		.byte	0x2
 8826 18a3 1D       		.uleb128 0x1d
 8827 18a4 01       		.uleb128 0x1
 8828 18a5 51       		.byte	0x51
 8829 18a6 02       		.uleb128 0x2
 8830 18a7 78       		.byte	0x78
 8831 18a8 00       		.sleb128 0
 8832 18a9 1D       		.uleb128 0x1d
 8833 18aa 01       		.uleb128 0x1
 8834 18ab 52       		.byte	0x52
 8835 18ac 04       		.uleb128 0x4
 8836 18ad 91       		.byte	0x91
 8837 18ae 44       		.sleb128 -60
 8838 18af 94       		.byte	0x94
 8839 18b0 02       		.byte	0x2
 8840 18b1 00       		.byte	0
 8841 18b2 1C       		.uleb128 0x1c
 8842 18b3 E6000000 		.4byte	.LVL287
 8843 18b7 D50F0000 		.4byte	0xfd5
 8844 18bb D4180000 		.4byte	0x18d4
 8845 18bf 1D       		.uleb128 0x1d
 8846 18c0 01       		.uleb128 0x1
 8847 18c1 50       		.byte	0x50
 8848 18c2 02       		.uleb128 0x2
 8849 18c3 77       		.byte	0x77
 8850 18c4 00       		.sleb128 0
 8851 18c5 1D       		.uleb128 0x1d
 8852 18c6 01       		.uleb128 0x1
 8853 18c7 51       		.byte	0x51
 8854 18c8 02       		.uleb128 0x2
 8855 18c9 78       		.byte	0x78
 8856 18ca 00       		.sleb128 0
 8857 18cb 1D       		.uleb128 0x1d
 8858 18cc 01       		.uleb128 0x1
 8859 18cd 52       		.byte	0x52
 8860 18ce 04       		.uleb128 0x4
 8861 18cf 91       		.byte	0x91
 8862 18d0 44       		.sleb128 -60
 8863 18d1 94       		.byte	0x94
 8864 18d2 02       		.byte	0x2
 8865 18d3 00       		.byte	0
ARM GAS  C:\Users\MATEOC~1.QUE\AppData\Local\Temp\ccxtWYOp.s 			page 179


 8866 18d4 1C       		.uleb128 0x1c
 8867 18d5 FE000000 		.4byte	.LVL288
 8868 18d9 D50F0000 		.4byte	0xfd5
 8869 18dd F6180000 		.4byte	0x18f6
 8870 18e1 1D       		.uleb128 0x1d
 8871 18e2 01       		.uleb128 0x1
 8872 18e3 50       		.byte	0x50
 8873 18e4 02       		.uleb128 0x2
 8874 18e5 77       		.byte	0x77
 8875 18e6 00       		.sleb128 0
 8876 18e7 1D       		.uleb128 0x1d
 8877 18e8 01       		.uleb128 0x1
 8878 18e9 51       		.byte	0x51
 8879 18ea 02       		.uleb128 0x2
 8880 18eb 78       		.byte	0x78
 8881 18ec 00       		.sleb128 0
 8882 18ed 1D       		.uleb128 0x1d
 8883 18ee 01       		.uleb128 0x1
 8884 18ef 52       		.byte	0x52
 8885 18f0 04       		.uleb128 0x4
 8886 18f1 91       		.byte	0x91
 8887 18f2 44       		.sleb128 -60
 8888 18f3 94       		.byte	0x94
 8889 18f4 02       		.byte	0x2
 8890 18f5 00       		.byte	0
 8891 18f6 1C       		.uleb128 0x1c
 8892 18f7 0E010000 		.4byte	.LVL289
 8893 18fb D50F0000 		.4byte	0xfd5
 8894 18ff 18190000 		.4byte	0x1918
 8895 1903 1D       		.uleb128 0x1d
 8896 1904 01       		.uleb128 0x1
 8897 1905 50       		.byte	0x50
 8898 1906 02       		.uleb128 0x2
 8899 1907 76       		.byte	0x76
 8900 1908 00       		.sleb128 0
 8901 1909 1D       		.uleb128 0x1d
 8902 190a 01       		.uleb128 0x1
 8903 190b 51       		.byte	0x51
 8904 190c 02       		.uleb128 0x2
 8905 190d 78       		.byte	0x78
 8906 190e 00       		.sleb128 0
 8907 190f 1D       		.uleb128 0x1d
 8908 1910 01       		.uleb128 0x1
 8909 1911 52       		.byte	0x52
 8910 1912 04       		.uleb128 0x4
 8911 1913 91       		.byte	0x91
 8912 1914 44       		.sleb128 -60
 8913 1915 94       		.byte	0x94
 8914 1916 02       		.byte	0x2
 8915 1917 00       		.byte	0
 8916 1918 1C       		.uleb128 0x1c
 8917 1919 22010000 		.4byte	.LVL290
 8918 191d D50F0000 		.4byte	0xfd5
 8919 1921 38190000 		.4byte	0x1938
 8920 1925 1D       		.uleb128 0x1d
 8921 1926 01       		.uleb128 0x1
 8922 1927 50       		.byte	0x50
ARM GAS  C:\Users\MATEOC~1.QUE\AppData\Local\Temp\ccxtWYOp.s 			page 180


 8923 1928 02       		.uleb128 0x2
 8924 1929 77       		.byte	0x77
 8925 192a 00       		.sleb128 0
 8926 192b 1D       		.uleb128 0x1d
 8927 192c 01       		.uleb128 0x1
 8928 192d 51       		.byte	0x51
 8929 192e 02       		.uleb128 0x2
 8930 192f 75       		.byte	0x75
 8931 1930 00       		.sleb128 0
 8932 1931 1D       		.uleb128 0x1d
 8933 1932 01       		.uleb128 0x1
 8934 1933 52       		.byte	0x52
 8935 1934 02       		.uleb128 0x2
 8936 1935 78       		.byte	0x78
 8937 1936 00       		.sleb128 0
 8938 1937 00       		.byte	0
 8939 1938 1E       		.uleb128 0x1e
 8940 1939 2C010000 		.4byte	.LVL291
 8941 193d D50F0000 		.4byte	0xfd5
 8942 1941 1D       		.uleb128 0x1d
 8943 1942 01       		.uleb128 0x1
 8944 1943 50       		.byte	0x50
 8945 1944 02       		.uleb128 0x2
 8946 1945 76       		.byte	0x76
 8947 1946 00       		.sleb128 0
 8948 1947 1D       		.uleb128 0x1d
 8949 1948 01       		.uleb128 0x1
 8950 1949 51       		.byte	0x51
 8951 194a 02       		.uleb128 0x2
 8952 194b 75       		.byte	0x75
 8953 194c 00       		.sleb128 0
 8954 194d 1D       		.uleb128 0x1d
 8955 194e 01       		.uleb128 0x1
 8956 194f 52       		.byte	0x52
 8957 1950 02       		.uleb128 0x2
 8958 1951 78       		.byte	0x78
 8959 1952 00       		.sleb128 0
 8960 1953 00       		.byte	0
 8961 1954 00       		.byte	0
 8962 1955 26       		.uleb128 0x26
 8963 1956 51020000 		.4byte	.LASF206
 8964 195a 01       		.byte	0x1
 8965 195b B702     		.2byte	0x2b7
 8966 195d 00000000 		.4byte	.LFB34
 8967 1961 32000000 		.4byte	.LFE34-.LFB34
 8968 1965 01       		.uleb128 0x1
 8969 1966 9C       		.byte	0x9c
 8970 1967 0D1A0000 		.4byte	0x1a0d
 8971 196b 12       		.uleb128 0x12
 8972 196c 783000   		.ascii	"x0\000"
 8973 196f 01       		.byte	0x1
 8974 1970 B702     		.2byte	0x2b7
 8975 1972 A0010000 		.4byte	0x1a0
 8976 1976 6A0E0000 		.4byte	.LLST96
 8977 197a 12       		.uleb128 0x12
 8978 197b 793000   		.ascii	"y0\000"
 8979 197e 01       		.byte	0x1
ARM GAS  C:\Users\MATEOC~1.QUE\AppData\Local\Temp\ccxtWYOp.s 			page 181


 8980 197f B702     		.2byte	0x2b7
 8981 1981 A0010000 		.4byte	0x1a0
 8982 1985 8B0E0000 		.4byte	.LLST97
 8983 1989 12       		.uleb128 0x12
 8984 198a 7200     		.ascii	"r\000"
 8985 198c 01       		.byte	0x1
 8986 198d B702     		.2byte	0x2b7
 8987 198f A0010000 		.4byte	0x1a0
 8988 1993 AC0E0000 		.4byte	.LLST98
 8989 1997 13       		.uleb128 0x13
 8990 1998 7F080000 		.4byte	.LASF182
 8991 199c 01       		.byte	0x1
 8992 199d B702     		.2byte	0x2b7
 8993 199f B6010000 		.4byte	0x1b6
 8994 19a3 D80E0000 		.4byte	.LLST99
 8995 19a7 1C       		.uleb128 0x1c
 8996 19a8 1C000000 		.4byte	.LVL296
 8997 19ac 74120000 		.4byte	0x1274
 8998 19b0 DE190000 		.4byte	0x19de
 8999 19b4 1D       		.uleb128 0x1d
 9000 19b5 01       		.uleb128 0x1
 9001 19b6 50       		.byte	0x50
 9002 19b7 02       		.uleb128 0x2
 9003 19b8 76       		.byte	0x76
 9004 19b9 00       		.sleb128 0
 9005 19ba 1D       		.uleb128 0x1d
 9006 19bb 01       		.uleb128 0x1
 9007 19bc 51       		.byte	0x51
 9008 19bd 0A       		.uleb128 0xa
 9009 19be 74       		.byte	0x74
 9010 19bf 00       		.sleb128 0
 9011 19c0 F3       		.byte	0xf3
 9012 19c1 01       		.uleb128 0x1
 9013 19c2 52       		.byte	0x52
 9014 19c3 0A       		.byte	0xa
 9015 19c4 FFFF     		.2byte	0xffff
 9016 19c6 1A       		.byte	0x1a
 9017 19c7 1C       		.byte	0x1c
 9018 19c8 1D       		.uleb128 0x1d
 9019 19c9 01       		.uleb128 0x1
 9020 19ca 52       		.byte	0x52
 9021 19cb 0B       		.uleb128 0xb
 9022 19cc F3       		.byte	0xf3
 9023 19cd 01       		.uleb128 0x1
 9024 19ce 52       		.byte	0x52
 9025 19cf 0A       		.byte	0xa
 9026 19d0 FFFF     		.2byte	0xffff
 9027 19d2 1A       		.byte	0x1a
 9028 19d3 31       		.byte	0x31
 9029 19d4 24       		.byte	0x24
 9030 19d5 23       		.byte	0x23
 9031 19d6 01       		.uleb128 0x1
 9032 19d7 1D       		.uleb128 0x1d
 9033 19d8 01       		.uleb128 0x1
 9034 19d9 53       		.byte	0x53
 9035 19da 02       		.uleb128 0x2
 9036 19db 77       		.byte	0x77
ARM GAS  C:\Users\MATEOC~1.QUE\AppData\Local\Temp\ccxtWYOp.s 			page 182


 9037 19dc 00       		.sleb128 0
 9038 19dd 00       		.byte	0
 9039 19de 1E       		.uleb128 0x1e
 9040 19df 2E000000 		.4byte	.LVL297
 9041 19e3 3E130000 		.4byte	0x133e
 9042 19e7 1D       		.uleb128 0x1d
 9043 19e8 01       		.uleb128 0x1
 9044 19e9 50       		.byte	0x50
 9045 19ea 02       		.uleb128 0x2
 9046 19eb 76       		.byte	0x76
 9047 19ec 00       		.sleb128 0
 9048 19ed 1D       		.uleb128 0x1d
 9049 19ee 01       		.uleb128 0x1
 9050 19ef 51       		.byte	0x51
 9051 19f0 02       		.uleb128 0x2
 9052 19f1 74       		.byte	0x74
 9053 19f2 00       		.sleb128 0
 9054 19f3 1D       		.uleb128 0x1d
 9055 19f4 01       		.uleb128 0x1
 9056 19f5 52       		.byte	0x52
 9057 19f6 02       		.uleb128 0x2
 9058 19f7 75       		.byte	0x75
 9059 19f8 00       		.sleb128 0
 9060 19f9 1D       		.uleb128 0x1d
 9061 19fa 01       		.uleb128 0x1
 9062 19fb 53       		.byte	0x53
 9063 19fc 01       		.uleb128 0x1
 9064 19fd 33       		.byte	0x33
 9065 19fe 1D       		.uleb128 0x1d
 9066 19ff 02       		.uleb128 0x2
 9067 1a00 7D       		.byte	0x7d
 9068 1a01 00       		.sleb128 0
 9069 1a02 01       		.uleb128 0x1
 9070 1a03 30       		.byte	0x30
 9071 1a04 1D       		.uleb128 0x1d
 9072 1a05 02       		.uleb128 0x2
 9073 1a06 7D       		.byte	0x7d
 9074 1a07 04       		.sleb128 4
 9075 1a08 02       		.uleb128 0x2
 9076 1a09 77       		.byte	0x77
 9077 1a0a 00       		.sleb128 0
 9078 1a0b 00       		.byte	0
 9079 1a0c 00       		.byte	0
 9080 1a0d 26       		.uleb128 0x26
 9081 1a0e 48000000 		.4byte	.LASF207
 9082 1a12 01       		.byte	0x1
 9083 1a13 DC02     		.2byte	0x2dc
 9084 1a15 00000000 		.4byte	.LFB36
 9085 1a19 42000000 		.4byte	.LFE36-.LFB36
 9086 1a1d 01       		.uleb128 0x1
 9087 1a1e 9C       		.byte	0x9c
 9088 1a1f 0E1B0000 		.4byte	0x1b0e
 9089 1a23 12       		.uleb128 0x12
 9090 1a24 783000   		.ascii	"x0\000"
 9091 1a27 01       		.byte	0x1
 9092 1a28 DC02     		.2byte	0x2dc
 9093 1a2a A0010000 		.4byte	0x1a0
ARM GAS  C:\Users\MATEOC~1.QUE\AppData\Local\Temp\ccxtWYOp.s 			page 183


 9094 1a2e F90E0000 		.4byte	.LLST100
 9095 1a32 12       		.uleb128 0x12
 9096 1a33 793000   		.ascii	"y0\000"
 9097 1a36 01       		.byte	0x1
 9098 1a37 DC02     		.2byte	0x2dc
 9099 1a39 A0010000 		.4byte	0x1a0
 9100 1a3d 1A0F0000 		.4byte	.LLST101
 9101 1a41 12       		.uleb128 0x12
 9102 1a42 783100   		.ascii	"x1\000"
 9103 1a45 01       		.byte	0x1
 9104 1a46 DC02     		.2byte	0x2dc
 9105 1a48 A0010000 		.4byte	0x1a0
 9106 1a4c 3B0F0000 		.4byte	.LLST102
 9107 1a50 12       		.uleb128 0x12
 9108 1a51 793100   		.ascii	"y1\000"
 9109 1a54 01       		.byte	0x1
 9110 1a55 DC02     		.2byte	0x2dc
 9111 1a57 A0010000 		.4byte	0x1a0
 9112 1a5b 5C0F0000 		.4byte	.LLST103
 9113 1a5f 27       		.uleb128 0x27
 9114 1a60 783200   		.ascii	"x2\000"
 9115 1a63 01       		.byte	0x1
 9116 1a64 DC02     		.2byte	0x2dc
 9117 1a66 A0010000 		.4byte	0x1a0
 9118 1a6a 02       		.uleb128 0x2
 9119 1a6b 91       		.byte	0x91
 9120 1a6c 00       		.sleb128 0
 9121 1a6d 27       		.uleb128 0x27
 9122 1a6e 793200   		.ascii	"y2\000"
 9123 1a71 01       		.byte	0x1
 9124 1a72 DC02     		.2byte	0x2dc
 9125 1a74 A0010000 		.4byte	0x1a0
 9126 1a78 02       		.uleb128 0x2
 9127 1a79 91       		.byte	0x91
 9128 1a7a 04       		.sleb128 4
 9129 1a7b 2B       		.uleb128 0x2b
 9130 1a7c 7F080000 		.4byte	.LASF182
 9131 1a80 01       		.byte	0x1
 9132 1a81 DC02     		.2byte	0x2dc
 9133 1a83 B6010000 		.4byte	0x1b6
 9134 1a87 02       		.uleb128 0x2
 9135 1a88 91       		.byte	0x91
 9136 1a89 08       		.sleb128 8
 9137 1a8a 1C       		.uleb128 0x1c
 9138 1a8b 20000000 		.4byte	.LVL299
 9139 1a8f 9B150000 		.4byte	0x159b
 9140 1a93 B71A0000 		.4byte	0x1ab7
 9141 1a97 1D       		.uleb128 0x1d
 9142 1a98 01       		.uleb128 0x1
 9143 1a99 50       		.byte	0x50
 9144 1a9a 02       		.uleb128 0x2
 9145 1a9b 77       		.byte	0x77
 9146 1a9c 00       		.sleb128 0
 9147 1a9d 1D       		.uleb128 0x1d
 9148 1a9e 01       		.uleb128 0x1
 9149 1a9f 51       		.byte	0x51
 9150 1aa0 02       		.uleb128 0x2
ARM GAS  C:\Users\MATEOC~1.QUE\AppData\Local\Temp\ccxtWYOp.s 			page 184


 9151 1aa1 78       		.byte	0x78
 9152 1aa2 00       		.sleb128 0
 9153 1aa3 1D       		.uleb128 0x1d
 9154 1aa4 01       		.uleb128 0x1
 9155 1aa5 52       		.byte	0x52
 9156 1aa6 02       		.uleb128 0x2
 9157 1aa7 79       		.byte	0x79
 9158 1aa8 00       		.sleb128 0
 9159 1aa9 1D       		.uleb128 0x1d
 9160 1aaa 01       		.uleb128 0x1
 9161 1aab 53       		.byte	0x53
 9162 1aac 02       		.uleb128 0x2
 9163 1aad 7A       		.byte	0x7a
 9164 1aae 00       		.sleb128 0
 9165 1aaf 1D       		.uleb128 0x1d
 9166 1ab0 02       		.uleb128 0x2
 9167 1ab1 7D       		.byte	0x7d
 9168 1ab2 00       		.sleb128 0
 9169 1ab3 02       		.uleb128 0x2
 9170 1ab4 74       		.byte	0x74
 9171 1ab5 00       		.sleb128 0
 9172 1ab6 00       		.byte	0
 9173 1ab7 1C       		.uleb128 0x1c
 9174 1ab8 2E000000 		.4byte	.LVL300
 9175 1abc 9B150000 		.4byte	0x159b
 9176 1ac0 E41A0000 		.4byte	0x1ae4
 9177 1ac4 1D       		.uleb128 0x1d
 9178 1ac5 01       		.uleb128 0x1
 9179 1ac6 50       		.byte	0x50
 9180 1ac7 02       		.uleb128 0x2
 9181 1ac8 79       		.byte	0x79
 9182 1ac9 00       		.sleb128 0
 9183 1aca 1D       		.uleb128 0x1d
 9184 1acb 01       		.uleb128 0x1
 9185 1acc 51       		.byte	0x51
 9186 1acd 02       		.uleb128 0x2
 9187 1ace 7A       		.byte	0x7a
 9188 1acf 00       		.sleb128 0
 9189 1ad0 1D       		.uleb128 0x1d
 9190 1ad1 01       		.uleb128 0x1
 9191 1ad2 52       		.byte	0x52
 9192 1ad3 02       		.uleb128 0x2
 9193 1ad4 75       		.byte	0x75
 9194 1ad5 00       		.sleb128 0
 9195 1ad6 1D       		.uleb128 0x1d
 9196 1ad7 01       		.uleb128 0x1
 9197 1ad8 53       		.byte	0x53
 9198 1ad9 02       		.uleb128 0x2
 9199 1ada 76       		.byte	0x76
 9200 1adb 00       		.sleb128 0
 9201 1adc 1D       		.uleb128 0x1d
 9202 1add 02       		.uleb128 0x2
 9203 1ade 7D       		.byte	0x7d
 9204 1adf 00       		.sleb128 0
 9205 1ae0 02       		.uleb128 0x2
 9206 1ae1 74       		.byte	0x74
 9207 1ae2 00       		.sleb128 0
ARM GAS  C:\Users\MATEOC~1.QUE\AppData\Local\Temp\ccxtWYOp.s 			page 185


 9208 1ae3 00       		.byte	0
 9209 1ae4 1E       		.uleb128 0x1e
 9210 1ae5 3C000000 		.4byte	.LVL301
 9211 1ae9 9B150000 		.4byte	0x159b
 9212 1aed 1D       		.uleb128 0x1d
 9213 1aee 01       		.uleb128 0x1
 9214 1aef 50       		.byte	0x50
 9215 1af0 02       		.uleb128 0x2
 9216 1af1 75       		.byte	0x75
 9217 1af2 00       		.sleb128 0
 9218 1af3 1D       		.uleb128 0x1d
 9219 1af4 01       		.uleb128 0x1
 9220 1af5 51       		.byte	0x51
 9221 1af6 02       		.uleb128 0x2
 9222 1af7 76       		.byte	0x76
 9223 1af8 00       		.sleb128 0
 9224 1af9 1D       		.uleb128 0x1d
 9225 1afa 01       		.uleb128 0x1
 9226 1afb 52       		.byte	0x52
 9227 1afc 02       		.uleb128 0x2
 9228 1afd 77       		.byte	0x77
 9229 1afe 00       		.sleb128 0
 9230 1aff 1D       		.uleb128 0x1d
 9231 1b00 01       		.uleb128 0x1
 9232 1b01 53       		.byte	0x53
 9233 1b02 02       		.uleb128 0x2
 9234 1b03 78       		.byte	0x78
 9235 1b04 00       		.sleb128 0
 9236 1b05 1D       		.uleb128 0x1d
 9237 1b06 02       		.uleb128 0x2
 9238 1b07 7D       		.byte	0x7d
 9239 1b08 00       		.sleb128 0
 9240 1b09 02       		.uleb128 0x2
 9241 1b0a 74       		.byte	0x74
 9242 1b0b 00       		.sleb128 0
 9243 1b0c 00       		.byte	0
 9244 1b0d 00       		.byte	0
 9245 1b0e 26       		.uleb128 0x26
 9246 1b0f B5080000 		.4byte	.LASF208
 9247 1b13 01       		.byte	0x1
 9248 1b14 E302     		.2byte	0x2e3
 9249 1b16 00000000 		.4byte	.LFB37
 9250 1b1a 76010000 		.4byte	.LFE37-.LFB37
 9251 1b1e 01       		.uleb128 0x1
 9252 1b1f 9C       		.byte	0x9c
 9253 1b20 2E1D0000 		.4byte	0x1d2e
 9254 1b24 12       		.uleb128 0x12
 9255 1b25 783000   		.ascii	"x0\000"
 9256 1b28 01       		.byte	0x1
 9257 1b29 E302     		.2byte	0x2e3
 9258 1b2b A0010000 		.4byte	0x1a0
 9259 1b2f 7D0F0000 		.4byte	.LLST104
 9260 1b33 12       		.uleb128 0x12
 9261 1b34 793000   		.ascii	"y0\000"
 9262 1b37 01       		.byte	0x1
 9263 1b38 E302     		.2byte	0x2e3
 9264 1b3a A0010000 		.4byte	0x1a0
ARM GAS  C:\Users\MATEOC~1.QUE\AppData\Local\Temp\ccxtWYOp.s 			page 186


 9265 1b3e CA0F0000 		.4byte	.LLST105
 9266 1b42 12       		.uleb128 0x12
 9267 1b43 783100   		.ascii	"x1\000"
 9268 1b46 01       		.byte	0x1
 9269 1b47 E302     		.2byte	0x2e3
 9270 1b49 A0010000 		.4byte	0x1a0
 9271 1b4d F50F0000 		.4byte	.LLST106
 9272 1b51 12       		.uleb128 0x12
 9273 1b52 793100   		.ascii	"y1\000"
 9274 1b55 01       		.byte	0x1
 9275 1b56 E302     		.2byte	0x2e3
 9276 1b58 A0010000 		.4byte	0x1a0
 9277 1b5c 41100000 		.4byte	.LLST107
 9278 1b60 12       		.uleb128 0x12
 9279 1b61 783200   		.ascii	"x2\000"
 9280 1b64 01       		.byte	0x1
 9281 1b65 E302     		.2byte	0x2e3
 9282 1b67 A0010000 		.4byte	0x1a0
 9283 1b6b 86100000 		.4byte	.LLST108
 9284 1b6f 12       		.uleb128 0x12
 9285 1b70 793200   		.ascii	"y2\000"
 9286 1b73 01       		.byte	0x1
 9287 1b74 E302     		.2byte	0x2e3
 9288 1b76 A0010000 		.4byte	0x1a0
 9289 1b7a BB100000 		.4byte	.LLST109
 9290 1b7e 2B       		.uleb128 0x2b
 9291 1b7f 7F080000 		.4byte	.LASF182
 9292 1b83 01       		.byte	0x1
 9293 1b84 E302     		.2byte	0x2e3
 9294 1b86 B6010000 		.4byte	0x1b6
 9295 1b8a 02       		.uleb128 0x2
 9296 1b8b 91       		.byte	0x91
 9297 1b8c 08       		.sleb128 8
 9298 1b8d 17       		.uleb128 0x17
 9299 1b8e 6100     		.ascii	"a\000"
 9300 1b90 01       		.byte	0x1
 9301 1b91 E502     		.2byte	0x2e5
 9302 1b93 A0010000 		.4byte	0x1a0
 9303 1b97 DA100000 		.4byte	.LLST110
 9304 1b9b 17       		.uleb128 0x17
 9305 1b9c 6200     		.ascii	"b\000"
 9306 1b9e 01       		.byte	0x1
 9307 1b9f E502     		.2byte	0x2e5
 9308 1ba1 A0010000 		.4byte	0x1a0
 9309 1ba5 2F110000 		.4byte	.LLST111
 9310 1ba9 17       		.uleb128 0x17
 9311 1baa 7900     		.ascii	"y\000"
 9312 1bac 01       		.byte	0x1
 9313 1bad E502     		.2byte	0x2e5
 9314 1baf A0010000 		.4byte	0x1a0
 9315 1bb3 8F110000 		.4byte	.LLST112
 9316 1bb7 15       		.uleb128 0x15
 9317 1bb8 00000000 		.4byte	.LASF61
 9318 1bbc 01       		.byte	0x1
 9319 1bbd E502     		.2byte	0x2e5
 9320 1bbf A0010000 		.4byte	0x1a0
 9321 1bc3 C4110000 		.4byte	.LLST113
ARM GAS  C:\Users\MATEOC~1.QUE\AppData\Local\Temp\ccxtWYOp.s 			page 187


 9322 1bc7 15       		.uleb128 0x15
 9323 1bc8 92000000 		.4byte	.LASF209
 9324 1bcc 01       		.byte	0x1
 9325 1bcd FD02     		.2byte	0x2fd
 9326 1bcf A0010000 		.4byte	0x1a0
 9327 1bd3 E2110000 		.4byte	.LLST114
 9328 1bd7 15       		.uleb128 0x15
 9329 1bd8 AF050000 		.4byte	.LASF210
 9330 1bdc 01       		.byte	0x1
 9331 1bdd FE02     		.2byte	0x2fe
 9332 1bdf A0010000 		.4byte	0x1a0
 9333 1be3 F6110000 		.4byte	.LLST115
 9334 1be7 15       		.uleb128 0x15
 9335 1be8 43000000 		.4byte	.LASF211
 9336 1bec 01       		.byte	0x1
 9337 1bed FF02     		.2byte	0x2ff
 9338 1bef A0010000 		.4byte	0x1a0
 9339 1bf3 30120000 		.4byte	.LLST116
 9340 1bf7 15       		.uleb128 0x15
 9341 1bf8 B4050000 		.4byte	.LASF212
 9342 1bfc 01       		.byte	0x1
 9343 1bfd 0003     		.2byte	0x300
 9344 1bff A0010000 		.4byte	0x1a0
 9345 1c03 4E120000 		.4byte	.LLST117
 9346 1c07 15       		.uleb128 0x15
 9347 1c08 79010000 		.4byte	.LASF213
 9348 1c0c 01       		.byte	0x1
 9349 1c0d 0103     		.2byte	0x301
 9350 1c0f A0010000 		.4byte	0x1a0
 9351 1c13 61120000 		.4byte	.LLST118
 9352 1c17 15       		.uleb128 0x15
 9353 1c18 38060000 		.4byte	.LASF214
 9354 1c1c 01       		.byte	0x1
 9355 1c1d 0203     		.2byte	0x302
 9356 1c1f A0010000 		.4byte	0x1a0
 9357 1c23 75120000 		.4byte	.LLST119
 9358 1c27 17       		.uleb128 0x17
 9359 1c28 736100   		.ascii	"sa\000"
 9360 1c2b 01       		.byte	0x1
 9361 1c2c 0403     		.2byte	0x304
 9362 1c2e AB010000 		.4byte	0x1ab
 9363 1c32 89120000 		.4byte	.LLST120
 9364 1c36 17       		.uleb128 0x17
 9365 1c37 736200   		.ascii	"sb\000"
 9366 1c3a 01       		.byte	0x1
 9367 1c3b 0503     		.2byte	0x305
 9368 1c3d AB010000 		.4byte	0x1ab
 9369 1c41 B3120000 		.4byte	.LLST121
 9370 1c45 14       		.uleb128 0x14
 9371 1c46 20000000 		.4byte	.LBB11
 9372 1c4a 04000000 		.4byte	.LBE11-.LBB11
 9373 1c4e 5D1C0000 		.4byte	0x1c5d
 9374 1c52 2D       		.uleb128 0x2d
 9375 1c53 7400     		.ascii	"t\000"
 9376 1c55 01       		.byte	0x1
 9377 1c56 E902     		.2byte	0x2e9
 9378 1c58 A0010000 		.4byte	0x1a0
ARM GAS  C:\Users\MATEOC~1.QUE\AppData\Local\Temp\ccxtWYOp.s 			page 188


 9379 1c5c 00       		.byte	0
 9380 1c5d 14       		.uleb128 0x14
 9381 1c5e 26000000 		.4byte	.LBB12
 9382 1c62 04000000 		.4byte	.LBE12-.LBB12
 9383 1c66 751C0000 		.4byte	0x1c75
 9384 1c6a 2D       		.uleb128 0x2d
 9385 1c6b 7400     		.ascii	"t\000"
 9386 1c6d 01       		.byte	0x1
 9387 1c6e E902     		.2byte	0x2e9
 9388 1c70 A0010000 		.4byte	0x1a0
 9389 1c74 00       		.byte	0
 9390 1c75 14       		.uleb128 0x14
 9391 1c76 30000000 		.4byte	.LBB13
 9392 1c7a 06000000 		.4byte	.LBE13-.LBB13
 9393 1c7e 8D1C0000 		.4byte	0x1c8d
 9394 1c82 2D       		.uleb128 0x2d
 9395 1c83 7400     		.ascii	"t\000"
 9396 1c85 01       		.byte	0x1
 9397 1c86 EC02     		.2byte	0x2ec
 9398 1c88 A0010000 		.4byte	0x1a0
 9399 1c8c 00       		.byte	0
 9400 1c8d 14       		.uleb128 0x14
 9401 1c8e 38000000 		.4byte	.LBB14
 9402 1c92 04000000 		.4byte	.LBE14-.LBB14
 9403 1c96 A51C0000 		.4byte	0x1ca5
 9404 1c9a 2D       		.uleb128 0x2d
 9405 1c9b 7400     		.ascii	"t\000"
 9406 1c9d 01       		.byte	0x1
 9407 1c9e EC02     		.2byte	0x2ec
 9408 1ca0 A0010000 		.4byte	0x1a0
 9409 1ca4 00       		.byte	0
 9410 1ca5 14       		.uleb128 0x14
 9411 1ca6 44000000 		.4byte	.LBB15
 9412 1caa 04000000 		.4byte	.LBE15-.LBB15
 9413 1cae BD1C0000 		.4byte	0x1cbd
 9414 1cb2 2D       		.uleb128 0x2d
 9415 1cb3 7400     		.ascii	"t\000"
 9416 1cb5 01       		.byte	0x1
 9417 1cb6 EF02     		.2byte	0x2ef
 9418 1cb8 A0010000 		.4byte	0x1a0
 9419 1cbc 00       		.byte	0
 9420 1cbd 14       		.uleb128 0x14
 9421 1cbe 4A000000 		.4byte	.LBB16
 9422 1cc2 04000000 		.4byte	.LBE16-.LBB16
 9423 1cc6 D51C0000 		.4byte	0x1cd5
 9424 1cca 2D       		.uleb128 0x2d
 9425 1ccb 7400     		.ascii	"t\000"
 9426 1ccd 01       		.byte	0x1
 9427 1cce EF02     		.2byte	0x2ef
 9428 1cd0 A0010000 		.4byte	0x1a0
 9429 1cd4 00       		.byte	0
 9430 1cd5 1C       		.uleb128 0x1c
 9431 1cd6 84000000 		.4byte	.LVL323
 9432 1cda D1140000 		.4byte	0x14d1
 9433 1cde F91C0000 		.4byte	0x1cf9
 9434 1ce2 1D       		.uleb128 0x1d
 9435 1ce3 01       		.uleb128 0x1
ARM GAS  C:\Users\MATEOC~1.QUE\AppData\Local\Temp\ccxtWYOp.s 			page 189


 9436 1ce4 50       		.byte	0x50
 9437 1ce5 02       		.uleb128 0x2
 9438 1ce6 75       		.byte	0x75
 9439 1ce7 00       		.sleb128 0
 9440 1ce8 1D       		.uleb128 0x1d
 9441 1ce9 01       		.uleb128 0x1
 9442 1cea 51       		.byte	0x51
 9443 1ceb 04       		.uleb128 0x4
 9444 1cec 91       		.byte	0x91
 9445 1ced 48       		.sleb128 -56
 9446 1cee 94       		.byte	0x94
 9447 1cef 02       		.byte	0x2
 9448 1cf0 1D       		.uleb128 0x1d
 9449 1cf1 01       		.uleb128 0x1
 9450 1cf2 53       		.byte	0x53
 9451 1cf3 04       		.uleb128 0x4
 9452 1cf4 7D       		.byte	0x7d
 9453 1cf5 00       		.sleb128 0
 9454 1cf6 94       		.byte	0x94
 9455 1cf7 02       		.byte	0x2
 9456 1cf8 00       		.byte	0
 9457 1cf9 1C       		.uleb128 0x1c
 9458 1cfa 14010000 		.4byte	.LVL345
 9459 1cfe D1140000 		.4byte	0x14d1
 9460 1d02 151D0000 		.4byte	0x1d15
 9461 1d06 1D       		.uleb128 0x1d
 9462 1d07 01       		.uleb128 0x1
 9463 1d08 51       		.byte	0x51
 9464 1d09 02       		.uleb128 0x2
 9465 1d0a 74       		.byte	0x74
 9466 1d0b 00       		.sleb128 0
 9467 1d0c 1D       		.uleb128 0x1d
 9468 1d0d 01       		.uleb128 0x1
 9469 1d0e 53       		.byte	0x53
 9470 1d0f 04       		.uleb128 0x4
 9471 1d10 7D       		.byte	0x7d
 9472 1d11 00       		.sleb128 0
 9473 1d12 94       		.byte	0x94
 9474 1d13 02       		.byte	0x2
 9475 1d14 00       		.byte	0
 9476 1d15 1E       		.uleb128 0x1e
 9477 1d16 68010000 		.4byte	.LVL360
 9478 1d1a D1140000 		.4byte	0x14d1
 9479 1d1e 1D       		.uleb128 0x1d
 9480 1d1f 01       		.uleb128 0x1
 9481 1d20 51       		.byte	0x51
 9482 1d21 02       		.uleb128 0x2
 9483 1d22 74       		.byte	0x74
 9484 1d23 00       		.sleb128 0
 9485 1d24 1D       		.uleb128 0x1d
 9486 1d25 01       		.uleb128 0x1
 9487 1d26 53       		.byte	0x53
 9488 1d27 04       		.uleb128 0x4
 9489 1d28 7D       		.byte	0x7d
 9490 1d29 00       		.sleb128 0
 9491 1d2a 94       		.byte	0x94
 9492 1d2b 02       		.byte	0x2
ARM GAS  C:\Users\MATEOC~1.QUE\AppData\Local\Temp\ccxtWYOp.s 			page 190


 9493 1d2c 00       		.byte	0
 9494 1d2d 00       		.byte	0
 9495 1d2e 26       		.uleb128 0x26
 9496 1d2f E1060000 		.4byte	.LASF215
 9497 1d33 01       		.byte	0x1
 9498 1d34 3003     		.2byte	0x330
 9499 1d36 00000000 		.4byte	.LFB38
 9500 1d3a DC000000 		.4byte	.LFE38-.LFB38
 9501 1d3e 01       		.uleb128 0x1
 9502 1d3f 9C       		.byte	0x9c
 9503 1d40 E51E0000 		.4byte	0x1ee5
 9504 1d44 12       		.uleb128 0x12
 9505 1d45 7800     		.ascii	"x\000"
 9506 1d47 01       		.byte	0x1
 9507 1d48 3003     		.2byte	0x330
 9508 1d4a A0010000 		.4byte	0x1a0
 9509 1d4e DD120000 		.4byte	.LLST122
 9510 1d52 12       		.uleb128 0x12
 9511 1d53 7900     		.ascii	"y\000"
 9512 1d55 01       		.byte	0x1
 9513 1d56 3003     		.2byte	0x330
 9514 1d58 A0010000 		.4byte	0x1a0
 9515 1d5c FE120000 		.4byte	.LLST123
 9516 1d60 12       		.uleb128 0x12
 9517 1d61 7700     		.ascii	"w\000"
 9518 1d63 01       		.byte	0x1
 9519 1d64 3003     		.2byte	0x330
 9520 1d66 A0010000 		.4byte	0x1a0
 9521 1d6a 1F130000 		.4byte	.LLST124
 9522 1d6e 12       		.uleb128 0x12
 9523 1d6f 6800     		.ascii	"h\000"
 9524 1d71 01       		.byte	0x1
 9525 1d72 3003     		.2byte	0x330
 9526 1d74 A0010000 		.4byte	0x1a0
 9527 1d78 4B130000 		.4byte	.LLST125
 9528 1d7c 27       		.uleb128 0x27
 9529 1d7d 7200     		.ascii	"r\000"
 9530 1d7f 01       		.byte	0x1
 9531 1d80 3003     		.2byte	0x330
 9532 1d82 A0010000 		.4byte	0x1a0
 9533 1d86 02       		.uleb128 0x2
 9534 1d87 91       		.byte	0x91
 9535 1d88 00       		.sleb128 0
 9536 1d89 2B       		.uleb128 0x2b
 9537 1d8a 7F080000 		.4byte	.LASF182
 9538 1d8e 01       		.byte	0x1
 9539 1d8f 3003     		.2byte	0x330
 9540 1d91 B6010000 		.4byte	0x1b6
 9541 1d95 02       		.uleb128 0x2
 9542 1d96 91       		.byte	0x91
 9543 1d97 04       		.sleb128 4
 9544 1d98 1C       		.uleb128 0x1c
 9545 1d99 42000000 		.4byte	.LVL368
 9546 1d9d D1140000 		.4byte	0x14d1
 9547 1da1 C01D0000 		.4byte	0x1dc0
 9548 1da5 1D       		.uleb128 0x1d
 9549 1da6 01       		.uleb128 0x1
ARM GAS  C:\Users\MATEOC~1.QUE\AppData\Local\Temp\ccxtWYOp.s 			page 191


 9550 1da7 50       		.byte	0x50
 9551 1da8 02       		.uleb128 0x2
 9552 1da9 75       		.byte	0x75
 9553 1daa 00       		.sleb128 0
 9554 1dab 1D       		.uleb128 0x1d
 9555 1dac 01       		.uleb128 0x1
 9556 1dad 51       		.byte	0x51
 9557 1dae 02       		.uleb128 0x2
 9558 1daf 76       		.byte	0x76
 9559 1db0 00       		.sleb128 0
 9560 1db1 1D       		.uleb128 0x1d
 9561 1db2 01       		.uleb128 0x1
 9562 1db3 52       		.byte	0x52
 9563 1db4 04       		.uleb128 0x4
 9564 1db5 91       		.byte	0x91
 9565 1db6 54       		.sleb128 -44
 9566 1db7 94       		.byte	0x94
 9567 1db8 02       		.byte	0x2
 9568 1db9 1D       		.uleb128 0x1d
 9569 1dba 01       		.uleb128 0x1
 9570 1dbb 53       		.byte	0x53
 9571 1dbc 02       		.uleb128 0x2
 9572 1dbd 78       		.byte	0x78
 9573 1dbe 00       		.sleb128 0
 9574 1dbf 00       		.byte	0
 9575 1dc0 1C       		.uleb128 0x1c
 9576 1dc1 58000000 		.4byte	.LVL369
 9577 1dc5 D1140000 		.4byte	0x14d1
 9578 1dc9 EA1D0000 		.4byte	0x1dea
 9579 1dcd 1D       		.uleb128 0x1d
 9580 1dce 01       		.uleb128 0x1
 9581 1dcf 50       		.byte	0x50
 9582 1dd0 04       		.uleb128 0x4
 9583 1dd1 91       		.byte	0x91
 9584 1dd2 48       		.sleb128 -56
 9585 1dd3 94       		.byte	0x94
 9586 1dd4 02       		.byte	0x2
 9587 1dd5 1D       		.uleb128 0x1d
 9588 1dd6 01       		.uleb128 0x1
 9589 1dd7 51       		.byte	0x51
 9590 1dd8 02       		.uleb128 0x2
 9591 1dd9 75       		.byte	0x75
 9592 1dda 7F       		.sleb128 -1
 9593 1ddb 1D       		.uleb128 0x1d
 9594 1ddc 01       		.uleb128 0x1
 9595 1ddd 52       		.byte	0x52
 9596 1dde 04       		.uleb128 0x4
 9597 1ddf 91       		.byte	0x91
 9598 1de0 54       		.sleb128 -44
 9599 1de1 94       		.byte	0x94
 9600 1de2 02       		.byte	0x2
 9601 1de3 1D       		.uleb128 0x1d
 9602 1de4 01       		.uleb128 0x1
 9603 1de5 53       		.byte	0x53
 9604 1de6 02       		.uleb128 0x2
 9605 1de7 78       		.byte	0x78
 9606 1de8 00       		.sleb128 0
ARM GAS  C:\Users\MATEOC~1.QUE\AppData\Local\Temp\ccxtWYOp.s 			page 192


 9607 1de9 00       		.byte	0
 9608 1dea 1C       		.uleb128 0x1c
 9609 1deb 6E000000 		.4byte	.LVL370
 9610 1def 74120000 		.4byte	0x1274
 9611 1df3 121E0000 		.4byte	0x1e12
 9612 1df7 1D       		.uleb128 0x1d
 9613 1df8 01       		.uleb128 0x1
 9614 1df9 50       		.byte	0x50
 9615 1dfa 04       		.uleb128 0x4
 9616 1dfb 91       		.byte	0x91
 9617 1dfc 4C       		.sleb128 -52
 9618 1dfd 94       		.byte	0x94
 9619 1dfe 02       		.byte	0x2
 9620 1dff 1D       		.uleb128 0x1d
 9621 1e00 01       		.uleb128 0x1
 9622 1e01 51       		.byte	0x51
 9623 1e02 02       		.uleb128 0x2
 9624 1e03 76       		.byte	0x76
 9625 1e04 00       		.sleb128 0
 9626 1e05 1D       		.uleb128 0x1d
 9627 1e06 01       		.uleb128 0x1
 9628 1e07 52       		.byte	0x52
 9629 1e08 02       		.uleb128 0x2
 9630 1e09 77       		.byte	0x77
 9631 1e0a 00       		.sleb128 0
 9632 1e0b 1D       		.uleb128 0x1d
 9633 1e0c 01       		.uleb128 0x1
 9634 1e0d 53       		.byte	0x53
 9635 1e0e 02       		.uleb128 0x2
 9636 1e0f 78       		.byte	0x78
 9637 1e10 00       		.sleb128 0
 9638 1e11 00       		.byte	0
 9639 1e12 1C       		.uleb128 0x1c
 9640 1e13 80000000 		.4byte	.LVL372
 9641 1e17 74120000 		.4byte	0x1274
 9642 1e1b 381E0000 		.4byte	0x1e38
 9643 1e1f 1D       		.uleb128 0x1d
 9644 1e20 01       		.uleb128 0x1
 9645 1e21 50       		.byte	0x50
 9646 1e22 02       		.uleb128 0x2
 9647 1e23 74       		.byte	0x74
 9648 1e24 7F       		.sleb128 -1
 9649 1e25 1D       		.uleb128 0x1d
 9650 1e26 01       		.uleb128 0x1
 9651 1e27 51       		.byte	0x51
 9652 1e28 02       		.uleb128 0x2
 9653 1e29 76       		.byte	0x76
 9654 1e2a 00       		.sleb128 0
 9655 1e2b 1D       		.uleb128 0x1d
 9656 1e2c 01       		.uleb128 0x1
 9657 1e2d 52       		.byte	0x52
 9658 1e2e 02       		.uleb128 0x2
 9659 1e2f 77       		.byte	0x77
 9660 1e30 00       		.sleb128 0
 9661 1e31 1D       		.uleb128 0x1d
 9662 1e32 01       		.uleb128 0x1
 9663 1e33 53       		.byte	0x53
ARM GAS  C:\Users\MATEOC~1.QUE\AppData\Local\Temp\ccxtWYOp.s 			page 193


 9664 1e34 02       		.uleb128 0x2
 9665 1e35 78       		.byte	0x78
 9666 1e36 00       		.sleb128 0
 9667 1e37 00       		.byte	0
 9668 1e38 1C       		.uleb128 0x1c
 9669 1e39 96000000 		.4byte	.LVL373
 9670 1e3d 8D100000 		.4byte	0x108d
 9671 1e41 641E0000 		.4byte	0x1e64
 9672 1e45 1D       		.uleb128 0x1d
 9673 1e46 01       		.uleb128 0x1
 9674 1e47 50       		.byte	0x50
 9675 1e48 02       		.uleb128 0x2
 9676 1e49 7A       		.byte	0x7a
 9677 1e4a 00       		.sleb128 0
 9678 1e4b 1D       		.uleb128 0x1d
 9679 1e4c 01       		.uleb128 0x1
 9680 1e4d 51       		.byte	0x51
 9681 1e4e 02       		.uleb128 0x2
 9682 1e4f 76       		.byte	0x76
 9683 1e50 00       		.sleb128 0
 9684 1e51 1D       		.uleb128 0x1d
 9685 1e52 01       		.uleb128 0x1
 9686 1e53 52       		.byte	0x52
 9687 1e54 02       		.uleb128 0x2
 9688 1e55 77       		.byte	0x77
 9689 1e56 00       		.sleb128 0
 9690 1e57 1D       		.uleb128 0x1d
 9691 1e58 01       		.uleb128 0x1
 9692 1e59 53       		.byte	0x53
 9693 1e5a 01       		.uleb128 0x1
 9694 1e5b 31       		.byte	0x31
 9695 1e5c 1D       		.uleb128 0x1d
 9696 1e5d 02       		.uleb128 0x2
 9697 1e5e 7D       		.byte	0x7d
 9698 1e5f 00       		.sleb128 0
 9699 1e60 02       		.uleb128 0x2
 9700 1e61 78       		.byte	0x78
 9701 1e62 00       		.sleb128 0
 9702 1e63 00       		.byte	0
 9703 1e64 1C       		.uleb128 0x1c
 9704 1e65 AE000000 		.4byte	.LVL374
 9705 1e69 8D100000 		.4byte	0x108d
 9706 1e6d 901E0000 		.4byte	0x1e90
 9707 1e71 1D       		.uleb128 0x1d
 9708 1e72 01       		.uleb128 0x1
 9709 1e73 50       		.byte	0x50
 9710 1e74 02       		.uleb128 0x2
 9711 1e75 74       		.byte	0x74
 9712 1e76 00       		.sleb128 0
 9713 1e77 1D       		.uleb128 0x1d
 9714 1e78 01       		.uleb128 0x1
 9715 1e79 51       		.byte	0x51
 9716 1e7a 02       		.uleb128 0x2
 9717 1e7b 76       		.byte	0x76
 9718 1e7c 00       		.sleb128 0
 9719 1e7d 1D       		.uleb128 0x1d
 9720 1e7e 01       		.uleb128 0x1
ARM GAS  C:\Users\MATEOC~1.QUE\AppData\Local\Temp\ccxtWYOp.s 			page 194


 9721 1e7f 52       		.byte	0x52
 9722 1e80 02       		.uleb128 0x2
 9723 1e81 77       		.byte	0x77
 9724 1e82 00       		.sleb128 0
 9725 1e83 1D       		.uleb128 0x1d
 9726 1e84 01       		.uleb128 0x1
 9727 1e85 53       		.byte	0x53
 9728 1e86 01       		.uleb128 0x1
 9729 1e87 32       		.byte	0x32
 9730 1e88 1D       		.uleb128 0x1d
 9731 1e89 02       		.uleb128 0x2
 9732 1e8a 7D       		.byte	0x7d
 9733 1e8b 00       		.sleb128 0
 9734 1e8c 02       		.uleb128 0x2
 9735 1e8d 78       		.byte	0x78
 9736 1e8e 00       		.sleb128 0
 9737 1e8f 00       		.byte	0
 9738 1e90 1C       		.uleb128 0x1c
 9739 1e91 C6000000 		.4byte	.LVL375
 9740 1e95 8D100000 		.4byte	0x108d
 9741 1e99 BC1E0000 		.4byte	0x1ebc
 9742 1e9d 1D       		.uleb128 0x1d
 9743 1e9e 01       		.uleb128 0x1
 9744 1e9f 50       		.byte	0x50
 9745 1ea0 02       		.uleb128 0x2
 9746 1ea1 74       		.byte	0x74
 9747 1ea2 00       		.sleb128 0
 9748 1ea3 1D       		.uleb128 0x1d
 9749 1ea4 01       		.uleb128 0x1
 9750 1ea5 51       		.byte	0x51
 9751 1ea6 02       		.uleb128 0x2
 9752 1ea7 75       		.byte	0x75
 9753 1ea8 00       		.sleb128 0
 9754 1ea9 1D       		.uleb128 0x1d
 9755 1eaa 01       		.uleb128 0x1
 9756 1eab 52       		.byte	0x52
 9757 1eac 02       		.uleb128 0x2
 9758 1ead 77       		.byte	0x77
 9759 1eae 00       		.sleb128 0
 9760 1eaf 1D       		.uleb128 0x1d
 9761 1eb0 01       		.uleb128 0x1
 9762 1eb1 53       		.byte	0x53
 9763 1eb2 01       		.uleb128 0x1
 9764 1eb3 34       		.byte	0x34
 9765 1eb4 1D       		.uleb128 0x1d
 9766 1eb5 02       		.uleb128 0x2
 9767 1eb6 7D       		.byte	0x7d
 9768 1eb7 00       		.sleb128 0
 9769 1eb8 02       		.uleb128 0x2
 9770 1eb9 78       		.byte	0x78
 9771 1eba 00       		.sleb128 0
 9772 1ebb 00       		.byte	0
 9773 1ebc 1E       		.uleb128 0x1e
 9774 1ebd D6000000 		.4byte	.LVL376
 9775 1ec1 8D100000 		.4byte	0x108d
 9776 1ec5 1D       		.uleb128 0x1d
 9777 1ec6 01       		.uleb128 0x1
ARM GAS  C:\Users\MATEOC~1.QUE\AppData\Local\Temp\ccxtWYOp.s 			page 195


 9778 1ec7 50       		.byte	0x50
 9779 1ec8 02       		.uleb128 0x2
 9780 1ec9 7A       		.byte	0x7a
 9781 1eca 00       		.sleb128 0
 9782 1ecb 1D       		.uleb128 0x1d
 9783 1ecc 01       		.uleb128 0x1
 9784 1ecd 51       		.byte	0x51
 9785 1ece 02       		.uleb128 0x2
 9786 1ecf 75       		.byte	0x75
 9787 1ed0 00       		.sleb128 0
 9788 1ed1 1D       		.uleb128 0x1d
 9789 1ed2 01       		.uleb128 0x1
 9790 1ed3 52       		.byte	0x52
 9791 1ed4 02       		.uleb128 0x2
 9792 1ed5 77       		.byte	0x77
 9793 1ed6 00       		.sleb128 0
 9794 1ed7 1D       		.uleb128 0x1d
 9795 1ed8 01       		.uleb128 0x1
 9796 1ed9 53       		.byte	0x53
 9797 1eda 01       		.uleb128 0x1
 9798 1edb 38       		.byte	0x38
 9799 1edc 1D       		.uleb128 0x1d
 9800 1edd 02       		.uleb128 0x2
 9801 1ede 7D       		.byte	0x7d
 9802 1edf 00       		.sleb128 0
 9803 1ee0 02       		.uleb128 0x2
 9804 1ee1 78       		.byte	0x78
 9805 1ee2 00       		.sleb128 0
 9806 1ee3 00       		.byte	0
 9807 1ee4 00       		.byte	0
 9808 1ee5 26       		.uleb128 0x26
 9809 1ee6 4F060000 		.4byte	.LASF216
 9810 1eea 01       		.byte	0x1
 9811 1eeb 3F03     		.2byte	0x33f
 9812 1eed 00000000 		.4byte	.LFB39
 9813 1ef1 82000000 		.4byte	.LFE39-.LFB39
 9814 1ef5 01       		.uleb128 0x1
 9815 1ef6 9C       		.byte	0x9c
 9816 1ef7 EB1F0000 		.4byte	0x1feb
 9817 1efb 12       		.uleb128 0x12
 9818 1efc 7800     		.ascii	"x\000"
 9819 1efe 01       		.byte	0x1
 9820 1eff 3F03     		.2byte	0x33f
 9821 1f01 A0010000 		.4byte	0x1a0
 9822 1f05 6C130000 		.4byte	.LLST126
 9823 1f09 12       		.uleb128 0x12
 9824 1f0a 7900     		.ascii	"y\000"
 9825 1f0c 01       		.byte	0x1
 9826 1f0d 3F03     		.2byte	0x33f
 9827 1f0f A0010000 		.4byte	0x1a0
 9828 1f13 8A130000 		.4byte	.LLST127
 9829 1f17 12       		.uleb128 0x12
 9830 1f18 7700     		.ascii	"w\000"
 9831 1f1a 01       		.byte	0x1
 9832 1f1b 3F03     		.2byte	0x33f
 9833 1f1d A0010000 		.4byte	0x1a0
 9834 1f21 AB130000 		.4byte	.LLST128
ARM GAS  C:\Users\MATEOC~1.QUE\AppData\Local\Temp\ccxtWYOp.s 			page 196


 9835 1f25 12       		.uleb128 0x12
 9836 1f26 6800     		.ascii	"h\000"
 9837 1f28 01       		.byte	0x1
 9838 1f29 3F03     		.2byte	0x33f
 9839 1f2b A0010000 		.4byte	0x1a0
 9840 1f2f C9130000 		.4byte	.LLST129
 9841 1f33 27       		.uleb128 0x27
 9842 1f34 7200     		.ascii	"r\000"
 9843 1f36 01       		.byte	0x1
 9844 1f37 3F03     		.2byte	0x33f
 9845 1f39 A0010000 		.4byte	0x1a0
 9846 1f3d 02       		.uleb128 0x2
 9847 1f3e 91       		.byte	0x91
 9848 1f3f 00       		.sleb128 0
 9849 1f40 2B       		.uleb128 0x2b
 9850 1f41 7F080000 		.4byte	.LASF182
 9851 1f45 01       		.byte	0x1
 9852 1f46 3F03     		.2byte	0x33f
 9853 1f48 B6010000 		.4byte	0x1b6
 9854 1f4c 02       		.uleb128 0x2
 9855 1f4d 91       		.byte	0x91
 9856 1f4e 04       		.sleb128 4
 9857 1f4f 1C       		.uleb128 0x1c
 9858 1f50 3A000000 		.4byte	.LVL380
 9859 1f54 C10C0000 		.4byte	0xcc1
 9860 1f58 811F0000 		.4byte	0x1f81
 9861 1f5c 1D       		.uleb128 0x1d
 9862 1f5d 01       		.uleb128 0x1
 9863 1f5e 50       		.byte	0x50
 9864 1f5f 02       		.uleb128 0x2
 9865 1f60 76       		.byte	0x76
 9866 1f61 00       		.sleb128 0
 9867 1f62 1D       		.uleb128 0x1d
 9868 1f63 01       		.uleb128 0x1
 9869 1f64 51       		.byte	0x51
 9870 1f65 02       		.uleb128 0x2
 9871 1f66 75       		.byte	0x75
 9872 1f67 00       		.sleb128 0
 9873 1f68 1D       		.uleb128 0x1d
 9874 1f69 01       		.uleb128 0x1
 9875 1f6a 52       		.byte	0x52
 9876 1f6b 05       		.uleb128 0x5
 9877 1f6c 74       		.byte	0x74
 9878 1f6d 00       		.sleb128 0
 9879 1f6e 78       		.byte	0x78
 9880 1f6f 00       		.sleb128 0
 9881 1f70 1C       		.byte	0x1c
 9882 1f71 1D       		.uleb128 0x1d
 9883 1f72 01       		.uleb128 0x1
 9884 1f73 53       		.byte	0x53
 9885 1f74 04       		.uleb128 0x4
 9886 1f75 91       		.byte	0x91
 9887 1f76 54       		.sleb128 -44
 9888 1f77 94       		.byte	0x94
 9889 1f78 02       		.byte	0x2
 9890 1f79 1D       		.uleb128 0x1d
 9891 1f7a 02       		.uleb128 0x2
ARM GAS  C:\Users\MATEOC~1.QUE\AppData\Local\Temp\ccxtWYOp.s 			page 197


 9892 1f7b 7D       		.byte	0x7d
 9893 1f7c 00       		.sleb128 0
 9894 1f7d 02       		.uleb128 0x2
 9895 1f7e 7A       		.byte	0x7a
 9896 1f7f 00       		.sleb128 0
 9897 1f80 00       		.byte	0
 9898 1f81 1C       		.uleb128 0x1c
 9899 1f82 68000000 		.4byte	.LVL381
 9900 1f86 3E130000 		.4byte	0x133e
 9901 1f8a BB1F0000 		.4byte	0x1fbb
 9902 1f8e 1D       		.uleb128 0x1d
 9903 1f8f 01       		.uleb128 0x1
 9904 1f90 50       		.byte	0x50
 9905 1f91 09       		.uleb128 0x9
 9906 1f92 77       		.byte	0x77
 9907 1f93 00       		.sleb128 0
 9908 1f94 20       		.byte	0x20
 9909 1f95 74       		.byte	0x74
 9910 1f96 00       		.sleb128 0
 9911 1f97 22       		.byte	0x22
 9912 1f98 7B       		.byte	0x7b
 9913 1f99 00       		.sleb128 0
 9914 1f9a 22       		.byte	0x22
 9915 1f9b 1D       		.uleb128 0x1d
 9916 1f9c 01       		.uleb128 0x1
 9917 1f9d 51       		.byte	0x51
 9918 1f9e 02       		.uleb128 0x2
 9919 1f9f 75       		.byte	0x75
 9920 1fa0 00       		.sleb128 0
 9921 1fa1 1D       		.uleb128 0x1d
 9922 1fa2 01       		.uleb128 0x1
 9923 1fa3 52       		.byte	0x52
 9924 1fa4 02       		.uleb128 0x2
 9925 1fa5 79       		.byte	0x79
 9926 1fa6 00       		.sleb128 0
 9927 1fa7 1D       		.uleb128 0x1d
 9928 1fa8 01       		.uleb128 0x1
 9929 1fa9 53       		.byte	0x53
 9930 1faa 01       		.uleb128 0x1
 9931 1fab 31       		.byte	0x31
 9932 1fac 1D       		.uleb128 0x1d
 9933 1fad 02       		.uleb128 0x2
 9934 1fae 7D       		.byte	0x7d
 9935 1faf 00       		.sleb128 0
 9936 1fb0 02       		.uleb128 0x2
 9937 1fb1 78       		.byte	0x78
 9938 1fb2 00       		.sleb128 0
 9939 1fb3 1D       		.uleb128 0x1d
 9940 1fb4 02       		.uleb128 0x2
 9941 1fb5 7D       		.byte	0x7d
 9942 1fb6 04       		.sleb128 4
 9943 1fb7 02       		.uleb128 0x2
 9944 1fb8 7A       		.byte	0x7a
 9945 1fb9 00       		.sleb128 0
 9946 1fba 00       		.byte	0
 9947 1fbb 1E       		.uleb128 0x1e
 9948 1fbc 7C000000 		.4byte	.LVL382
ARM GAS  C:\Users\MATEOC~1.QUE\AppData\Local\Temp\ccxtWYOp.s 			page 198


 9949 1fc0 3E130000 		.4byte	0x133e
 9950 1fc4 1D       		.uleb128 0x1d
 9951 1fc5 01       		.uleb128 0x1
 9952 1fc6 50       		.byte	0x50
 9953 1fc7 02       		.uleb128 0x2
 9954 1fc8 76       		.byte	0x76
 9955 1fc9 00       		.sleb128 0
 9956 1fca 1D       		.uleb128 0x1d
 9957 1fcb 01       		.uleb128 0x1
 9958 1fcc 51       		.byte	0x51
 9959 1fcd 02       		.uleb128 0x2
 9960 1fce 75       		.byte	0x75
 9961 1fcf 00       		.sleb128 0
 9962 1fd0 1D       		.uleb128 0x1d
 9963 1fd1 01       		.uleb128 0x1
 9964 1fd2 52       		.byte	0x52
 9965 1fd3 02       		.uleb128 0x2
 9966 1fd4 79       		.byte	0x79
 9967 1fd5 00       		.sleb128 0
 9968 1fd6 1D       		.uleb128 0x1d
 9969 1fd7 01       		.uleb128 0x1
 9970 1fd8 53       		.byte	0x53
 9971 1fd9 01       		.uleb128 0x1
 9972 1fda 32       		.byte	0x32
 9973 1fdb 1D       		.uleb128 0x1d
 9974 1fdc 02       		.uleb128 0x2
 9975 1fdd 7D       		.byte	0x7d
 9976 1fde 00       		.sleb128 0
 9977 1fdf 02       		.uleb128 0x2
 9978 1fe0 78       		.byte	0x78
 9979 1fe1 00       		.sleb128 0
 9980 1fe2 1D       		.uleb128 0x1d
 9981 1fe3 02       		.uleb128 0x2
 9982 1fe4 7D       		.byte	0x7d
 9983 1fe5 04       		.sleb128 4
 9984 1fe6 02       		.uleb128 0x2
 9985 1fe7 7A       		.byte	0x7a
 9986 1fe8 00       		.sleb128 0
 9987 1fe9 00       		.byte	0
 9988 1fea 00       		.byte	0
 9989 1feb 26       		.uleb128 0x26
 9990 1fec 520B0000 		.4byte	.LASF217
 9991 1ff0 01       		.byte	0x1
 9992 1ff1 4B03     		.2byte	0x34b
 9993 1ff3 00000000 		.4byte	.LFB40
 9994 1ff7 48000000 		.4byte	.LFE40-.LFB40
 9995 1ffb 01       		.uleb128 0x1
 9996 1ffc 9C       		.byte	0x9c
 9997 1ffd E7200000 		.4byte	0x20e7
 9998 2001 12       		.uleb128 0x12
 9999 2002 7800     		.ascii	"x\000"
 10000 2004 01       		.byte	0x1
 10001 2005 4B03     		.2byte	0x34b
 10002 2007 A0010000 		.4byte	0x1a0
 10003 200b EA130000 		.4byte	.LLST130
 10004 200f 12       		.uleb128 0x12
 10005 2010 7900     		.ascii	"y\000"
ARM GAS  C:\Users\MATEOC~1.QUE\AppData\Local\Temp\ccxtWYOp.s 			page 199


 10006 2012 01       		.byte	0x1
 10007 2013 4B03     		.2byte	0x34b
 10008 2015 A0010000 		.4byte	0x1a0
 10009 2019 0B140000 		.4byte	.LLST131
 10010 201d 12       		.uleb128 0x12
 10011 201e 7700     		.ascii	"w\000"
 10012 2020 01       		.byte	0x1
 10013 2021 4B03     		.2byte	0x34b
 10014 2023 A0010000 		.4byte	0x1a0
 10015 2027 2C140000 		.4byte	.LLST132
 10016 202b 12       		.uleb128 0x12
 10017 202c 6800     		.ascii	"h\000"
 10018 202e 01       		.byte	0x1
 10019 202f 4B03     		.2byte	0x34b
 10020 2031 A0010000 		.4byte	0x1a0
 10021 2035 4D140000 		.4byte	.LLST133
 10022 2039 2B       		.uleb128 0x2b
 10023 203a 7F080000 		.4byte	.LASF182
 10024 203e 01       		.byte	0x1
 10025 203f 4B03     		.2byte	0x34b
 10026 2041 B6010000 		.4byte	0x1b6
 10027 2045 02       		.uleb128 0x2
 10028 2046 91       		.byte	0x91
 10029 2047 00       		.sleb128 0
 10030 2048 1C       		.uleb128 0x1c
 10031 2049 16000000 		.4byte	.LVL385
 10032 204d D1140000 		.4byte	0x14d1
 10033 2051 6E200000 		.4byte	0x206e
 10034 2055 1D       		.uleb128 0x1d
 10035 2056 01       		.uleb128 0x1
 10036 2057 50       		.byte	0x50
 10037 2058 02       		.uleb128 0x2
 10038 2059 78       		.byte	0x78
 10039 205a 00       		.sleb128 0
 10040 205b 1D       		.uleb128 0x1d
 10041 205c 01       		.uleb128 0x1
 10042 205d 51       		.byte	0x51
 10043 205e 02       		.uleb128 0x2
 10044 205f 76       		.byte	0x76
 10045 2060 00       		.sleb128 0
 10046 2061 1D       		.uleb128 0x1d
 10047 2062 01       		.uleb128 0x1
 10048 2063 52       		.byte	0x52
 10049 2064 02       		.uleb128 0x2
 10050 2065 74       		.byte	0x74
 10051 2066 00       		.sleb128 0
 10052 2067 1D       		.uleb128 0x1d
 10053 2068 01       		.uleb128 0x1
 10054 2069 53       		.byte	0x53
 10055 206a 02       		.uleb128 0x2
 10056 206b 75       		.byte	0x75
 10057 206c 00       		.sleb128 0
 10058 206d 00       		.byte	0
 10059 206e 1C       		.uleb128 0x1c
 10060 206f 26000000 		.4byte	.LVL386
 10061 2073 D1140000 		.4byte	0x14d1
 10062 2077 99200000 		.4byte	0x2099
ARM GAS  C:\Users\MATEOC~1.QUE\AppData\Local\Temp\ccxtWYOp.s 			page 200


 10063 207b 1D       		.uleb128 0x1d
 10064 207c 01       		.uleb128 0x1
 10065 207d 50       		.byte	0x50
 10066 207e 02       		.uleb128 0x2
 10067 207f 78       		.byte	0x78
 10068 2080 00       		.sleb128 0
 10069 2081 1D       		.uleb128 0x1d
 10070 2082 01       		.uleb128 0x1
 10071 2083 51       		.byte	0x51
 10072 2084 07       		.uleb128 0x7
 10073 2085 76       		.byte	0x76
 10074 2086 00       		.sleb128 0
 10075 2087 77       		.byte	0x77
 10076 2088 00       		.sleb128 0
 10077 2089 22       		.byte	0x22
 10078 208a 31       		.byte	0x31
 10079 208b 1C       		.byte	0x1c
 10080 208c 1D       		.uleb128 0x1d
 10081 208d 01       		.uleb128 0x1
 10082 208e 52       		.byte	0x52
 10083 208f 02       		.uleb128 0x2
 10084 2090 74       		.byte	0x74
 10085 2091 00       		.sleb128 0
 10086 2092 1D       		.uleb128 0x1d
 10087 2093 01       		.uleb128 0x1
 10088 2094 53       		.byte	0x53
 10089 2095 02       		.uleb128 0x2
 10090 2096 75       		.byte	0x75
 10091 2097 00       		.sleb128 0
 10092 2098 00       		.byte	0
 10093 2099 1C       		.uleb128 0x1c
 10094 209a 32000000 		.4byte	.LVL387
 10095 209e 74120000 		.4byte	0x1274
 10096 20a2 BF200000 		.4byte	0x20bf
 10097 20a6 1D       		.uleb128 0x1d
 10098 20a7 01       		.uleb128 0x1
 10099 20a8 50       		.byte	0x50
 10100 20a9 02       		.uleb128 0x2
 10101 20aa 78       		.byte	0x78
 10102 20ab 00       		.sleb128 0
 10103 20ac 1D       		.uleb128 0x1d
 10104 20ad 01       		.uleb128 0x1
 10105 20ae 51       		.byte	0x51
 10106 20af 02       		.uleb128 0x2
 10107 20b0 76       		.byte	0x76
 10108 20b1 00       		.sleb128 0
 10109 20b2 1D       		.uleb128 0x1d
 10110 20b3 01       		.uleb128 0x1
 10111 20b4 52       		.byte	0x52
 10112 20b5 02       		.uleb128 0x2
 10113 20b6 77       		.byte	0x77
 10114 20b7 00       		.sleb128 0
 10115 20b8 1D       		.uleb128 0x1d
 10116 20b9 01       		.uleb128 0x1
 10117 20ba 53       		.byte	0x53
 10118 20bb 02       		.uleb128 0x2
 10119 20bc 75       		.byte	0x75
ARM GAS  C:\Users\MATEOC~1.QUE\AppData\Local\Temp\ccxtWYOp.s 			page 201


 10120 20bd 00       		.sleb128 0
 10121 20be 00       		.byte	0
 10122 20bf 1E       		.uleb128 0x1e
 10123 20c0 44000000 		.4byte	.LVL388
 10124 20c4 74120000 		.4byte	0x1274
 10125 20c8 1D       		.uleb128 0x1d
 10126 20c9 01       		.uleb128 0x1
 10127 20ca 50       		.byte	0x50
 10128 20cb 07       		.uleb128 0x7
 10129 20cc 74       		.byte	0x74
 10130 20cd 00       		.sleb128 0
 10131 20ce 78       		.byte	0x78
 10132 20cf 00       		.sleb128 0
 10133 20d0 22       		.byte	0x22
 10134 20d1 31       		.byte	0x31
 10135 20d2 1C       		.byte	0x1c
 10136 20d3 1D       		.uleb128 0x1d
 10137 20d4 01       		.uleb128 0x1
 10138 20d5 51       		.byte	0x51
 10139 20d6 02       		.uleb128 0x2
 10140 20d7 76       		.byte	0x76
 10141 20d8 00       		.sleb128 0
 10142 20d9 1D       		.uleb128 0x1d
 10143 20da 01       		.uleb128 0x1
 10144 20db 52       		.byte	0x52
 10145 20dc 02       		.uleb128 0x2
 10146 20dd 77       		.byte	0x77
 10147 20de 00       		.sleb128 0
 10148 20df 1D       		.uleb128 0x1d
 10149 20e0 01       		.uleb128 0x1
 10150 20e1 53       		.byte	0x53
 10151 20e2 02       		.uleb128 0x2
 10152 20e3 75       		.byte	0x75
 10153 20e4 00       		.sleb128 0
 10154 20e5 00       		.byte	0
 10155 20e6 00       		.byte	0
 10156 20e7 26       		.uleb128 0x26
 10157 20e8 0B030000 		.4byte	.LASF218
 10158 20ec 01       		.byte	0x1
 10159 20ed 5303     		.2byte	0x353
 10160 20ef 00000000 		.4byte	.LFB41
 10161 20f3 1C020000 		.4byte	.LFE41-.LFB41
 10162 20f7 01       		.uleb128 0x1
 10163 20f8 9C       		.byte	0x9c
 10164 20f9 2F240000 		.4byte	0x242f
 10165 20fd 12       		.uleb128 0x12
 10166 20fe 7800     		.ascii	"x\000"
 10167 2100 01       		.byte	0x1
 10168 2101 5303     		.2byte	0x353
 10169 2103 A0010000 		.4byte	0x1a0
 10170 2107 6E140000 		.4byte	.LLST134
 10171 210b 12       		.uleb128 0x12
 10172 210c 7900     		.ascii	"y\000"
 10173 210e 01       		.byte	0x1
 10174 210f 5303     		.2byte	0x353
 10175 2111 A0010000 		.4byte	0x1a0
 10176 2115 A8140000 		.4byte	.LLST135
ARM GAS  C:\Users\MATEOC~1.QUE\AppData\Local\Temp\ccxtWYOp.s 			page 202


 10177 2119 12       		.uleb128 0x12
 10178 211a 6300     		.ascii	"c\000"
 10179 211c 01       		.byte	0x1
 10180 211d 5303     		.2byte	0x353
 10181 211f 3E000000 		.4byte	0x3e
 10182 2123 E2140000 		.4byte	.LLST136
 10183 2127 13       		.uleb128 0x13
 10184 2128 7F080000 		.4byte	.LASF182
 10185 212c 01       		.byte	0x1
 10186 212d 5303     		.2byte	0x353
 10187 212f B6010000 		.4byte	0x1b6
 10188 2133 3E150000 		.4byte	.LLST137
 10189 2137 12       		.uleb128 0x12
 10190 2138 626700   		.ascii	"bg\000"
 10191 213b 01       		.byte	0x1
 10192 213c 5303     		.2byte	0x353
 10193 213e B6010000 		.4byte	0x1b6
 10194 2142 5F150000 		.4byte	.LLST138
 10195 2146 13       		.uleb128 0x13
 10196 2147 A2060000 		.4byte	.LASF219
 10197 214b 01       		.byte	0x1
 10198 214c 5303     		.2byte	0x353
 10199 214e 33000000 		.4byte	0x33
 10200 2152 7F150000 		.4byte	.LLST139
 10201 2156 14       		.uleb128 0x14
 10202 2157 60000000 		.4byte	.LBB17
 10203 215b A4000000 		.4byte	.LBE17-.LBB17
 10204 215f 6E220000 		.4byte	0x226e
 10205 2163 17       		.uleb128 0x17
 10206 2164 6900     		.ascii	"i\000"
 10207 2166 01       		.byte	0x1
 10208 2167 5D03     		.2byte	0x35d
 10209 2169 95010000 		.4byte	0x195
 10210 216d 9F150000 		.4byte	.LLST140
 10211 2171 16       		.uleb128 0x16
 10212 2172 60000000 		.4byte	.LBB18
 10213 2176 96000000 		.4byte	.LBE18-.LBB18
 10214 217a 15       		.uleb128 0x15
 10215 217b 180B0000 		.4byte	.LASF220
 10216 217f 01       		.byte	0x1
 10217 2180 5E03     		.2byte	0x35e
 10218 2182 33000000 		.4byte	0x33
 10219 2186 BD150000 		.4byte	.LLST141
 10220 218a 16       		.uleb128 0x16
 10221 218b 70000000 		.4byte	.LBB19
 10222 218f 86000000 		.4byte	.LBE19-.LBB19
 10223 2193 17       		.uleb128 0x17
 10224 2194 6A00     		.ascii	"j\000"
 10225 2196 01       		.byte	0x1
 10226 2197 5F03     		.2byte	0x35f
 10227 2199 95010000 		.4byte	0x195
 10228 219d D0150000 		.4byte	.LLST142
 10229 21a1 1C       		.uleb128 0x1c
 10230 21a2 92000000 		.4byte	.LVL397
 10231 21a6 D50F0000 		.4byte	0xfd5
 10232 21aa C7210000 		.4byte	0x21c7
 10233 21ae 1D       		.uleb128 0x1d
ARM GAS  C:\Users\MATEOC~1.QUE\AppData\Local\Temp\ccxtWYOp.s 			page 203


 10234 21af 01       		.uleb128 0x1
 10235 21b0 50       		.byte	0x50
 10236 21b1 05       		.uleb128 0x5
 10237 21b2 78       		.byte	0x78
 10238 21b3 00       		.sleb128 0
 10239 21b4 79       		.byte	0x79
 10240 21b5 00       		.sleb128 0
 10241 21b6 22       		.byte	0x22
 10242 21b7 1D       		.uleb128 0x1d
 10243 21b8 01       		.uleb128 0x1
 10244 21b9 51       		.byte	0x51
 10245 21ba 05       		.uleb128 0x5
 10246 21bb 74       		.byte	0x74
 10247 21bc 00       		.sleb128 0
 10248 21bd 7B       		.byte	0x7b
 10249 21be 00       		.sleb128 0
 10250 21bf 22       		.byte	0x22
 10251 21c0 1D       		.uleb128 0x1d
 10252 21c1 01       		.uleb128 0x1
 10253 21c2 52       		.byte	0x52
 10254 21c3 02       		.uleb128 0x2
 10255 21c4 76       		.byte	0x76
 10256 21c5 00       		.sleb128 0
 10257 21c6 00       		.byte	0
 10258 21c7 1C       		.uleb128 0x1c
 10259 21c8 B0000000 		.4byte	.LVL398
 10260 21cc C10C0000 		.4byte	0xcc1
 10261 21d0 08220000 		.4byte	0x2208
 10262 21d4 1D       		.uleb128 0x1d
 10263 21d5 01       		.uleb128 0x1
 10264 21d6 50       		.byte	0x50
 10265 21d7 0C       		.uleb128 0xc
 10266 21d8 7A       		.byte	0x7a
 10267 21d9 00       		.sleb128 0
 10268 21da 0A       		.byte	0xa
 10269 21db FFFF     		.2byte	0xffff
 10270 21dd 1A       		.byte	0x1a
 10271 21de 78       		.byte	0x78
 10272 21df 00       		.sleb128 0
 10273 21e0 1E       		.byte	0x1e
 10274 21e1 79       		.byte	0x79
 10275 21e2 00       		.sleb128 0
 10276 21e3 22       		.byte	0x22
 10277 21e4 1D       		.uleb128 0x1d
 10278 21e5 01       		.uleb128 0x1
 10279 21e6 51       		.byte	0x51
 10280 21e7 0C       		.uleb128 0xc
 10281 21e8 7A       		.byte	0x7a
 10282 21e9 00       		.sleb128 0
 10283 21ea 0A       		.byte	0xa
 10284 21eb FFFF     		.2byte	0xffff
 10285 21ed 1A       		.byte	0x1a
 10286 21ee 74       		.byte	0x74
 10287 21ef 00       		.sleb128 0
 10288 21f0 1E       		.byte	0x1e
 10289 21f1 7B       		.byte	0x7b
 10290 21f2 00       		.sleb128 0
ARM GAS  C:\Users\MATEOC~1.QUE\AppData\Local\Temp\ccxtWYOp.s 			page 204


 10291 21f3 22       		.byte	0x22
 10292 21f4 1D       		.uleb128 0x1d
 10293 21f5 01       		.uleb128 0x1
 10294 21f6 52       		.byte	0x52
 10295 21f7 02       		.uleb128 0x2
 10296 21f8 7A       		.byte	0x7a
 10297 21f9 00       		.sleb128 0
 10298 21fa 1D       		.uleb128 0x1d
 10299 21fb 01       		.uleb128 0x1
 10300 21fc 53       		.byte	0x53
 10301 21fd 02       		.uleb128 0x2
 10302 21fe 7A       		.byte	0x7a
 10303 21ff 00       		.sleb128 0
 10304 2200 1D       		.uleb128 0x1d
 10305 2201 02       		.uleb128 0x2
 10306 2202 7D       		.byte	0x7d
 10307 2203 00       		.sleb128 0
 10308 2204 02       		.uleb128 0x2
 10309 2205 76       		.byte	0x76
 10310 2206 00       		.sleb128 0
 10311 2207 00       		.byte	0
 10312 2208 1C       		.uleb128 0x1c
 10313 2209 CE000000 		.4byte	.LVL399
 10314 220d D50F0000 		.4byte	0xfd5
 10315 2211 2E220000 		.4byte	0x222e
 10316 2215 1D       		.uleb128 0x1d
 10317 2216 01       		.uleb128 0x1
 10318 2217 50       		.byte	0x50
 10319 2218 05       		.uleb128 0x5
 10320 2219 78       		.byte	0x78
 10321 221a 00       		.sleb128 0
 10322 221b 79       		.byte	0x79
 10323 221c 00       		.sleb128 0
 10324 221d 22       		.byte	0x22
 10325 221e 1D       		.uleb128 0x1d
 10326 221f 01       		.uleb128 0x1
 10327 2220 51       		.byte	0x51
 10328 2221 05       		.uleb128 0x5
 10329 2222 74       		.byte	0x74
 10330 2223 00       		.sleb128 0
 10331 2224 7B       		.byte	0x7b
 10332 2225 00       		.sleb128 0
 10333 2226 22       		.byte	0x22
 10334 2227 1D       		.uleb128 0x1d
 10335 2228 01       		.uleb128 0x1
 10336 2229 52       		.byte	0x52
 10337 222a 02       		.uleb128 0x2
 10338 222b 77       		.byte	0x77
 10339 222c 00       		.sleb128 0
 10340 222d 00       		.byte	0
 10341 222e 1E       		.uleb128 0x1e
 10342 222f EC000000 		.4byte	.LVL400
 10343 2233 C10C0000 		.4byte	0xcc1
 10344 2237 1D       		.uleb128 0x1d
 10345 2238 01       		.uleb128 0x1
 10346 2239 50       		.byte	0x50
 10347 223a 0C       		.uleb128 0xc
ARM GAS  C:\Users\MATEOC~1.QUE\AppData\Local\Temp\ccxtWYOp.s 			page 205


 10348 223b 7A       		.byte	0x7a
 10349 223c 00       		.sleb128 0
 10350 223d 0A       		.byte	0xa
 10351 223e FFFF     		.2byte	0xffff
 10352 2240 1A       		.byte	0x1a
 10353 2241 78       		.byte	0x78
 10354 2242 00       		.sleb128 0
 10355 2243 1E       		.byte	0x1e
 10356 2244 79       		.byte	0x79
 10357 2245 00       		.sleb128 0
 10358 2246 22       		.byte	0x22
 10359 2247 1D       		.uleb128 0x1d
 10360 2248 01       		.uleb128 0x1
 10361 2249 51       		.byte	0x51
 10362 224a 0C       		.uleb128 0xc
 10363 224b 7A       		.byte	0x7a
 10364 224c 00       		.sleb128 0
 10365 224d 0A       		.byte	0xa
 10366 224e FFFF     		.2byte	0xffff
 10367 2250 1A       		.byte	0x1a
 10368 2251 74       		.byte	0x74
 10369 2252 00       		.sleb128 0
 10370 2253 1E       		.byte	0x1e
 10371 2254 7B       		.byte	0x7b
 10372 2255 00       		.sleb128 0
 10373 2256 22       		.byte	0x22
 10374 2257 1D       		.uleb128 0x1d
 10375 2258 01       		.uleb128 0x1
 10376 2259 52       		.byte	0x52
 10377 225a 02       		.uleb128 0x2
 10378 225b 7A       		.byte	0x7a
 10379 225c 00       		.sleb128 0
 10380 225d 1D       		.uleb128 0x1d
 10381 225e 01       		.uleb128 0x1
 10382 225f 53       		.byte	0x53
 10383 2260 02       		.uleb128 0x2
 10384 2261 7A       		.byte	0x7a
 10385 2262 00       		.sleb128 0
 10386 2263 1D       		.uleb128 0x1d
 10387 2264 02       		.uleb128 0x2
 10388 2265 7D       		.byte	0x7d
 10389 2266 00       		.sleb128 0
 10390 2267 02       		.uleb128 0x2
 10391 2268 77       		.byte	0x77
 10392 2269 00       		.sleb128 0
 10393 226a 00       		.byte	0
 10394 226b 00       		.byte	0
 10395 226c 00       		.byte	0
 10396 226d 00       		.byte	0
 10397 226e 14       		.uleb128 0x14
 10398 226f 40010000 		.4byte	.LBB20
 10399 2273 CE000000 		.4byte	.LBE20-.LBB20
 10400 2277 C2230000 		.4byte	0x23c2
 10401 227b 15       		.uleb128 0x15
 10402 227c A10A0000 		.4byte	.LASF59
 10403 2280 01       		.byte	0x1
 10404 2281 7903     		.2byte	0x379
ARM GAS  C:\Users\MATEOC~1.QUE\AppData\Local\Temp\ccxtWYOp.s 			page 206


 10405 2283 68020000 		.4byte	0x268
 10406 2287 FA150000 		.4byte	.LLST143
 10407 228b 15       		.uleb128 0x15
 10408 228c 060B0000 		.4byte	.LASF58
 10409 2290 01       		.byte	0x1
 10410 2291 7A03     		.2byte	0x37a
 10411 2293 62020000 		.4byte	0x262
 10412 2297 0D160000 		.4byte	.LLST144
 10413 229b 17       		.uleb128 0x17
 10414 229c 626F00   		.ascii	"bo\000"
 10415 229f 01       		.byte	0x1
 10416 22a0 7C03     		.2byte	0x37c
 10417 22a2 4C000000 		.4byte	0x4c
 10418 22a6 20160000 		.4byte	.LLST145
 10419 22aa 17       		.uleb128 0x17
 10420 22ab 7700     		.ascii	"w\000"
 10421 22ad 01       		.byte	0x1
 10422 22ae 7D03     		.2byte	0x37d
 10423 22b0 33000000 		.4byte	0x33
 10424 22b4 49160000 		.4byte	.LLST146
 10425 22b8 17       		.uleb128 0x17
 10426 22b9 6800     		.ascii	"h\000"
 10427 22bb 01       		.byte	0x1
 10428 22bc 7E03     		.2byte	0x37e
 10429 22be 33000000 		.4byte	0x33
 10430 22c2 5C160000 		.4byte	.LLST147
 10431 22c6 17       		.uleb128 0x17
 10432 22c7 786F00   		.ascii	"xo\000"
 10433 22ca 01       		.byte	0x1
 10434 22cb 7F03     		.2byte	0x37f
 10435 22cd 95010000 		.4byte	0x195
 10436 22d1 70160000 		.4byte	.LLST148
 10437 22d5 17       		.uleb128 0x17
 10438 22d6 796F00   		.ascii	"yo\000"
 10439 22d9 01       		.byte	0x1
 10440 22da 8003     		.2byte	0x380
 10441 22dc 95010000 		.4byte	0x195
 10442 22e0 A6160000 		.4byte	.LLST149
 10443 22e4 17       		.uleb128 0x17
 10444 22e5 787800   		.ascii	"xx\000"
 10445 22e8 01       		.byte	0x1
 10446 22e9 8103     		.2byte	0x381
 10447 22eb 33000000 		.4byte	0x33
 10448 22ef C5160000 		.4byte	.LLST150
 10449 22f3 17       		.uleb128 0x17
 10450 22f4 797900   		.ascii	"yy\000"
 10451 22f7 01       		.byte	0x1
 10452 22f8 8103     		.2byte	0x381
 10453 22fa 33000000 		.4byte	0x33
 10454 22fe EE160000 		.4byte	.LLST151
 10455 2302 15       		.uleb128 0x15
 10456 2303 EA050000 		.4byte	.LASF221
 10457 2307 01       		.byte	0x1
 10458 2308 8103     		.2byte	0x381
 10459 230a 33000000 		.4byte	0x33
 10460 230e 18170000 		.4byte	.LLST152
 10461 2312 17       		.uleb128 0x17
ARM GAS  C:\Users\MATEOC~1.QUE\AppData\Local\Temp\ccxtWYOp.s 			page 207


 10462 2313 62697400 		.ascii	"bit\000"
 10463 2317 01       		.byte	0x1
 10464 2318 8103     		.2byte	0x381
 10465 231a 33000000 		.4byte	0x33
 10466 231e 42170000 		.4byte	.LLST153
 10467 2322 15       		.uleb128 0x15
 10468 2323 B70C0000 		.4byte	.LASF222
 10469 2327 01       		.byte	0x1
 10470 2328 8203     		.2byte	0x382
 10471 232a A0010000 		.4byte	0x1a0
 10472 232e 77170000 		.4byte	.LLST154
 10473 2332 15       		.uleb128 0x15
 10474 2333 FA0B0000 		.4byte	.LASF223
 10475 2337 01       		.byte	0x1
 10476 2338 8203     		.2byte	0x382
 10477 233a A0010000 		.4byte	0x1a0
 10478 233e AF170000 		.4byte	.LLST155
 10479 2342 1C       		.uleb128 0x1c
 10480 2343 BE010000 		.4byte	.LVL431
 10481 2347 D50F0000 		.4byte	0xfd5
 10482 234b 76230000 		.4byte	0x2376
 10483 234f 1D       		.uleb128 0x1d
 10484 2350 01       		.uleb128 0x1
 10485 2351 50       		.byte	0x50
 10486 2352 0B       		.uleb128 0xb
 10487 2353 91       		.byte	0x91
 10488 2354 50       		.sleb128 -48
 10489 2355 06       		.byte	0x6
 10490 2356 75       		.byte	0x75
 10491 2357 00       		.sleb128 0
 10492 2358 22       		.byte	0x22
 10493 2359 91       		.byte	0x91
 10494 235a B87F     		.sleb128 -72
 10495 235c 06       		.byte	0x6
 10496 235d 22       		.byte	0x22
 10497 235e 1D       		.uleb128 0x1d
 10498 235f 01       		.uleb128 0x1
 10499 2360 51       		.byte	0x51
 10500 2361 0B       		.uleb128 0xb
 10501 2362 91       		.byte	0x91
 10502 2363 54       		.sleb128 -44
 10503 2364 06       		.byte	0x6
 10504 2365 79       		.byte	0x79
 10505 2366 00       		.sleb128 0
 10506 2367 22       		.byte	0x22
 10507 2368 91       		.byte	0x91
 10508 2369 BC7F     		.sleb128 -68
 10509 236b 06       		.byte	0x6
 10510 236c 22       		.byte	0x22
 10511 236d 1D       		.uleb128 0x1d
 10512 236e 01       		.uleb128 0x1
 10513 236f 52       		.byte	0x52
 10514 2370 04       		.uleb128 0x4
 10515 2371 91       		.byte	0x91
 10516 2372 40       		.sleb128 -64
 10517 2373 94       		.byte	0x94
 10518 2374 02       		.byte	0x2
ARM GAS  C:\Users\MATEOC~1.QUE\AppData\Local\Temp\ccxtWYOp.s 			page 208


 10519 2375 00       		.byte	0
 10520 2376 1E       		.uleb128 0x1e
 10521 2377 EE010000 		.4byte	.LVL432
 10522 237b C10C0000 		.4byte	0xcc1
 10523 237f 1D       		.uleb128 0x1d
 10524 2380 01       		.uleb128 0x1
 10525 2381 50       		.byte	0x50
 10526 2382 12       		.uleb128 0x12
 10527 2383 91       		.byte	0x91
 10528 2384 44       		.sleb128 -60
 10529 2385 06       		.byte	0x6
 10530 2386 75       		.byte	0x75
 10531 2387 00       		.sleb128 0
 10532 2388 22       		.byte	0x22
 10533 2389 7A       		.byte	0x7a
 10534 238a 00       		.sleb128 0
 10535 238b 0A       		.byte	0xa
 10536 238c FFFF     		.2byte	0xffff
 10537 238e 1A       		.byte	0x1a
 10538 238f 1E       		.byte	0x1e
 10539 2390 91       		.byte	0x91
 10540 2391 B87F     		.sleb128 -72
 10541 2393 06       		.byte	0x6
 10542 2394 22       		.byte	0x22
 10543 2395 1D       		.uleb128 0x1d
 10544 2396 01       		.uleb128 0x1
 10545 2397 51       		.byte	0x51
 10546 2398 12       		.uleb128 0x12
 10547 2399 91       		.byte	0x91
 10548 239a 48       		.sleb128 -56
 10549 239b 06       		.byte	0x6
 10550 239c 79       		.byte	0x79
 10551 239d 00       		.sleb128 0
 10552 239e 22       		.byte	0x22
 10553 239f 7A       		.byte	0x7a
 10554 23a0 00       		.sleb128 0
 10555 23a1 0A       		.byte	0xa
 10556 23a2 FFFF     		.2byte	0xffff
 10557 23a4 1A       		.byte	0x1a
 10558 23a5 1E       		.byte	0x1e
 10559 23a6 91       		.byte	0x91
 10560 23a7 BC7F     		.sleb128 -68
 10561 23a9 06       		.byte	0x6
 10562 23aa 22       		.byte	0x22
 10563 23ab 1D       		.uleb128 0x1d
 10564 23ac 01       		.uleb128 0x1
 10565 23ad 52       		.byte	0x52
 10566 23ae 02       		.uleb128 0x2
 10567 23af 7A       		.byte	0x7a
 10568 23b0 00       		.sleb128 0
 10569 23b1 1D       		.uleb128 0x1d
 10570 23b2 01       		.uleb128 0x1
 10571 23b3 53       		.byte	0x53
 10572 23b4 02       		.uleb128 0x2
 10573 23b5 7A       		.byte	0x7a
 10574 23b6 00       		.sleb128 0
 10575 23b7 1D       		.uleb128 0x1d
ARM GAS  C:\Users\MATEOC~1.QUE\AppData\Local\Temp\ccxtWYOp.s 			page 209


 10576 23b8 02       		.uleb128 0x2
 10577 23b9 7D       		.byte	0x7d
 10578 23ba 00       		.sleb128 0
 10579 23bb 04       		.uleb128 0x4
 10580 23bc 91       		.byte	0x91
 10581 23bd 40       		.sleb128 -64
 10582 23be 94       		.byte	0x94
 10583 23bf 02       		.byte	0x2
 10584 23c0 00       		.byte	0
 10585 23c1 00       		.byte	0
 10586 23c2 1C       		.uleb128 0x1c
 10587 23c3 22010000 		.4byte	.LVL406
 10588 23c7 74120000 		.4byte	0x1274
 10589 23cb EE230000 		.4byte	0x23ee
 10590 23cf 1D       		.uleb128 0x1d
 10591 23d0 01       		.uleb128 0x1
 10592 23d1 50       		.byte	0x50
 10593 23d2 06       		.uleb128 0x6
 10594 23d3 91       		.byte	0x91
 10595 23d4 B87F     		.sleb128 -72
 10596 23d6 06       		.byte	0x6
 10597 23d7 23       		.byte	0x23
 10598 23d8 05       		.uleb128 0x5
 10599 23d9 1D       		.uleb128 0x1d
 10600 23da 01       		.uleb128 0x1
 10601 23db 51       		.byte	0x51
 10602 23dc 05       		.uleb128 0x5
 10603 23dd 91       		.byte	0x91
 10604 23de BC7F     		.sleb128 -68
 10605 23e0 94       		.byte	0x94
 10606 23e1 02       		.byte	0x2
 10607 23e2 1D       		.uleb128 0x1d
 10608 23e3 01       		.uleb128 0x1
 10609 23e4 52       		.byte	0x52
 10610 23e5 01       		.uleb128 0x1
 10611 23e6 38       		.byte	0x38
 10612 23e7 1D       		.uleb128 0x1d
 10613 23e8 01       		.uleb128 0x1
 10614 23e9 53       		.byte	0x53
 10615 23ea 02       		.uleb128 0x2
 10616 23eb 77       		.byte	0x77
 10617 23ec 00       		.sleb128 0
 10618 23ed 00       		.byte	0
 10619 23ee 1E       		.uleb128 0x1e
 10620 23ef 3E010000 		.4byte	.LVL407
 10621 23f3 C10C0000 		.4byte	0xcc1
 10622 23f7 1D       		.uleb128 0x1d
 10623 23f8 01       		.uleb128 0x1
 10624 23f9 50       		.byte	0x50
 10625 23fa 14       		.uleb128 0x14
 10626 23fb 7A       		.byte	0x7a
 10627 23fc 00       		.sleb128 0
 10628 23fd 0A       		.byte	0xa
 10629 23fe FFFF     		.2byte	0xffff
 10630 2400 1A       		.byte	0x1a
 10631 2401 32       		.byte	0x32
 10632 2402 24       		.byte	0x24
ARM GAS  C:\Users\MATEOC~1.QUE\AppData\Local\Temp\ccxtWYOp.s 			page 210


 10633 2403 7A       		.byte	0x7a
 10634 2404 00       		.sleb128 0
 10635 2405 0A       		.byte	0xa
 10636 2406 FFFF     		.2byte	0xffff
 10637 2408 1A       		.byte	0x1a
 10638 2409 22       		.byte	0x22
 10639 240a 91       		.byte	0x91
 10640 240b B87F     		.sleb128 -72
 10641 240d 06       		.byte	0x6
 10642 240e 22       		.byte	0x22
 10643 240f 1D       		.uleb128 0x1d
 10644 2410 01       		.uleb128 0x1
 10645 2411 51       		.byte	0x51
 10646 2412 05       		.uleb128 0x5
 10647 2413 91       		.byte	0x91
 10648 2414 BC7F     		.sleb128 -68
 10649 2416 94       		.byte	0x94
 10650 2417 02       		.byte	0x2
 10651 2418 1D       		.uleb128 0x1d
 10652 2419 01       		.uleb128 0x1
 10653 241a 52       		.byte	0x52
 10654 241b 02       		.uleb128 0x2
 10655 241c 7A       		.byte	0x7a
 10656 241d 00       		.sleb128 0
 10657 241e 1D       		.uleb128 0x1d
 10658 241f 01       		.uleb128 0x1
 10659 2420 53       		.byte	0x53
 10660 2421 04       		.uleb128 0x4
 10661 2422 7A       		.byte	0x7a
 10662 2423 00       		.sleb128 0
 10663 2424 33       		.byte	0x33
 10664 2425 24       		.byte	0x24
 10665 2426 1D       		.uleb128 0x1d
 10666 2427 02       		.uleb128 0x2
 10667 2428 7D       		.byte	0x7d
 10668 2429 00       		.sleb128 0
 10669 242a 02       		.uleb128 0x2
 10670 242b 77       		.byte	0x77
 10671 242c 00       		.sleb128 0
 10672 242d 00       		.byte	0
 10673 242e 00       		.byte	0
 10674 242f 26       		.uleb128 0x26
 10675 2430 A70A0000 		.4byte	.LASF224
 10676 2434 01       		.byte	0x1
 10677 2435 D101     		.2byte	0x1d1
 10678 2437 00000000 		.4byte	.LFB23
 10679 243b 44010000 		.4byte	.LFE23-.LFB23
 10680 243f 01       		.uleb128 0x1
 10681 2440 9C       		.byte	0x9c
 10682 2441 E8240000 		.4byte	0x24e8
 10683 2445 12       		.uleb128 0x12
 10684 2446 6300     		.ascii	"c\000"
 10685 2448 01       		.byte	0x1
 10686 2449 D101     		.2byte	0x1d1
 10687 244b 33000000 		.4byte	0x33
 10688 244f E7170000 		.4byte	.LLST156
 10689 2453 14       		.uleb128 0x14
ARM GAS  C:\Users\MATEOC~1.QUE\AppData\Local\Temp\ccxtWYOp.s 			page 211


 10690 2454 B6000000 		.4byte	.LBB21
 10691 2458 84000000 		.4byte	.LBE21-.LBB21
 10692 245c D7240000 		.4byte	0x24d7
 10693 2460 15       		.uleb128 0x15
 10694 2461 D7040000 		.4byte	.LASF60
 10695 2465 01       		.byte	0x1
 10696 2466 E801     		.2byte	0x1e8
 10697 2468 33000000 		.4byte	0x33
 10698 246c 3A180000 		.4byte	.LLST157
 10699 2470 16       		.uleb128 0x16
 10700 2471 C2000000 		.4byte	.LBB22
 10701 2475 78000000 		.4byte	.LBE22-.LBB22
 10702 2479 15       		.uleb128 0x15
 10703 247a A10A0000 		.4byte	.LASF59
 10704 247e 01       		.byte	0x1
 10705 247f EA01     		.2byte	0x1ea
 10706 2481 68020000 		.4byte	0x268
 10707 2485 6B180000 		.4byte	.LLST158
 10708 2489 17       		.uleb128 0x17
 10709 248a 7700     		.ascii	"w\000"
 10710 248c 01       		.byte	0x1
 10711 248d EC01     		.2byte	0x1ec
 10712 248f 33000000 		.4byte	0x33
 10713 2493 7E180000 		.4byte	.LLST159
 10714 2497 17       		.uleb128 0x17
 10715 2498 6800     		.ascii	"h\000"
 10716 249a 01       		.byte	0x1
 10717 249b ED01     		.2byte	0x1ed
 10718 249d 33000000 		.4byte	0x33
 10719 24a1 9D180000 		.4byte	.LLST160
 10720 24a5 16       		.uleb128 0x16
 10721 24a6 D2000000 		.4byte	.LBB23
 10722 24aa 56000000 		.4byte	.LBE23-.LBB23
 10723 24ae 17       		.uleb128 0x17
 10724 24af 786F00   		.ascii	"xo\000"
 10725 24b2 01       		.byte	0x1
 10726 24b3 EF01     		.2byte	0x1ef
 10727 24b5 A0010000 		.4byte	0x1a0
 10728 24b9 BC180000 		.4byte	.LLST161
 10729 24bd 1E       		.uleb128 0x1e
 10730 24be 28010000 		.4byte	.LVL461
 10731 24c2 E7200000 		.4byte	0x20e7
 10732 24c6 1D       		.uleb128 0x1d
 10733 24c7 01       		.uleb128 0x1
 10734 24c8 50       		.byte	0x50
 10735 24c9 02       		.uleb128 0x2
 10736 24ca 75       		.byte	0x75
 10737 24cb 00       		.sleb128 0
 10738 24cc 1D       		.uleb128 0x1d
 10739 24cd 02       		.uleb128 0x2
 10740 24ce 7D       		.byte	0x7d
 10741 24cf 04       		.sleb128 4
 10742 24d0 02       		.uleb128 0x2
 10743 24d1 76       		.byte	0x76
 10744 24d2 00       		.sleb128 0
 10745 24d3 00       		.byte	0
 10746 24d4 00       		.byte	0
ARM GAS  C:\Users\MATEOC~1.QUE\AppData\Local\Temp\ccxtWYOp.s 			page 212


 10747 24d5 00       		.byte	0
 10748 24d6 00       		.byte	0
 10749 24d7 1E       		.uleb128 0x1e
 10750 24d8 80000000 		.4byte	.LVL445
 10751 24dc E7200000 		.4byte	0x20e7
 10752 24e0 1D       		.uleb128 0x1d
 10753 24e1 01       		.uleb128 0x1
 10754 24e2 50       		.byte	0x50
 10755 24e3 02       		.uleb128 0x2
 10756 24e4 75       		.byte	0x75
 10757 24e5 00       		.sleb128 0
 10758 24e6 00       		.byte	0
 10759 24e7 00       		.byte	0
 10760 24e8 26       		.uleb128 0x26
 10761 24e9 85070000 		.4byte	.LASF225
 10762 24ed 01       		.byte	0x1
 10763 24ee C401     		.2byte	0x1c4
 10764 24f0 00000000 		.4byte	.LFB21
 10765 24f4 14000000 		.4byte	.LFE21-.LFB21
 10766 24f8 01       		.uleb128 0x1
 10767 24f9 9C       		.byte	0x9c
 10768 24fa 18250000 		.4byte	0x2518
 10769 24fe 12       		.uleb128 0x12
 10770 24ff 74787400 		.ascii	"txt\000"
 10771 2503 01       		.byte	0x1
 10772 2504 C401     		.2byte	0x1c4
 10773 2506 8F010000 		.4byte	0x18f
 10774 250a E8180000 		.4byte	.LLST162
 10775 250e 1F       		.uleb128 0x1f
 10776 250f 0C000000 		.4byte	.LVL466
 10777 2513 2F240000 		.4byte	0x242f
 10778 2517 00       		.byte	0
 10779 2518 26       		.uleb128 0x26
 10780 2519 D8000000 		.4byte	.LASF226
 10781 251d 01       		.byte	0x1
 10782 251e CA01     		.2byte	0x1ca
 10783 2520 00000000 		.4byte	.LFB22
 10784 2524 1A000000 		.4byte	.LFE22-.LFB22
 10785 2528 01       		.uleb128 0x1
 10786 2529 9C       		.byte	0x9c
 10787 252a 57250000 		.4byte	0x2557
 10788 252e 12       		.uleb128 0x12
 10789 252f 74787400 		.ascii	"txt\000"
 10790 2533 01       		.byte	0x1
 10791 2534 CA01     		.2byte	0x1ca
 10792 2536 8F010000 		.4byte	0x18f
 10793 253a 06190000 		.4byte	.LLST163
 10794 253e 1F       		.uleb128 0x1f
 10795 253f 0C000000 		.4byte	.LVL470
 10796 2543 2F240000 		.4byte	0x242f
 10797 2547 1E       		.uleb128 0x1e
 10798 2548 18000000 		.4byte	.LVL471
 10799 254c 2F240000 		.4byte	0x242f
 10800 2550 1D       		.uleb128 0x1d
 10801 2551 01       		.uleb128 0x1
 10802 2552 50       		.byte	0x50
 10803 2553 01       		.uleb128 0x1
ARM GAS  C:\Users\MATEOC~1.QUE\AppData\Local\Temp\ccxtWYOp.s 			page 213


 10804 2554 3A       		.byte	0x3a
 10805 2555 00       		.byte	0
 10806 2556 00       		.byte	0
 10807 2557 28       		.uleb128 0x28
 10808 2558 7A000000 		.4byte	.LASF227
 10809 255c 01       		.byte	0x1
 10810 255d AE03     		.2byte	0x3ae
 10811 255f A0010000 		.4byte	0x1a0
 10812 2563 00000000 		.4byte	.LFB42
 10813 2567 0C000000 		.4byte	.LFE42-.LFB42
 10814 256b 01       		.uleb128 0x1
 10815 256c 9C       		.byte	0x9c
 10816 256d 28       		.uleb128 0x28
 10817 256e 0D0B0000 		.4byte	.LASF228
 10818 2572 01       		.byte	0x1
 10819 2573 B203     		.2byte	0x3b2
 10820 2575 A0010000 		.4byte	0x1a0
 10821 2579 00000000 		.4byte	.LFB43
 10822 257d 0C000000 		.4byte	.LFE43-.LFB43
 10823 2581 01       		.uleb128 0x1
 10824 2582 9C       		.byte	0x9c
 10825 2583 28       		.uleb128 0x28
 10826 2584 850C0000 		.4byte	.LASF229
 10827 2588 01       		.byte	0x1
 10828 2589 B603     		.2byte	0x3b6
 10829 258b 9E020000 		.4byte	0x29e
 10830 258f 00000000 		.4byte	.LFB44
 10831 2593 0C000000 		.4byte	.LFE44-.LFB44
 10832 2597 01       		.uleb128 0x1
 10833 2598 9C       		.byte	0x9c
 10834 2599 28       		.uleb128 0x28
 10835 259a 2F050000 		.4byte	.LASF230
 10836 259e 01       		.byte	0x1
 10837 259f BA03     		.2byte	0x3ba
 10838 25a1 A0010000 		.4byte	0x1a0
 10839 25a5 00000000 		.4byte	.LFB45
 10840 25a9 0C000000 		.4byte	.LFE45-.LFB45
 10841 25ad 01       		.uleb128 0x1
 10842 25ae 9C       		.byte	0x9c
 10843 25af 28       		.uleb128 0x28
 10844 25b0 3E050000 		.4byte	.LASF231
 10845 25b4 01       		.byte	0x1
 10846 25b5 BE03     		.2byte	0x3be
 10847 25b7 A0010000 		.4byte	0x1a0
 10848 25bb 00000000 		.4byte	.LFB46
 10849 25bf 0C000000 		.4byte	.LFE46-.LFB46
 10850 25c3 01       		.uleb128 0x1
 10851 25c4 9C       		.byte	0x9c
 10852 25c5 0E       		.uleb128 0xe
 10853 25c6 D5250000 		.4byte	0x25d5
 10854 25ca D5250000 		.4byte	0x25d5
 10855 25ce 0F       		.uleb128 0xf
 10856 25cf 88010000 		.4byte	0x188
 10857 25d3 57       		.byte	0x57
 10858 25d4 00       		.byte	0
 10859 25d5 05       		.uleb128 0x5
 10860 25d6 33000000 		.4byte	0x33
ARM GAS  C:\Users\MATEOC~1.QUE\AppData\Local\Temp\ccxtWYOp.s 			page 214


 10861 25da 2E       		.uleb128 0x2e
 10862 25db F9010000 		.4byte	.LASF232
 10863 25df 06       		.byte	0x6
 10864 25e0 55       		.byte	0x55
 10865 25e1 EB250000 		.4byte	0x25eb
 10866 25e5 05       		.uleb128 0x5
 10867 25e6 03       		.byte	0x3
 10868 25e7 00000000 		.4byte	SST35S_init_seq
 10869 25eb 05       		.uleb128 0x5
 10870 25ec C5250000 		.4byte	0x25c5
 10871 25f0 0E       		.uleb128 0xe
 10872 25f1 01260000 		.4byte	0x2601
 10873 25f5 01260000 		.4byte	0x2601
 10874 25f9 2F       		.uleb128 0x2f
 10875 25fa 88010000 		.4byte	0x188
 10876 25fe FF04     		.2byte	0x4ff
 10877 2600 00       		.byte	0
 10878 2601 05       		.uleb128 0x5
 10879 2602 3E000000 		.4byte	0x3e
 10880 2606 2E       		.uleb128 0x2e
 10881 2607 7C060000 		.4byte	.LASF233
 10882 260b 08       		.byte	0x8
 10883 260c 08       		.byte	0x8
 10884 260d 17260000 		.4byte	0x2617
 10885 2611 05       		.uleb128 0x5
 10886 2612 03       		.byte	0x3
 10887 2613 58000000 		.4byte	font
 10888 2617 05       		.uleb128 0x5
 10889 2618 F0250000 		.4byte	0x25f0
 10890 261c 22       		.uleb128 0x22
 10891 261d 54414700 		.ascii	"TAG\000"
 10892 2621 01       		.byte	0x1
 10893 2622 68       		.byte	0x68
 10894 2623 2E260000 		.4byte	0x262e
 10895 2627 06       		.uleb128 0x6
 10896 2628 03       		.byte	0x3
 10897 2629 00000000 		.4byte	.LC0
 10898 262d 9F       		.byte	0x9f
 10899 262e 05       		.uleb128 0x5
 10900 262f 9A000000 		.4byte	0x9a
 10901 2633 2E       		.uleb128 0x2e
 10902 2634 19070000 		.4byte	.LASF234
 10903 2638 01       		.byte	0x1
 10904 2639 6A       		.byte	0x6a
 10905 263a 33000000 		.4byte	0x33
 10906 263e 05       		.uleb128 0x5
 10907 263f 03       		.byte	0x3
 10908 2640 DC000000 		.4byte	colstart
 10909 2644 2E       		.uleb128 0x2e
 10910 2645 5E0C0000 		.4byte	.LASF235
 10911 2649 01       		.byte	0x1
 10912 264a 6B       		.byte	0x6b
 10913 264b 33000000 		.4byte	0x33
 10914 264f 05       		.uleb128 0x5
 10915 2650 03       		.byte	0x3
 10916 2651 DD000000 		.4byte	rowstart
 10917 2655 2E       		.uleb128 0x2e
ARM GAS  C:\Users\MATEOC~1.QUE\AppData\Local\Temp\ccxtWYOp.s 			page 215


 10918 2656 05000000 		.4byte	.LASF236
 10919 265a 01       		.byte	0x1
 10920 265b 6C       		.byte	0x6c
 10921 265c 33000000 		.4byte	0x33
 10922 2660 05       		.uleb128 0x5
 10923 2661 03       		.byte	0x3
 10924 2662 D6000000 		.4byte	xstart
 10925 2666 2E       		.uleb128 0x2e
 10926 2667 6B0A0000 		.4byte	.LASF237
 10927 266b 01       		.byte	0x1
 10928 266c 6D       		.byte	0x6d
 10929 266d 33000000 		.4byte	0x33
 10930 2671 05       		.uleb128 0x5
 10931 2672 03       		.byte	0x3
 10932 2673 D7000000 		.4byte	ystart
 10933 2677 2E       		.uleb128 0x2e
 10934 2678 B5020000 		.4byte	.LASF238
 10935 267c 01       		.byte	0x1
 10936 267d 6F       		.byte	0x6f
 10937 267e 33000000 		.4byte	0x33
 10938 2682 05       		.uleb128 0x5
 10939 2683 03       		.byte	0x3
 10940 2684 04000000 		.4byte	textsize
 10941 2688 2E       		.uleb128 0x2e
 10942 2689 F0010000 		.4byte	.LASF239
 10943 268d 01       		.byte	0x1
 10944 268e 70       		.byte	0x70
 10945 268f 33000000 		.4byte	0x33
 10946 2693 05       		.uleb128 0x5
 10947 2694 03       		.byte	0x3
 10948 2695 D8000000 		.4byte	rotation
 10949 2699 2E       		.uleb128 0x2e
 10950 269a C9050000 		.4byte	.LASF240
 10951 269e 01       		.byte	0x1
 10952 269f 72       		.byte	0x72
 10953 26a0 A0010000 		.4byte	0x1a0
 10954 26a4 05       		.uleb128 0x5
 10955 26a5 03       		.byte	0x3
 10956 26a6 06000000 		.4byte	_width
 10957 26aa 2E       		.uleb128 0x2e
 10958 26ab 74060000 		.4byte	.LASF241
 10959 26af 01       		.byte	0x1
 10960 26b0 73       		.byte	0x73
 10961 26b1 4C000000 		.4byte	0x4c
 10962 26b5 05       		.uleb128 0x5
 10963 26b6 03       		.byte	0x3
 10964 26b7 DA000000 		.4byte	_height
 10965 26bb 2E       		.uleb128 0x2e
 10966 26bc 8B020000 		.4byte	.LASF242
 10967 26c0 01       		.byte	0x1
 10968 26c1 74       		.byte	0x74
 10969 26c2 4C000000 		.4byte	0x4c
 10970 26c6 05       		.uleb128 0x5
 10971 26c7 03       		.byte	0x3
 10972 26c8 DE000000 		.4byte	cursor_x
 10973 26cc 2E       		.uleb128 0x2e
 10974 26cd 94020000 		.4byte	.LASF243
ARM GAS  C:\Users\MATEOC~1.QUE\AppData\Local\Temp\ccxtWYOp.s 			page 216


 10975 26d1 01       		.byte	0x1
 10976 26d2 75       		.byte	0x75
 10977 26d3 4C000000 		.4byte	0x4c
 10978 26d7 05       		.uleb128 0x5
 10979 26d8 03       		.byte	0x3
 10980 26d9 E0000000 		.4byte	cursor_y
 10981 26dd 2E       		.uleb128 0x2e
 10982 26de 7F080000 		.4byte	.LASF182
 10983 26e2 01       		.byte	0x1
 10984 26e3 76       		.byte	0x76
 10985 26e4 B6010000 		.4byte	0x1b6
 10986 26e8 05       		.uleb128 0x5
 10987 26e9 03       		.byte	0x3
 10988 26ea E2000000 		.4byte	color
 10989 26ee 2E       		.uleb128 0x2e
 10990 26ef 6A030000 		.4byte	.LASF244
 10991 26f3 01       		.byte	0x1
 10992 26f4 77       		.byte	0x77
 10993 26f5 B6010000 		.4byte	0x1b6
 10994 26f9 05       		.uleb128 0x5
 10995 26fa 03       		.byte	0x3
 10996 26fb E4000000 		.4byte	bgcolor
 10997 26ff 2E       		.uleb128 0x2e
 10998 2700 DD040000 		.4byte	.LASF245
 10999 2704 01       		.byte	0x1
 11000 2705 79       		.byte	0x79
 11001 2706 88000000 		.4byte	0x88
 11002 270a 05       		.uleb128 0x5
 11003 270b 03       		.byte	0x3
 11004 270c 05000000 		.4byte	wrap
 11005 2710 2E       		.uleb128 0x2e
 11006 2711 3B0A0000 		.4byte	.LASF246
 11007 2715 01       		.byte	0x1
 11008 2716 7B       		.byte	0x7b
 11009 2717 21270000 		.4byte	0x2721
 11010 271b 05       		.uleb128 0x5
 11011 271c 03       		.byte	0x3
 11012 271d 00000000 		.4byte	gfxFont
 11013 2721 04       		.uleb128 0x4
 11014 2722 04       		.byte	0x4
 11015 2723 6E020000 		.4byte	0x26e
 11016 2727 2E       		.uleb128 0x2e
 11017 2728 CE010000 		.4byte	.LASF247
 11018 272c 01       		.byte	0x1
 11019 272d 7D       		.byte	0x7d
 11020 272e 9B050000 		.4byte	0x59b
 11021 2732 05       		.uleb128 0x5
 11022 2733 03       		.byte	0x3
 11023 2734 08000000 		.4byte	TFT_RB_out
 11024 2738 30       		.uleb128 0x30
 11025 2739 450B0000 		.4byte	.LASF161
 11026 273d 450B0000 		.4byte	.LASF161
 11027 2741 01       		.byte	0x1
 11028 2742 9B       		.byte	0x9b
 11029 2743 30       		.uleb128 0x30
 11030 2744 A30C0000 		.4byte	.LASF160
 11031 2748 A30C0000 		.4byte	.LASF160
ARM GAS  C:\Users\MATEOC~1.QUE\AppData\Local\Temp\ccxtWYOp.s 			page 217


 11032 274c 01       		.byte	0x1
 11033 274d A5       		.byte	0xa5
 11034 274e 30       		.uleb128 0x30
 11035 274f 25080000 		.4byte	.LASF248
 11036 2753 25080000 		.4byte	.LASF248
 11037 2757 07       		.byte	0x7
 11038 2758 9A       		.byte	0x9a
 11039 2759 30       		.uleb128 0x30
 11040 275a EB020000 		.4byte	.LASF167
 11041 275e EB020000 		.4byte	.LASF167
 11042 2762 01       		.byte	0x1
 11043 2763 FC       		.byte	0xfc
 11044 2764 31       		.uleb128 0x31
 11045 2765 D0050000 		.4byte	.LASF169
 11046 2769 D0050000 		.4byte	.LASF169
 11047 276d 01       		.byte	0x1
 11048 276e 0601     		.2byte	0x106
 11049 2770 30       		.uleb128 0x30
 11050 2771 FA070000 		.4byte	.LASF184
 11051 2775 FA070000 		.4byte	.LASF184
 11052 2779 01       		.byte	0x1
 11053 277a D6       		.byte	0xd6
 11054 277b 30       		.uleb128 0x30
 11055 277c A9070000 		.4byte	.LASF185
 11056 2780 A9070000 		.4byte	.LASF185
 11057 2784 01       		.byte	0x1
 11058 2785 D9       		.byte	0xd9
 11059 2786 30       		.uleb128 0x30
 11060 2787 8A050000 		.4byte	.LASF186
 11061 278b 8A050000 		.4byte	.LASF186
 11062 278f 01       		.byte	0x1
 11063 2790 DA       		.byte	0xda
 11064 2791 30       		.uleb128 0x30
 11065 2792 13040000 		.4byte	.LASF190
 11066 2796 13040000 		.4byte	.LASF190
 11067 279a 01       		.byte	0x1
 11068 279b FB       		.byte	0xfb
 11069 279c 00       		.byte	0
 11070              		.section	.debug_abbrev,"",%progbits
 11071              	.Ldebug_abbrev0:
 11072 0000 01       		.uleb128 0x1
 11073 0001 11       		.uleb128 0x11
 11074 0002 01       		.byte	0x1
 11075 0003 25       		.uleb128 0x25
 11076 0004 0E       		.uleb128 0xe
 11077 0005 13       		.uleb128 0x13
 11078 0006 0B       		.uleb128 0xb
 11079 0007 03       		.uleb128 0x3
 11080 0008 0E       		.uleb128 0xe
 11081 0009 1B       		.uleb128 0x1b
 11082 000a 0E       		.uleb128 0xe
 11083 000b 55       		.uleb128 0x55
 11084 000c 17       		.uleb128 0x17
 11085 000d 11       		.uleb128 0x11
 11086 000e 01       		.uleb128 0x1
 11087 000f 10       		.uleb128 0x10
 11088 0010 17       		.uleb128 0x17
ARM GAS  C:\Users\MATEOC~1.QUE\AppData\Local\Temp\ccxtWYOp.s 			page 218


 11089 0011 00       		.byte	0
 11090 0012 00       		.byte	0
 11091 0013 02       		.uleb128 0x2
 11092 0014 24       		.uleb128 0x24
 11093 0015 00       		.byte	0
 11094 0016 0B       		.uleb128 0xb
 11095 0017 0B       		.uleb128 0xb
 11096 0018 3E       		.uleb128 0x3e
 11097 0019 0B       		.uleb128 0xb
 11098 001a 03       		.uleb128 0x3
 11099 001b 0E       		.uleb128 0xe
 11100 001c 00       		.byte	0
 11101 001d 00       		.byte	0
 11102 001e 03       		.uleb128 0x3
 11103 001f 16       		.uleb128 0x16
 11104 0020 00       		.byte	0
 11105 0021 03       		.uleb128 0x3
 11106 0022 0E       		.uleb128 0xe
 11107 0023 3A       		.uleb128 0x3a
 11108 0024 0B       		.uleb128 0xb
 11109 0025 3B       		.uleb128 0x3b
 11110 0026 0B       		.uleb128 0xb
 11111 0027 49       		.uleb128 0x49
 11112 0028 13       		.uleb128 0x13
 11113 0029 00       		.byte	0
 11114 002a 00       		.byte	0
 11115 002b 04       		.uleb128 0x4
 11116 002c 0F       		.uleb128 0xf
 11117 002d 00       		.byte	0
 11118 002e 0B       		.uleb128 0xb
 11119 002f 0B       		.uleb128 0xb
 11120 0030 49       		.uleb128 0x49
 11121 0031 13       		.uleb128 0x13
 11122 0032 00       		.byte	0
 11123 0033 00       		.byte	0
 11124 0034 05       		.uleb128 0x5
 11125 0035 26       		.uleb128 0x26
 11126 0036 00       		.byte	0
 11127 0037 49       		.uleb128 0x49
 11128 0038 13       		.uleb128 0x13
 11129 0039 00       		.byte	0
 11130 003a 00       		.byte	0
 11131 003b 06       		.uleb128 0x6
 11132 003c 04       		.uleb128 0x4
 11133 003d 01       		.byte	0x1
 11134 003e 0B       		.uleb128 0xb
 11135 003f 0B       		.uleb128 0xb
 11136 0040 49       		.uleb128 0x49
 11137 0041 13       		.uleb128 0x13
 11138 0042 3A       		.uleb128 0x3a
 11139 0043 0B       		.uleb128 0xb
 11140 0044 3B       		.uleb128 0x3b
 11141 0045 0B       		.uleb128 0xb
 11142 0046 01       		.uleb128 0x1
 11143 0047 13       		.uleb128 0x13
 11144 0048 00       		.byte	0
 11145 0049 00       		.byte	0
ARM GAS  C:\Users\MATEOC~1.QUE\AppData\Local\Temp\ccxtWYOp.s 			page 219


 11146 004a 07       		.uleb128 0x7
 11147 004b 28       		.uleb128 0x28
 11148 004c 00       		.byte	0
 11149 004d 03       		.uleb128 0x3
 11150 004e 0E       		.uleb128 0xe
 11151 004f 1C       		.uleb128 0x1c
 11152 0050 0B       		.uleb128 0xb
 11153 0051 00       		.byte	0
 11154 0052 00       		.byte	0
 11155 0053 08       		.uleb128 0x8
 11156 0054 28       		.uleb128 0x28
 11157 0055 00       		.byte	0
 11158 0056 03       		.uleb128 0x3
 11159 0057 0E       		.uleb128 0xe
 11160 0058 1C       		.uleb128 0x1c
 11161 0059 0D       		.uleb128 0xd
 11162 005a 00       		.byte	0
 11163 005b 00       		.byte	0
 11164 005c 09       		.uleb128 0x9
 11165 005d 24       		.uleb128 0x24
 11166 005e 00       		.byte	0
 11167 005f 0B       		.uleb128 0xb
 11168 0060 0B       		.uleb128 0xb
 11169 0061 3E       		.uleb128 0x3e
 11170 0062 0B       		.uleb128 0xb
 11171 0063 03       		.uleb128 0x3
 11172 0064 08       		.uleb128 0x8
 11173 0065 00       		.byte	0
 11174 0066 00       		.byte	0
 11175 0067 0A       		.uleb128 0xa
 11176 0068 13       		.uleb128 0x13
 11177 0069 01       		.byte	0x1
 11178 006a 0B       		.uleb128 0xb
 11179 006b 0B       		.uleb128 0xb
 11180 006c 3A       		.uleb128 0x3a
 11181 006d 0B       		.uleb128 0xb
 11182 006e 3B       		.uleb128 0x3b
 11183 006f 0B       		.uleb128 0xb
 11184 0070 01       		.uleb128 0x1
 11185 0071 13       		.uleb128 0x13
 11186 0072 00       		.byte	0
 11187 0073 00       		.byte	0
 11188 0074 0B       		.uleb128 0xb
 11189 0075 0D       		.uleb128 0xd
 11190 0076 00       		.byte	0
 11191 0077 03       		.uleb128 0x3
 11192 0078 0E       		.uleb128 0xe
 11193 0079 3A       		.uleb128 0x3a
 11194 007a 0B       		.uleb128 0xb
 11195 007b 3B       		.uleb128 0x3b
 11196 007c 0B       		.uleb128 0xb
 11197 007d 49       		.uleb128 0x49
 11198 007e 13       		.uleb128 0x13
 11199 007f 38       		.uleb128 0x38
 11200 0080 0B       		.uleb128 0xb
 11201 0081 00       		.byte	0
 11202 0082 00       		.byte	0
ARM GAS  C:\Users\MATEOC~1.QUE\AppData\Local\Temp\ccxtWYOp.s 			page 220


 11203 0083 0C       		.uleb128 0xc
 11204 0084 28       		.uleb128 0x28
 11205 0085 00       		.byte	0
 11206 0086 03       		.uleb128 0x3
 11207 0087 0E       		.uleb128 0xe
 11208 0088 1C       		.uleb128 0x1c
 11209 0089 05       		.uleb128 0x5
 11210 008a 00       		.byte	0
 11211 008b 00       		.byte	0
 11212 008c 0D       		.uleb128 0xd
 11213 008d 28       		.uleb128 0x28
 11214 008e 00       		.byte	0
 11215 008f 03       		.uleb128 0x3
 11216 0090 08       		.uleb128 0x8
 11217 0091 1C       		.uleb128 0x1c
 11218 0092 0B       		.uleb128 0xb
 11219 0093 00       		.byte	0
 11220 0094 00       		.byte	0
 11221 0095 0E       		.uleb128 0xe
 11222 0096 01       		.uleb128 0x1
 11223 0097 01       		.byte	0x1
 11224 0098 49       		.uleb128 0x49
 11225 0099 13       		.uleb128 0x13
 11226 009a 01       		.uleb128 0x1
 11227 009b 13       		.uleb128 0x13
 11228 009c 00       		.byte	0
 11229 009d 00       		.byte	0
 11230 009e 0F       		.uleb128 0xf
 11231 009f 21       		.uleb128 0x21
 11232 00a0 00       		.byte	0
 11233 00a1 49       		.uleb128 0x49
 11234 00a2 13       		.uleb128 0x13
 11235 00a3 2F       		.uleb128 0x2f
 11236 00a4 0B       		.uleb128 0xb
 11237 00a5 00       		.byte	0
 11238 00a6 00       		.byte	0
 11239 00a7 10       		.uleb128 0x10
 11240 00a8 0D       		.uleb128 0xd
 11241 00a9 00       		.byte	0
 11242 00aa 03       		.uleb128 0x3
 11243 00ab 08       		.uleb128 0x8
 11244 00ac 3A       		.uleb128 0x3a
 11245 00ad 0B       		.uleb128 0xb
 11246 00ae 3B       		.uleb128 0x3b
 11247 00af 0B       		.uleb128 0xb
 11248 00b0 49       		.uleb128 0x49
 11249 00b1 13       		.uleb128 0x13
 11250 00b2 38       		.uleb128 0x38
 11251 00b3 0B       		.uleb128 0xb
 11252 00b4 00       		.byte	0
 11253 00b5 00       		.byte	0
 11254 00b6 11       		.uleb128 0x11
 11255 00b7 2E       		.uleb128 0x2e
 11256 00b8 01       		.byte	0x1
 11257 00b9 03       		.uleb128 0x3
 11258 00ba 0E       		.uleb128 0xe
 11259 00bb 3A       		.uleb128 0x3a
ARM GAS  C:\Users\MATEOC~1.QUE\AppData\Local\Temp\ccxtWYOp.s 			page 221


 11260 00bc 0B       		.uleb128 0xb
 11261 00bd 3B       		.uleb128 0x3b
 11262 00be 05       		.uleb128 0x5
 11263 00bf 27       		.uleb128 0x27
 11264 00c0 19       		.uleb128 0x19
 11265 00c1 11       		.uleb128 0x11
 11266 00c2 01       		.uleb128 0x1
 11267 00c3 12       		.uleb128 0x12
 11268 00c4 06       		.uleb128 0x6
 11269 00c5 40       		.uleb128 0x40
 11270 00c6 18       		.uleb128 0x18
 11271 00c7 9742     		.uleb128 0x2117
 11272 00c9 19       		.uleb128 0x19
 11273 00ca 01       		.uleb128 0x1
 11274 00cb 13       		.uleb128 0x13
 11275 00cc 00       		.byte	0
 11276 00cd 00       		.byte	0
 11277 00ce 12       		.uleb128 0x12
 11278 00cf 05       		.uleb128 0x5
 11279 00d0 00       		.byte	0
 11280 00d1 03       		.uleb128 0x3
 11281 00d2 08       		.uleb128 0x8
 11282 00d3 3A       		.uleb128 0x3a
 11283 00d4 0B       		.uleb128 0xb
 11284 00d5 3B       		.uleb128 0x3b
 11285 00d6 05       		.uleb128 0x5
 11286 00d7 49       		.uleb128 0x49
 11287 00d8 13       		.uleb128 0x13
 11288 00d9 02       		.uleb128 0x2
 11289 00da 17       		.uleb128 0x17
 11290 00db 00       		.byte	0
 11291 00dc 00       		.byte	0
 11292 00dd 13       		.uleb128 0x13
 11293 00de 05       		.uleb128 0x5
 11294 00df 00       		.byte	0
 11295 00e0 03       		.uleb128 0x3
 11296 00e1 0E       		.uleb128 0xe
 11297 00e2 3A       		.uleb128 0x3a
 11298 00e3 0B       		.uleb128 0xb
 11299 00e4 3B       		.uleb128 0x3b
 11300 00e5 05       		.uleb128 0x5
 11301 00e6 49       		.uleb128 0x49
 11302 00e7 13       		.uleb128 0x13
 11303 00e8 02       		.uleb128 0x2
 11304 00e9 17       		.uleb128 0x17
 11305 00ea 00       		.byte	0
 11306 00eb 00       		.byte	0
 11307 00ec 14       		.uleb128 0x14
 11308 00ed 0B       		.uleb128 0xb
 11309 00ee 01       		.byte	0x1
 11310 00ef 11       		.uleb128 0x11
 11311 00f0 01       		.uleb128 0x1
 11312 00f1 12       		.uleb128 0x12
 11313 00f2 06       		.uleb128 0x6
 11314 00f3 01       		.uleb128 0x1
 11315 00f4 13       		.uleb128 0x13
 11316 00f5 00       		.byte	0
ARM GAS  C:\Users\MATEOC~1.QUE\AppData\Local\Temp\ccxtWYOp.s 			page 222


 11317 00f6 00       		.byte	0
 11318 00f7 15       		.uleb128 0x15
 11319 00f8 34       		.uleb128 0x34
 11320 00f9 00       		.byte	0
 11321 00fa 03       		.uleb128 0x3
 11322 00fb 0E       		.uleb128 0xe
 11323 00fc 3A       		.uleb128 0x3a
 11324 00fd 0B       		.uleb128 0xb
 11325 00fe 3B       		.uleb128 0x3b
 11326 00ff 05       		.uleb128 0x5
 11327 0100 49       		.uleb128 0x49
 11328 0101 13       		.uleb128 0x13
 11329 0102 02       		.uleb128 0x2
 11330 0103 17       		.uleb128 0x17
 11331 0104 00       		.byte	0
 11332 0105 00       		.byte	0
 11333 0106 16       		.uleb128 0x16
 11334 0107 0B       		.uleb128 0xb
 11335 0108 01       		.byte	0x1
 11336 0109 11       		.uleb128 0x11
 11337 010a 01       		.uleb128 0x1
 11338 010b 12       		.uleb128 0x12
 11339 010c 06       		.uleb128 0x6
 11340 010d 00       		.byte	0
 11341 010e 00       		.byte	0
 11342 010f 17       		.uleb128 0x17
 11343 0110 34       		.uleb128 0x34
 11344 0111 00       		.byte	0
 11345 0112 03       		.uleb128 0x3
 11346 0113 08       		.uleb128 0x8
 11347 0114 3A       		.uleb128 0x3a
 11348 0115 0B       		.uleb128 0xb
 11349 0116 3B       		.uleb128 0x3b
 11350 0117 05       		.uleb128 0x5
 11351 0118 49       		.uleb128 0x49
 11352 0119 13       		.uleb128 0x13
 11353 011a 02       		.uleb128 0x2
 11354 011b 17       		.uleb128 0x17
 11355 011c 00       		.byte	0
 11356 011d 00       		.byte	0
 11357 011e 18       		.uleb128 0x18
 11358 011f 2E       		.uleb128 0x2e
 11359 0120 01       		.byte	0x1
 11360 0121 3F       		.uleb128 0x3f
 11361 0122 19       		.uleb128 0x19
 11362 0123 03       		.uleb128 0x3
 11363 0124 0E       		.uleb128 0xe
 11364 0125 3A       		.uleb128 0x3a
 11365 0126 0B       		.uleb128 0xb
 11366 0127 3B       		.uleb128 0x3b
 11367 0128 0B       		.uleb128 0xb
 11368 0129 27       		.uleb128 0x27
 11369 012a 19       		.uleb128 0x19
 11370 012b 11       		.uleb128 0x11
 11371 012c 01       		.uleb128 0x1
 11372 012d 12       		.uleb128 0x12
 11373 012e 06       		.uleb128 0x6
ARM GAS  C:\Users\MATEOC~1.QUE\AppData\Local\Temp\ccxtWYOp.s 			page 223


 11374 012f 40       		.uleb128 0x40
 11375 0130 18       		.uleb128 0x18
 11376 0131 9742     		.uleb128 0x2117
 11377 0133 19       		.uleb128 0x19
 11378 0134 01       		.uleb128 0x1
 11379 0135 13       		.uleb128 0x13
 11380 0136 00       		.byte	0
 11381 0137 00       		.byte	0
 11382 0138 19       		.uleb128 0x19
 11383 0139 34       		.uleb128 0x34
 11384 013a 00       		.byte	0
 11385 013b 03       		.uleb128 0x3
 11386 013c 0E       		.uleb128 0xe
 11387 013d 3A       		.uleb128 0x3a
 11388 013e 0B       		.uleb128 0xb
 11389 013f 3B       		.uleb128 0x3b
 11390 0140 0B       		.uleb128 0xb
 11391 0141 49       		.uleb128 0x49
 11392 0142 13       		.uleb128 0x13
 11393 0143 02       		.uleb128 0x2
 11394 0144 17       		.uleb128 0x17
 11395 0145 00       		.byte	0
 11396 0146 00       		.byte	0
 11397 0147 1A       		.uleb128 0x1a
 11398 0148 2E       		.uleb128 0x2e
 11399 0149 01       		.byte	0x1
 11400 014a 3F       		.uleb128 0x3f
 11401 014b 19       		.uleb128 0x19
 11402 014c 03       		.uleb128 0x3
 11403 014d 0E       		.uleb128 0xe
 11404 014e 3A       		.uleb128 0x3a
 11405 014f 0B       		.uleb128 0xb
 11406 0150 3B       		.uleb128 0x3b
 11407 0151 0B       		.uleb128 0xb
 11408 0152 49       		.uleb128 0x49
 11409 0153 13       		.uleb128 0x13
 11410 0154 3C       		.uleb128 0x3c
 11411 0155 19       		.uleb128 0x19
 11412 0156 01       		.uleb128 0x1
 11413 0157 13       		.uleb128 0x13
 11414 0158 00       		.byte	0
 11415 0159 00       		.byte	0
 11416 015a 1B       		.uleb128 0x1b
 11417 015b 18       		.uleb128 0x18
 11418 015c 00       		.byte	0
 11419 015d 00       		.byte	0
 11420 015e 00       		.byte	0
 11421 015f 1C       		.uleb128 0x1c
 11422 0160 898201   		.uleb128 0x4109
 11423 0163 01       		.byte	0x1
 11424 0164 11       		.uleb128 0x11
 11425 0165 01       		.uleb128 0x1
 11426 0166 31       		.uleb128 0x31
 11427 0167 13       		.uleb128 0x13
 11428 0168 01       		.uleb128 0x1
 11429 0169 13       		.uleb128 0x13
 11430 016a 00       		.byte	0
ARM GAS  C:\Users\MATEOC~1.QUE\AppData\Local\Temp\ccxtWYOp.s 			page 224


 11431 016b 00       		.byte	0
 11432 016c 1D       		.uleb128 0x1d
 11433 016d 8A8201   		.uleb128 0x410a
 11434 0170 00       		.byte	0
 11435 0171 02       		.uleb128 0x2
 11436 0172 18       		.uleb128 0x18
 11437 0173 9142     		.uleb128 0x2111
 11438 0175 18       		.uleb128 0x18
 11439 0176 00       		.byte	0
 11440 0177 00       		.byte	0
 11441 0178 1E       		.uleb128 0x1e
 11442 0179 898201   		.uleb128 0x4109
 11443 017c 01       		.byte	0x1
 11444 017d 11       		.uleb128 0x11
 11445 017e 01       		.uleb128 0x1
 11446 017f 31       		.uleb128 0x31
 11447 0180 13       		.uleb128 0x13
 11448 0181 00       		.byte	0
 11449 0182 00       		.byte	0
 11450 0183 1F       		.uleb128 0x1f
 11451 0184 898201   		.uleb128 0x4109
 11452 0187 00       		.byte	0
 11453 0188 11       		.uleb128 0x11
 11454 0189 01       		.uleb128 0x1
 11455 018a 31       		.uleb128 0x31
 11456 018b 13       		.uleb128 0x13
 11457 018c 00       		.byte	0
 11458 018d 00       		.byte	0
 11459 018e 20       		.uleb128 0x20
 11460 018f 2E       		.uleb128 0x2e
 11461 0190 01       		.byte	0x1
 11462 0191 03       		.uleb128 0x3
 11463 0192 0E       		.uleb128 0xe
 11464 0193 3A       		.uleb128 0x3a
 11465 0194 0B       		.uleb128 0xb
 11466 0195 3B       		.uleb128 0x3b
 11467 0196 0B       		.uleb128 0xb
 11468 0197 27       		.uleb128 0x27
 11469 0198 19       		.uleb128 0x19
 11470 0199 49       		.uleb128 0x49
 11471 019a 13       		.uleb128 0x13
 11472 019b 11       		.uleb128 0x11
 11473 019c 01       		.uleb128 0x1
 11474 019d 12       		.uleb128 0x12
 11475 019e 06       		.uleb128 0x6
 11476 019f 40       		.uleb128 0x40
 11477 01a0 18       		.uleb128 0x18
 11478 01a1 9742     		.uleb128 0x2117
 11479 01a3 19       		.uleb128 0x19
 11480 01a4 01       		.uleb128 0x1
 11481 01a5 13       		.uleb128 0x13
 11482 01a6 00       		.byte	0
 11483 01a7 00       		.byte	0
 11484 01a8 21       		.uleb128 0x21
 11485 01a9 05       		.uleb128 0x5
 11486 01aa 00       		.byte	0
 11487 01ab 03       		.uleb128 0x3
ARM GAS  C:\Users\MATEOC~1.QUE\AppData\Local\Temp\ccxtWYOp.s 			page 225


 11488 01ac 0E       		.uleb128 0xe
 11489 01ad 3A       		.uleb128 0x3a
 11490 01ae 0B       		.uleb128 0xb
 11491 01af 3B       		.uleb128 0x3b
 11492 01b0 0B       		.uleb128 0xb
 11493 01b1 49       		.uleb128 0x49
 11494 01b2 13       		.uleb128 0x13
 11495 01b3 02       		.uleb128 0x2
 11496 01b4 17       		.uleb128 0x17
 11497 01b5 00       		.byte	0
 11498 01b6 00       		.byte	0
 11499 01b7 22       		.uleb128 0x22
 11500 01b8 34       		.uleb128 0x34
 11501 01b9 00       		.byte	0
 11502 01ba 03       		.uleb128 0x3
 11503 01bb 08       		.uleb128 0x8
 11504 01bc 3A       		.uleb128 0x3a
 11505 01bd 0B       		.uleb128 0xb
 11506 01be 3B       		.uleb128 0x3b
 11507 01bf 0B       		.uleb128 0xb
 11508 01c0 49       		.uleb128 0x49
 11509 01c1 13       		.uleb128 0x13
 11510 01c2 02       		.uleb128 0x2
 11511 01c3 18       		.uleb128 0x18
 11512 01c4 00       		.byte	0
 11513 01c5 00       		.byte	0
 11514 01c6 23       		.uleb128 0x23
 11515 01c7 05       		.uleb128 0x5
 11516 01c8 00       		.byte	0
 11517 01c9 03       		.uleb128 0x3
 11518 01ca 08       		.uleb128 0x8
 11519 01cb 3A       		.uleb128 0x3a
 11520 01cc 0B       		.uleb128 0xb
 11521 01cd 3B       		.uleb128 0x3b
 11522 01ce 0B       		.uleb128 0xb
 11523 01cf 49       		.uleb128 0x49
 11524 01d0 13       		.uleb128 0x13
 11525 01d1 02       		.uleb128 0x2
 11526 01d2 17       		.uleb128 0x17
 11527 01d3 00       		.byte	0
 11528 01d4 00       		.byte	0
 11529 01d5 24       		.uleb128 0x24
 11530 01d6 2E       		.uleb128 0x2e
 11531 01d7 01       		.byte	0x1
 11532 01d8 3F       		.uleb128 0x3f
 11533 01d9 19       		.uleb128 0x19
 11534 01da 03       		.uleb128 0x3
 11535 01db 0E       		.uleb128 0xe
 11536 01dc 3A       		.uleb128 0x3a
 11537 01dd 0B       		.uleb128 0xb
 11538 01de 3B       		.uleb128 0x3b
 11539 01df 05       		.uleb128 0x5
 11540 01e0 49       		.uleb128 0x49
 11541 01e1 13       		.uleb128 0x13
 11542 01e2 11       		.uleb128 0x11
 11543 01e3 01       		.uleb128 0x1
 11544 01e4 12       		.uleb128 0x12
ARM GAS  C:\Users\MATEOC~1.QUE\AppData\Local\Temp\ccxtWYOp.s 			page 226


 11545 01e5 06       		.uleb128 0x6
 11546 01e6 40       		.uleb128 0x40
 11547 01e7 18       		.uleb128 0x18
 11548 01e8 9742     		.uleb128 0x2117
 11549 01ea 19       		.uleb128 0x19
 11550 01eb 01       		.uleb128 0x1
 11551 01ec 13       		.uleb128 0x13
 11552 01ed 00       		.byte	0
 11553 01ee 00       		.byte	0
 11554 01ef 25       		.uleb128 0x25
 11555 01f0 2E       		.uleb128 0x2e
 11556 01f1 01       		.byte	0x1
 11557 01f2 3F       		.uleb128 0x3f
 11558 01f3 19       		.uleb128 0x19
 11559 01f4 03       		.uleb128 0x3
 11560 01f5 0E       		.uleb128 0xe
 11561 01f6 3A       		.uleb128 0x3a
 11562 01f7 0B       		.uleb128 0xb
 11563 01f8 3B       		.uleb128 0x3b
 11564 01f9 05       		.uleb128 0x5
 11565 01fa 49       		.uleb128 0x49
 11566 01fb 13       		.uleb128 0x13
 11567 01fc 3C       		.uleb128 0x3c
 11568 01fd 19       		.uleb128 0x19
 11569 01fe 01       		.uleb128 0x1
 11570 01ff 13       		.uleb128 0x13
 11571 0200 00       		.byte	0
 11572 0201 00       		.byte	0
 11573 0202 26       		.uleb128 0x26
 11574 0203 2E       		.uleb128 0x2e
 11575 0204 01       		.byte	0x1
 11576 0205 3F       		.uleb128 0x3f
 11577 0206 19       		.uleb128 0x19
 11578 0207 03       		.uleb128 0x3
 11579 0208 0E       		.uleb128 0xe
 11580 0209 3A       		.uleb128 0x3a
 11581 020a 0B       		.uleb128 0xb
 11582 020b 3B       		.uleb128 0x3b
 11583 020c 05       		.uleb128 0x5
 11584 020d 27       		.uleb128 0x27
 11585 020e 19       		.uleb128 0x19
 11586 020f 11       		.uleb128 0x11
 11587 0210 01       		.uleb128 0x1
 11588 0211 12       		.uleb128 0x12
 11589 0212 06       		.uleb128 0x6
 11590 0213 40       		.uleb128 0x40
 11591 0214 18       		.uleb128 0x18
 11592 0215 9742     		.uleb128 0x2117
 11593 0217 19       		.uleb128 0x19
 11594 0218 01       		.uleb128 0x1
 11595 0219 13       		.uleb128 0x13
 11596 021a 00       		.byte	0
 11597 021b 00       		.byte	0
 11598 021c 27       		.uleb128 0x27
 11599 021d 05       		.uleb128 0x5
 11600 021e 00       		.byte	0
 11601 021f 03       		.uleb128 0x3
ARM GAS  C:\Users\MATEOC~1.QUE\AppData\Local\Temp\ccxtWYOp.s 			page 227


 11602 0220 08       		.uleb128 0x8
 11603 0221 3A       		.uleb128 0x3a
 11604 0222 0B       		.uleb128 0xb
 11605 0223 3B       		.uleb128 0x3b
 11606 0224 05       		.uleb128 0x5
 11607 0225 49       		.uleb128 0x49
 11608 0226 13       		.uleb128 0x13
 11609 0227 02       		.uleb128 0x2
 11610 0228 18       		.uleb128 0x18
 11611 0229 00       		.byte	0
 11612 022a 00       		.byte	0
 11613 022b 28       		.uleb128 0x28
 11614 022c 2E       		.uleb128 0x2e
 11615 022d 00       		.byte	0
 11616 022e 3F       		.uleb128 0x3f
 11617 022f 19       		.uleb128 0x19
 11618 0230 03       		.uleb128 0x3
 11619 0231 0E       		.uleb128 0xe
 11620 0232 3A       		.uleb128 0x3a
 11621 0233 0B       		.uleb128 0xb
 11622 0234 3B       		.uleb128 0x3b
 11623 0235 05       		.uleb128 0x5
 11624 0236 27       		.uleb128 0x27
 11625 0237 19       		.uleb128 0x19
 11626 0238 49       		.uleb128 0x49
 11627 0239 13       		.uleb128 0x13
 11628 023a 11       		.uleb128 0x11
 11629 023b 01       		.uleb128 0x1
 11630 023c 12       		.uleb128 0x12
 11631 023d 06       		.uleb128 0x6
 11632 023e 40       		.uleb128 0x40
 11633 023f 18       		.uleb128 0x18
 11634 0240 9742     		.uleb128 0x2117
 11635 0242 19       		.uleb128 0x19
 11636 0243 00       		.byte	0
 11637 0244 00       		.byte	0
 11638 0245 29       		.uleb128 0x29
 11639 0246 34       		.uleb128 0x34
 11640 0247 00       		.byte	0
 11641 0248 03       		.uleb128 0x3
 11642 0249 0E       		.uleb128 0xe
 11643 024a 3A       		.uleb128 0x3a
 11644 024b 0B       		.uleb128 0xb
 11645 024c 3B       		.uleb128 0x3b
 11646 024d 05       		.uleb128 0x5
 11647 024e 49       		.uleb128 0x49
 11648 024f 13       		.uleb128 0x13
 11649 0250 02       		.uleb128 0x2
 11650 0251 18       		.uleb128 0x18
 11651 0252 00       		.byte	0
 11652 0253 00       		.byte	0
 11653 0254 2A       		.uleb128 0x2a
 11654 0255 2E       		.uleb128 0x2e
 11655 0256 01       		.byte	0x1
 11656 0257 3F       		.uleb128 0x3f
 11657 0258 19       		.uleb128 0x19
 11658 0259 03       		.uleb128 0x3
ARM GAS  C:\Users\MATEOC~1.QUE\AppData\Local\Temp\ccxtWYOp.s 			page 228


 11659 025a 0E       		.uleb128 0xe
 11660 025b 3A       		.uleb128 0x3a
 11661 025c 0B       		.uleb128 0xb
 11662 025d 3B       		.uleb128 0x3b
 11663 025e 0B       		.uleb128 0xb
 11664 025f 11       		.uleb128 0x11
 11665 0260 01       		.uleb128 0x1
 11666 0261 12       		.uleb128 0x12
 11667 0262 06       		.uleb128 0x6
 11668 0263 40       		.uleb128 0x40
 11669 0264 18       		.uleb128 0x18
 11670 0265 9742     		.uleb128 0x2117
 11671 0267 19       		.uleb128 0x19
 11672 0268 01       		.uleb128 0x1
 11673 0269 13       		.uleb128 0x13
 11674 026a 00       		.byte	0
 11675 026b 00       		.byte	0
 11676 026c 2B       		.uleb128 0x2b
 11677 026d 05       		.uleb128 0x5
 11678 026e 00       		.byte	0
 11679 026f 03       		.uleb128 0x3
 11680 0270 0E       		.uleb128 0xe
 11681 0271 3A       		.uleb128 0x3a
 11682 0272 0B       		.uleb128 0xb
 11683 0273 3B       		.uleb128 0x3b
 11684 0274 05       		.uleb128 0x5
 11685 0275 49       		.uleb128 0x49
 11686 0276 13       		.uleb128 0x13
 11687 0277 02       		.uleb128 0x2
 11688 0278 18       		.uleb128 0x18
 11689 0279 00       		.byte	0
 11690 027a 00       		.byte	0
 11691 027b 2C       		.uleb128 0x2c
 11692 027c 34       		.uleb128 0x34
 11693 027d 00       		.byte	0
 11694 027e 03       		.uleb128 0x3
 11695 027f 08       		.uleb128 0x8
 11696 0280 3A       		.uleb128 0x3a
 11697 0281 0B       		.uleb128 0xb
 11698 0282 3B       		.uleb128 0x3b
 11699 0283 05       		.uleb128 0x5
 11700 0284 49       		.uleb128 0x49
 11701 0285 13       		.uleb128 0x13
 11702 0286 02       		.uleb128 0x2
 11703 0287 18       		.uleb128 0x18
 11704 0288 00       		.byte	0
 11705 0289 00       		.byte	0
 11706 028a 2D       		.uleb128 0x2d
 11707 028b 34       		.uleb128 0x34
 11708 028c 00       		.byte	0
 11709 028d 03       		.uleb128 0x3
 11710 028e 08       		.uleb128 0x8
 11711 028f 3A       		.uleb128 0x3a
 11712 0290 0B       		.uleb128 0xb
 11713 0291 3B       		.uleb128 0x3b
 11714 0292 05       		.uleb128 0x5
 11715 0293 49       		.uleb128 0x49
ARM GAS  C:\Users\MATEOC~1.QUE\AppData\Local\Temp\ccxtWYOp.s 			page 229


 11716 0294 13       		.uleb128 0x13
 11717 0295 00       		.byte	0
 11718 0296 00       		.byte	0
 11719 0297 2E       		.uleb128 0x2e
 11720 0298 34       		.uleb128 0x34
 11721 0299 00       		.byte	0
 11722 029a 03       		.uleb128 0x3
 11723 029b 0E       		.uleb128 0xe
 11724 029c 3A       		.uleb128 0x3a
 11725 029d 0B       		.uleb128 0xb
 11726 029e 3B       		.uleb128 0x3b
 11727 029f 0B       		.uleb128 0xb
 11728 02a0 49       		.uleb128 0x49
 11729 02a1 13       		.uleb128 0x13
 11730 02a2 02       		.uleb128 0x2
 11731 02a3 18       		.uleb128 0x18
 11732 02a4 00       		.byte	0
 11733 02a5 00       		.byte	0
 11734 02a6 2F       		.uleb128 0x2f
 11735 02a7 21       		.uleb128 0x21
 11736 02a8 00       		.byte	0
 11737 02a9 49       		.uleb128 0x49
 11738 02aa 13       		.uleb128 0x13
 11739 02ab 2F       		.uleb128 0x2f
 11740 02ac 05       		.uleb128 0x5
 11741 02ad 00       		.byte	0
 11742 02ae 00       		.byte	0
 11743 02af 30       		.uleb128 0x30
 11744 02b0 2E       		.uleb128 0x2e
 11745 02b1 00       		.byte	0
 11746 02b2 3F       		.uleb128 0x3f
 11747 02b3 19       		.uleb128 0x19
 11748 02b4 3C       		.uleb128 0x3c
 11749 02b5 19       		.uleb128 0x19
 11750 02b6 6E       		.uleb128 0x6e
 11751 02b7 0E       		.uleb128 0xe
 11752 02b8 03       		.uleb128 0x3
 11753 02b9 0E       		.uleb128 0xe
 11754 02ba 3A       		.uleb128 0x3a
 11755 02bb 0B       		.uleb128 0xb
 11756 02bc 3B       		.uleb128 0x3b
 11757 02bd 0B       		.uleb128 0xb
 11758 02be 00       		.byte	0
 11759 02bf 00       		.byte	0
 11760 02c0 31       		.uleb128 0x31
 11761 02c1 2E       		.uleb128 0x2e
 11762 02c2 00       		.byte	0
 11763 02c3 3F       		.uleb128 0x3f
 11764 02c4 19       		.uleb128 0x19
 11765 02c5 3C       		.uleb128 0x3c
 11766 02c6 19       		.uleb128 0x19
 11767 02c7 6E       		.uleb128 0x6e
 11768 02c8 0E       		.uleb128 0xe
 11769 02c9 03       		.uleb128 0x3
 11770 02ca 0E       		.uleb128 0xe
 11771 02cb 3A       		.uleb128 0x3a
 11772 02cc 0B       		.uleb128 0xb
ARM GAS  C:\Users\MATEOC~1.QUE\AppData\Local\Temp\ccxtWYOp.s 			page 230


 11773 02cd 3B       		.uleb128 0x3b
 11774 02ce 05       		.uleb128 0x5
 11775 02cf 00       		.byte	0
 11776 02d0 00       		.byte	0
 11777 02d1 00       		.byte	0
 11778              		.section	.debug_loc,"",%progbits
 11779              	.Ldebug_loc0:
 11780              	.LLST0:
 11781 0000 00000000 		.4byte	.LVL0
 11782 0004 1A000000 		.4byte	.LVL3
 11783 0008 0100     		.2byte	0x1
 11784 000a 50       		.byte	0x50
 11785 000b 1A000000 		.4byte	.LVL3
 11786 000f 26000000 		.4byte	.LVL4
 11787 0013 0400     		.2byte	0x4
 11788 0015 F3       		.byte	0xf3
 11789 0016 01       		.uleb128 0x1
 11790 0017 50       		.byte	0x50
 11791 0018 9F       		.byte	0x9f
 11792 0019 26000000 		.4byte	.LVL4
 11793 001d 3E000000 		.4byte	.LVL7
 11794 0021 0100     		.2byte	0x1
 11795 0023 50       		.byte	0x50
 11796 0024 3E000000 		.4byte	.LVL7
 11797 0028 08010000 		.4byte	.LVL26
 11798 002c 0400     		.2byte	0x4
 11799 002e F3       		.byte	0xf3
 11800 002f 01       		.uleb128 0x1
 11801 0030 50       		.byte	0x50
 11802 0031 9F       		.byte	0x9f
 11803 0032 08010000 		.4byte	.LVL26
 11804 0036 26010000 		.4byte	.LVL30
 11805 003a 0100     		.2byte	0x1
 11806 003c 50       		.byte	0x50
 11807 003d 26010000 		.4byte	.LVL30
 11808 0041 BC010000 		.4byte	.LFE20
 11809 0045 0400     		.2byte	0x4
 11810 0047 F3       		.byte	0xf3
 11811 0048 01       		.uleb128 0x1
 11812 0049 50       		.byte	0x50
 11813 004a 9F       		.byte	0x9f
 11814 004b 00000000 		.4byte	0
 11815 004f 00000000 		.4byte	0
 11816              	.LLST1:
 11817 0053 00000000 		.4byte	.LVL0
 11818 0057 16000000 		.4byte	.LVL2
 11819 005b 0100     		.2byte	0x1
 11820 005d 51       		.byte	0x51
 11821 005e 16000000 		.4byte	.LVL2
 11822 0062 26000000 		.4byte	.LVL4
 11823 0066 0400     		.2byte	0x4
 11824 0068 F3       		.byte	0xf3
 11825 0069 01       		.uleb128 0x1
 11826 006a 51       		.byte	0x51
 11827 006b 9F       		.byte	0x9f
 11828 006c 26000000 		.4byte	.LVL4
 11829 0070 14010000 		.4byte	.LVL28
ARM GAS  C:\Users\MATEOC~1.QUE\AppData\Local\Temp\ccxtWYOp.s 			page 231


 11830 0074 0100     		.2byte	0x1
 11831 0076 51       		.byte	0x51
 11832 0077 14010000 		.4byte	.LVL28
 11833 007b 20010000 		.4byte	.LVL29
 11834 007f 0400     		.2byte	0x4
 11835 0081 F3       		.byte	0xf3
 11836 0082 01       		.uleb128 0x1
 11837 0083 51       		.byte	0x51
 11838 0084 9F       		.byte	0x9f
 11839 0085 20010000 		.4byte	.LVL29
 11840 0089 BC010000 		.4byte	.LFE20
 11841 008d 0100     		.2byte	0x1
 11842 008f 51       		.byte	0x51
 11843 0090 00000000 		.4byte	0
 11844 0094 00000000 		.4byte	0
 11845              	.LLST2:
 11846 0098 00000000 		.4byte	.LVL0
 11847 009c AA000000 		.4byte	.LVL19
 11848 00a0 0100     		.2byte	0x1
 11849 00a2 52       		.byte	0x52
 11850 00a3 AA000000 		.4byte	.LVL19
 11851 00a7 08010000 		.4byte	.LVL26
 11852 00ab 0400     		.2byte	0x4
 11853 00ad F3       		.byte	0xf3
 11854 00ae 01       		.uleb128 0x1
 11855 00af 52       		.byte	0x52
 11856 00b0 9F       		.byte	0x9f
 11857 00b1 08010000 		.4byte	.LVL26
 11858 00b5 9A010000 		.4byte	.LVL36
 11859 00b9 0100     		.2byte	0x1
 11860 00bb 52       		.byte	0x52
 11861 00bc 9A010000 		.4byte	.LVL36
 11862 00c0 BC010000 		.4byte	.LFE20
 11863 00c4 0400     		.2byte	0x4
 11864 00c6 F3       		.byte	0xf3
 11865 00c7 01       		.uleb128 0x1
 11866 00c8 52       		.byte	0x52
 11867 00c9 9F       		.byte	0x9f
 11868 00ca 00000000 		.4byte	0
 11869 00ce 00000000 		.4byte	0
 11870              	.LLST3:
 11871 00d2 00000000 		.4byte	.LVL0
 11872 00d6 12000000 		.4byte	.LVL1
 11873 00da 0100     		.2byte	0x1
 11874 00dc 53       		.byte	0x53
 11875 00dd 12000000 		.4byte	.LVL1
 11876 00e1 26000000 		.4byte	.LVL4
 11877 00e5 0400     		.2byte	0x4
 11878 00e7 F3       		.byte	0xf3
 11879 00e8 01       		.uleb128 0x1
 11880 00e9 53       		.byte	0x53
 11881 00ea 9F       		.byte	0x9f
 11882 00eb 26000000 		.4byte	.LVL4
 11883 00ef D2000000 		.4byte	.LVL25
 11884 00f3 0100     		.2byte	0x1
 11885 00f5 53       		.byte	0x53
 11886 00f6 D2000000 		.4byte	.LVL25
ARM GAS  C:\Users\MATEOC~1.QUE\AppData\Local\Temp\ccxtWYOp.s 			page 232


 11887 00fa 08010000 		.4byte	.LVL26
 11888 00fe 0400     		.2byte	0x4
 11889 0100 F3       		.byte	0xf3
 11890 0101 01       		.uleb128 0x1
 11891 0102 53       		.byte	0x53
 11892 0103 9F       		.byte	0x9f
 11893 0104 08010000 		.4byte	.LVL26
 11894 0108 0E010000 		.4byte	.LVL27
 11895 010c 0100     		.2byte	0x1
 11896 010e 53       		.byte	0x53
 11897 010f 0E010000 		.4byte	.LVL27
 11898 0113 20010000 		.4byte	.LVL29
 11899 0117 0400     		.2byte	0x4
 11900 0119 F3       		.byte	0xf3
 11901 011a 01       		.uleb128 0x1
 11902 011b 53       		.byte	0x53
 11903 011c 9F       		.byte	0x9f
 11904 011d 20010000 		.4byte	.LVL29
 11905 0121 98010000 		.4byte	.LVL35
 11906 0125 0100     		.2byte	0x1
 11907 0127 53       		.byte	0x53
 11908 0128 98010000 		.4byte	.LVL35
 11909 012c BC010000 		.4byte	.LFE20
 11910 0130 0400     		.2byte	0x4
 11911 0132 F3       		.byte	0xf3
 11912 0133 01       		.uleb128 0x1
 11913 0134 53       		.byte	0x53
 11914 0135 9F       		.byte	0x9f
 11915 0136 00000000 		.4byte	0
 11916 013a 00000000 		.4byte	0
 11917              	.LLST4:
 11918 013e 00000000 		.4byte	.LVL0
 11919 0142 26000000 		.4byte	.LVL4
 11920 0146 0200     		.2byte	0x2
 11921 0148 91       		.byte	0x91
 11922 0149 00       		.sleb128 0
 11923 014a 26000000 		.4byte	.LVL4
 11924 014e B6010000 		.4byte	.LVL37
 11925 0152 0200     		.2byte	0x2
 11926 0154 91       		.byte	0x91
 11927 0155 00       		.sleb128 0
 11928 0156 B6010000 		.4byte	.LVL37
 11929 015a BC010000 		.4byte	.LFE20
 11930 015e 0200     		.2byte	0x2
 11931 0160 7D       		.byte	0x7d
 11932 0161 00       		.sleb128 0
 11933 0162 00000000 		.4byte	0
 11934 0166 00000000 		.4byte	0
 11935              	.LLST5:
 11936 016a 00000000 		.4byte	.LVL0
 11937 016e 26000000 		.4byte	.LVL4
 11938 0172 0200     		.2byte	0x2
 11939 0174 91       		.byte	0x91
 11940 0175 04       		.sleb128 4
 11941 0176 26000000 		.4byte	.LVL4
 11942 017a B6010000 		.4byte	.LVL37
 11943 017e 0200     		.2byte	0x2
ARM GAS  C:\Users\MATEOC~1.QUE\AppData\Local\Temp\ccxtWYOp.s 			page 233


 11944 0180 91       		.byte	0x91
 11945 0181 04       		.sleb128 4
 11946 0182 B6010000 		.4byte	.LVL37
 11947 0186 BC010000 		.4byte	.LFE20
 11948 018a 0200     		.2byte	0x2
 11949 018c 7D       		.byte	0x7d
 11950 018d 04       		.sleb128 4
 11951 018e 00000000 		.4byte	0
 11952 0192 00000000 		.4byte	0
 11953              	.LLST6:
 11954 0196 00000000 		.4byte	.LVL0
 11955 019a 26000000 		.4byte	.LVL4
 11956 019e 0200     		.2byte	0x2
 11957 01a0 91       		.byte	0x91
 11958 01a1 08       		.sleb128 8
 11959 01a2 26000000 		.4byte	.LVL4
 11960 01a6 B6010000 		.4byte	.LVL37
 11961 01aa 0200     		.2byte	0x2
 11962 01ac 91       		.byte	0x91
 11963 01ad 08       		.sleb128 8
 11964 01ae B6010000 		.4byte	.LVL37
 11965 01b2 BC010000 		.4byte	.LFE20
 11966 01b6 0200     		.2byte	0x2
 11967 01b8 7D       		.byte	0x7d
 11968 01b9 08       		.sleb128 8
 11969 01ba 00000000 		.4byte	0
 11970 01be 00000000 		.4byte	0
 11971              	.LLST7:
 11972 01c2 2E000000 		.4byte	.LVL5
 11973 01c6 40000000 		.4byte	.LVL8
 11974 01ca 0100     		.2byte	0x1
 11975 01cc 55       		.byte	0x55
 11976 01cd 40000000 		.4byte	.LVL8
 11977 01d1 86000000 		.4byte	.LVL15
 11978 01d5 0200     		.2byte	0x2
 11979 01d7 74       		.byte	0x74
 11980 01d8 08       		.sleb128 8
 11981 01d9 00000000 		.4byte	0
 11982 01dd 00000000 		.4byte	0
 11983              	.LLST8:
 11984 01e1 30000000 		.4byte	.LVL6
 11985 01e5 48000000 		.4byte	.LVL11
 11986 01e9 0100     		.2byte	0x1
 11987 01eb 56       		.byte	0x56
 11988 01ec 48000000 		.4byte	.LVL11
 11989 01f0 86000000 		.4byte	.LVL15
 11990 01f4 0200     		.2byte	0x2
 11991 01f6 74       		.byte	0x74
 11992 01f7 09       		.sleb128 9
 11993 01f8 00000000 		.4byte	0
 11994 01fc 00000000 		.4byte	0
 11995              	.LLST9:
 11996 0200 44000000 		.4byte	.LVL9
 11997 0204 54000000 		.4byte	.LVL14
 11998 0208 0100     		.2byte	0x1
 11999 020a 50       		.byte	0x50
 12000 020b 00000000 		.4byte	0
ARM GAS  C:\Users\MATEOC~1.QUE\AppData\Local\Temp\ccxtWYOp.s 			page 234


 12001 020f 00000000 		.4byte	0
 12002              	.LLST10:
 12003 0213 46000000 		.4byte	.LVL10
 12004 0217 C8000000 		.4byte	.LVL24
 12005 021b 0100     		.2byte	0x1
 12006 021d 55       		.byte	0x55
 12007 021e 00000000 		.4byte	0
 12008 0222 00000000 		.4byte	0
 12009              	.LLST11:
 12010 0226 48000000 		.4byte	.LVL11
 12011 022a 08010000 		.4byte	.LVL26
 12012 022e 0100     		.2byte	0x1
 12013 0230 56       		.byte	0x56
 12014 0231 00000000 		.4byte	0
 12015 0235 00000000 		.4byte	0
 12016              	.LLST12:
 12017 0239 4C000000 		.4byte	.LVL12
 12018 023d 08010000 		.4byte	.LVL26
 12019 0241 0100     		.2byte	0x1
 12020 0243 5E       		.byte	0x5e
 12021 0244 00000000 		.4byte	0
 12022 0248 00000000 		.4byte	0
 12023              	.LLST13:
 12024 024c 50000000 		.4byte	.LVL13
 12025 0250 A0000000 		.4byte	.LVL17
 12026 0254 0100     		.2byte	0x1
 12027 0256 57       		.byte	0x57
 12028 0257 00000000 		.4byte	0
 12029 025b 00000000 		.4byte	0
 12030              	.LLST14:
 12031 025f 54000000 		.4byte	.LVL14
 12032 0263 AE000000 		.4byte	.LVL20
 12033 0267 0100     		.2byte	0x1
 12034 0269 50       		.byte	0x50
 12035 026a 00000000 		.4byte	0
 12036 026e 00000000 		.4byte	0
 12037              	.LLST15:
 12038 0272 94000000 		.4byte	.LVL16
 12039 0276 08010000 		.4byte	.LVL26
 12040 027a 0B00     		.2byte	0xb
 12041 027c 03       		.byte	0x3
 12042 027d 04000000 		.4byte	textsize
 12043 0281 94       		.byte	0x94
 12044 0282 01       		.byte	0x1
 12045 0283 08       		.byte	0x8
 12046 0284 FF       		.byte	0xff
 12047 0285 1A       		.byte	0x1a
 12048 0286 9F       		.byte	0x9f
 12049 0287 00000000 		.4byte	0
 12050 028b 00000000 		.4byte	0
 12051              	.LLST16:
 12052 028f A6000000 		.4byte	.LVL18
 12053 0293 08010000 		.4byte	.LVL26
 12054 0297 0100     		.2byte	0x1
 12055 0299 5C       		.byte	0x5c
 12056 029a 00000000 		.4byte	0
 12057 029e 00000000 		.4byte	0
ARM GAS  C:\Users\MATEOC~1.QUE\AppData\Local\Temp\ccxtWYOp.s 			page 235


 12058              	.LLST17:
 12059 02a2 B4000000 		.4byte	.LVL21
 12060 02a6 08010000 		.4byte	.LVL26
 12061 02aa 0100     		.2byte	0x1
 12062 02ac 58       		.byte	0x58
 12063 02ad 00000000 		.4byte	0
 12064 02b1 00000000 		.4byte	0
 12065              	.LLST18:
 12066 02b5 BC000000 		.4byte	.LVL22
 12067 02b9 08010000 		.4byte	.LVL26
 12068 02bd 0100     		.2byte	0x1
 12069 02bf 52       		.byte	0x52
 12070 02c0 00000000 		.4byte	0
 12071 02c4 00000000 		.4byte	0
 12072              	.LLST19:
 12073 02c8 C4000000 		.4byte	.LVL23
 12074 02cc 08010000 		.4byte	.LVL26
 12075 02d0 0100     		.2byte	0x1
 12076 02d2 50       		.byte	0x50
 12077 02d3 00000000 		.4byte	0
 12078 02d7 00000000 		.4byte	0
 12079              	.LLST20:
 12080 02db 60010000 		.4byte	.LVL31
 12081 02df 7A010000 		.4byte	.LVL33
 12082 02e3 0100     		.2byte	0x1
 12083 02e5 54       		.byte	0x54
 12084 02e6 00000000 		.4byte	0
 12085 02ea 00000000 		.4byte	0
 12086              	.LLST21:
 12087 02ee 6A010000 		.4byte	.LVL32
 12088 02f2 8E010000 		.4byte	.LVL34
 12089 02f6 0100     		.2byte	0x1
 12090 02f8 55       		.byte	0x55
 12091 02f9 00000000 		.4byte	0
 12092 02fd 00000000 		.4byte	0
 12093              	.LLST22:
 12094 0301 10000000 		.4byte	.LVL38
 12095 0305 46000000 		.4byte	.LVL41
 12096 0309 0B00     		.2byte	0xb
 12097 030b 74       		.byte	0x74
 12098 030c 00       		.sleb128 0
 12099 030d 31       		.byte	0x31
 12100 030e 24       		.byte	0x24
 12101 030f 03       		.byte	0x3
 12102 0310 0E000000 		.4byte	TFT_RB_out+6
 12103 0314 22       		.byte	0x22
 12104 0315 9F       		.byte	0x9f
 12105 0316 00000000 		.4byte	0
 12106 031a 00000000 		.4byte	0
 12107              	.LLST23:
 12108 031e 00000000 		.4byte	.LVL43
 12109 0322 18000000 		.4byte	.LVL44
 12110 0326 0100     		.2byte	0x1
 12111 0328 50       		.byte	0x50
 12112 0329 18000000 		.4byte	.LVL44
 12113 032d 3C000000 		.4byte	.LVL47
 12114 0331 0400     		.2byte	0x4
ARM GAS  C:\Users\MATEOC~1.QUE\AppData\Local\Temp\ccxtWYOp.s 			page 236


 12115 0333 F3       		.byte	0xf3
 12116 0334 01       		.uleb128 0x1
 12117 0335 50       		.byte	0x50
 12118 0336 9F       		.byte	0x9f
 12119 0337 3C000000 		.4byte	.LVL47
 12120 033b 52000000 		.4byte	.LVL49
 12121 033f 0100     		.2byte	0x1
 12122 0341 50       		.byte	0x50
 12123 0342 52000000 		.4byte	.LVL49
 12124 0346 69000000 		.4byte	.LVL50-1
 12125 034a 0200     		.2byte	0x2
 12126 034c 74       		.byte	0x74
 12127 034d 0E       		.sleb128 14
 12128 034e 69000000 		.4byte	.LVL50-1
 12129 0352 6E000000 		.4byte	.LVL51
 12130 0356 0400     		.2byte	0x4
 12131 0358 F3       		.byte	0xf3
 12132 0359 01       		.uleb128 0x1
 12133 035a 50       		.byte	0x50
 12134 035b 9F       		.byte	0x9f
 12135 035c 6E000000 		.4byte	.LVL51
 12136 0360 70000000 		.4byte	.LVL52
 12137 0364 0200     		.2byte	0x2
 12138 0366 74       		.byte	0x74
 12139 0367 0E       		.sleb128 14
 12140 0368 70000000 		.4byte	.LVL52
 12141 036c 84000000 		.4byte	.LFE4
 12142 0370 0400     		.2byte	0x4
 12143 0372 F3       		.byte	0xf3
 12144 0373 01       		.uleb128 0x1
 12145 0374 50       		.byte	0x50
 12146 0375 9F       		.byte	0x9f
 12147 0376 00000000 		.4byte	0
 12148 037a 00000000 		.4byte	0
 12149              	.LLST24:
 12150 037e 00000000 		.4byte	.LVL43
 12151 0382 20000000 		.4byte	.LVL45
 12152 0386 0100     		.2byte	0x1
 12153 0388 51       		.byte	0x51
 12154 0389 20000000 		.4byte	.LVL45
 12155 038d 3C000000 		.4byte	.LVL47
 12156 0391 0400     		.2byte	0x4
 12157 0393 F3       		.byte	0xf3
 12158 0394 01       		.uleb128 0x1
 12159 0395 51       		.byte	0x51
 12160 0396 9F       		.byte	0x9f
 12161 0397 3C000000 		.4byte	.LVL47
 12162 039b 4E000000 		.4byte	.LVL48
 12163 039f 0100     		.2byte	0x1
 12164 03a1 51       		.byte	0x51
 12165 03a2 4E000000 		.4byte	.LVL48
 12166 03a6 69000000 		.4byte	.LVL50-1
 12167 03aa 0200     		.2byte	0x2
 12168 03ac 74       		.byte	0x74
 12169 03ad 0F       		.sleb128 15
 12170 03ae 69000000 		.4byte	.LVL50-1
 12171 03b2 6E000000 		.4byte	.LVL51
ARM GAS  C:\Users\MATEOC~1.QUE\AppData\Local\Temp\ccxtWYOp.s 			page 237


 12172 03b6 0400     		.2byte	0x4
 12173 03b8 F3       		.byte	0xf3
 12174 03b9 01       		.uleb128 0x1
 12175 03ba 51       		.byte	0x51
 12176 03bb 9F       		.byte	0x9f
 12177 03bc 6E000000 		.4byte	.LVL51
 12178 03c0 70000000 		.4byte	.LVL52
 12179 03c4 0200     		.2byte	0x2
 12180 03c6 74       		.byte	0x74
 12181 03c7 0F       		.sleb128 15
 12182 03c8 70000000 		.4byte	.LVL52
 12183 03cc 84000000 		.4byte	.LFE4
 12184 03d0 0400     		.2byte	0x4
 12185 03d2 F3       		.byte	0xf3
 12186 03d3 01       		.uleb128 0x1
 12187 03d4 51       		.byte	0x51
 12188 03d5 9F       		.byte	0x9f
 12189 03d6 00000000 		.4byte	0
 12190 03da 00000000 		.4byte	0
 12191              	.LLST25:
 12192 03de 00000000 		.4byte	.LVL53
 12193 03e2 10000000 		.4byte	.LVL55
 12194 03e6 0100     		.2byte	0x1
 12195 03e8 50       		.byte	0x50
 12196 03e9 10000000 		.4byte	.LVL55
 12197 03ed 88000000 		.4byte	.LFE8
 12198 03f1 0400     		.2byte	0x4
 12199 03f3 F3       		.byte	0xf3
 12200 03f4 01       		.uleb128 0x1
 12201 03f5 50       		.byte	0x50
 12202 03f6 9F       		.byte	0x9f
 12203 03f7 00000000 		.4byte	0
 12204 03fb 00000000 		.4byte	0
 12205              	.LLST26:
 12206 03ff 00000000 		.4byte	.LVL53
 12207 0403 0E000000 		.4byte	.LVL54
 12208 0407 0100     		.2byte	0x1
 12209 0409 51       		.byte	0x51
 12210 040a 0E000000 		.4byte	.LVL54
 12211 040e 88000000 		.4byte	.LFE8
 12212 0412 0400     		.2byte	0x4
 12213 0414 F3       		.byte	0xf3
 12214 0415 01       		.uleb128 0x1
 12215 0416 51       		.byte	0x51
 12216 0417 9F       		.byte	0x9f
 12217 0418 00000000 		.4byte	0
 12218 041c 00000000 		.4byte	0
 12219              	.LLST27:
 12220 0420 00000000 		.4byte	.LVL53
 12221 0424 13000000 		.4byte	.LVL56-1
 12222 0428 0100     		.2byte	0x1
 12223 042a 52       		.byte	0x52
 12224 042b 13000000 		.4byte	.LVL56-1
 12225 042f 88000000 		.4byte	.LFE8
 12226 0433 0400     		.2byte	0x4
 12227 0435 F3       		.byte	0xf3
 12228 0436 01       		.uleb128 0x1
ARM GAS  C:\Users\MATEOC~1.QUE\AppData\Local\Temp\ccxtWYOp.s 			page 238


 12229 0437 52       		.byte	0x52
 12230 0438 9F       		.byte	0x9f
 12231 0439 00000000 		.4byte	0
 12232 043d 00000000 		.4byte	0
 12233              	.LLST28:
 12234 0441 00000000 		.4byte	.LVL53
 12235 0445 13000000 		.4byte	.LVL56-1
 12236 0449 0100     		.2byte	0x1
 12237 044b 53       		.byte	0x53
 12238 044c 13000000 		.4byte	.LVL56-1
 12239 0450 88000000 		.4byte	.LFE8
 12240 0454 0400     		.2byte	0x4
 12241 0456 F3       		.byte	0xf3
 12242 0457 01       		.uleb128 0x1
 12243 0458 53       		.byte	0x53
 12244 0459 9F       		.byte	0x9f
 12245 045a 00000000 		.4byte	0
 12246 045e 00000000 		.4byte	0
 12247              	.LLST29:
 12248 0462 00000000 		.4byte	.LVL67
 12249 0466 08000000 		.4byte	.LVL68
 12250 046a 0100     		.2byte	0x1
 12251 046c 50       		.byte	0x50
 12252 046d 08000000 		.4byte	.LVL68
 12253 0471 0B000000 		.4byte	.LVL69-1
 12254 0475 0100     		.2byte	0x1
 12255 0477 50       		.byte	0x50
 12256 0478 00000000 		.4byte	0
 12257 047c 00000000 		.4byte	0
 12258              	.LLST30:
 12259 0480 00000000 		.4byte	.LVL71
 12260 0484 08000000 		.4byte	.LVL72
 12261 0488 0100     		.2byte	0x1
 12262 048a 50       		.byte	0x50
 12263 048b 08000000 		.4byte	.LVL72
 12264 048f C0000000 		.4byte	.LFE9
 12265 0493 0400     		.2byte	0x4
 12266 0495 F3       		.byte	0xf3
 12267 0496 01       		.uleb128 0x1
 12268 0497 50       		.byte	0x50
 12269 0498 9F       		.byte	0x9f
 12270 0499 00000000 		.4byte	0
 12271 049d 00000000 		.4byte	0
 12272              	.LLST31:
 12273 04a1 00000000 		.4byte	.LVL83
 12274 04a5 04000000 		.4byte	.LVL84
 12275 04a9 0100     		.2byte	0x1
 12276 04ab 50       		.byte	0x50
 12277 04ac 04000000 		.4byte	.LVL84
 12278 04b0 10000000 		.4byte	.LFE17
 12279 04b4 0400     		.2byte	0x4
 12280 04b6 F3       		.byte	0xf3
 12281 04b7 01       		.uleb128 0x1
 12282 04b8 50       		.byte	0x50
 12283 04b9 9F       		.byte	0x9f
 12284 04ba 00000000 		.4byte	0
 12285 04be 00000000 		.4byte	0
ARM GAS  C:\Users\MATEOC~1.QUE\AppData\Local\Temp\ccxtWYOp.s 			page 239


 12286              	.LLST32:
 12287 04c2 00000000 		.4byte	.LVL87
 12288 04c6 3E000000 		.4byte	.LVL90
 12289 04ca 0100     		.2byte	0x1
 12290 04cc 50       		.byte	0x50
 12291 04cd 3E000000 		.4byte	.LVL90
 12292 04d1 5C000000 		.4byte	.LVL92
 12293 04d5 0100     		.2byte	0x1
 12294 04d7 54       		.byte	0x54
 12295 04d8 5C000000 		.4byte	.LVL92
 12296 04dc 5E000000 		.4byte	.LVL93
 12297 04e0 0100     		.2byte	0x1
 12298 04e2 50       		.byte	0x50
 12299 04e3 5E000000 		.4byte	.LVL93
 12300 04e7 A4000000 		.4byte	.LVL95
 12301 04eb 0100     		.2byte	0x1
 12302 04ed 54       		.byte	0x54
 12303 04ee 00000000 		.4byte	0
 12304 04f2 00000000 		.4byte	0
 12305              	.LLST33:
 12306 04f6 00000000 		.4byte	.LVL87
 12307 04fa 3E000000 		.4byte	.LVL90
 12308 04fe 0100     		.2byte	0x1
 12309 0500 51       		.byte	0x51
 12310 0501 3E000000 		.4byte	.LVL90
 12311 0505 A8000000 		.4byte	.LFE19
 12312 0509 0400     		.2byte	0x4
 12313 050b F3       		.byte	0xf3
 12314 050c 01       		.uleb128 0x1
 12315 050d 51       		.byte	0x51
 12316 050e 9F       		.byte	0x9f
 12317 050f 00000000 		.4byte	0
 12318 0513 00000000 		.4byte	0
 12319              	.LLST34:
 12320 0517 00000000 		.4byte	.LVL87
 12321 051b 24000000 		.4byte	.LVL89
 12322 051f 0100     		.2byte	0x1
 12323 0521 52       		.byte	0x52
 12324 0522 24000000 		.4byte	.LVL89
 12325 0526 A8000000 		.4byte	.LFE19
 12326 052a 0400     		.2byte	0x4
 12327 052c F3       		.byte	0xf3
 12328 052d 01       		.uleb128 0x1
 12329 052e 52       		.byte	0x52
 12330 052f 9F       		.byte	0x9f
 12331 0530 00000000 		.4byte	0
 12332 0534 00000000 		.4byte	0
 12333              	.LLST35:
 12334 0538 00000000 		.4byte	.LVL87
 12335 053c 1C000000 		.4byte	.LVL88
 12336 0540 0100     		.2byte	0x1
 12337 0542 53       		.byte	0x53
 12338 0543 1C000000 		.4byte	.LVL88
 12339 0547 A4000000 		.4byte	.LVL95
 12340 054b 0100     		.2byte	0x1
 12341 054d 58       		.byte	0x58
 12342 054e A4000000 		.4byte	.LVL95
ARM GAS  C:\Users\MATEOC~1.QUE\AppData\Local\Temp\ccxtWYOp.s 			page 240


 12343 0552 A8000000 		.4byte	.LFE19
 12344 0556 0400     		.2byte	0x4
 12345 0558 F3       		.byte	0xf3
 12346 0559 01       		.uleb128 0x1
 12347 055a 53       		.byte	0x53
 12348 055b 9F       		.byte	0x9f
 12349 055c 00000000 		.4byte	0
 12350 0560 00000000 		.4byte	0
 12351              	.LLST36:
 12352 0564 00000000 		.4byte	.LVL87
 12353 0568 A4000000 		.4byte	.LVL95
 12354 056c 0200     		.2byte	0x2
 12355 056e 91       		.byte	0x91
 12356 056f 00       		.sleb128 0
 12357 0570 A4000000 		.4byte	.LVL95
 12358 0574 A8000000 		.4byte	.LFE19
 12359 0578 0200     		.2byte	0x2
 12360 057a 7D       		.byte	0x7d
 12361 057b 00       		.sleb128 0
 12362 057c 00000000 		.4byte	0
 12363 0580 00000000 		.4byte	0
 12364              	.LLST37:
 12365 0584 00000000 		.4byte	.LVL87
 12366 0588 A4000000 		.4byte	.LVL95
 12367 058c 0200     		.2byte	0x2
 12368 058e 91       		.byte	0x91
 12369 058f 04       		.sleb128 4
 12370 0590 A4000000 		.4byte	.LVL95
 12371 0594 A8000000 		.4byte	.LFE19
 12372 0598 0200     		.2byte	0x2
 12373 059a 7D       		.byte	0x7d
 12374 059b 04       		.sleb128 4
 12375 059c 00000000 		.4byte	0
 12376 05a0 00000000 		.4byte	0
 12377              	.LLST38:
 12378 05a4 00000000 		.4byte	.LVL87
 12379 05a8 A4000000 		.4byte	.LVL95
 12380 05ac 0200     		.2byte	0x2
 12381 05ae 91       		.byte	0x91
 12382 05af 08       		.sleb128 8
 12383 05b0 A4000000 		.4byte	.LVL95
 12384 05b4 A8000000 		.4byte	.LFE19
 12385 05b8 0200     		.2byte	0x2
 12386 05ba 7D       		.byte	0x7d
 12387 05bb 08       		.sleb128 8
 12388 05bc 00000000 		.4byte	0
 12389 05c0 00000000 		.4byte	0
 12390              	.LLST39:
 12391 05c4 3E000000 		.4byte	.LVL90
 12392 05c8 59000000 		.4byte	.LVL91-1
 12393 05cc 0100     		.2byte	0x1
 12394 05ce 50       		.byte	0x50
 12395 05cf 60000000 		.4byte	.LVL94
 12396 05d3 A8000000 		.4byte	.LFE19
 12397 05d7 0100     		.2byte	0x1
 12398 05d9 50       		.byte	0x50
 12399 05da 00000000 		.4byte	0
ARM GAS  C:\Users\MATEOC~1.QUE\AppData\Local\Temp\ccxtWYOp.s 			page 241


 12400 05de 00000000 		.4byte	0
 12401              	.LLST40:
 12402 05e2 00000000 		.4byte	.LVL96
 12403 05e6 3E000000 		.4byte	.LVL101
 12404 05ea 0100     		.2byte	0x1
 12405 05ec 50       		.byte	0x50
 12406 05ed 3E000000 		.4byte	.LVL101
 12407 05f1 5E000000 		.4byte	.LVL107
 12408 05f5 0400     		.2byte	0x4
 12409 05f7 F3       		.byte	0xf3
 12410 05f8 01       		.uleb128 0x1
 12411 05f9 50       		.byte	0x50
 12412 05fa 9F       		.byte	0x9f
 12413 05fb 5E000000 		.4byte	.LVL107
 12414 05ff 70000000 		.4byte	.LVL110
 12415 0603 0100     		.2byte	0x1
 12416 0605 54       		.byte	0x54
 12417 0606 72000000 		.4byte	.LVL111
 12418 060a 74000000 		.4byte	.LVL112
 12419 060e 0100     		.2byte	0x1
 12420 0610 54       		.byte	0x54
 12421 0611 76000000 		.4byte	.LVL113
 12422 0615 7E000000 		.4byte	.LVL115
 12423 0619 0100     		.2byte	0x1
 12424 061b 54       		.byte	0x54
 12425 061c 00000000 		.4byte	0
 12426 0620 00000000 		.4byte	0
 12427              	.LLST41:
 12428 0624 00000000 		.4byte	.LVL96
 12429 0628 40000000 		.4byte	.LVL102
 12430 062c 0100     		.2byte	0x1
 12431 062e 51       		.byte	0x51
 12432 062f 40000000 		.4byte	.LVL102
 12433 0633 5C000000 		.4byte	.LVL106
 12434 0637 0400     		.2byte	0x4
 12435 0639 F3       		.byte	0xf3
 12436 063a 01       		.uleb128 0x1
 12437 063b 51       		.byte	0x51
 12438 063c 9F       		.byte	0x9f
 12439 063d 5C000000 		.4byte	.LVL106
 12440 0641 7C000000 		.4byte	.LVL114
 12441 0645 0100     		.2byte	0x1
 12442 0647 57       		.byte	0x57
 12443 0648 7E000000 		.4byte	.LVL115
 12444 064c 82000000 		.4byte	.LVL116
 12445 0650 0100     		.2byte	0x1
 12446 0652 57       		.byte	0x57
 12447 0653 00000000 		.4byte	0
 12448 0657 00000000 		.4byte	0
 12449              	.LLST42:
 12450 065b 00000000 		.4byte	.LVL96
 12451 065f 18000000 		.4byte	.LVL98
 12452 0663 0100     		.2byte	0x1
 12453 0665 52       		.byte	0x52
 12454 0666 18000000 		.4byte	.LVL98
 12455 066a 30000000 		.4byte	.LVL99
 12456 066e 0400     		.2byte	0x4
ARM GAS  C:\Users\MATEOC~1.QUE\AppData\Local\Temp\ccxtWYOp.s 			page 242


 12457 0670 F3       		.byte	0xf3
 12458 0671 01       		.uleb128 0x1
 12459 0672 52       		.byte	0x52
 12460 0673 9F       		.byte	0x9f
 12461 0674 30000000 		.4byte	.LVL99
 12462 0678 82000000 		.4byte	.LVL116
 12463 067c 0100     		.2byte	0x1
 12464 067e 58       		.byte	0x58
 12465 067f 00000000 		.4byte	0
 12466 0683 00000000 		.4byte	0
 12467              	.LLST43:
 12468 0687 00000000 		.4byte	.LVL96
 12469 068b 0C000000 		.4byte	.LVL97
 12470 068f 0100     		.2byte	0x1
 12471 0691 53       		.byte	0x53
 12472 0692 0C000000 		.4byte	.LVL97
 12473 0696 3C000000 		.4byte	.LVL100
 12474 069a 0400     		.2byte	0x4
 12475 069c F3       		.byte	0xf3
 12476 069d 01       		.uleb128 0x1
 12477 069e 53       		.byte	0x53
 12478 069f 9F       		.byte	0x9f
 12479 06a0 3C000000 		.4byte	.LVL100
 12480 06a4 5E000000 		.4byte	.LVL107
 12481 06a8 0100     		.2byte	0x1
 12482 06aa 57       		.byte	0x57
 12483 06ab 00000000 		.4byte	0
 12484 06af 00000000 		.4byte	0
 12485              	.LLST44:
 12486 06b3 00000000 		.4byte	.LVL96
 12487 06b7 86000000 		.4byte	.LVL117
 12488 06bb 0200     		.2byte	0x2
 12489 06bd 91       		.byte	0x91
 12490 06be 00       		.sleb128 0
 12491 06bf 86000000 		.4byte	.LVL117
 12492 06c3 8C000000 		.4byte	.LFE26
 12493 06c7 0200     		.2byte	0x2
 12494 06c9 7D       		.byte	0x7d
 12495 06ca 00       		.sleb128 0
 12496 06cb 00000000 		.4byte	0
 12497 06cf 00000000 		.4byte	0
 12498              	.LLST45:
 12499 06d3 54000000 		.4byte	.LVL104
 12500 06d7 82000000 		.4byte	.LVL116
 12501 06db 0100     		.2byte	0x1
 12502 06dd 56       		.byte	0x56
 12503 06de 00000000 		.4byte	0
 12504 06e2 00000000 		.4byte	0
 12505              	.LLST46:
 12506 06e6 56000000 		.4byte	.LVL105
 12507 06ea 82000000 		.4byte	.LVL116
 12508 06ee 0100     		.2byte	0x1
 12509 06f0 55       		.byte	0x55
 12510 06f1 00000000 		.4byte	0
 12511 06f5 00000000 		.4byte	0
 12512              	.LLST47:
 12513 06f9 00000000 		.4byte	.LVL118
ARM GAS  C:\Users\MATEOC~1.QUE\AppData\Local\Temp\ccxtWYOp.s 			page 243


 12514 06fd 14000000 		.4byte	.LVL119
 12515 0701 0100     		.2byte	0x1
 12516 0703 50       		.byte	0x50
 12517 0704 14000000 		.4byte	.LVL119
 12518 0708 24000000 		.4byte	.LFE24
 12519 070c 0400     		.2byte	0x4
 12520 070e F3       		.byte	0xf3
 12521 070f 01       		.uleb128 0x1
 12522 0710 50       		.byte	0x50
 12523 0711 9F       		.byte	0x9f
 12524 0712 00000000 		.4byte	0
 12525 0716 00000000 		.4byte	0
 12526              	.LLST48:
 12527 071a 8A000000 		.4byte	.LVL131
 12528 071e 90000000 		.4byte	.LVL132
 12529 0722 0600     		.2byte	0x6
 12530 0724 03       		.byte	0x3
 12531 0725 01000000 		.4byte	SST35S_init_seq+1
 12532 0729 9F       		.byte	0x9f
 12533 072a 90000000 		.4byte	.LVL132
 12534 072e 9C000000 		.4byte	.LVL133
 12535 0732 0300     		.2byte	0x3
 12536 0734 75       		.byte	0x75
 12537 0735 01       		.sleb128 1
 12538 0736 9F       		.byte	0x9f
 12539 0737 9C000000 		.4byte	.LVL133
 12540 073b A2000000 		.4byte	.LVL135
 12541 073f 0100     		.2byte	0x1
 12542 0741 54       		.byte	0x54
 12543 0742 A2000000 		.4byte	.LVL135
 12544 0746 A4000000 		.4byte	.LVL136
 12545 074a 0100     		.2byte	0x1
 12546 074c 55       		.byte	0x55
 12547 074d A4000000 		.4byte	.LVL136
 12548 0751 B0000000 		.4byte	.LVL138
 12549 0755 0100     		.2byte	0x1
 12550 0757 56       		.byte	0x56
 12551 0758 B0000000 		.4byte	.LVL138
 12552 075c DA000000 		.4byte	.LVL146
 12553 0760 0100     		.2byte	0x1
 12554 0762 55       		.byte	0x55
 12555 0763 00000000 		.4byte	0
 12556 0767 00000000 		.4byte	0
 12557              	.LLST49:
 12558 076b 8A000000 		.4byte	.LVL131
 12559 076f 90000000 		.4byte	.LVL132
 12560 0773 0200     		.2byte	0x2
 12561 0775 3F       		.byte	0x3f
 12562 0776 9F       		.byte	0x9f
 12563 0777 90000000 		.4byte	.LVL132
 12564 077b BA000000 		.4byte	.LVL140
 12565 077f 0100     		.2byte	0x1
 12566 0781 57       		.byte	0x57
 12567 0782 BA000000 		.4byte	.LVL140
 12568 0786 BE000000 		.4byte	.LVL141
 12569 078a 0100     		.2byte	0x1
 12570 078c 52       		.byte	0x52
ARM GAS  C:\Users\MATEOC~1.QUE\AppData\Local\Temp\ccxtWYOp.s 			page 244


 12571 078d BE000000 		.4byte	.LVL141
 12572 0791 DA000000 		.4byte	.LVL146
 12573 0795 0100     		.2byte	0x1
 12574 0797 57       		.byte	0x57
 12575 0798 00000000 		.4byte	0
 12576 079c 00000000 		.4byte	0
 12577              	.LLST50:
 12578 07a0 9E000000 		.4byte	.LVL134
 12579 07a4 A2000000 		.4byte	.LVL135
 12580 07a8 0100     		.2byte	0x1
 12581 07aa 52       		.byte	0x52
 12582 07ab A2000000 		.4byte	.LVL135
 12583 07af B0000000 		.4byte	.LVL138
 12584 07b3 0100     		.2byte	0x1
 12585 07b5 54       		.byte	0x54
 12586 07b6 B0000000 		.4byte	.LVL138
 12587 07ba B4000000 		.4byte	.LVL139
 12588 07be 0100     		.2byte	0x1
 12589 07c0 52       		.byte	0x52
 12590 07c1 B4000000 		.4byte	.LVL139
 12591 07c5 BA000000 		.4byte	.LVL140
 12592 07c9 0100     		.2byte	0x1
 12593 07cb 54       		.byte	0x54
 12594 07cc 00000000 		.4byte	0
 12595 07d0 00000000 		.4byte	0
 12596              	.LLST51:
 12597 07d4 00000000 		.4byte	.LVL149
 12598 07d8 02000000 		.4byte	.LVL150
 12599 07dc 0100     		.2byte	0x1
 12600 07de 50       		.byte	0x50
 12601 07df 02000000 		.4byte	.LVL150
 12602 07e3 50000000 		.4byte	.LFE27
 12603 07e7 0400     		.2byte	0x4
 12604 07e9 F3       		.byte	0xf3
 12605 07ea 01       		.uleb128 0x1
 12606 07eb 50       		.byte	0x50
 12607 07ec 9F       		.byte	0x9f
 12608 07ed 00000000 		.4byte	0
 12609 07f1 00000000 		.4byte	0
 12610              	.LLST52:
 12611 07f5 00000000 		.4byte	.LVL149
 12612 07f9 24000000 		.4byte	.LVL151
 12613 07fd 0100     		.2byte	0x1
 12614 07ff 51       		.byte	0x51
 12615 0800 24000000 		.4byte	.LVL151
 12616 0804 48000000 		.4byte	.LVL157
 12617 0808 0400     		.2byte	0x4
 12618 080a F3       		.byte	0xf3
 12619 080b 01       		.uleb128 0x1
 12620 080c 51       		.byte	0x51
 12621 080d 9F       		.byte	0x9f
 12622 080e 48000000 		.4byte	.LVL157
 12623 0812 50000000 		.4byte	.LFE27
 12624 0816 0100     		.2byte	0x1
 12625 0818 51       		.byte	0x51
 12626 0819 00000000 		.4byte	0
 12627 081d 00000000 		.4byte	0
ARM GAS  C:\Users\MATEOC~1.QUE\AppData\Local\Temp\ccxtWYOp.s 			page 245


 12628              	.LLST53:
 12629 0821 00000000 		.4byte	.LVL149
 12630 0825 28000000 		.4byte	.LVL152
 12631 0829 0100     		.2byte	0x1
 12632 082b 52       		.byte	0x52
 12633 082c 28000000 		.4byte	.LVL152
 12634 0830 48000000 		.4byte	.LVL157
 12635 0834 0400     		.2byte	0x4
 12636 0836 F3       		.byte	0xf3
 12637 0837 01       		.uleb128 0x1
 12638 0838 52       		.byte	0x52
 12639 0839 9F       		.byte	0x9f
 12640 083a 48000000 		.4byte	.LVL157
 12641 083e 50000000 		.4byte	.LFE27
 12642 0842 0100     		.2byte	0x1
 12643 0844 52       		.byte	0x52
 12644 0845 00000000 		.4byte	0
 12645 0849 00000000 		.4byte	0
 12646              	.LLST54:
 12647 084d 00000000 		.4byte	.LVL158
 12648 0851 30000000 		.4byte	.LVL163
 12649 0855 0100     		.2byte	0x1
 12650 0857 50       		.byte	0x50
 12651 0858 30000000 		.4byte	.LVL163
 12652 085c 3C010000 		.4byte	.LFE33
 12653 0860 0400     		.2byte	0x4
 12654 0862 F3       		.byte	0xf3
 12655 0863 01       		.uleb128 0x1
 12656 0864 50       		.byte	0x50
 12657 0865 9F       		.byte	0x9f
 12658 0866 00000000 		.4byte	0
 12659 086a 00000000 		.4byte	0
 12660              	.LLST55:
 12661 086e 00000000 		.4byte	.LVL158
 12662 0872 30000000 		.4byte	.LVL163
 12663 0876 0100     		.2byte	0x1
 12664 0878 51       		.byte	0x51
 12665 0879 30000000 		.4byte	.LVL163
 12666 087d 3C010000 		.4byte	.LFE33
 12667 0881 0400     		.2byte	0x4
 12668 0883 F3       		.byte	0xf3
 12669 0884 01       		.uleb128 0x1
 12670 0885 51       		.byte	0x51
 12671 0886 9F       		.byte	0x9f
 12672 0887 00000000 		.4byte	0
 12673 088b 00000000 		.4byte	0
 12674              	.LLST56:
 12675 088f 00000000 		.4byte	.LVL158
 12676 0893 22000000 		.4byte	.LVL161
 12677 0897 0100     		.2byte	0x1
 12678 0899 52       		.byte	0x52
 12679 089a 22000000 		.4byte	.LVL161
 12680 089e 3C010000 		.4byte	.LFE33
 12681 08a2 0400     		.2byte	0x4
 12682 08a4 F3       		.byte	0xf3
 12683 08a5 01       		.uleb128 0x1
 12684 08a6 52       		.byte	0x52
ARM GAS  C:\Users\MATEOC~1.QUE\AppData\Local\Temp\ccxtWYOp.s 			page 246


 12685 08a7 9F       		.byte	0x9f
 12686 08a8 00000000 		.4byte	0
 12687 08ac 00000000 		.4byte	0
 12688              	.LLST57:
 12689 08b0 00000000 		.4byte	.LVL158
 12690 08b4 12000000 		.4byte	.LVL159
 12691 08b8 0100     		.2byte	0x1
 12692 08ba 53       		.byte	0x53
 12693 08bb 12000000 		.4byte	.LVL159
 12694 08bf 3C010000 		.4byte	.LFE33
 12695 08c3 0400     		.2byte	0x4
 12696 08c5 F3       		.byte	0xf3
 12697 08c6 01       		.uleb128 0x1
 12698 08c7 53       		.byte	0x53
 12699 08c8 9F       		.byte	0x9f
 12700 08c9 00000000 		.4byte	0
 12701 08cd 00000000 		.4byte	0
 12702              	.LLST58:
 12703 08d1 1C000000 		.4byte	.LVL160
 12704 08d5 44000000 		.4byte	.LVL167
 12705 08d9 0100     		.2byte	0x1
 12706 08db 54       		.byte	0x54
 12707 08dc 46000000 		.4byte	.LVL168
 12708 08e0 5E000000 		.4byte	.LVL172
 12709 08e4 0100     		.2byte	0x1
 12710 08e6 54       		.byte	0x54
 12711 08e7 60000000 		.4byte	.LVL173
 12712 08eb 3C010000 		.4byte	.LFE33
 12713 08ef 0100     		.2byte	0x1
 12714 08f1 54       		.byte	0x54
 12715 08f2 00000000 		.4byte	0
 12716 08f6 00000000 		.4byte	0
 12717              	.LLST59:
 12718 08fa 1C000000 		.4byte	.LVL160
 12719 08fe 30000000 		.4byte	.LVL163
 12720 0902 0200     		.2byte	0x2
 12721 0904 31       		.byte	0x31
 12722 0905 9F       		.byte	0x9f
 12723 0906 30000000 		.4byte	.LVL163
 12724 090a 3C010000 		.4byte	.LFE33
 12725 090e 0200     		.2byte	0x2
 12726 0910 91       		.byte	0x91
 12727 0911 48       		.sleb128 -56
 12728 0912 00000000 		.4byte	0
 12729 0916 00000000 		.4byte	0
 12730              	.LLST60:
 12731 091a 26000000 		.4byte	.LVL162
 12732 091e 30000000 		.4byte	.LVL163
 12733 0922 0200     		.2byte	0x2
 12734 0924 30       		.byte	0x30
 12735 0925 9F       		.byte	0x9f
 12736 0926 30000000 		.4byte	.LVL163
 12737 092a 4A000000 		.4byte	.LVL169
 12738 092e 0100     		.2byte	0x1
 12739 0930 58       		.byte	0x58
 12740 0931 52000000 		.4byte	.LVL170
 12741 0935 3C010000 		.4byte	.LFE33
ARM GAS  C:\Users\MATEOC~1.QUE\AppData\Local\Temp\ccxtWYOp.s 			page 247


 12742 0939 0100     		.2byte	0x1
 12743 093b 58       		.byte	0x58
 12744 093c 00000000 		.4byte	0
 12745 0940 00000000 		.4byte	0
 12746              	.LLST61:
 12747 0944 26000000 		.4byte	.LVL162
 12748 0948 36000000 		.4byte	.LVL164
 12749 094c 0100     		.2byte	0x1
 12750 094e 57       		.byte	0x57
 12751 094f 38000000 		.4byte	.LVL165
 12752 0953 3C010000 		.4byte	.LFE33
 12753 0957 0100     		.2byte	0x1
 12754 0959 57       		.byte	0x57
 12755 095a 00000000 		.4byte	0
 12756 095e 00000000 		.4byte	0
 12757              	.LLST62:
 12758 0962 00000000 		.4byte	.LVL182
 12759 0966 28000000 		.4byte	.LVL186
 12760 096a 0100     		.2byte	0x1
 12761 096c 50       		.byte	0x50
 12762 096d 28000000 		.4byte	.LVL186
 12763 0971 64000000 		.4byte	.LFE28
 12764 0975 0400     		.2byte	0x4
 12765 0977 F3       		.byte	0xf3
 12766 0978 01       		.uleb128 0x1
 12767 0979 50       		.byte	0x50
 12768 097a 9F       		.byte	0x9f
 12769 097b 00000000 		.4byte	0
 12770 097f 00000000 		.4byte	0
 12771              	.LLST63:
 12772 0983 00000000 		.4byte	.LVL182
 12773 0987 2A000000 		.4byte	.LVL187
 12774 098b 0100     		.2byte	0x1
 12775 098d 51       		.byte	0x51
 12776 098e 2A000000 		.4byte	.LVL187
 12777 0992 64000000 		.4byte	.LFE28
 12778 0996 0400     		.2byte	0x4
 12779 0998 F3       		.byte	0xf3
 12780 0999 01       		.uleb128 0x1
 12781 099a 51       		.byte	0x51
 12782 099b 9F       		.byte	0x9f
 12783 099c 00000000 		.4byte	0
 12784 09a0 00000000 		.4byte	0
 12785              	.LLST64:
 12786 09a4 00000000 		.4byte	.LVL182
 12787 09a8 1C000000 		.4byte	.LVL184
 12788 09ac 0100     		.2byte	0x1
 12789 09ae 52       		.byte	0x52
 12790 09af 1C000000 		.4byte	.LVL184
 12791 09b3 26000000 		.4byte	.LVL185
 12792 09b7 0400     		.2byte	0x4
 12793 09b9 F3       		.byte	0xf3
 12794 09ba 01       		.uleb128 0x1
 12795 09bb 52       		.byte	0x52
 12796 09bc 9F       		.byte	0x9f
 12797 09bd 26000000 		.4byte	.LVL185
 12798 09c1 42000000 		.4byte	.LVL192
ARM GAS  C:\Users\MATEOC~1.QUE\AppData\Local\Temp\ccxtWYOp.s 			page 248


 12799 09c5 0100     		.2byte	0x1
 12800 09c7 55       		.byte	0x55
 12801 09c8 42000000 		.4byte	.LVL192
 12802 09cc 54000000 		.4byte	.LVL195
 12803 09d0 0100     		.2byte	0x1
 12804 09d2 54       		.byte	0x54
 12805 09d3 54000000 		.4byte	.LVL195
 12806 09d7 58000000 		.4byte	.LVL196
 12807 09db 0100     		.2byte	0x1
 12808 09dd 55       		.byte	0x55
 12809 09de 58000000 		.4byte	.LVL196
 12810 09e2 5C000000 		.4byte	.LVL197
 12811 09e6 0100     		.2byte	0x1
 12812 09e8 54       		.byte	0x54
 12813 09e9 00000000 		.4byte	0
 12814 09ed 00000000 		.4byte	0
 12815              	.LLST65:
 12816 09f1 00000000 		.4byte	.LVL182
 12817 09f5 06000000 		.4byte	.LVL183
 12818 09f9 0100     		.2byte	0x1
 12819 09fb 53       		.byte	0x53
 12820 09fc 06000000 		.4byte	.LVL183
 12821 0a00 64000000 		.4byte	.LFE28
 12822 0a04 0400     		.2byte	0x4
 12823 0a06 F3       		.byte	0xf3
 12824 0a07 01       		.uleb128 0x1
 12825 0a08 53       		.byte	0x53
 12826 0a09 9F       		.byte	0x9f
 12827 0a0a 00000000 		.4byte	0
 12828 0a0e 00000000 		.4byte	0
 12829              	.LLST66:
 12830 0a12 38000000 		.4byte	.LVL189
 12831 0a16 5C000000 		.4byte	.LVL197
 12832 0a1a 0100     		.2byte	0x1
 12833 0a1c 57       		.byte	0x57
 12834 0a1d 00000000 		.4byte	0
 12835 0a21 00000000 		.4byte	0
 12836              	.LLST67:
 12837 0a25 3A000000 		.4byte	.LVL190
 12838 0a29 5C000000 		.4byte	.LVL197
 12839 0a2d 0100     		.2byte	0x1
 12840 0a2f 56       		.byte	0x56
 12841 0a30 00000000 		.4byte	0
 12842 0a34 00000000 		.4byte	0
 12843              	.LLST68:
 12844 0a38 00000000 		.4byte	.LVL198
 12845 0a3c 34000000 		.4byte	.LVL203
 12846 0a40 0100     		.2byte	0x1
 12847 0a42 50       		.byte	0x50
 12848 0a43 34000000 		.4byte	.LVL203
 12849 0a47 06010000 		.4byte	.LFE35
 12850 0a4b 0400     		.2byte	0x4
 12851 0a4d F3       		.byte	0xf3
 12852 0a4e 01       		.uleb128 0x1
 12853 0a4f 50       		.byte	0x50
 12854 0a50 9F       		.byte	0x9f
 12855 0a51 00000000 		.4byte	0
ARM GAS  C:\Users\MATEOC~1.QUE\AppData\Local\Temp\ccxtWYOp.s 			page 249


 12856 0a55 00000000 		.4byte	0
 12857              	.LLST69:
 12858 0a59 00000000 		.4byte	.LVL198
 12859 0a5d 34000000 		.4byte	.LVL203
 12860 0a61 0100     		.2byte	0x1
 12861 0a63 51       		.byte	0x51
 12862 0a64 34000000 		.4byte	.LVL203
 12863 0a68 06010000 		.4byte	.LFE35
 12864 0a6c 0400     		.2byte	0x4
 12865 0a6e F3       		.byte	0xf3
 12866 0a6f 01       		.uleb128 0x1
 12867 0a70 51       		.byte	0x51
 12868 0a71 9F       		.byte	0x9f
 12869 0a72 00000000 		.4byte	0
 12870 0a76 00000000 		.4byte	0
 12871              	.LLST70:
 12872 0a7a 00000000 		.4byte	.LVL198
 12873 0a7e 28000000 		.4byte	.LVL201
 12874 0a82 0100     		.2byte	0x1
 12875 0a84 52       		.byte	0x52
 12876 0a85 28000000 		.4byte	.LVL201
 12877 0a89 06010000 		.4byte	.LFE35
 12878 0a8d 0400     		.2byte	0x4
 12879 0a8f F3       		.byte	0xf3
 12880 0a90 01       		.uleb128 0x1
 12881 0a91 52       		.byte	0x52
 12882 0a92 9F       		.byte	0x9f
 12883 0a93 00000000 		.4byte	0
 12884 0a97 00000000 		.4byte	0
 12885              	.LLST71:
 12886 0a9b 00000000 		.4byte	.LVL198
 12887 0a9f 12000000 		.4byte	.LVL199
 12888 0aa3 0100     		.2byte	0x1
 12889 0aa5 53       		.byte	0x53
 12890 0aa6 12000000 		.4byte	.LVL199
 12891 0aaa 06010000 		.4byte	.LFE35
 12892 0aae 0400     		.2byte	0x4
 12893 0ab0 F3       		.byte	0xf3
 12894 0ab1 01       		.uleb128 0x1
 12895 0ab2 53       		.byte	0x53
 12896 0ab3 9F       		.byte	0x9f
 12897 0ab4 00000000 		.4byte	0
 12898 0ab8 00000000 		.4byte	0
 12899              	.LLST72:
 12900 0abc 22000000 		.4byte	.LVL200
 12901 0ac0 4C000000 		.4byte	.LVL207
 12902 0ac4 0100     		.2byte	0x1
 12903 0ac6 54       		.byte	0x54
 12904 0ac7 4E000000 		.4byte	.LVL208
 12905 0acb 62000000 		.4byte	.LVL213
 12906 0acf 0100     		.2byte	0x1
 12907 0ad1 54       		.byte	0x54
 12908 0ad2 64000000 		.4byte	.LVL214
 12909 0ad6 06010000 		.4byte	.LFE35
 12910 0ada 0100     		.2byte	0x1
 12911 0adc 54       		.byte	0x54
 12912 0add 00000000 		.4byte	0
ARM GAS  C:\Users\MATEOC~1.QUE\AppData\Local\Temp\ccxtWYOp.s 			page 250


 12913 0ae1 00000000 		.4byte	0
 12914              	.LLST73:
 12915 0ae5 22000000 		.4byte	.LVL200
 12916 0ae9 34000000 		.4byte	.LVL203
 12917 0aed 0200     		.2byte	0x2
 12918 0aef 31       		.byte	0x31
 12919 0af0 9F       		.byte	0x9f
 12920 0af1 34000000 		.4byte	.LVL203
 12921 0af5 58000000 		.4byte	.LVL211
 12922 0af9 0100     		.2byte	0x1
 12923 0afb 5B       		.byte	0x5b
 12924 0afc 60000000 		.4byte	.LVL212
 12925 0b00 06010000 		.4byte	.LFE35
 12926 0b04 0100     		.2byte	0x1
 12927 0b06 5B       		.byte	0x5b
 12928 0b07 00000000 		.4byte	0
 12929 0b0b 00000000 		.4byte	0
 12930              	.LLST74:
 12931 0b0f 2C000000 		.4byte	.LVL202
 12932 0b13 34000000 		.4byte	.LVL203
 12933 0b17 0200     		.2byte	0x2
 12934 0b19 30       		.byte	0x30
 12935 0b1a 9F       		.byte	0x9f
 12936 0b1b 34000000 		.4byte	.LVL203
 12937 0b1f 50000000 		.4byte	.LVL209
 12938 0b23 0100     		.2byte	0x1
 12939 0b25 57       		.byte	0x57
 12940 0b26 54000000 		.4byte	.LVL210
 12941 0b2a 06010000 		.4byte	.LFE35
 12942 0b2e 0100     		.2byte	0x1
 12943 0b30 57       		.byte	0x57
 12944 0b31 00000000 		.4byte	0
 12945 0b35 00000000 		.4byte	0
 12946              	.LLST75:
 12947 0b39 2C000000 		.4byte	.LVL202
 12948 0b3d 3C000000 		.4byte	.LVL204
 12949 0b41 0100     		.2byte	0x1
 12950 0b43 58       		.byte	0x58
 12951 0b44 40000000 		.4byte	.LVL205
 12952 0b48 06010000 		.4byte	.LFE35
 12953 0b4c 0100     		.2byte	0x1
 12954 0b4e 58       		.byte	0x58
 12955 0b4f 00000000 		.4byte	0
 12956 0b53 00000000 		.4byte	0
 12957              	.LLST76:
 12958 0b57 00000000 		.4byte	.LVL219
 12959 0b5b 28000000 		.4byte	.LVL223
 12960 0b5f 0100     		.2byte	0x1
 12961 0b61 50       		.byte	0x50
 12962 0b62 28000000 		.4byte	.LVL223
 12963 0b66 64000000 		.4byte	.LFE29
 12964 0b6a 0400     		.2byte	0x4
 12965 0b6c F3       		.byte	0xf3
 12966 0b6d 01       		.uleb128 0x1
 12967 0b6e 50       		.byte	0x50
 12968 0b6f 9F       		.byte	0x9f
 12969 0b70 00000000 		.4byte	0
ARM GAS  C:\Users\MATEOC~1.QUE\AppData\Local\Temp\ccxtWYOp.s 			page 251


 12970 0b74 00000000 		.4byte	0
 12971              	.LLST77:
 12972 0b78 00000000 		.4byte	.LVL219
 12973 0b7c 2A000000 		.4byte	.LVL224
 12974 0b80 0100     		.2byte	0x1
 12975 0b82 51       		.byte	0x51
 12976 0b83 2A000000 		.4byte	.LVL224
 12977 0b87 64000000 		.4byte	.LFE29
 12978 0b8b 0400     		.2byte	0x4
 12979 0b8d F3       		.byte	0xf3
 12980 0b8e 01       		.uleb128 0x1
 12981 0b8f 51       		.byte	0x51
 12982 0b90 9F       		.byte	0x9f
 12983 0b91 00000000 		.4byte	0
 12984 0b95 00000000 		.4byte	0
 12985              	.LLST78:
 12986 0b99 00000000 		.4byte	.LVL219
 12987 0b9d 12000000 		.4byte	.LVL221
 12988 0ba1 0100     		.2byte	0x1
 12989 0ba3 52       		.byte	0x52
 12990 0ba4 12000000 		.4byte	.LVL221
 12991 0ba8 26000000 		.4byte	.LVL222
 12992 0bac 0400     		.2byte	0x4
 12993 0bae F3       		.byte	0xf3
 12994 0baf 01       		.uleb128 0x1
 12995 0bb0 52       		.byte	0x52
 12996 0bb1 9F       		.byte	0x9f
 12997 0bb2 26000000 		.4byte	.LVL222
 12998 0bb6 42000000 		.4byte	.LVL229
 12999 0bba 0100     		.2byte	0x1
 13000 0bbc 55       		.byte	0x55
 13001 0bbd 42000000 		.4byte	.LVL229
 13002 0bc1 54000000 		.4byte	.LVL232
 13003 0bc5 0100     		.2byte	0x1
 13004 0bc7 54       		.byte	0x54
 13005 0bc8 54000000 		.4byte	.LVL232
 13006 0bcc 58000000 		.4byte	.LVL233
 13007 0bd0 0100     		.2byte	0x1
 13008 0bd2 55       		.byte	0x55
 13009 0bd3 58000000 		.4byte	.LVL233
 13010 0bd7 5C000000 		.4byte	.LVL234
 13011 0bdb 0100     		.2byte	0x1
 13012 0bdd 54       		.byte	0x54
 13013 0bde 00000000 		.4byte	0
 13014 0be2 00000000 		.4byte	0
 13015              	.LLST79:
 13016 0be6 00000000 		.4byte	.LVL219
 13017 0bea 06000000 		.4byte	.LVL220
 13018 0bee 0100     		.2byte	0x1
 13019 0bf0 53       		.byte	0x53
 13020 0bf1 06000000 		.4byte	.LVL220
 13021 0bf5 64000000 		.4byte	.LFE29
 13022 0bf9 0400     		.2byte	0x4
 13023 0bfb F3       		.byte	0xf3
 13024 0bfc 01       		.uleb128 0x1
 13025 0bfd 53       		.byte	0x53
 13026 0bfe 9F       		.byte	0x9f
ARM GAS  C:\Users\MATEOC~1.QUE\AppData\Local\Temp\ccxtWYOp.s 			page 252


 13027 0bff 00000000 		.4byte	0
 13028 0c03 00000000 		.4byte	0
 13029              	.LLST80:
 13030 0c07 38000000 		.4byte	.LVL226
 13031 0c0b 5C000000 		.4byte	.LVL234
 13032 0c0f 0100     		.2byte	0x1
 13033 0c11 57       		.byte	0x57
 13034 0c12 00000000 		.4byte	0
 13035 0c16 00000000 		.4byte	0
 13036              	.LLST81:
 13037 0c1a 3A000000 		.4byte	.LVL227
 13038 0c1e 5C000000 		.4byte	.LVL234
 13039 0c22 0100     		.2byte	0x1
 13040 0c24 56       		.byte	0x56
 13041 0c25 00000000 		.4byte	0
 13042 0c29 00000000 		.4byte	0
 13043              	.LLST82:
 13044 0c2d 00000000 		.4byte	.LVL235
 13045 0c31 3C000000 		.4byte	.LVL239
 13046 0c35 0100     		.2byte	0x1
 13047 0c37 50       		.byte	0x50
 13048 0c38 3C000000 		.4byte	.LVL239
 13049 0c3c 4A000000 		.4byte	.LVL242
 13050 0c40 0100     		.2byte	0x1
 13051 0c42 55       		.byte	0x55
 13052 0c43 4C000000 		.4byte	.LVL243
 13053 0c47 B2000000 		.4byte	.LVL260
 13054 0c4b 0100     		.2byte	0x1
 13055 0c4d 55       		.byte	0x55
 13056 0c4e B4000000 		.4byte	.LVL261
 13057 0c52 BE000000 		.4byte	.LFE30
 13058 0c56 0100     		.2byte	0x1
 13059 0c58 55       		.byte	0x55
 13060 0c59 00000000 		.4byte	0
 13061 0c5d 00000000 		.4byte	0
 13062              	.LLST83:
 13063 0c61 00000000 		.4byte	.LVL235
 13064 0c65 3C000000 		.4byte	.LVL239
 13065 0c69 0100     		.2byte	0x1
 13066 0c6b 51       		.byte	0x51
 13067 0c6c 3C000000 		.4byte	.LVL239
 13068 0c70 44000000 		.4byte	.LVL240
 13069 0c74 0100     		.2byte	0x1
 13070 0c76 56       		.byte	0x56
 13071 0c77 4C000000 		.4byte	.LVL243
 13072 0c7b A8000000 		.4byte	.LVL256
 13073 0c7f 0100     		.2byte	0x1
 13074 0c81 56       		.byte	0x56
 13075 0c82 AA000000 		.4byte	.LVL257
 13076 0c86 BE000000 		.4byte	.LFE30
 13077 0c8a 0100     		.2byte	0x1
 13078 0c8c 56       		.byte	0x56
 13079 0c8d 00000000 		.4byte	0
 13080 0c91 00000000 		.4byte	0
 13081              	.LLST84:
 13082 0c95 00000000 		.4byte	.LVL235
 13083 0c99 10000000 		.4byte	.LVL236
ARM GAS  C:\Users\MATEOC~1.QUE\AppData\Local\Temp\ccxtWYOp.s 			page 253


 13084 0c9d 0100     		.2byte	0x1
 13085 0c9f 52       		.byte	0x52
 13086 0ca0 10000000 		.4byte	.LVL236
 13087 0ca4 3C000000 		.4byte	.LVL239
 13088 0ca8 0400     		.2byte	0x4
 13089 0caa F3       		.byte	0xf3
 13090 0cab 01       		.uleb128 0x1
 13091 0cac 52       		.byte	0x52
 13092 0cad 9F       		.byte	0x9f
 13093 0cae 3C000000 		.4byte	.LVL239
 13094 0cb2 BE000000 		.4byte	.LFE30
 13095 0cb6 0100     		.2byte	0x1
 13096 0cb8 57       		.byte	0x57
 13097 0cb9 00000000 		.4byte	0
 13098 0cbd 00000000 		.4byte	0
 13099              	.LLST85:
 13100 0cc1 00000000 		.4byte	.LVL235
 13101 0cc5 38000000 		.4byte	.LVL238
 13102 0cc9 0100     		.2byte	0x1
 13103 0ccb 53       		.byte	0x53
 13104 0ccc 38000000 		.4byte	.LVL238
 13105 0cd0 3C000000 		.4byte	.LVL239
 13106 0cd4 0400     		.2byte	0x4
 13107 0cd6 F3       		.byte	0xf3
 13108 0cd7 01       		.uleb128 0x1
 13109 0cd8 53       		.byte	0x53
 13110 0cd9 9F       		.byte	0x9f
 13111 0cda 3C000000 		.4byte	.LVL239
 13112 0cde 46000000 		.4byte	.LVL241
 13113 0ce2 0100     		.2byte	0x1
 13114 0ce4 53       		.byte	0x53
 13115 0ce5 4C000000 		.4byte	.LVL243
 13116 0ce9 72000000 		.4byte	.LVL248
 13117 0ced 0100     		.2byte	0x1
 13118 0cef 53       		.byte	0x53
 13119 0cf0 76000000 		.4byte	.LVL249
 13120 0cf4 7A000000 		.4byte	.LVL250
 13121 0cf8 0100     		.2byte	0x1
 13122 0cfa 53       		.byte	0x53
 13123 0cfb 00000000 		.4byte	0
 13124 0cff 00000000 		.4byte	0
 13125              	.LLST86:
 13126 0d03 58000000 		.4byte	.LVL244
 13127 0d07 6A000000 		.4byte	.LVL246
 13128 0d0b 0100     		.2byte	0x1
 13129 0d0d 54       		.byte	0x54
 13130 0d0e 6A000000 		.4byte	.LVL246
 13131 0d12 BE000000 		.4byte	.LFE30
 13132 0d16 0100     		.2byte	0x1
 13133 0d18 5B       		.byte	0x5b
 13134 0d19 00000000 		.4byte	0
 13135 0d1d 00000000 		.4byte	0
 13136              	.LLST87:
 13137 0d21 6C000000 		.4byte	.LVL247
 13138 0d25 9C000000 		.4byte	.LVL254
 13139 0d29 0100     		.2byte	0x1
 13140 0d2b 54       		.byte	0x54
ARM GAS  C:\Users\MATEOC~1.QUE\AppData\Local\Temp\ccxtWYOp.s 			page 254


 13141 0d2c A0000000 		.4byte	.LVL255
 13142 0d30 AE000000 		.4byte	.LVL258
 13143 0d34 0100     		.2byte	0x1
 13144 0d36 54       		.byte	0x54
 13145 0d37 AE000000 		.4byte	.LVL258
 13146 0d3b B0000000 		.4byte	.LVL259
 13147 0d3f 0100     		.2byte	0x1
 13148 0d41 53       		.byte	0x53
 13149 0d42 B0000000 		.4byte	.LVL259
 13150 0d46 BE000000 		.4byte	.LFE30
 13151 0d4a 0100     		.2byte	0x1
 13152 0d4c 54       		.byte	0x54
 13153 0d4d 00000000 		.4byte	0
 13154 0d51 00000000 		.4byte	0
 13155              	.LLST88:
 13156 0d55 00000000 		.4byte	.LVL262
 13157 0d59 0C000000 		.4byte	.LVL263
 13158 0d5d 0100     		.2byte	0x1
 13159 0d5f 50       		.byte	0x50
 13160 0d60 0C000000 		.4byte	.LVL263
 13161 0d64 12000000 		.4byte	.LFE31
 13162 0d68 0400     		.2byte	0x4
 13163 0d6a F3       		.byte	0xf3
 13164 0d6b 01       		.uleb128 0x1
 13165 0d6c 50       		.byte	0x50
 13166 0d6d 9F       		.byte	0x9f
 13167 0d6e 00000000 		.4byte	0
 13168 0d72 00000000 		.4byte	0
 13169              	.LLST89:
 13170 0d76 00000000 		.4byte	.LVL265
 13171 0d7a 31000000 		.4byte	.LVL271-1
 13172 0d7e 0100     		.2byte	0x1
 13173 0d80 50       		.byte	0x50
 13174 0d81 31000000 		.4byte	.LVL271-1
 13175 0d85 38010000 		.4byte	.LFE32
 13176 0d89 0400     		.2byte	0x4
 13177 0d8b F3       		.byte	0xf3
 13178 0d8c 01       		.uleb128 0x1
 13179 0d8d 50       		.byte	0x50
 13180 0d8e 9F       		.byte	0x9f
 13181 0d8f 00000000 		.4byte	0
 13182 0d93 00000000 		.4byte	0
 13183              	.LLST90:
 13184 0d97 00000000 		.4byte	.LVL265
 13185 0d9b 2A000000 		.4byte	.LVL270
 13186 0d9f 0100     		.2byte	0x1
 13187 0da1 51       		.byte	0x51
 13188 0da2 2A000000 		.4byte	.LVL270
 13189 0da6 38010000 		.4byte	.LFE32
 13190 0daa 0100     		.2byte	0x1
 13191 0dac 5B       		.byte	0x5b
 13192 0dad 00000000 		.4byte	0
 13193 0db1 00000000 		.4byte	0
 13194              	.LLST91:
 13195 0db5 00000000 		.4byte	.LVL265
 13196 0db9 1C000000 		.4byte	.LVL267
 13197 0dbd 0100     		.2byte	0x1
ARM GAS  C:\Users\MATEOC~1.QUE\AppData\Local\Temp\ccxtWYOp.s 			page 255


 13198 0dbf 52       		.byte	0x52
 13199 0dc0 1C000000 		.4byte	.LVL267
 13200 0dc4 6A000000 		.4byte	.LVL275
 13201 0dc8 0100     		.2byte	0x1
 13202 0dca 55       		.byte	0x55
 13203 0dcb 6A000000 		.4byte	.LVL275
 13204 0dcf 38010000 		.4byte	.LFE32
 13205 0dd3 0400     		.2byte	0x4
 13206 0dd5 F3       		.byte	0xf3
 13207 0dd6 01       		.uleb128 0x1
 13208 0dd7 52       		.byte	0x52
 13209 0dd8 9F       		.byte	0x9f
 13210 0dd9 00000000 		.4byte	0
 13211 0ddd 00000000 		.4byte	0
 13212              	.LLST92:
 13213 0de1 00000000 		.4byte	.LVL265
 13214 0de5 1E000000 		.4byte	.LVL268
 13215 0de9 0100     		.2byte	0x1
 13216 0deb 53       		.byte	0x53
 13217 0dec 1E000000 		.4byte	.LVL268
 13218 0df0 38010000 		.4byte	.LFE32
 13219 0df4 0400     		.2byte	0x4
 13220 0df6 F3       		.byte	0xf3
 13221 0df7 01       		.uleb128 0x1
 13222 0df8 53       		.byte	0x53
 13223 0df9 9F       		.byte	0x9f
 13224 0dfa 00000000 		.4byte	0
 13225 0dfe 00000000 		.4byte	0
 13226              	.LLST93:
 13227 0e02 18000000 		.4byte	.LVL266
 13228 0e06 82000000 		.4byte	.LVL278
 13229 0e0a 0100     		.2byte	0x1
 13230 0e0c 54       		.byte	0x54
 13231 0e0d 84000000 		.4byte	.LVL279
 13232 0e11 9A000000 		.4byte	.LVL282
 13233 0e15 0100     		.2byte	0x1
 13234 0e17 54       		.byte	0x54
 13235 0e18 9C000000 		.4byte	.LVL283
 13236 0e1c 38010000 		.4byte	.LFE32
 13237 0e20 0100     		.2byte	0x1
 13238 0e22 54       		.byte	0x54
 13239 0e23 00000000 		.4byte	0
 13240 0e27 00000000 		.4byte	0
 13241              	.LLST94:
 13242 0e2b 18000000 		.4byte	.LVL266
 13243 0e2f 6A000000 		.4byte	.LVL275
 13244 0e33 0200     		.2byte	0x2
 13245 0e35 31       		.byte	0x31
 13246 0e36 9F       		.byte	0x9f
 13247 0e37 6A000000 		.4byte	.LVL275
 13248 0e3b 38010000 		.4byte	.LFE32
 13249 0e3f 0200     		.2byte	0x2
 13250 0e41 91       		.byte	0x91
 13251 0e42 4C       		.sleb128 -52
 13252 0e43 00000000 		.4byte	0
 13253 0e47 00000000 		.4byte	0
 13254              	.LLST95:
ARM GAS  C:\Users\MATEOC~1.QUE\AppData\Local\Temp\ccxtWYOp.s 			page 256


 13255 0e4b 22000000 		.4byte	.LVL269
 13256 0e4f 6A000000 		.4byte	.LVL275
 13257 0e53 0200     		.2byte	0x2
 13258 0e55 30       		.byte	0x30
 13259 0e56 9F       		.byte	0x9f
 13260 0e57 6A000000 		.4byte	.LVL275
 13261 0e5b 38010000 		.4byte	.LFE32
 13262 0e5f 0100     		.2byte	0x1
 13263 0e61 59       		.byte	0x59
 13264 0e62 00000000 		.4byte	0
 13265 0e66 00000000 		.4byte	0
 13266              	.LLST96:
 13267 0e6a 00000000 		.4byte	.LVL292
 13268 0e6e 1B000000 		.4byte	.LVL296-1
 13269 0e72 0100     		.2byte	0x1
 13270 0e74 50       		.byte	0x50
 13271 0e75 1B000000 		.4byte	.LVL296-1
 13272 0e79 32000000 		.4byte	.LFE34
 13273 0e7d 0400     		.2byte	0x4
 13274 0e7f F3       		.byte	0xf3
 13275 0e80 01       		.uleb128 0x1
 13276 0e81 50       		.byte	0x50
 13277 0e82 9F       		.byte	0x9f
 13278 0e83 00000000 		.4byte	0
 13279 0e87 00000000 		.4byte	0
 13280              	.LLST97:
 13281 0e8b 00000000 		.4byte	.LVL292
 13282 0e8f 0E000000 		.4byte	.LVL293
 13283 0e93 0100     		.2byte	0x1
 13284 0e95 51       		.byte	0x51
 13285 0e96 0E000000 		.4byte	.LVL293
 13286 0e9a 32000000 		.4byte	.LFE34
 13287 0e9e 0400     		.2byte	0x4
 13288 0ea0 F3       		.byte	0xf3
 13289 0ea1 01       		.uleb128 0x1
 13290 0ea2 51       		.byte	0x51
 13291 0ea3 9F       		.byte	0x9f
 13292 0ea4 00000000 		.4byte	0
 13293 0ea8 00000000 		.4byte	0
 13294              	.LLST98:
 13295 0eac 00000000 		.4byte	.LVL292
 13296 0eb0 10000000 		.4byte	.LVL294
 13297 0eb4 0100     		.2byte	0x1
 13298 0eb6 52       		.byte	0x52
 13299 0eb7 10000000 		.4byte	.LVL294
 13300 0ebb 14000000 		.4byte	.LVL295
 13301 0ebf 0100     		.2byte	0x1
 13302 0ec1 51       		.byte	0x51
 13303 0ec2 14000000 		.4byte	.LVL295
 13304 0ec6 32000000 		.4byte	.LFE34
 13305 0eca 0400     		.2byte	0x4
 13306 0ecc F3       		.byte	0xf3
 13307 0ecd 01       		.uleb128 0x1
 13308 0ece 52       		.byte	0x52
 13309 0ecf 9F       		.byte	0x9f
 13310 0ed0 00000000 		.4byte	0
 13311 0ed4 00000000 		.4byte	0
ARM GAS  C:\Users\MATEOC~1.QUE\AppData\Local\Temp\ccxtWYOp.s 			page 257


 13312              	.LLST99:
 13313 0ed8 00000000 		.4byte	.LVL292
 13314 0edc 1B000000 		.4byte	.LVL296-1
 13315 0ee0 0100     		.2byte	0x1
 13316 0ee2 53       		.byte	0x53
 13317 0ee3 1B000000 		.4byte	.LVL296-1
 13318 0ee7 32000000 		.4byte	.LFE34
 13319 0eeb 0400     		.2byte	0x4
 13320 0eed F3       		.byte	0xf3
 13321 0eee 01       		.uleb128 0x1
 13322 0eef 53       		.byte	0x53
 13323 0ef0 9F       		.byte	0x9f
 13324 0ef1 00000000 		.4byte	0
 13325 0ef5 00000000 		.4byte	0
 13326              	.LLST100:
 13327 0ef9 00000000 		.4byte	.LVL298
 13328 0efd 1F000000 		.4byte	.LVL299-1
 13329 0f01 0100     		.2byte	0x1
 13330 0f03 50       		.byte	0x50
 13331 0f04 1F000000 		.4byte	.LVL299-1
 13332 0f08 42000000 		.4byte	.LFE36
 13333 0f0c 0400     		.2byte	0x4
 13334 0f0e F3       		.byte	0xf3
 13335 0f0f 01       		.uleb128 0x1
 13336 0f10 50       		.byte	0x50
 13337 0f11 9F       		.byte	0x9f
 13338 0f12 00000000 		.4byte	0
 13339 0f16 00000000 		.4byte	0
 13340              	.LLST101:
 13341 0f1a 00000000 		.4byte	.LVL298
 13342 0f1e 1F000000 		.4byte	.LVL299-1
 13343 0f22 0100     		.2byte	0x1
 13344 0f24 51       		.byte	0x51
 13345 0f25 1F000000 		.4byte	.LVL299-1
 13346 0f29 42000000 		.4byte	.LFE36
 13347 0f2d 0400     		.2byte	0x4
 13348 0f2f F3       		.byte	0xf3
 13349 0f30 01       		.uleb128 0x1
 13350 0f31 51       		.byte	0x51
 13351 0f32 9F       		.byte	0x9f
 13352 0f33 00000000 		.4byte	0
 13353 0f37 00000000 		.4byte	0
 13354              	.LLST102:
 13355 0f3b 00000000 		.4byte	.LVL298
 13356 0f3f 1F000000 		.4byte	.LVL299-1
 13357 0f43 0100     		.2byte	0x1
 13358 0f45 52       		.byte	0x52
 13359 0f46 1F000000 		.4byte	.LVL299-1
 13360 0f4a 42000000 		.4byte	.LFE36
 13361 0f4e 0400     		.2byte	0x4
 13362 0f50 F3       		.byte	0xf3
 13363 0f51 01       		.uleb128 0x1
 13364 0f52 52       		.byte	0x52
 13365 0f53 9F       		.byte	0x9f
 13366 0f54 00000000 		.4byte	0
 13367 0f58 00000000 		.4byte	0
 13368              	.LLST103:
ARM GAS  C:\Users\MATEOC~1.QUE\AppData\Local\Temp\ccxtWYOp.s 			page 258


 13369 0f5c 00000000 		.4byte	.LVL298
 13370 0f60 1F000000 		.4byte	.LVL299-1
 13371 0f64 0100     		.2byte	0x1
 13372 0f66 53       		.byte	0x53
 13373 0f67 1F000000 		.4byte	.LVL299-1
 13374 0f6b 42000000 		.4byte	.LFE36
 13375 0f6f 0400     		.2byte	0x4
 13376 0f71 F3       		.byte	0xf3
 13377 0f72 01       		.uleb128 0x1
 13378 0f73 53       		.byte	0x53
 13379 0f74 9F       		.byte	0x9f
 13380 0f75 00000000 		.4byte	0
 13381 0f79 00000000 		.4byte	0
 13382              	.LLST104:
 13383 0f7d 00000000 		.4byte	.LVL302
 13384 0f81 28000000 		.4byte	.LVL304
 13385 0f85 0100     		.2byte	0x1
 13386 0f87 50       		.byte	0x50
 13387 0f88 28000000 		.4byte	.LVL304
 13388 0f8c 2A000000 		.4byte	.LVL305
 13389 0f90 0400     		.2byte	0x4
 13390 0f92 F3       		.byte	0xf3
 13391 0f93 01       		.uleb128 0x1
 13392 0f94 50       		.byte	0x50
 13393 0f95 9F       		.byte	0x9f
 13394 0f96 2A000000 		.4byte	.LVL305
 13395 0f9a 4C000000 		.4byte	.LVL311
 13396 0f9e 0100     		.2byte	0x1
 13397 0fa0 50       		.byte	0x50
 13398 0fa1 4E000000 		.4byte	.LVL312
 13399 0fa5 64000000 		.4byte	.LVL317
 13400 0fa9 0100     		.2byte	0x1
 13401 0fab 50       		.byte	0x50
 13402 0fac 86000000 		.4byte	.LVL324
 13403 0fb0 A6000000 		.4byte	.LVL326
 13404 0fb4 0100     		.2byte	0x1
 13405 0fb6 50       		.byte	0x50
 13406 0fb7 A6000000 		.4byte	.LVL326
 13407 0fbb 70010000 		.4byte	.LVL363
 13408 0fbf 0100     		.2byte	0x1
 13409 0fc1 57       		.byte	0x57
 13410 0fc2 00000000 		.4byte	0
 13411 0fc6 00000000 		.4byte	0
 13412              	.LLST105:
 13413 0fca 00000000 		.4byte	.LVL302
 13414 0fce 2A000000 		.4byte	.LVL305
 13415 0fd2 0100     		.2byte	0x1
 13416 0fd4 51       		.byte	0x51
 13417 0fd5 2A000000 		.4byte	.LVL305
 13418 0fd9 46000000 		.4byte	.LVL309
 13419 0fdd 0200     		.2byte	0x2
 13420 0fdf 91       		.byte	0x91
 13421 0fe0 48       		.sleb128 -56
 13422 0fe1 4E000000 		.4byte	.LVL312
 13423 0fe5 76010000 		.4byte	.LFE37
 13424 0fe9 0200     		.2byte	0x2
 13425 0feb 91       		.byte	0x91
ARM GAS  C:\Users\MATEOC~1.QUE\AppData\Local\Temp\ccxtWYOp.s 			page 259


 13426 0fec 48       		.sleb128 -56
 13427 0fed 00000000 		.4byte	0
 13428 0ff1 00000000 		.4byte	0
 13429              	.LLST106:
 13430 0ff5 00000000 		.4byte	.LVL302
 13431 0ff9 2A000000 		.4byte	.LVL305
 13432 0ffd 0100     		.2byte	0x1
 13433 0fff 52       		.byte	0x52
 13434 1000 2A000000 		.4byte	.LVL305
 13435 1004 3A000000 		.4byte	.LVL307
 13436 1008 0100     		.2byte	0x1
 13437 100a 52       		.byte	0x52
 13438 100b 3C000000 		.4byte	.LVL308
 13439 100f 5C000000 		.4byte	.LVL314
 13440 1013 0100     		.2byte	0x1
 13441 1015 52       		.byte	0x52
 13442 1016 5E000000 		.4byte	.LVL315
 13443 101a 62000000 		.4byte	.LVL316
 13444 101e 0100     		.2byte	0x1
 13445 1020 52       		.byte	0x52
 13446 1021 86000000 		.4byte	.LVL324
 13447 1025 BC000000 		.4byte	.LVL330
 13448 1029 0100     		.2byte	0x1
 13449 102b 52       		.byte	0x52
 13450 102c BC000000 		.4byte	.LVL330
 13451 1030 70010000 		.4byte	.LVL363
 13452 1034 0300     		.2byte	0x3
 13453 1036 91       		.byte	0x91
 13454 1037 BC7F     		.sleb128 -68
 13455 1039 00000000 		.4byte	0
 13456 103d 00000000 		.4byte	0
 13457              	.LLST107:
 13458 1041 00000000 		.4byte	.LVL302
 13459 1045 26000000 		.4byte	.LVL303
 13460 1049 0100     		.2byte	0x1
 13461 104b 53       		.byte	0x53
 13462 104c 26000000 		.4byte	.LVL303
 13463 1050 2A000000 		.4byte	.LVL305
 13464 1054 0400     		.2byte	0x4
 13465 1056 F3       		.byte	0xf3
 13466 1057 01       		.uleb128 0x1
 13467 1058 53       		.byte	0x53
 13468 1059 9F       		.byte	0x9f
 13469 105a 2A000000 		.4byte	.LVL305
 13470 105e 34000000 		.4byte	.LVL306
 13471 1062 0200     		.2byte	0x2
 13472 1064 91       		.byte	0x91
 13473 1065 4C       		.sleb128 -52
 13474 1066 3C000000 		.4byte	.LVL308
 13475 106a 48000000 		.4byte	.LVL310
 13476 106e 0200     		.2byte	0x2
 13477 1070 91       		.byte	0x91
 13478 1071 4C       		.sleb128 -52
 13479 1072 4E000000 		.4byte	.LVL312
 13480 1076 76010000 		.4byte	.LFE37
 13481 107a 0200     		.2byte	0x2
 13482 107c 91       		.byte	0x91
ARM GAS  C:\Users\MATEOC~1.QUE\AppData\Local\Temp\ccxtWYOp.s 			page 260


 13483 107d 4C       		.sleb128 -52
 13484 107e 00000000 		.4byte	0
 13485 1082 00000000 		.4byte	0
 13486              	.LLST108:
 13487 1086 00000000 		.4byte	.LVL302
 13488 108a 3C000000 		.4byte	.LVL308
 13489 108e 0200     		.2byte	0x2
 13490 1090 91       		.byte	0x91
 13491 1091 00       		.sleb128 0
 13492 1092 3C000000 		.4byte	.LVL308
 13493 1096 6E000000 		.4byte	.LVL318
 13494 109a 0100     		.2byte	0x1
 13495 109c 55       		.byte	0x55
 13496 109d 70000000 		.4byte	.LVL319
 13497 10a1 74000000 		.4byte	.LVL321
 13498 10a5 0100     		.2byte	0x1
 13499 10a7 55       		.byte	0x55
 13500 10a8 86000000 		.4byte	.LVL324
 13501 10ac BA000000 		.4byte	.LVL329
 13502 10b0 0100     		.2byte	0x1
 13503 10b2 55       		.byte	0x55
 13504 10b3 00000000 		.4byte	0
 13505 10b7 00000000 		.4byte	0
 13506              	.LLST109:
 13507 10bb 00000000 		.4byte	.LVL302
 13508 10bf 3C000000 		.4byte	.LVL308
 13509 10c3 0200     		.2byte	0x2
 13510 10c5 91       		.byte	0x91
 13511 10c6 04       		.sleb128 4
 13512 10c7 3C000000 		.4byte	.LVL308
 13513 10cb E4000000 		.4byte	.LVL336
 13514 10cf 0100     		.2byte	0x1
 13515 10d1 59       		.byte	0x59
 13516 10d2 00000000 		.4byte	0
 13517 10d6 00000000 		.4byte	0
 13518              	.LLST110:
 13519 10da 54000000 		.4byte	.LVL313
 13520 10de 64000000 		.4byte	.LVL317
 13521 10e2 0100     		.2byte	0x1
 13522 10e4 50       		.byte	0x50
 13523 10e5 64000000 		.4byte	.LVL317
 13524 10e9 74000000 		.4byte	.LVL321
 13525 10ed 0100     		.2byte	0x1
 13526 10ef 52       		.byte	0x52
 13527 10f0 74000000 		.4byte	.LVL321
 13528 10f4 86000000 		.4byte	.LVL324
 13529 10f8 0100     		.2byte	0x1
 13530 10fa 55       		.byte	0x55
 13531 10fb EE000000 		.4byte	.LVL338
 13532 10ff 06010000 		.4byte	.LVL343
 13533 1103 0100     		.2byte	0x1
 13534 1105 52       		.byte	0x52
 13535 1106 06010000 		.4byte	.LVL343
 13536 110a 13010000 		.4byte	.LVL345-1
 13537 110e 0100     		.2byte	0x1
 13538 1110 50       		.byte	0x50
 13539 1111 44010000 		.4byte	.LVL353
ARM GAS  C:\Users\MATEOC~1.QUE\AppData\Local\Temp\ccxtWYOp.s 			page 261


 13540 1115 5A010000 		.4byte	.LVL358
 13541 1119 0100     		.2byte	0x1
 13542 111b 52       		.byte	0x52
 13543 111c 5A010000 		.4byte	.LVL358
 13544 1120 67010000 		.4byte	.LVL360-1
 13545 1124 0100     		.2byte	0x1
 13546 1126 50       		.byte	0x50
 13547 1127 00000000 		.4byte	0
 13548 112b 00000000 		.4byte	0
 13549              	.LLST111:
 13550 112f 54000000 		.4byte	.LVL313
 13551 1133 72000000 		.4byte	.LVL320
 13552 1137 0100     		.2byte	0x1
 13553 1139 50       		.byte	0x50
 13554 113a 74000000 		.4byte	.LVL321
 13555 113e 76000000 		.4byte	.LVL322
 13556 1142 0100     		.2byte	0x1
 13557 1144 50       		.byte	0x50
 13558 1145 F6000000 		.4byte	.LVL339
 13559 1149 04010000 		.4byte	.LVL342
 13560 114d 0100     		.2byte	0x1
 13561 114f 50       		.byte	0x50
 13562 1150 04010000 		.4byte	.LVL342
 13563 1154 06010000 		.4byte	.LVL343
 13564 1158 0100     		.2byte	0x1
 13565 115a 53       		.byte	0x53
 13566 115b 06010000 		.4byte	.LVL343
 13567 115f 08010000 		.4byte	.LVL344
 13568 1163 0100     		.2byte	0x1
 13569 1165 52       		.byte	0x52
 13570 1166 4C010000 		.4byte	.LVL354
 13571 116a 58010000 		.4byte	.LVL357
 13572 116e 0100     		.2byte	0x1
 13573 1170 50       		.byte	0x50
 13574 1171 58010000 		.4byte	.LVL357
 13575 1175 5A010000 		.4byte	.LVL358
 13576 1179 0100     		.2byte	0x1
 13577 117b 53       		.byte	0x53
 13578 117c 5A010000 		.4byte	.LVL358
 13579 1180 5C010000 		.4byte	.LVL359
 13580 1184 0100     		.2byte	0x1
 13581 1186 52       		.byte	0x52
 13582 1187 00000000 		.4byte	0
 13583 118b 00000000 		.4byte	0
 13584              	.LLST112:
 13585 118f D8000000 		.4byte	.LVL335
 13586 1193 E6000000 		.4byte	.LVL337
 13587 1197 0200     		.2byte	0x2
 13588 1199 91       		.byte	0x91
 13589 119a 48       		.sleb128 -56
 13590 119b E6000000 		.4byte	.LVL337
 13591 119f 16010000 		.4byte	.LVL346
 13592 11a3 0100     		.2byte	0x1
 13593 11a5 54       		.byte	0x54
 13594 11a6 18010000 		.4byte	.LVL347
 13595 11aa 6A010000 		.4byte	.LVL361
 13596 11ae 0100     		.2byte	0x1
ARM GAS  C:\Users\MATEOC~1.QUE\AppData\Local\Temp\ccxtWYOp.s 			page 262


 13597 11b0 54       		.byte	0x54
 13598 11b1 6C010000 		.4byte	.LVL362
 13599 11b5 70010000 		.4byte	.LVL363
 13600 11b9 0100     		.2byte	0x1
 13601 11bb 54       		.byte	0x54
 13602 11bc 00000000 		.4byte	0
 13603 11c0 00000000 		.4byte	0
 13604              	.LLST113:
 13605 11c4 D2000000 		.4byte	.LVL333
 13606 11c8 D4000000 		.4byte	.LVL334
 13607 11cc 0100     		.2byte	0x1
 13608 11ce 5B       		.byte	0x5b
 13609 11cf D8000000 		.4byte	.LVL335
 13610 11d3 24010000 		.4byte	.LVL349
 13611 11d7 0100     		.2byte	0x1
 13612 11d9 5B       		.byte	0x5b
 13613 11da 00000000 		.4byte	0
 13614 11de 00000000 		.4byte	0
 13615              	.LLST114:
 13616 11e2 94000000 		.4byte	.LVL325
 13617 11e6 70010000 		.4byte	.LVL363
 13618 11ea 0200     		.2byte	0x2
 13619 11ec 91       		.byte	0x91
 13620 11ed 40       		.sleb128 -64
 13621 11ee 00000000 		.4byte	0
 13622 11f2 00000000 		.4byte	0
 13623              	.LLST115:
 13624 11f6 A6000000 		.4byte	.LVL326
 13625 11fa E6000000 		.4byte	.LVL337
 13626 11fe 0100     		.2byte	0x1
 13627 1200 50       		.byte	0x50
 13628 1201 E6000000 		.4byte	.LVL337
 13629 1205 20010000 		.4byte	.LVL348
 13630 1209 0100     		.2byte	0x1
 13631 120b 59       		.byte	0x59
 13632 120c 20010000 		.4byte	.LVL348
 13633 1210 70010000 		.4byte	.LVL363
 13634 1214 1200     		.2byte	0x12
 13635 1216 91       		.byte	0x91
 13636 1217 4C       		.sleb128 -52
 13637 1218 94       		.byte	0x94
 13638 1219 02       		.byte	0x2
 13639 121a 0A       		.byte	0xa
 13640 121b FFFF     		.2byte	0xffff
 13641 121d 1A       		.byte	0x1a
 13642 121e 91       		.byte	0x91
 13643 121f 48       		.sleb128 -56
 13644 1220 94       		.byte	0x94
 13645 1221 02       		.byte	0x2
 13646 1222 0A       		.byte	0xa
 13647 1223 FFFF     		.2byte	0xffff
 13648 1225 1A       		.byte	0x1a
 13649 1226 1C       		.byte	0x1c
 13650 1227 9F       		.byte	0x9f
 13651 1228 00000000 		.4byte	0
 13652 122c 00000000 		.4byte	0
 13653              	.LLST116:
ARM GAS  C:\Users\MATEOC~1.QUE\AppData\Local\Temp\ccxtWYOp.s 			page 263


 13654 1230 AC000000 		.4byte	.LVL327
 13655 1234 36010000 		.4byte	.LVL352
 13656 1238 0100     		.2byte	0x1
 13657 123a 56       		.byte	0x56
 13658 123b 36010000 		.4byte	.LVL352
 13659 123f 70010000 		.4byte	.LVL363
 13660 1243 0100     		.2byte	0x1
 13661 1245 5A       		.byte	0x5a
 13662 1246 00000000 		.4byte	0
 13663 124a 00000000 		.4byte	0
 13664              	.LLST117:
 13665 124e B8000000 		.4byte	.LVL328
 13666 1252 70010000 		.4byte	.LVL363
 13667 1256 0100     		.2byte	0x1
 13668 1258 58       		.byte	0x58
 13669 1259 00000000 		.4byte	0
 13670 125d 00000000 		.4byte	0
 13671              	.LLST118:
 13672 1261 BE000000 		.4byte	.LVL331
 13673 1265 70010000 		.4byte	.LVL363
 13674 1269 0200     		.2byte	0x2
 13675 126b 91       		.byte	0x91
 13676 126c 50       		.sleb128 -48
 13677 126d 00000000 		.4byte	0
 13678 1271 00000000 		.4byte	0
 13679              	.LLST119:
 13680 1275 C6000000 		.4byte	.LVL332
 13681 1279 70010000 		.4byte	.LVL363
 13682 127d 0200     		.2byte	0x2
 13683 127f 91       		.byte	0x91
 13684 1280 44       		.sleb128 -60
 13685 1281 00000000 		.4byte	0
 13686 1285 00000000 		.4byte	0
 13687              	.LLST120:
 13688 1289 C6000000 		.4byte	.LVL332
 13689 128d E6000000 		.4byte	.LVL337
 13690 1291 0200     		.2byte	0x2
 13691 1293 30       		.byte	0x30
 13692 1294 9F       		.byte	0x9f
 13693 1295 E6000000 		.4byte	.LVL337
 13694 1299 2C010000 		.4byte	.LVL351
 13695 129d 0100     		.2byte	0x1
 13696 129f 5A       		.byte	0x5a
 13697 12a0 2C010000 		.4byte	.LVL351
 13698 12a4 70010000 		.4byte	.LVL363
 13699 12a8 0100     		.2byte	0x1
 13700 12aa 55       		.byte	0x55
 13701 12ab 00000000 		.4byte	0
 13702 12af 00000000 		.4byte	0
 13703              	.LLST121:
 13704 12b3 C6000000 		.4byte	.LVL332
 13705 12b7 E6000000 		.4byte	.LVL337
 13706 12bb 0200     		.2byte	0x2
 13707 12bd 30       		.byte	0x30
 13708 12be 9F       		.byte	0x9f
 13709 12bf E6000000 		.4byte	.LVL337
 13710 12c3 28010000 		.4byte	.LVL350
ARM GAS  C:\Users\MATEOC~1.QUE\AppData\Local\Temp\ccxtWYOp.s 			page 264


 13711 12c7 0100     		.2byte	0x1
 13712 12c9 55       		.byte	0x55
 13713 12ca 36010000 		.4byte	.LVL352
 13714 12ce 70010000 		.4byte	.LVL363
 13715 12d2 0100     		.2byte	0x1
 13716 12d4 56       		.byte	0x56
 13717 12d5 00000000 		.4byte	0
 13718 12d9 00000000 		.4byte	0
 13719              	.LLST122:
 13720 12dd 00000000 		.4byte	.LVL364
 13721 12e1 3E000000 		.4byte	.LVL367
 13722 12e5 0100     		.2byte	0x1
 13723 12e7 50       		.byte	0x50
 13724 12e8 3E000000 		.4byte	.LVL367
 13725 12ec DC000000 		.4byte	.LFE38
 13726 12f0 0400     		.2byte	0x4
 13727 12f2 F3       		.byte	0xf3
 13728 12f3 01       		.uleb128 0x1
 13729 12f4 50       		.byte	0x50
 13730 12f5 9F       		.byte	0x9f
 13731 12f6 00000000 		.4byte	0
 13732 12fa 00000000 		.4byte	0
 13733              	.LLST123:
 13734 12fe 00000000 		.4byte	.LVL364
 13735 1302 41000000 		.4byte	.LVL368-1
 13736 1306 0100     		.2byte	0x1
 13737 1308 51       		.byte	0x51
 13738 1309 41000000 		.4byte	.LVL368-1
 13739 130d DC000000 		.4byte	.LFE38
 13740 1311 0400     		.2byte	0x4
 13741 1313 F3       		.byte	0xf3
 13742 1314 01       		.uleb128 0x1
 13743 1315 51       		.byte	0x51
 13744 1316 9F       		.byte	0x9f
 13745 1317 00000000 		.4byte	0
 13746 131b 00000000 		.4byte	0
 13747              	.LLST124:
 13748 131f 00000000 		.4byte	.LVL364
 13749 1323 36000000 		.4byte	.LVL366
 13750 1327 0100     		.2byte	0x1
 13751 1329 52       		.byte	0x52
 13752 132a 36000000 		.4byte	.LVL366
 13753 132e 70000000 		.4byte	.LVL371
 13754 1332 0100     		.2byte	0x1
 13755 1334 54       		.byte	0x54
 13756 1335 70000000 		.4byte	.LVL371
 13757 1339 DC000000 		.4byte	.LFE38
 13758 133d 0400     		.2byte	0x4
 13759 133f F3       		.byte	0xf3
 13760 1340 01       		.uleb128 0x1
 13761 1341 52       		.byte	0x52
 13762 1342 9F       		.byte	0x9f
 13763 1343 00000000 		.4byte	0
 13764 1347 00000000 		.4byte	0
 13765              	.LLST125:
 13766 134b 00000000 		.4byte	.LVL364
 13767 134f 0E000000 		.4byte	.LVL365
ARM GAS  C:\Users\MATEOC~1.QUE\AppData\Local\Temp\ccxtWYOp.s 			page 265


 13768 1353 0100     		.2byte	0x1
 13769 1355 53       		.byte	0x53
 13770 1356 0E000000 		.4byte	.LVL365
 13771 135a DC000000 		.4byte	.LFE38
 13772 135e 0400     		.2byte	0x4
 13773 1360 F3       		.byte	0xf3
 13774 1361 01       		.uleb128 0x1
 13775 1362 53       		.byte	0x53
 13776 1363 9F       		.byte	0x9f
 13777 1364 00000000 		.4byte	0
 13778 1368 00000000 		.4byte	0
 13779              	.LLST126:
 13780 136c 00000000 		.4byte	.LVL377
 13781 1370 36000000 		.4byte	.LVL379
 13782 1374 0100     		.2byte	0x1
 13783 1376 50       		.byte	0x50
 13784 1377 36000000 		.4byte	.LVL379
 13785 137b 82000000 		.4byte	.LFE39
 13786 137f 0100     		.2byte	0x1
 13787 1381 5B       		.byte	0x5b
 13788 1382 00000000 		.4byte	0
 13789 1386 00000000 		.4byte	0
 13790              	.LLST127:
 13791 138a 00000000 		.4byte	.LVL377
 13792 138e 39000000 		.4byte	.LVL380-1
 13793 1392 0100     		.2byte	0x1
 13794 1394 51       		.byte	0x51
 13795 1395 39000000 		.4byte	.LVL380-1
 13796 1399 82000000 		.4byte	.LFE39
 13797 139d 0400     		.2byte	0x4
 13798 139f F3       		.byte	0xf3
 13799 13a0 01       		.uleb128 0x1
 13800 13a1 51       		.byte	0x51
 13801 13a2 9F       		.byte	0x9f
 13802 13a3 00000000 		.4byte	0
 13803 13a7 00000000 		.4byte	0
 13804              	.LLST128:
 13805 13ab 00000000 		.4byte	.LVL377
 13806 13af 2E000000 		.4byte	.LVL378
 13807 13b3 0100     		.2byte	0x1
 13808 13b5 52       		.byte	0x52
 13809 13b6 2E000000 		.4byte	.LVL378
 13810 13ba 82000000 		.4byte	.LFE39
 13811 13be 0100     		.2byte	0x1
 13812 13c0 54       		.byte	0x54
 13813 13c1 00000000 		.4byte	0
 13814 13c5 00000000 		.4byte	0
 13815              	.LLST129:
 13816 13c9 00000000 		.4byte	.LVL377
 13817 13cd 39000000 		.4byte	.LVL380-1
 13818 13d1 0100     		.2byte	0x1
 13819 13d3 53       		.byte	0x53
 13820 13d4 39000000 		.4byte	.LVL380-1
 13821 13d8 82000000 		.4byte	.LFE39
 13822 13dc 0400     		.2byte	0x4
 13823 13de F3       		.byte	0xf3
 13824 13df 01       		.uleb128 0x1
ARM GAS  C:\Users\MATEOC~1.QUE\AppData\Local\Temp\ccxtWYOp.s 			page 266


 13825 13e0 53       		.byte	0x53
 13826 13e1 9F       		.byte	0x9f
 13827 13e2 00000000 		.4byte	0
 13828 13e6 00000000 		.4byte	0
 13829              	.LLST130:
 13830 13ea 00000000 		.4byte	.LVL383
 13831 13ee 15000000 		.4byte	.LVL385-1
 13832 13f2 0100     		.2byte	0x1
 13833 13f4 50       		.byte	0x50
 13834 13f5 15000000 		.4byte	.LVL385-1
 13835 13f9 48000000 		.4byte	.LFE40
 13836 13fd 0400     		.2byte	0x4
 13837 13ff F3       		.byte	0xf3
 13838 1400 01       		.uleb128 0x1
 13839 1401 50       		.byte	0x50
 13840 1402 9F       		.byte	0x9f
 13841 1403 00000000 		.4byte	0
 13842 1407 00000000 		.4byte	0
 13843              	.LLST131:
 13844 140b 00000000 		.4byte	.LVL383
 13845 140f 15000000 		.4byte	.LVL385-1
 13846 1413 0100     		.2byte	0x1
 13847 1415 51       		.byte	0x51
 13848 1416 15000000 		.4byte	.LVL385-1
 13849 141a 48000000 		.4byte	.LFE40
 13850 141e 0400     		.2byte	0x4
 13851 1420 F3       		.byte	0xf3
 13852 1421 01       		.uleb128 0x1
 13853 1422 51       		.byte	0x51
 13854 1423 9F       		.byte	0x9f
 13855 1424 00000000 		.4byte	0
 13856 1428 00000000 		.4byte	0
 13857              	.LLST132:
 13858 142c 00000000 		.4byte	.LVL383
 13859 1430 15000000 		.4byte	.LVL385-1
 13860 1434 0100     		.2byte	0x1
 13861 1436 52       		.byte	0x52
 13862 1437 15000000 		.4byte	.LVL385-1
 13863 143b 48000000 		.4byte	.LFE40
 13864 143f 0400     		.2byte	0x4
 13865 1441 F3       		.byte	0xf3
 13866 1442 01       		.uleb128 0x1
 13867 1443 52       		.byte	0x52
 13868 1444 9F       		.byte	0x9f
 13869 1445 00000000 		.4byte	0
 13870 1449 00000000 		.4byte	0
 13871              	.LLST133:
 13872 144d 00000000 		.4byte	.LVL383
 13873 1451 12000000 		.4byte	.LVL384
 13874 1455 0100     		.2byte	0x1
 13875 1457 53       		.byte	0x53
 13876 1458 12000000 		.4byte	.LVL384
 13877 145c 48000000 		.4byte	.LFE40
 13878 1460 0400     		.2byte	0x4
 13879 1462 F3       		.byte	0xf3
 13880 1463 01       		.uleb128 0x1
 13881 1464 53       		.byte	0x53
ARM GAS  C:\Users\MATEOC~1.QUE\AppData\Local\Temp\ccxtWYOp.s 			page 267


 13882 1465 9F       		.byte	0x9f
 13883 1466 00000000 		.4byte	0
 13884 146a 00000000 		.4byte	0
 13885              	.LLST134:
 13886 146e 00000000 		.4byte	.LVL389
 13887 1472 34000000 		.4byte	.LVL393
 13888 1476 0100     		.2byte	0x1
 13889 1478 50       		.byte	0x50
 13890 1479 34000000 		.4byte	.LVL393
 13891 147d 40010000 		.4byte	.LVL408
 13892 1481 0400     		.2byte	0x4
 13893 1483 F3       		.byte	0xf3
 13894 1484 01       		.uleb128 0x1
 13895 1485 50       		.byte	0x50
 13896 1486 9F       		.byte	0x9f
 13897 1487 40010000 		.4byte	.LVL408
 13898 148b 48010000 		.4byte	.LVL410
 13899 148f 0100     		.2byte	0x1
 13900 1491 50       		.byte	0x50
 13901 1492 48010000 		.4byte	.LVL410
 13902 1496 1C020000 		.4byte	.LFE41
 13903 149a 0400     		.2byte	0x4
 13904 149c F3       		.byte	0xf3
 13905 149d 01       		.uleb128 0x1
 13906 149e 50       		.byte	0x50
 13907 149f 9F       		.byte	0x9f
 13908 14a0 00000000 		.4byte	0
 13909 14a4 00000000 		.4byte	0
 13910              	.LLST135:
 13911 14a8 00000000 		.4byte	.LVL389
 13912 14ac 26000000 		.4byte	.LVL392
 13913 14b0 0100     		.2byte	0x1
 13914 14b2 51       		.byte	0x51
 13915 14b3 26000000 		.4byte	.LVL392
 13916 14b7 40010000 		.4byte	.LVL408
 13917 14bb 0400     		.2byte	0x4
 13918 14bd F3       		.byte	0xf3
 13919 14be 01       		.uleb128 0x1
 13920 14bf 51       		.byte	0x51
 13921 14c0 9F       		.byte	0x9f
 13922 14c1 40010000 		.4byte	.LVL408
 13923 14c5 4C010000 		.4byte	.LVL411
 13924 14c9 0100     		.2byte	0x1
 13925 14cb 51       		.byte	0x51
 13926 14cc 4C010000 		.4byte	.LVL411
 13927 14d0 1C020000 		.4byte	.LFE41
 13928 14d4 0400     		.2byte	0x4
 13929 14d6 F3       		.byte	0xf3
 13930 14d7 01       		.uleb128 0x1
 13931 14d8 51       		.byte	0x51
 13932 14d9 9F       		.byte	0x9f
 13933 14da 00000000 		.4byte	0
 13934 14de 00000000 		.4byte	0
 13935              	.LLST136:
 13936 14e2 00000000 		.4byte	.LVL389
 13937 14e6 1A000000 		.4byte	.LVL391
 13938 14ea 0100     		.2byte	0x1
ARM GAS  C:\Users\MATEOC~1.QUE\AppData\Local\Temp\ccxtWYOp.s 			page 268


 13939 14ec 52       		.byte	0x52
 13940 14ed 1A000000 		.4byte	.LVL391
 13941 14f1 46010000 		.4byte	.LVL409
 13942 14f5 0400     		.2byte	0x4
 13943 14f7 F3       		.byte	0xf3
 13944 14f8 01       		.uleb128 0x1
 13945 14f9 52       		.byte	0x52
 13946 14fa 9F       		.byte	0x9f
 13947 14fb 46010000 		.4byte	.LVL409
 13948 14ff 5A010000 		.4byte	.LVL415
 13949 1503 0100     		.2byte	0x1
 13950 1505 53       		.byte	0x53
 13951 1506 5A010000 		.4byte	.LVL415
 13952 150a 66010000 		.4byte	.LVL418
 13953 150e 0B00     		.2byte	0xb
 13954 1510 75       		.byte	0x75
 13955 1511 00       		.sleb128 0
 13956 1512 72       		.byte	0x72
 13957 1513 08       		.sleb128 8
 13958 1514 94       		.byte	0x94
 13959 1515 01       		.byte	0x1
 13960 1516 08       		.byte	0x8
 13961 1517 FF       		.byte	0xff
 13962 1518 1A       		.byte	0x1a
 13963 1519 1C       		.byte	0x1c
 13964 151a 9F       		.byte	0x9f
 13965 151b 66010000 		.4byte	.LVL418
 13966 151f 86010000 		.4byte	.LVL426
 13967 1523 1100     		.2byte	0x11
 13968 1525 75       		.byte	0x75
 13969 1526 00       		.sleb128 0
 13970 1527 03       		.byte	0x3
 13971 1528 00000000 		.4byte	gfxFont
 13972 152c 06       		.byte	0x6
 13973 152d 23       		.byte	0x23
 13974 152e 08       		.uleb128 0x8
 13975 152f 94       		.byte	0x94
 13976 1530 01       		.byte	0x1
 13977 1531 08       		.byte	0x8
 13978 1532 FF       		.byte	0xff
 13979 1533 1A       		.byte	0x1a
 13980 1534 1C       		.byte	0x1c
 13981 1535 9F       		.byte	0x9f
 13982 1536 00000000 		.4byte	0
 13983 153a 00000000 		.4byte	0
 13984              	.LLST137:
 13985 153e 00000000 		.4byte	.LVL389
 13986 1542 18000000 		.4byte	.LVL390
 13987 1546 0100     		.2byte	0x1
 13988 1548 53       		.byte	0x53
 13989 1549 18000000 		.4byte	.LVL390
 13990 154d 1C020000 		.4byte	.LFE41
 13991 1551 0400     		.2byte	0x4
 13992 1553 F3       		.byte	0xf3
 13993 1554 01       		.uleb128 0x1
 13994 1555 53       		.byte	0x53
 13995 1556 9F       		.byte	0x9f
ARM GAS  C:\Users\MATEOC~1.QUE\AppData\Local\Temp\ccxtWYOp.s 			page 269


 13996 1557 00000000 		.4byte	0
 13997 155b 00000000 		.4byte	0
 13998              	.LLST138:
 13999 155f 00000000 		.4byte	.LVL389
 14000 1563 14020000 		.4byte	.LVL442
 14001 1567 0200     		.2byte	0x2
 14002 1569 91       		.byte	0x91
 14003 156a 00       		.sleb128 0
 14004 156b 14020000 		.4byte	.LVL442
 14005 156f 1C020000 		.4byte	.LFE41
 14006 1573 0200     		.2byte	0x2
 14007 1575 7D       		.byte	0x7d
 14008 1576 00       		.sleb128 0
 14009 1577 00000000 		.4byte	0
 14010 157b 00000000 		.4byte	0
 14011              	.LLST139:
 14012 157f 00000000 		.4byte	.LVL389
 14013 1583 14020000 		.4byte	.LVL442
 14014 1587 0200     		.2byte	0x2
 14015 1589 91       		.byte	0x91
 14016 158a 04       		.sleb128 4
 14017 158b 14020000 		.4byte	.LVL442
 14018 158f 1C020000 		.4byte	.LFE41
 14019 1593 0200     		.2byte	0x2
 14020 1595 7D       		.byte	0x7d
 14021 1596 04       		.sleb128 4
 14022 1597 00000000 		.4byte	0
 14023 159b 00000000 		.4byte	0
 14024              	.LLST140:
 14025 159f 60000000 		.4byte	.LVL394
 14026 15a3 FA000000 		.4byte	.LVL404
 14027 15a7 0100     		.2byte	0x1
 14028 15a9 58       		.byte	0x58
 14029 15aa FE000000 		.4byte	.LVL405
 14030 15ae 40010000 		.4byte	.LVL408
 14031 15b2 0100     		.2byte	0x1
 14032 15b4 58       		.byte	0x58
 14033 15b5 00000000 		.4byte	0
 14034 15b9 00000000 		.4byte	0
 14035              	.LLST141:
 14036 15bd 70000000 		.4byte	.LVL395
 14037 15c1 FE000000 		.4byte	.LVL405
 14038 15c5 0100     		.2byte	0x1
 14039 15c7 55       		.byte	0x55
 14040 15c8 00000000 		.4byte	0
 14041 15cc 00000000 		.4byte	0
 14042              	.LLST142:
 14043 15d0 70000000 		.4byte	.LVL395
 14044 15d4 74000000 		.4byte	.LVL396
 14045 15d8 0200     		.2byte	0x2
 14046 15da 30       		.byte	0x30
 14047 15db 9F       		.byte	0x9f
 14048 15dc 74000000 		.4byte	.LVL396
 14049 15e0 EE000000 		.4byte	.LVL401
 14050 15e4 0100     		.2byte	0x1
 14051 15e6 54       		.byte	0x54
 14052 15e7 F0000000 		.4byte	.LVL402
ARM GAS  C:\Users\MATEOC~1.QUE\AppData\Local\Temp\ccxtWYOp.s 			page 270


 14053 15eb FE000000 		.4byte	.LVL405
 14054 15ef 0100     		.2byte	0x1
 14055 15f1 54       		.byte	0x54
 14056 15f2 00000000 		.4byte	0
 14057 15f6 00000000 		.4byte	0
 14058              	.LLST143:
 14059 15fa 4C010000 		.4byte	.LVL411
 14060 15fe 86010000 		.4byte	.LVL426
 14061 1602 0100     		.2byte	0x1
 14062 1604 51       		.byte	0x51
 14063 1605 00000000 		.4byte	0
 14064 1609 00000000 		.4byte	0
 14065              	.LLST144:
 14066 160d 50010000 		.4byte	.LVL412
 14067 1611 0E020000 		.4byte	.LVL441
 14068 1615 0100     		.2byte	0x1
 14069 1617 5B       		.byte	0x5b
 14070 1618 00000000 		.4byte	0
 14071 161c 00000000 		.4byte	0
 14072              	.LLST145:
 14073 1620 54010000 		.4byte	.LVL413
 14074 1624 92010000 		.4byte	.LVL428
 14075 1628 0100     		.2byte	0x1
 14076 162a 57       		.byte	0x57
 14077 162b 92010000 		.4byte	.LVL428
 14078 162f 98010000 		.4byte	.LVL430
 14079 1633 0100     		.2byte	0x1
 14080 1635 53       		.byte	0x53
 14081 1636 98010000 		.4byte	.LVL430
 14082 163a 0E020000 		.4byte	.LVL441
 14083 163e 0100     		.2byte	0x1
 14084 1640 57       		.byte	0x57
 14085 1641 00000000 		.4byte	0
 14086 1645 00000000 		.4byte	0
 14087              	.LLST146:
 14088 1649 58010000 		.4byte	.LVL414
 14089 164d 0E020000 		.4byte	.LVL441
 14090 1651 0100     		.2byte	0x1
 14091 1653 58       		.byte	0x58
 14092 1654 00000000 		.4byte	0
 14093 1658 00000000 		.4byte	0
 14094              	.LLST147:
 14095 165c 5C010000 		.4byte	.LVL416
 14096 1660 0E020000 		.4byte	.LVL441
 14097 1664 0200     		.2byte	0x2
 14098 1666 91       		.byte	0x91
 14099 1667 4C       		.sleb128 -52
 14100 1668 00000000 		.4byte	0
 14101 166c 00000000 		.4byte	0
 14102              	.LLST148:
 14103 1670 62010000 		.4byte	.LVL417
 14104 1674 70010000 		.4byte	.LVL420
 14105 1678 0100     		.2byte	0x1
 14106 167a 53       		.byte	0x53
 14107 167b 70010000 		.4byte	.LVL420
 14108 167f 78010000 		.4byte	.LVL423
 14109 1683 0200     		.2byte	0x2
ARM GAS  C:\Users\MATEOC~1.QUE\AppData\Local\Temp\ccxtWYOp.s 			page 271


 14110 1685 91       		.byte	0x91
 14111 1686 50       		.sleb128 -48
 14112 1687 78010000 		.4byte	.LVL423
 14113 168b 7A010000 		.4byte	.LVL424
 14114 168f 0100     		.2byte	0x1
 14115 1691 53       		.byte	0x53
 14116 1692 7A010000 		.4byte	.LVL424
 14117 1696 0E020000 		.4byte	.LVL441
 14118 169a 0200     		.2byte	0x2
 14119 169c 91       		.byte	0x91
 14120 169d 50       		.sleb128 -48
 14121 169e 00000000 		.4byte	0
 14122 16a2 00000000 		.4byte	0
 14123              	.LLST149:
 14124 16a6 68010000 		.4byte	.LVL419
 14125 16aa 86010000 		.4byte	.LVL426
 14126 16ae 0100     		.2byte	0x1
 14127 16b0 52       		.byte	0x52
 14128 16b1 86010000 		.4byte	.LVL426
 14129 16b5 0E020000 		.4byte	.LVL441
 14130 16b9 0200     		.2byte	0x2
 14131 16bb 91       		.byte	0x91
 14132 16bc 54       		.sleb128 -44
 14133 16bd 00000000 		.4byte	0
 14134 16c1 00000000 		.4byte	0
 14135              	.LLST150:
 14136 16c5 86010000 		.4byte	.LVL426
 14137 16c9 F4010000 		.4byte	.LVL435
 14138 16cd 0100     		.2byte	0x1
 14139 16cf 55       		.byte	0x55
 14140 16d0 F6010000 		.4byte	.LVL436
 14141 16d4 FA010000 		.4byte	.LVL437
 14142 16d8 0100     		.2byte	0x1
 14143 16da 55       		.byte	0x55
 14144 16db FC010000 		.4byte	.LVL438
 14145 16df 08020000 		.4byte	.LVL440
 14146 16e3 0100     		.2byte	0x1
 14147 16e5 55       		.byte	0x55
 14148 16e6 00000000 		.4byte	0
 14149 16ea 00000000 		.4byte	0
 14150              	.LLST151:
 14151 16ee 7E010000 		.4byte	.LVL425
 14152 16f2 86010000 		.4byte	.LVL426
 14153 16f6 0200     		.2byte	0x2
 14154 16f8 30       		.byte	0x30
 14155 16f9 9F       		.byte	0x9f
 14156 16fa 86010000 		.4byte	.LVL426
 14157 16fe 04020000 		.4byte	.LVL439
 14158 1702 0100     		.2byte	0x1
 14159 1704 59       		.byte	0x59
 14160 1705 08020000 		.4byte	.LVL440
 14161 1709 0E020000 		.4byte	.LVL441
 14162 170d 0100     		.2byte	0x1
 14163 170f 59       		.byte	0x59
 14164 1710 00000000 		.4byte	0
 14165 1714 00000000 		.4byte	0
 14166              	.LLST152:
ARM GAS  C:\Users\MATEOC~1.QUE\AppData\Local\Temp\ccxtWYOp.s 			page 272


 14167 1718 68010000 		.4byte	.LVL419
 14168 171c 86010000 		.4byte	.LVL426
 14169 1720 0200     		.2byte	0x2
 14170 1722 30       		.byte	0x30
 14171 1723 9F       		.byte	0x9f
 14172 1724 86010000 		.4byte	.LVL426
 14173 1728 F0010000 		.4byte	.LVL433
 14174 172c 0100     		.2byte	0x1
 14175 172e 54       		.byte	0x54
 14176 172f F2010000 		.4byte	.LVL434
 14177 1733 0E020000 		.4byte	.LVL441
 14178 1737 0100     		.2byte	0x1
 14179 1739 54       		.byte	0x54
 14180 173a 00000000 		.4byte	0
 14181 173e 00000000 		.4byte	0
 14182              	.LLST153:
 14183 1742 68010000 		.4byte	.LVL419
 14184 1746 86010000 		.4byte	.LVL426
 14185 174a 0200     		.2byte	0x2
 14186 174c 30       		.byte	0x30
 14187 174d 9F       		.byte	0x9f
 14188 174e 86010000 		.4byte	.LVL426
 14189 1752 8A010000 		.4byte	.LVL427
 14190 1756 0100     		.2byte	0x1
 14191 1758 53       		.byte	0x53
 14192 1759 8A010000 		.4byte	.LVL427
 14193 175d FA010000 		.4byte	.LVL437
 14194 1761 0100     		.2byte	0x1
 14195 1763 56       		.byte	0x56
 14196 1764 FA010000 		.4byte	.LVL437
 14197 1768 0E020000 		.4byte	.LVL441
 14198 176c 0100     		.2byte	0x1
 14199 176e 53       		.byte	0x53
 14200 176f 00000000 		.4byte	0
 14201 1773 00000000 		.4byte	0
 14202              	.LLST154:
 14203 1777 68010000 		.4byte	.LVL419
 14204 177b 72010000 		.4byte	.LVL421
 14205 177f 0200     		.2byte	0x2
 14206 1781 30       		.byte	0x30
 14207 1782 9F       		.byte	0x9f
 14208 1783 72010000 		.4byte	.LVL421
 14209 1787 78010000 		.4byte	.LVL423
 14210 178b 0200     		.2byte	0x2
 14211 178d 91       		.byte	0x91
 14212 178e 44       		.sleb128 -60
 14213 178f 78010000 		.4byte	.LVL423
 14214 1793 7E010000 		.4byte	.LVL425
 14215 1797 0200     		.2byte	0x2
 14216 1799 30       		.byte	0x30
 14217 179a 9F       		.byte	0x9f
 14218 179b 7E010000 		.4byte	.LVL425
 14219 179f 0E020000 		.4byte	.LVL441
 14220 17a3 0200     		.2byte	0x2
 14221 17a5 91       		.byte	0x91
 14222 17a6 44       		.sleb128 -60
 14223 17a7 00000000 		.4byte	0
ARM GAS  C:\Users\MATEOC~1.QUE\AppData\Local\Temp\ccxtWYOp.s 			page 273


 14224 17ab 00000000 		.4byte	0
 14225              	.LLST155:
 14226 17af 68010000 		.4byte	.LVL419
 14227 17b3 76010000 		.4byte	.LVL422
 14228 17b7 0200     		.2byte	0x2
 14229 17b9 30       		.byte	0x30
 14230 17ba 9F       		.byte	0x9f
 14231 17bb 76010000 		.4byte	.LVL422
 14232 17bf 78010000 		.4byte	.LVL423
 14233 17c3 0200     		.2byte	0x2
 14234 17c5 91       		.byte	0x91
 14235 17c6 48       		.sleb128 -56
 14236 17c7 78010000 		.4byte	.LVL423
 14237 17cb 7E010000 		.4byte	.LVL425
 14238 17cf 0200     		.2byte	0x2
 14239 17d1 30       		.byte	0x30
 14240 17d2 9F       		.byte	0x9f
 14241 17d3 7E010000 		.4byte	.LVL425
 14242 17d7 0E020000 		.4byte	.LVL441
 14243 17db 0200     		.2byte	0x2
 14244 17dd 91       		.byte	0x91
 14245 17de 48       		.sleb128 -56
 14246 17df 00000000 		.4byte	0
 14247 17e3 00000000 		.4byte	0
 14248              	.LLST156:
 14249 17e7 00000000 		.4byte	.LVL443
 14250 17eb 7C000000 		.4byte	.LVL444
 14251 17ef 0100     		.2byte	0x1
 14252 17f1 50       		.byte	0x50
 14253 17f2 7C000000 		.4byte	.LVL444
 14254 17f6 94000000 		.4byte	.LVL446
 14255 17fa 0400     		.2byte	0x4
 14256 17fc F3       		.byte	0xf3
 14257 17fd 01       		.uleb128 0x1
 14258 17fe 50       		.byte	0x50
 14259 17ff 9F       		.byte	0x9f
 14260 1800 94000000 		.4byte	.LVL446
 14261 1804 A4000000 		.4byte	.LVL447
 14262 1808 0100     		.2byte	0x1
 14263 180a 50       		.byte	0x50
 14264 180b A4000000 		.4byte	.LVL447
 14265 180f B2000000 		.4byte	.LVL448
 14266 1813 0400     		.2byte	0x4
 14267 1815 F3       		.byte	0xf3
 14268 1816 01       		.uleb128 0x1
 14269 1817 50       		.byte	0x50
 14270 1818 9F       		.byte	0x9f
 14271 1819 B2000000 		.4byte	.LVL448
 14272 181d 24010000 		.4byte	.LVL460
 14273 1821 0100     		.2byte	0x1
 14274 1823 50       		.byte	0x50
 14275 1824 24010000 		.4byte	.LVL460
 14276 1828 44010000 		.4byte	.LFE23
 14277 182c 0400     		.2byte	0x4
 14278 182e F3       		.byte	0xf3
 14279 182f 01       		.uleb128 0x1
 14280 1830 50       		.byte	0x50
ARM GAS  C:\Users\MATEOC~1.QUE\AppData\Local\Temp\ccxtWYOp.s 			page 274


 14281 1831 9F       		.byte	0x9f
 14282 1832 00000000 		.4byte	0
 14283 1836 00000000 		.4byte	0
 14284              	.LLST157:
 14285 183a B8000000 		.4byte	.LVL449
 14286 183e C4000000 		.4byte	.LVL450
 14287 1842 0100     		.2byte	0x1
 14288 1844 52       		.byte	0x52
 14289 1845 C4000000 		.4byte	.LVL450
 14290 1849 FC000000 		.4byte	.LVL458
 14291 184d 0200     		.2byte	0x2
 14292 184f 73       		.byte	0x73
 14293 1850 08       		.sleb128 8
 14294 1851 FC000000 		.4byte	.LVL458
 14295 1855 1A010000 		.4byte	.LVL459
 14296 1859 0800     		.2byte	0x8
 14297 185b 03       		.byte	0x3
 14298 185c 00000000 		.4byte	gfxFont
 14299 1860 06       		.byte	0x6
 14300 1861 23       		.byte	0x23
 14301 1862 08       		.uleb128 0x8
 14302 1863 00000000 		.4byte	0
 14303 1867 00000000 		.4byte	0
 14304              	.LLST158:
 14305 186b CA000000 		.4byte	.LVL451
 14306 186f 3A010000 		.4byte	.LVL462
 14307 1873 0100     		.2byte	0x1
 14308 1875 54       		.byte	0x54
 14309 1876 00000000 		.4byte	0
 14310 187a 00000000 		.4byte	0
 14311              	.LLST159:
 14312 187e CC000000 		.4byte	.LVL452
 14313 1882 E2000000 		.4byte	.LVL456
 14314 1886 0100     		.2byte	0x1
 14315 1888 52       		.byte	0x52
 14316 1889 E2000000 		.4byte	.LVL456
 14317 188d 1A010000 		.4byte	.LVL459
 14318 1891 0200     		.2byte	0x2
 14319 1893 74       		.byte	0x74
 14320 1894 02       		.sleb128 2
 14321 1895 00000000 		.4byte	0
 14322 1899 00000000 		.4byte	0
 14323              	.LLST160:
 14324 189d CE000000 		.4byte	.LVL453
 14325 18a1 D8000000 		.4byte	.LVL455
 14326 18a5 0100     		.2byte	0x1
 14327 18a7 51       		.byte	0x51
 14328 18a8 D8000000 		.4byte	.LVL455
 14329 18ac 1A010000 		.4byte	.LVL459
 14330 18b0 0200     		.2byte	0x2
 14331 18b2 74       		.byte	0x74
 14332 18b3 03       		.sleb128 3
 14333 18b4 00000000 		.4byte	0
 14334 18b8 00000000 		.4byte	0
 14335              	.LLST161:
 14336 18bc D6000000 		.4byte	.LVL454
 14337 18c0 E6000000 		.4byte	.LVL457
ARM GAS  C:\Users\MATEOC~1.QUE\AppData\Local\Temp\ccxtWYOp.s 			page 275


 14338 18c4 0700     		.2byte	0x7
 14339 18c6 75       		.byte	0x75
 14340 18c7 00       		.sleb128 0
 14341 18c8 48       		.byte	0x48
 14342 18c9 24       		.byte	0x24
 14343 18ca 48       		.byte	0x48
 14344 18cb 26       		.byte	0x26
 14345 18cc 9F       		.byte	0x9f
 14346 18cd E6000000 		.4byte	.LVL457
 14347 18d1 1A010000 		.4byte	.LVL459
 14348 18d5 0900     		.2byte	0x9
 14349 18d7 74       		.byte	0x74
 14350 18d8 05       		.sleb128 5
 14351 18d9 94       		.byte	0x94
 14352 18da 01       		.byte	0x1
 14353 18db 48       		.byte	0x48
 14354 18dc 24       		.byte	0x24
 14355 18dd 48       		.byte	0x48
 14356 18de 26       		.byte	0x26
 14357 18df 9F       		.byte	0x9f
 14358 18e0 00000000 		.4byte	0
 14359 18e4 00000000 		.4byte	0
 14360              	.LLST162:
 14361 18e8 00000000 		.4byte	.LVL463
 14362 18ec 06000000 		.4byte	.LVL464
 14363 18f0 0100     		.2byte	0x1
 14364 18f2 50       		.byte	0x50
 14365 18f3 06000000 		.4byte	.LVL464
 14366 18f7 14000000 		.4byte	.LFE21
 14367 18fb 0100     		.2byte	0x1
 14368 18fd 54       		.byte	0x54
 14369 18fe 00000000 		.4byte	0
 14370 1902 00000000 		.4byte	0
 14371              	.LLST163:
 14372 1906 00000000 		.4byte	.LVL467
 14373 190a 06000000 		.4byte	.LVL468
 14374 190e 0100     		.2byte	0x1
 14375 1910 50       		.byte	0x50
 14376 1911 06000000 		.4byte	.LVL468
 14377 1915 1A000000 		.4byte	.LFE22
 14378 1919 0100     		.2byte	0x1
 14379 191b 54       		.byte	0x54
 14380 191c 00000000 		.4byte	0
 14381 1920 00000000 		.4byte	0
 14382              		.section	.debug_aranges,"",%progbits
 14383 0000 74010000 		.4byte	0x174
 14384 0004 0200     		.2byte	0x2
 14385 0006 00000000 		.4byte	.Ldebug_info0
 14386 000a 04       		.byte	0x4
 14387 000b 00       		.byte	0
 14388 000c 0000     		.2byte	0
 14389 000e 0000     		.2byte	0
 14390 0010 00000000 		.4byte	.LFB20
 14391 0014 BC010000 		.4byte	.LFE20-.LFB20
 14392 0018 00000000 		.4byte	.LFB3
 14393 001c 58000000 		.4byte	.LFE3-.LFB3
 14394 0020 00000000 		.4byte	.LFB4
ARM GAS  C:\Users\MATEOC~1.QUE\AppData\Local\Temp\ccxtWYOp.s 			page 276


 14395 0024 84000000 		.4byte	.LFE4-.LFB4
 14396 0028 00000000 		.4byte	.LFB8
 14397 002c 88000000 		.4byte	.LFE8-.LFB8
 14398 0030 00000000 		.4byte	.LFB6
 14399 0034 0E000000 		.4byte	.LFE6-.LFB6
 14400 0038 00000000 		.4byte	.LFB7
 14401 003c 0A000000 		.4byte	.LFE7-.LFB7
 14402 0040 00000000 		.4byte	.LFB9
 14403 0044 C0000000 		.4byte	.LFE9-.LFB9
 14404 0048 00000000 		.4byte	.LFB10
 14405 004c 10000000 		.4byte	.LFE10-.LFB10
 14406 0050 00000000 		.4byte	.LFB11
 14407 0054 0C000000 		.4byte	.LFE11-.LFB11
 14408 0058 00000000 		.4byte	.LFB12
 14409 005c 10000000 		.4byte	.LFE12-.LFB12
 14410 0060 00000000 		.4byte	.LFB13
 14411 0064 10000000 		.4byte	.LFE13-.LFB13
 14412 0068 00000000 		.4byte	.LFB14
 14413 006c 0C000000 		.4byte	.LFE14-.LFB14
 14414 0070 00000000 		.4byte	.LFB15
 14415 0074 0C000000 		.4byte	.LFE15-.LFB15
 14416 0078 00000000 		.4byte	.LFB16
 14417 007c 0C000000 		.4byte	.LFE16-.LFB16
 14418 0080 00000000 		.4byte	.LFB17
 14419 0084 10000000 		.4byte	.LFE17-.LFB17
 14420 0088 00000000 		.4byte	.LFB18
 14421 008c 34000000 		.4byte	.LFE18-.LFB18
 14422 0090 00000000 		.4byte	.LFB19
 14423 0094 A8000000 		.4byte	.LFE19-.LFB19
 14424 0098 00000000 		.4byte	.LFB26
 14425 009c 8C000000 		.4byte	.LFE26-.LFB26
 14426 00a0 00000000 		.4byte	.LFB24
 14427 00a4 24000000 		.4byte	.LFE24-.LFB24
 14428 00a8 00000000 		.4byte	.LFB5
 14429 00ac E4000000 		.4byte	.LFE5-.LFB5
 14430 00b0 00000000 		.4byte	.LFB25
 14431 00b4 0C000000 		.4byte	.LFE25-.LFB25
 14432 00b8 00000000 		.4byte	.LFB27
 14433 00bc 50000000 		.4byte	.LFE27-.LFB27
 14434 00c0 00000000 		.4byte	.LFB33
 14435 00c4 3C010000 		.4byte	.LFE33-.LFB33
 14436 00c8 00000000 		.4byte	.LFB28
 14437 00cc 64000000 		.4byte	.LFE28-.LFB28
 14438 00d0 00000000 		.4byte	.LFB35
 14439 00d4 06010000 		.4byte	.LFE35-.LFB35
 14440 00d8 00000000 		.4byte	.LFB29
 14441 00dc 64000000 		.4byte	.LFE29-.LFB29
 14442 00e0 00000000 		.4byte	.LFB30
 14443 00e4 BE000000 		.4byte	.LFE30-.LFB30
 14444 00e8 00000000 		.4byte	.LFB31
 14445 00ec 12000000 		.4byte	.LFE31-.LFB31
 14446 00f0 00000000 		.4byte	.LFB32
 14447 00f4 38010000 		.4byte	.LFE32-.LFB32
 14448 00f8 00000000 		.4byte	.LFB34
 14449 00fc 32000000 		.4byte	.LFE34-.LFB34
 14450 0100 00000000 		.4byte	.LFB36
 14451 0104 42000000 		.4byte	.LFE36-.LFB36
ARM GAS  C:\Users\MATEOC~1.QUE\AppData\Local\Temp\ccxtWYOp.s 			page 277


 14452 0108 00000000 		.4byte	.LFB37
 14453 010c 76010000 		.4byte	.LFE37-.LFB37
 14454 0110 00000000 		.4byte	.LFB38
 14455 0114 DC000000 		.4byte	.LFE38-.LFB38
 14456 0118 00000000 		.4byte	.LFB39
 14457 011c 82000000 		.4byte	.LFE39-.LFB39
 14458 0120 00000000 		.4byte	.LFB40
 14459 0124 48000000 		.4byte	.LFE40-.LFB40
 14460 0128 00000000 		.4byte	.LFB41
 14461 012c 1C020000 		.4byte	.LFE41-.LFB41
 14462 0130 00000000 		.4byte	.LFB23
 14463 0134 44010000 		.4byte	.LFE23-.LFB23
 14464 0138 00000000 		.4byte	.LFB21
 14465 013c 14000000 		.4byte	.LFE21-.LFB21
 14466 0140 00000000 		.4byte	.LFB22
 14467 0144 1A000000 		.4byte	.LFE22-.LFB22
 14468 0148 00000000 		.4byte	.LFB42
 14469 014c 0C000000 		.4byte	.LFE42-.LFB42
 14470 0150 00000000 		.4byte	.LFB43
 14471 0154 0C000000 		.4byte	.LFE43-.LFB43
 14472 0158 00000000 		.4byte	.LFB44
 14473 015c 0C000000 		.4byte	.LFE44-.LFB44
 14474 0160 00000000 		.4byte	.LFB45
 14475 0164 0C000000 		.4byte	.LFE45-.LFB45
 14476 0168 00000000 		.4byte	.LFB46
 14477 016c 0C000000 		.4byte	.LFE46-.LFB46
 14478 0170 00000000 		.4byte	0
 14479 0174 00000000 		.4byte	0
 14480              		.section	.debug_ranges,"",%progbits
 14481              	.Ldebug_ranges0:
 14482 0000 00000000 		.4byte	.LFB20
 14483 0004 BC010000 		.4byte	.LFE20
 14484 0008 00000000 		.4byte	.LFB3
 14485 000c 58000000 		.4byte	.LFE3
 14486 0010 00000000 		.4byte	.LFB4
 14487 0014 84000000 		.4byte	.LFE4
 14488 0018 00000000 		.4byte	.LFB8
 14489 001c 88000000 		.4byte	.LFE8
 14490 0020 00000000 		.4byte	.LFB6
 14491 0024 0E000000 		.4byte	.LFE6
 14492 0028 00000000 		.4byte	.LFB7
 14493 002c 0A000000 		.4byte	.LFE7
 14494 0030 00000000 		.4byte	.LFB9
 14495 0034 C0000000 		.4byte	.LFE9
 14496 0038 00000000 		.4byte	.LFB10
 14497 003c 10000000 		.4byte	.LFE10
 14498 0040 00000000 		.4byte	.LFB11
 14499 0044 0C000000 		.4byte	.LFE11
 14500 0048 00000000 		.4byte	.LFB12
 14501 004c 10000000 		.4byte	.LFE12
 14502 0050 00000000 		.4byte	.LFB13
 14503 0054 10000000 		.4byte	.LFE13
 14504 0058 00000000 		.4byte	.LFB14
 14505 005c 0C000000 		.4byte	.LFE14
 14506 0060 00000000 		.4byte	.LFB15
 14507 0064 0C000000 		.4byte	.LFE15
 14508 0068 00000000 		.4byte	.LFB16
ARM GAS  C:\Users\MATEOC~1.QUE\AppData\Local\Temp\ccxtWYOp.s 			page 278


 14509 006c 0C000000 		.4byte	.LFE16
 14510 0070 00000000 		.4byte	.LFB17
 14511 0074 10000000 		.4byte	.LFE17
 14512 0078 00000000 		.4byte	.LFB18
 14513 007c 34000000 		.4byte	.LFE18
 14514 0080 00000000 		.4byte	.LFB19
 14515 0084 A8000000 		.4byte	.LFE19
 14516 0088 00000000 		.4byte	.LFB26
 14517 008c 8C000000 		.4byte	.LFE26
 14518 0090 00000000 		.4byte	.LFB24
 14519 0094 24000000 		.4byte	.LFE24
 14520 0098 00000000 		.4byte	.LFB5
 14521 009c E4000000 		.4byte	.LFE5
 14522 00a0 00000000 		.4byte	.LFB25
 14523 00a4 0C000000 		.4byte	.LFE25
 14524 00a8 00000000 		.4byte	.LFB27
 14525 00ac 50000000 		.4byte	.LFE27
 14526 00b0 00000000 		.4byte	.LFB33
 14527 00b4 3C010000 		.4byte	.LFE33
 14528 00b8 00000000 		.4byte	.LFB28
 14529 00bc 64000000 		.4byte	.LFE28
 14530 00c0 00000000 		.4byte	.LFB35
 14531 00c4 06010000 		.4byte	.LFE35
 14532 00c8 00000000 		.4byte	.LFB29
 14533 00cc 64000000 		.4byte	.LFE29
 14534 00d0 00000000 		.4byte	.LFB30
 14535 00d4 BE000000 		.4byte	.LFE30
 14536 00d8 00000000 		.4byte	.LFB31
 14537 00dc 12000000 		.4byte	.LFE31
 14538 00e0 00000000 		.4byte	.LFB32
 14539 00e4 38010000 		.4byte	.LFE32
 14540 00e8 00000000 		.4byte	.LFB34
 14541 00ec 32000000 		.4byte	.LFE34
 14542 00f0 00000000 		.4byte	.LFB36
 14543 00f4 42000000 		.4byte	.LFE36
 14544 00f8 00000000 		.4byte	.LFB37
 14545 00fc 76010000 		.4byte	.LFE37
 14546 0100 00000000 		.4byte	.LFB38
 14547 0104 DC000000 		.4byte	.LFE38
 14548 0108 00000000 		.4byte	.LFB39
 14549 010c 82000000 		.4byte	.LFE39
 14550 0110 00000000 		.4byte	.LFB40
 14551 0114 48000000 		.4byte	.LFE40
 14552 0118 00000000 		.4byte	.LFB41
 14553 011c 1C020000 		.4byte	.LFE41
 14554 0120 00000000 		.4byte	.LFB23
 14555 0124 44010000 		.4byte	.LFE23
 14556 0128 00000000 		.4byte	.LFB21
 14557 012c 14000000 		.4byte	.LFE21
 14558 0130 00000000 		.4byte	.LFB22
 14559 0134 1A000000 		.4byte	.LFE22
 14560 0138 00000000 		.4byte	.LFB42
 14561 013c 0C000000 		.4byte	.LFE42
 14562 0140 00000000 		.4byte	.LFB43
 14563 0144 0C000000 		.4byte	.LFE43
 14564 0148 00000000 		.4byte	.LFB44
 14565 014c 0C000000 		.4byte	.LFE44
ARM GAS  C:\Users\MATEOC~1.QUE\AppData\Local\Temp\ccxtWYOp.s 			page 279


 14566 0150 00000000 		.4byte	.LFB45
 14567 0154 0C000000 		.4byte	.LFE45
 14568 0158 00000000 		.4byte	.LFB46
 14569 015c 0C000000 		.4byte	.LFE46
 14570 0160 00000000 		.4byte	0
 14571 0164 00000000 		.4byte	0
 14572              		.section	.debug_line,"",%progbits
 14573              	.Ldebug_line0:
 14574 0000 AC070000 		.section	.debug_str,"MS",%progbits,1
 14574      02009E01 
 14574      00000201 
 14574      FB0E0D00 
 14574      01010101 
 14575              	.LASF61:
 14576 0000 6C617374 		.ascii	"last\000"
 14576      00
 14577              	.LASF236:
 14578 0005 78737461 		.ascii	"xstart\000"
 14578      727400
 14579              	.LASF147:
 14580 000c 5446545F 		.ascii	"TFT_payload_t\000"
 14580      7061796C 
 14580      6F61645F 
 14580      7400
 14581              	.LASF106:
 14582 001a 53543737 		.ascii	"ST7735_COLMOD\000"
 14582      33355F43 
 14582      4F4C4D4F 
 14582      4400
 14583              	.LASF34:
 14584 0028 52435F45 		.ascii	"RC_ERROR_NOT_MATCH\000"
 14584      52524F52 
 14584      5F4E4F54 
 14584      5F4D4154 
 14584      434800
 14585              	.LASF63:
 14586 003b 47465866 		.ascii	"GFXfont\000"
 14586      6F6E7400 
 14587              	.LASF211:
 14588 0043 64783032 		.ascii	"dx02\000"
 14588      00
 14589              	.LASF207:
 14590 0048 5446545F 		.ascii	"TFT_drawTriangle\000"
 14590      64726177 
 14590      54726961 
 14590      6E676C65 
 14590      00
 14591              	.LASF30:
 14592 0059 52435F45 		.ascii	"RC_ERROR_WRITE_ONLY\000"
 14592      52524F52 
 14592      5F575249 
 14592      54455F4F 
 14592      4E4C5900 
 14593              	.LASF154:
 14594 006d 5446545F 		.ascii	"TFT_RB_out_t\000"
 14594      52425F6F 
 14594      75745F74 
ARM GAS  C:\Users\MATEOC~1.QUE\AppData\Local\Temp\ccxtWYOp.s 			page 280


 14594      00
 14595              	.LASF227:
 14596 007a 5446545F 		.ascii	"TFT_width\000"
 14596      77696474 
 14596      6800
 14597              	.LASF142:
 14598 0084 6D657373 		.ascii	"message\000"
 14598      61676500 
 14599              	.LASF70:
 14600 008c 424C4143 		.ascii	"BLACK\000"
 14600      4B00
 14601              	.LASF209:
 14602 0092 64783031 		.ascii	"dx01\000"
 14602      00
 14603              	.LASF180:
 14604 0097 5446545F 		.ascii	"TFT_getTextBounds\000"
 14604      67657454 
 14604      65787442 
 14604      6F756E64 
 14604      7300
 14605              	.LASF153:
 14606 00a9 62756666 		.ascii	"buffer\000"
 14606      657200
 14607              	.LASF181:
 14608 00b0 5446545F 		.ascii	"TFT_fillRect\000"
 14608      66696C6C 
 14608      52656374 
 14608      00
 14609              	.LASF0:
 14610 00bd 756E7369 		.ascii	"unsigned int\000"
 14610      676E6564 
 14610      20696E74 
 14610      00
 14611              	.LASF18:
 14612 00ca 52435F45 		.ascii	"RC_ERROR_ZERO\000"
 14612      52524F52 
 14612      5F5A4552 
 14612      4F00
 14613              	.LASF226:
 14614 00d8 5446545F 		.ascii	"TFT_println\000"
 14614      7072696E 
 14614      746C6E00 
 14615              	.LASF74:
 14616 00e4 47424C55 		.ascii	"GBLUE\000"
 14616      4500
 14617              	.LASF125:
 14618 00ea 53543737 		.ascii	"ST7735_GMCTRN1\000"
 14618      33355F47 
 14618      4D435452 
 14618      4E3100
 14619              	.LASF133:
 14620 00f9 4C4F475F 		.ascii	"LOG_VERBOSE\000"
 14620      56455242 
 14620      4F534500 
 14621              	.LASF44:
 14622 0105 5F5F696E 		.ascii	"__int32_t\000"
 14622      7433325F 
ARM GAS  C:\Users\MATEOC~1.QUE\AppData\Local\Temp\ccxtWYOp.s 			page 281


 14622      7400
 14623              	.LASF200:
 14624 010f 5446545F 		.ascii	"TFT_fastHLine\000"
 14624      66617374 
 14624      484C696E 
 14624      6500
 14625              	.LASF17:
 14626 011d 52435F45 		.ascii	"RC_ERROR_NULL\000"
 14626      52524F52 
 14626      5F4E554C 
 14626      4C00
 14627              	.LASF26:
 14628 012b 52435F45 		.ascii	"RC_ERROR_TIME_OUT\000"
 14628      52524F52 
 14628      5F54494D 
 14628      455F4F55 
 14628      5400
 14629              	.LASF38:
 14630 013d 52435F45 		.ascii	"RC_ERROR_INVALID_STATE\000"
 14630      52524F52 
 14630      5F494E56 
 14630      414C4944 
 14630      5F535441 
 14631              	.LASF168:
 14632 0154 5446545F 		.ascii	"TFT_getBacklight\000"
 14632      67657442 
 14632      61636B6C 
 14632      69676874 
 14632      00
 14633              	.LASF197:
 14634 0165 5446545F 		.ascii	"TFT_fastVLine\000"
 14634      66617374 
 14634      564C696E 
 14634      6500
 14635              	.LASF140:
 14636 0173 6C657665 		.ascii	"level\000"
 14636      6C00
 14637              	.LASF213:
 14638 0179 64783132 		.ascii	"dx12\000"
 14638      00
 14639              	.LASF164:
 14640 017e 73657441 		.ascii	"setAddrWindow\000"
 14640      64647257 
 14640      696E646F 
 14640      7700
 14641              	.LASF111:
 14642 018c 53543737 		.ascii	"ST7735_INVCTR\000"
 14642      33355F49 
 14642      4E564354 
 14642      5200
 14643              	.LASF191:
 14644 019a 5446545F 		.ascii	"TFT_clearScreen\000"
 14644      636C6561 
 14644      72536372 
 14644      65656E00 
 14645              	.LASF104:
 14646 01aa 53543737 		.ascii	"ST7735_RAMRD\000"
ARM GAS  C:\Users\MATEOC~1.QUE\AppData\Local\Temp\ccxtWYOp.s 			page 282


 14646      33355F52 
 14646      414D5244 
 14646      00
 14647              	.LASF179:
 14648 01b7 5446545F 		.ascii	"TFT_setFont\000"
 14648      73657446 
 14648      6F6E7400 
 14649              	.LASF89:
 14650 01c3 53543737 		.ascii	"ST7735_NOP\000"
 14650      33355F4E 
 14650      4F5000
 14651              	.LASF247:
 14652 01ce 5446545F 		.ascii	"TFT_RB_out\000"
 14652      52425F6F 
 14652      757400
 14653              	.LASF98:
 14654 01d9 53543737 		.ascii	"ST7735_INVON\000"
 14654      33355F49 
 14654      4E564F4E 
 14654      00
 14655              	.LASF83:
 14656 01e6 4C494748 		.ascii	"LIGHTBLUE\000"
 14656      54424C55 
 14656      4500
 14657              	.LASF239:
 14658 01f0 726F7461 		.ascii	"rotation\000"
 14658      74696F6E 
 14658      00
 14659              	.LASF232:
 14660 01f9 53535433 		.ascii	"SST35S_init_seq\000"
 14660      35535F69 
 14660      6E69745F 
 14660      73657100 
 14661              	.LASF68:
 14662 0209 5446545F 		.ascii	"TFT_rotation_t\000"
 14662      726F7461 
 14662      74696F6E 
 14662      5F7400
 14663              	.LASF67:
 14664 0218 5446545F 		.ascii	"TFT_rot_270\000"
 14664      726F745F 
 14664      32373000 
 14665              	.LASF47:
 14666 0224 696E7438 		.ascii	"int8_t\000"
 14666      5F7400
 14667              	.LASF16:
 14668 022b 52435F45 		.ascii	"RC_ERROR\000"
 14668      52524F52 
 14668      00
 14669              	.LASF33:
 14670 0234 52435F45 		.ascii	"RC_ERROR_WRITE_FAILS\000"
 14670      52524F52 
 14670      5F575249 
 14670      54455F46 
 14670      41494C53 
 14671              	.LASF189:
 14672 0249 6E756D41 		.ascii	"numArgs\000"
ARM GAS  C:\Users\MATEOC~1.QUE\AppData\Local\Temp\ccxtWYOp.s 			page 283


 14672      72677300 
 14673              	.LASF206:
 14674 0251 5446545F 		.ascii	"TFT_fillCircle\000"
 14674      66696C6C 
 14674      43697263 
 14674      6C6500
 14675              	.LASF124:
 14676 0260 53543737 		.ascii	"ST7735_GMCTRP1\000"
 14676      33355F47 
 14676      4D435452 
 14676      503100
 14677              	.LASF95:
 14678 026f 53543737 		.ascii	"ST7735_PTLON\000"
 14678      33355F50 
 14678      544C4F4E 
 14678      00
 14679              	.LASF9:
 14680 027c 666C6F61 		.ascii	"float\000"
 14680      7400
 14681              	.LASF82:
 14682 0282 4441524B 		.ascii	"DARKBLUE\000"
 14682      424C5545 
 14682      00
 14683              	.LASF242:
 14684 028b 63757273 		.ascii	"cursor_x\000"
 14684      6F725F78 
 14684      00
 14685              	.LASF243:
 14686 0294 63757273 		.ascii	"cursor_y\000"
 14686      6F725F79 
 14686      00
 14687              	.LASF143:
 14688 029d 6C6F6767 		.ascii	"logging_t\000"
 14688      696E675F 
 14688      7400
 14689              	.LASF115:
 14690 02a7 53543737 		.ascii	"ST7735_PWCTR3\000"
 14690      33355F50 
 14690      57435452 
 14690      3300
 14691              	.LASF238:
 14692 02b5 74657874 		.ascii	"textsize\000"
 14692      73697A65 
 14692      00
 14693              	.LASF48:
 14694 02be 696E7431 		.ascii	"int16_t\000"
 14694      365F7400 
 14695              	.LASF27:
 14696 02c6 52435F45 		.ascii	"RC_ERROR_OPEN\000"
 14696      52524F52 
 14696      5F4F5045 
 14696      4E00
 14697              	.LASF12:
 14698 02d4 6C6F6E67 		.ascii	"long long unsigned int\000"
 14698      206C6F6E 
 14698      6720756E 
 14698      7369676E 
ARM GAS  C:\Users\MATEOC~1.QUE\AppData\Local\Temp\ccxtWYOp.s 			page 284


 14698      65642069 
 14699              	.LASF167:
 14700 02eb 5446545F 		.ascii	"TFT_BackLight_WriteCompare\000"
 14700      4261636B 
 14700      4C696768 
 14700      745F5772 
 14700      69746543 
 14701              	.LASF152:
 14702 0306 66696C6C 		.ascii	"fill\000"
 14702      00
 14703              	.LASF218:
 14704 030b 5446545F 		.ascii	"TFT_drawChar\000"
 14704      64726177 
 14704      43686172 
 14704      00
 14705              	.LASF108:
 14706 0318 53543737 		.ascii	"ST7735_FRMCTR1\000"
 14706      33355F46 
 14706      524D4354 
 14706      523100
 14707              	.LASF109:
 14708 0327 53543737 		.ascii	"ST7735_FRMCTR2\000"
 14708      33355F46 
 14708      524D4354 
 14708      523200
 14709              	.LASF110:
 14710 0336 53543737 		.ascii	"ST7735_FRMCTR3\000"
 14710      33355F46 
 14710      524D4354 
 14710      523300
 14711              	.LASF62:
 14712 0345 79416476 		.ascii	"yAdvance\000"
 14712      616E6365 
 14712      00
 14713              	.LASF94:
 14714 034e 53543737 		.ascii	"ST7735_SLPOUT\000"
 14714      33355F53 
 14714      4C504F55 
 14714      5400
 14715              	.LASF171:
 14716 035c 5446545F 		.ascii	"TFT_setCursor\000"
 14716      73657443 
 14716      7572736F 
 14716      7200
 14717              	.LASF244:
 14718 036a 6267636F 		.ascii	"bgcolor\000"
 14718      6C6F7200 
 14719              	.LASF105:
 14720 0372 53543737 		.ascii	"ST7735_PTLAR\000"
 14720      33355F50 
 14720      544C4152 
 14720      00
 14721              	.LASF249:
 14722 037f 474E5520 		.ascii	"GNU C11 5.4.1 20160609 (release) [ARM/embedded-5-br"
 14722      43313120 
 14722      352E342E 
 14722      31203230 
ARM GAS  C:\Users\MATEOC~1.QUE\AppData\Local\Temp\ccxtWYOp.s 			page 285


 14722      31363036 
 14723 03b2 616E6368 		.ascii	"anch revision 237715] -mcpu=cortex-m3 -mthumb -g -O"
 14723      20726576 
 14723      6973696F 
 14723      6E203233 
 14723      37373135 
 14724 03e5 67202D66 		.ascii	"g -ffunction-sections -ffat-lto-objects\000"
 14724      66756E63 
 14724      74696F6E 
 14724      2D736563 
 14724      74696F6E 
 14725              	.LASF86:
 14726 040d 4C475241 		.ascii	"LGRAY\000"
 14726      5900
 14727              	.LASF190:
 14728 0413 5446545F 		.ascii	"TFT_BackLight_Start\000"
 14728      4261636B 
 14728      4C696768 
 14728      745F5374 
 14728      61727400 
 14729              	.LASF51:
 14730 0427 6269746D 		.ascii	"bitmapOffset\000"
 14730      61704F66 
 14730      66736574 
 14730      00
 14731              	.LASF148:
 14732 0434 7061796C 		.ascii	"payload\000"
 14732      6F616400 
 14733              	.LASF52:
 14734 043c 77696474 		.ascii	"width\000"
 14734      6800
 14735              	.LASF28:
 14736 0442 52435F45 		.ascii	"RC_ERROR_CHECKSUM\000"
 14736      52524F52 
 14736      5F434845 
 14736      434B5355 
 14736      4D00
 14737              	.LASF139:
 14738 0454 6C6F6767 		.ascii	"logging_level_t\000"
 14738      696E675F 
 14738      6C657665 
 14738      6C5F7400 
 14739              	.LASF119:
 14740 0464 53543737 		.ascii	"ST7735_RDID1\000"
 14740      33355F52 
 14740      44494431 
 14740      00
 14741              	.LASF120:
 14742 0471 53543737 		.ascii	"ST7735_RDID2\000"
 14742      33355F52 
 14742      44494432 
 14742      00
 14743              	.LASF121:
 14744 047e 53543737 		.ascii	"ST7735_RDID3\000"
 14744      33355F52 
 14744      44494433 
 14744      00
ARM GAS  C:\Users\MATEOC~1.QUE\AppData\Local\Temp\ccxtWYOp.s 			page 286


 14745              	.LASF122:
 14746 048b 53543737 		.ascii	"ST7735_RDID4\000"
 14746      33355F52 
 14746      44494434 
 14746      00
 14747              	.LASF96:
 14748 0498 53543737 		.ascii	"ST7735_NORON\000"
 14748      33355F4E 
 14748      4F524F4E 
 14748      00
 14749              	.LASF88:
 14750 04a5 4C42424C 		.ascii	"LBBLUE\000"
 14750      554500
 14751              	.LASF99:
 14752 04ac 53543737 		.ascii	"ST7735_DISPOFF\000"
 14752      33355F44 
 14752      4953504F 
 14752      464600
 14753              	.LASF145:
 14754 04bb 5446545F 		.ascii	"TFT_DATA\000"
 14754      44415441 
 14754      00
 14755              	.LASF146:
 14756 04c4 5446545F 		.ascii	"TFT_STREAM\000"
 14756      53545245 
 14756      414D00
 14757              	.LASF75:
 14758 04cf 4D414745 		.ascii	"MAGENTA\000"
 14758      4E544100 
 14759              	.LASF60:
 14760 04d7 66697273 		.ascii	"first\000"
 14760      7400
 14761              	.LASF245:
 14762 04dd 77726170 		.ascii	"wrap\000"
 14762      00
 14763              	.LASF166:
 14764 04e2 5446545F 		.ascii	"TFT_setBacklight\000"
 14764      73657442 
 14764      61636B6C 
 14764      69676874 
 14764      00
 14765              	.LASF92:
 14766 04f3 53543737 		.ascii	"ST7735_RDDST\000"
 14766      33355F52 
 14766      44445354 
 14766      00
 14767              	.LASF80:
 14768 0500 42525245 		.ascii	"BRRED\000"
 14768      4400
 14769              	.LASF79:
 14770 0506 42524F57 		.ascii	"BROWN\000"
 14770      4E00
 14771              	.LASF201:
 14772 050c 5446545F 		.ascii	"TFT_writeLine\000"
 14772      77726974 
 14772      654C696E 
 14772      6500
ARM GAS  C:\Users\MATEOC~1.QUE\AppData\Local\Temp\ccxtWYOp.s 			page 287


 14773              	.LASF81:
 14774 051a 47524159 		.ascii	"GRAY\000"
 14774      00
 14775              	.LASF14:
 14776 051f 63686172 		.ascii	"char\000"
 14776      00
 14777              	.LASF15:
 14778 0524 52435F53 		.ascii	"RC_SUCCESS\000"
 14778      55434345 
 14778      535300
 14779              	.LASF230:
 14780 052f 5446545F 		.ascii	"TFT_getCursorX\000"
 14780      67657443 
 14780      7572736F 
 14780      725800
 14781              	.LASF231:
 14782 053e 5446545F 		.ascii	"TFT_getCursorY\000"
 14782      67657443 
 14782      7572736F 
 14782      725900
 14783              	.LASF57:
 14784 054d 47465867 		.ascii	"GFXglyph\000"
 14784      6C797068 
 14784      00
 14785              	.LASF193:
 14786 0556 5446545F 		.ascii	"TFT_drawCircleHelper\000"
 14786      64726177 
 14786      43697263 
 14786      6C654865 
 14786      6C706572 
 14787              	.LASF13:
 14788 056b 626F6F6C 		.ascii	"boolean_t\000"
 14788      65616E5F 
 14788      7400
 14789              	.LASF71:
 14790 0575 424C5545 		.ascii	"BLUE\000"
 14790      00
 14791              	.LASF156:
 14792 057a 6D696E79 		.ascii	"miny\000"
 14792      00
 14793              	.LASF65:
 14794 057f 5446545F 		.ascii	"TFT_rot_90\000"
 14794      726F745F 
 14794      393000
 14795              	.LASF186:
 14796 058a 43794465 		.ascii	"CyDelay\000"
 14796      6C617900 
 14797              	.LASF163:
 14798 0592 63686172 		.ascii	"charBounds\000"
 14798      426F756E 
 14798      647300
 14799              	.LASF36:
 14800 059d 52435F45 		.ascii	"RC_ERROR_BAD_DATA\000"
 14800      52524F52 
 14800      5F424144 
 14800      5F444154 
 14800      4100
ARM GAS  C:\Users\MATEOC~1.QUE\AppData\Local\Temp\ccxtWYOp.s 			page 288


 14801              	.LASF210:
 14802 05af 64793031 		.ascii	"dy01\000"
 14802      00
 14803              	.LASF212:
 14804 05b4 64793032 		.ascii	"dy02\000"
 14804      00
 14805              	.LASF4:
 14806 05b9 75696E74 		.ascii	"uint8_t\000"
 14806      385F7400 
 14807              	.LASF56:
 14808 05c1 794F6666 		.ascii	"yOffset\000"
 14808      73657400 
 14809              	.LASF240:
 14810 05c9 5F776964 		.ascii	"_width\000"
 14810      746800
 14811              	.LASF169:
 14812 05d0 5446545F 		.ascii	"TFT_BackLight_ReadCompare\000"
 14812      4261636B 
 14812      4C696768 
 14812      745F5265 
 14812      6164436F 
 14813              	.LASF221:
 14814 05ea 62697473 		.ascii	"bits\000"
 14814      00
 14815              	.LASF103:
 14816 05ef 53543737 		.ascii	"ST7735_RAMWR\000"
 14816      33355F52 
 14816      414D5752 
 14816      00
 14817              	.LASF202:
 14818 05fc 73746565 		.ascii	"steep\000"
 14818      7000
 14819              	.LASF76:
 14820 0602 47524545 		.ascii	"GREEN\000"
 14820      4E00
 14821              	.LASF11:
 14822 0608 6C6F6E67 		.ascii	"long long int\000"
 14822      206C6F6E 
 14822      6720696E 
 14822      7400
 14823              	.LASF151:
 14824 0616 77726974 		.ascii	"write\000"
 14824      6500
 14825              	.LASF37:
 14826 061c 52435F45 		.ascii	"RC_ERROR_CANCELED\000"
 14826      52524F52 
 14826      5F43414E 
 14826      43454C45 
 14826      4400
 14827              	.LASF64:
 14828 062e 5446545F 		.ascii	"TFT_rot_0\000"
 14828      726F745F 
 14828      3000
 14829              	.LASF214:
 14830 0638 64793132 		.ascii	"dy12\000"
 14830      00
 14831              	.LASF130:
ARM GAS  C:\Users\MATEOC~1.QUE\AppData\Local\Temp\ccxtWYOp.s 			page 289


 14832 063d 53543737 		.ascii	"ST7735_MADCTL_BGR\000"
 14832      33355F4D 
 14832      41444354 
 14832      4C5F4247 
 14832      5200
 14833              	.LASF216:
 14834 064f 5446545F 		.ascii	"TFT_fillRoundRect\000"
 14834      66696C6C 
 14834      526F756E 
 14834      64526563 
 14834      7400
 14835              	.LASF43:
 14836 0661 5F5F696E 		.ascii	"__int16_t\000"
 14836      7431365F 
 14836      7400
 14837              	.LASF252:
 14838 066b 5446545F 		.ascii	"TFT_send\000"
 14838      73656E64 
 14838      00
 14839              	.LASF241:
 14840 0674 5F686569 		.ascii	"_height\000"
 14840      67687400 
 14841              	.LASF233:
 14842 067c 666F6E74 		.ascii	"font\000"
 14842      00
 14843              	.LASF22:
 14844 0681 52435F45 		.ascii	"RC_ERROR_UNDERRUN\000"
 14844      52524F52 
 14844      5F554E44 
 14844      45525255 
 14844      4E00
 14845              	.LASF183:
 14846 0693 5446545F 		.ascii	"TFT_fillScreen\000"
 14846      66696C6C 
 14846      53637265 
 14846      656E00
 14847              	.LASF219:
 14848 06a2 73697A65 		.ascii	"size\000"
 14848      00
 14849              	.LASF19:
 14850 06a7 52435F45 		.ascii	"RC_ERROR_MEMORY\000"
 14850      52524F52 
 14850      5F4D454D 
 14850      4F525900 
 14851              	.LASF112:
 14852 06b7 53543737 		.ascii	"ST7735_DISSET5\000"
 14852      33355F44 
 14852      49535345 
 14852      543500
 14853              	.LASF178:
 14854 06c6 5446545F 		.ascii	"TFT_setTextSize\000"
 14854      73657454 
 14854      65787453 
 14854      697A6500 
 14855              	.LASF85:
 14856 06d6 4C494748 		.ascii	"LIGHTGREEN\000"
 14856      54475245 
ARM GAS  C:\Users\MATEOC~1.QUE\AppData\Local\Temp\ccxtWYOp.s 			page 290


 14856      454E00
 14857              	.LASF215:
 14858 06e1 5446545F 		.ascii	"TFT_drawRoundRect\000"
 14858      64726177 
 14858      526F756E 
 14858      64526563 
 14858      7400
 14859              	.LASF78:
 14860 06f3 59454C4C 		.ascii	"YELLOW\000"
 14860      4F5700
 14861              	.LASF53:
 14862 06fa 68656967 		.ascii	"height\000"
 14862      687400
 14863              	.LASF137:
 14864 0701 4C4F475F 		.ascii	"LOG_DEBUG\000"
 14864      44454255 
 14864      4700
 14865              	.LASF174:
 14866 070b 5446545F 		.ascii	"TFT_setColors\000"
 14866      73657443 
 14866      6F6C6F72 
 14866      7300
 14867              	.LASF234:
 14868 0719 636F6C73 		.ascii	"colstart\000"
 14868      74617274 
 14868      00
 14869              	.LASF42:
 14870 0722 5F5F696E 		.ascii	"__int8_t\000"
 14870      74385F74 
 14870      00
 14871              	.LASF250:
 14872 072b 736F7572 		.ascii	"source\\bsw\\tft\\tft.c\000"
 14872      63655C62 
 14872      73775C74 
 14872      66745C74 
 14872      66742E63 
 14873              	.LASF149:
 14874 0740 5446545F 		.ascii	"TFT_data_t\000"
 14874      64617461 
 14874      5F7400
 14875              	.LASF87:
 14876 074b 4C475241 		.ascii	"LGRAYBLUE\000"
 14876      59424C55 
 14876      4500
 14877              	.LASF23:
 14878 0755 52435F45 		.ascii	"RC_ERROR_BUFFER_FULL\000"
 14878      52524F52 
 14878      5F425546 
 14878      4645525F 
 14878      46554C4C 
 14879              	.LASF176:
 14880 076a 5446545F 		.ascii	"TFT_getBGcolor\000"
 14880      67657442 
 14880      47636F6C 
 14880      6F7200
 14881              	.LASF45:
 14882 0779 6C6F6E67 		.ascii	"long double\000"
ARM GAS  C:\Users\MATEOC~1.QUE\AppData\Local\Temp\ccxtWYOp.s 			page 291


 14882      20646F75 
 14882      626C6500 
 14883              	.LASF225:
 14884 0785 5446545F 		.ascii	"TFT_print\000"
 14884      7072696E 
 14884      7400
 14885              	.LASF5:
 14886 078f 75696E74 		.ascii	"uint16_t\000"
 14886      31365F74 
 14886      00
 14887              	.LASF172:
 14888 0798 5446545F 		.ascii	"TFT_setTextColor\000"
 14888      73657454 
 14888      65787443 
 14888      6F6C6F72 
 14888      00
 14889              	.LASF185:
 14890 07a9 5446545F 		.ascii	"TFT_RES_Write\000"
 14890      5245535F 
 14890      57726974 
 14890      6500
 14891              	.LASF73:
 14892 07b7 47524544 		.ascii	"GRED\000"
 14892      00
 14893              	.LASF29:
 14894 07bc 52435F45 		.ascii	"RC_ERROR_READ_ONLY\000"
 14894      52524F52 
 14894      5F524541 
 14894      445F4F4E 
 14894      4C5900
 14895              	.LASF25:
 14896 07cf 52435F45 		.ascii	"RC_ERROR_BUSY\000"
 14896      52524F52 
 14896      5F425553 
 14896      5900
 14897              	.LASF35:
 14898 07dd 52435F45 		.ascii	"RC_ERROR_BAD_PARAM\000"
 14898      52524F52 
 14898      5F424144 
 14898      5F504152 
 14898      414D00
 14899              	.LASF3:
 14900 07f0 73686F72 		.ascii	"short int\000"
 14900      7420696E 
 14900      7400
 14901              	.LASF184:
 14902 07fa 5446545F 		.ascii	"TFT_SPI_Start\000"
 14902      5350495F 
 14902      53746172 
 14902      7400
 14903              	.LASF141:
 14904 0808 73656E64 		.ascii	"sender\000"
 14904      657200
 14905              	.LASF102:
 14906 080f 53543737 		.ascii	"ST7735_RASET\000"
 14906      33355F52 
 14906      41534554 
ARM GAS  C:\Users\MATEOC~1.QUE\AppData\Local\Temp\ccxtWYOp.s 			page 292


 14906      00
 14907              	.LASF7:
 14908 081c 6C6F6E67 		.ascii	"long int\000"
 14908      20696E74 
 14908      00
 14909              	.LASF248:
 14910 0825 4C4F475F 		.ascii	"LOG_send\000"
 14910      73656E64 
 14910      00
 14911              	.LASF134:
 14912 082e 4C4F475F 		.ascii	"LOG_INFO\000"
 14912      494E464F 
 14912      00
 14913              	.LASF69:
 14914 0837 57484954 		.ascii	"WHITE\000"
 14914      4500
 14915              	.LASF40:
 14916 083d 52435F45 		.ascii	"RC_ERROR_NOT_IMPLEMENTED\000"
 14916      52524F52 
 14916      5F4E4F54 
 14916      5F494D50 
 14916      4C454D45 
 14917              	.LASF91:
 14918 0856 53543737 		.ascii	"ST7735_RDDID\000"
 14918      33355F52 
 14918      44444944 
 14918      00
 14919              	.LASF204:
 14920 0863 5446545F 		.ascii	"TFT_invertDisplay\000"
 14920      696E7665 
 14920      72744469 
 14920      73706C61 
 14920      7900
 14921              	.LASF136:
 14922 0875 4C4F475F 		.ascii	"LOG_ERROR\000"
 14922      4552524F 
 14922      5200
 14923              	.LASF182:
 14924 087f 636F6C6F 		.ascii	"color\000"
 14924      7200
 14925              	.LASF131:
 14926 0885 53543737 		.ascii	"ST7735_MADCTL_MH\000"
 14926      33355F4D 
 14926      41444354 
 14926      4C5F4D48 
 14926      00
 14927              	.LASF129:
 14928 0896 53543737 		.ascii	"ST7735_MADCTL_ML\000"
 14928      33355F4D 
 14928      41444354 
 14928      4C5F4D4C 
 14928      00
 14929              	.LASF107:
 14930 08a7 53543737 		.ascii	"ST7735_MADCTL\000"
 14930      33355F4D 
 14930      41444354 
 14930      4C00
ARM GAS  C:\Users\MATEOC~1.QUE\AppData\Local\Temp\ccxtWYOp.s 			page 293


 14931              	.LASF208:
 14932 08b5 5446545F 		.ascii	"TFT_fillTriangle\000"
 14932      66696C6C 
 14932      54726961 
 14932      6E676C65 
 14932      00
 14933              	.LASF128:
 14934 08c6 53543737 		.ascii	"ST7735_MADCTL_MV\000"
 14934      33355F4D 
 14934      41444354 
 14934      4C5F4D56 
 14934      00
 14935              	.LASF127:
 14936 08d7 53543737 		.ascii	"ST7735_MADCTL_MX\000"
 14936      33355F4D 
 14936      41444354 
 14936      4C5F4D58 
 14936      00
 14937              	.LASF126:
 14938 08e8 53543737 		.ascii	"ST7735_MADCTL_MY\000"
 14938      33355F4D 
 14938      41444354 
 14938      4C5F4D59 
 14938      00
 14939              	.LASF31:
 14940 08f9 52435F45 		.ascii	"RC_ERROR_INVALID\000"
 14940      52524F52 
 14940      5F494E56 
 14940      414C4944 
 14940      00
 14941              	.LASF135:
 14942 090a 4C4F475F 		.ascii	"LOG_WARNING\000"
 14942      5741524E 
 14942      494E4700 
 14943              	.LASF93:
 14944 0916 53543737 		.ascii	"ST7735_SLPIN\000"
 14944      33355F53 
 14944      4C50494E 
 14944      00
 14945              	.LASF205:
 14946 0923 5446545F 		.ascii	"TFT_drawCircle\000"
 14946      64726177 
 14946      43697263 
 14946      6C6500
 14947              	.LASF150:
 14948 0932 72656164 		.ascii	"read\000"
 14948      00
 14949              	.LASF159:
 14950 0937 705F6E65 		.ascii	"p_next_frame\000"
 14950      78745F66 
 14950      72616D65 
 14950      00
 14951              	.LASF192:
 14952 0944 5446545F 		.ascii	"TFT_drawPixel\000"
 14952      64726177 
 14952      50697865 
 14952      6C00
ARM GAS  C:\Users\MATEOC~1.QUE\AppData\Local\Temp\ccxtWYOp.s 			page 294


 14953              	.LASF251:
 14954 0952 433A5C55 		.ascii	"C:\\Users\\Mateo C. Querol\\OneDrive\\University\\D"
 14954      73657273 
 14954      5C4D6174 
 14954      656F2043 
 14954      2E205175 
 14955 0980 61726D73 		.ascii	"armstadt\\Advanced Microcontroller Systems and Embe"
 14955      74616474 
 14955      5C416476 
 14955      616E6365 
 14955      64204D69 
 14956 09b2 64646564 		.ascii	"dded Operating systems\\Embedded Operating Systems\\"
 14956      204F7065 
 14956      72617469 
 14956      6E672073 
 14956      79737465 
 14957 09e4 576F726B 		.ascii	"Workbook\\JSONParser.cydsn\000"
 14957      626F6F6B 
 14957      5C4A534F 
 14957      4E506172 
 14957      7365722E 
 14958              	.LASF72:
 14959 09fe 42524544 		.ascii	"BRED\000"
 14959      00
 14960              	.LASF203:
 14961 0a03 79737465 		.ascii	"ystep\000"
 14961      7000
 14962              	.LASF32:
 14963 0a09 52435F45 		.ascii	"RC_ERROR_READ_FAILS\000"
 14963      52524F52 
 14963      5F524541 
 14963      445F4641 
 14963      494C5300 
 14964              	.LASF90:
 14965 0a1d 53543737 		.ascii	"ST7735_SWRESET\000"
 14965      33355F53 
 14965      57524553 
 14965      455400
 14966              	.LASF175:
 14967 0a2c 5446545F 		.ascii	"TFT_getFGcolor\000"
 14967      67657446 
 14967      47636F6C 
 14967      6F7200
 14968              	.LASF246:
 14969 0a3b 67667846 		.ascii	"gfxFont\000"
 14969      6F6E7400 
 14970              	.LASF46:
 14971 0a43 73697A65 		.ascii	"sizetype\000"
 14971      74797065 
 14971      00
 14972              	.LASF8:
 14973 0a4c 6C6F6E67 		.ascii	"long unsigned int\000"
 14973      20756E73 
 14973      69676E65 
 14973      6420696E 
 14973      7400
 14974              	.LASF173:
ARM GAS  C:\Users\MATEOC~1.QUE\AppData\Local\Temp\ccxtWYOp.s 			page 295


 14975 0a5e 5446545F 		.ascii	"TFT_setcolor\000"
 14975      73657463 
 14975      6F6C6F72 
 14975      00
 14976              	.LASF237:
 14977 0a6b 79737461 		.ascii	"ystart\000"
 14977      727400
 14978              	.LASF41:
 14979 0a72 52435F74 		.ascii	"RC_t\000"
 14979      00
 14980              	.LASF49:
 14981 0a77 696E7433 		.ascii	"int32_t\000"
 14981      325F7400 
 14982              	.LASF253:
 14983 0a7f 5446545F 		.ascii	"TFT_init\000"
 14983      696E6974 
 14983      00
 14984              	.LASF165:
 14985 0a88 5F5F5446 		.ascii	"__TFT_SPI_TX_ISR\000"
 14985      545F5350 
 14985      495F5458 
 14985      5F495352 
 14985      00
 14986              	.LASF138:
 14987 0a99 4C4F475F 		.ascii	"LOG_OFF\000"
 14987      4F464600 
 14988              	.LASF59:
 14989 0aa1 676C7970 		.ascii	"glyph\000"
 14989      6800
 14990              	.LASF224:
 14991 0aa7 5446545F 		.ascii	"TFT_write\000"
 14991      77726974 
 14991      6500
 14992              	.LASF177:
 14993 0ab1 5446545F 		.ascii	"TFT_setTextWrap\000"
 14993      73657454 
 14993      65787457 
 14993      72617000 
 14994              	.LASF198:
 14995 0ac1 5446545F 		.ascii	"TFT_fillCircleHelper\000"
 14995      66696C6C 
 14995      43697263 
 14995      6C654865 
 14995      6C706572 
 14996              	.LASF162:
 14997 0ad6 74797065 		.ascii	"type\000"
 14997      00
 14998              	.LASF21:
 14999 0adb 52435F45 		.ascii	"RC_ERROR_OVERRUN\000"
 14999      52524F52 
 14999      5F4F5645 
 14999      5252554E 
 14999      00
 15000              	.LASF50:
 15001 0aec 5446545F 		.ascii	"TFT_color_t\000"
 15001      636F6C6F 
 15001      725F7400 
ARM GAS  C:\Users\MATEOC~1.QUE\AppData\Local\Temp\ccxtWYOp.s 			page 296


 15002              	.LASF2:
 15003 0af8 756E7369 		.ascii	"unsigned char\000"
 15003      676E6564 
 15003      20636861 
 15003      7200
 15004              	.LASF58:
 15005 0b06 6269746D 		.ascii	"bitmap\000"
 15005      617000
 15006              	.LASF228:
 15007 0b0d 5446545F 		.ascii	"TFT_height\000"
 15007      68656967 
 15007      687400
 15008              	.LASF220:
 15009 0b18 6C696E65 		.ascii	"line\000"
 15009      00
 15010              	.LASF24:
 15011 0b1d 52435F45 		.ascii	"RC_ERROR_BUFFER_EMTPY\000"
 15011      52524F52 
 15011      5F425546 
 15011      4645525F 
 15011      454D5450 
 15012              	.LASF132:
 15013 0b33 53543737 		.ascii	"ST7735_MADCTL_RGB\000"
 15013      33355F4D 
 15013      41444354 
 15013      4C5F5247 
 15013      4200
 15014              	.LASF161:
 15015 0b45 5446545F 		.ascii	"TFT_DC_Write\000"
 15015      44435F57 
 15015      72697465 
 15015      00
 15016              	.LASF217:
 15017 0b52 5446545F 		.ascii	"TFT_drawRect\000"
 15017      64726177 
 15017      52656374 
 15017      00
 15018              	.LASF39:
 15019 0b5f 52435F45 		.ascii	"RC_ERROR_UNKNOWN\000"
 15019      52524F52 
 15019      5F554E4B 
 15019      4E4F574E 
 15019      00
 15020              	.LASF84:
 15021 0b70 47524159 		.ascii	"GRAYBLUE\000"
 15021      424C5545 
 15021      00
 15022              	.LASF66:
 15023 0b79 5446545F 		.ascii	"TFT_rot_180\000"
 15023      726F745F 
 15023      31383000 
 15024              	.LASF77:
 15025 0b85 4359414E 		.ascii	"CYAN\000"
 15025      00
 15026              	.LASF187:
 15027 0b8a 61646472 		.ascii	"addr\000"
 15027      00
ARM GAS  C:\Users\MATEOC~1.QUE\AppData\Local\Temp\ccxtWYOp.s 			page 297


 15028              	.LASF155:
 15029 0b8f 6D696E78 		.ascii	"minx\000"
 15029      00
 15030              	.LASF188:
 15031 0b94 6E756D43 		.ascii	"numCommands\000"
 15031      6F6D6D61 
 15031      6E647300 
 15032              	.LASF113:
 15033 0ba0 53543737 		.ascii	"ST7735_PWCTR1\000"
 15033      33355F50 
 15033      57435452 
 15033      3100
 15034              	.LASF114:
 15035 0bae 53543737 		.ascii	"ST7735_PWCTR2\000"
 15035      33355F50 
 15035      57435452 
 15035      3200
 15036              	.LASF116:
 15037 0bbc 53543737 		.ascii	"ST7735_PWCTR4\000"
 15037      33355F50 
 15037      57435452 
 15037      3400
 15038              	.LASF117:
 15039 0bca 53543737 		.ascii	"ST7735_PWCTR5\000"
 15039      33355F50 
 15039      57435452 
 15039      3500
 15040              	.LASF123:
 15041 0bd8 53543737 		.ascii	"ST7735_PWCTR6\000"
 15041      33355F50 
 15041      57435452 
 15041      3600
 15042              	.LASF194:
 15043 0be6 636F726E 		.ascii	"cornername\000"
 15043      65726E61 
 15043      6D6500
 15044              	.LASF54:
 15045 0bf1 78416476 		.ascii	"xAdvance\000"
 15045      616E6365 
 15045      00
 15046              	.LASF223:
 15047 0bfa 796F3136 		.ascii	"yo16\000"
 15047      00
 15048              	.LASF55:
 15049 0bff 784F6666 		.ascii	"xOffset\000"
 15049      73657400 
 15050              	.LASF195:
 15051 0c07 6464465F 		.ascii	"ddF_x\000"
 15051      7800
 15052              	.LASF196:
 15053 0c0d 6464465F 		.ascii	"ddF_y\000"
 15053      7900
 15054              	.LASF1:
 15055 0c13 7369676E 		.ascii	"signed char\000"
 15055      65642063 
 15055      68617200 
 15056              	.LASF101:
ARM GAS  C:\Users\MATEOC~1.QUE\AppData\Local\Temp\ccxtWYOp.s 			page 298


 15057 0c1f 53543737 		.ascii	"ST7735_CASET\000"
 15057      33355F43 
 15057      41534554 
 15057      00
 15058              	.LASF199:
 15059 0c2c 64656C74 		.ascii	"delta\000"
 15059      6100
 15060              	.LASF6:
 15061 0c32 73686F72 		.ascii	"short unsigned int\000"
 15061      7420756E 
 15061      7369676E 
 15061      65642069 
 15061      6E7400
 15062              	.LASF157:
 15063 0c45 6D617878 		.ascii	"maxx\000"
 15063      00
 15064              	.LASF158:
 15065 0c4a 6D617879 		.ascii	"maxy\000"
 15065      00
 15066              	.LASF10:
 15067 0c4f 646F7562 		.ascii	"double\000"
 15067      6C6500
 15068              	.LASF144:
 15069 0c56 5446545F 		.ascii	"TFT_CMD\000"
 15069      434D4400 
 15070              	.LASF235:
 15071 0c5e 726F7773 		.ascii	"rowstart\000"
 15071      74617274 
 15071      00
 15072              	.LASF170:
 15073 0c67 5446545F 		.ascii	"TFT_setRotation\000"
 15073      73657452 
 15073      6F746174 
 15073      696F6E00 
 15074              	.LASF97:
 15075 0c77 53543737 		.ascii	"ST7735_INVOFF\000"
 15075      33355F49 
 15075      4E564F46 
 15075      4600
 15076              	.LASF229:
 15077 0c85 5446545F 		.ascii	"TFT_getRotation\000"
 15077      67657452 
 15077      6F746174 
 15077      696F6E00 
 15078              	.LASF118:
 15079 0c95 53543737 		.ascii	"ST7735_VMCTR1\000"
 15079      33355F56 
 15079      4D435452 
 15079      3100
 15080              	.LASF160:
 15081 0ca3 5446545F 		.ascii	"TFT_SPI_WriteTxData\000"
 15081      5350495F 
 15081      57726974 
 15081      65547844 
 15081      61746100 
 15082              	.LASF222:
 15083 0cb7 786F3136 		.ascii	"xo16\000"
ARM GAS  C:\Users\MATEOC~1.QUE\AppData\Local\Temp\ccxtWYOp.s 			page 299


 15083      00
 15084              	.LASF100:
 15085 0cbc 53543737 		.ascii	"ST7735_DISPON\000"
 15085      33355F44 
 15085      4953504F 
 15085      4E00
 15086              	.LASF20:
 15087 0cca 52435F45 		.ascii	"RC_ERROR_RANGE\000"
 15087      52524F52 
 15087      5F52414E 
 15087      474500
 15088              		.ident	"GCC: (GNU Tools for ARM Embedded Processors) 5.4.1 20160609 (release) [ARM/embedded-5-bran
