ARM GAS  C:\Users\MATEOC~1.QUE\AppData\Local\Temp\ccxtWYOp.s 			page 1


   1              		.syntax unified
   2              		.cpu cortex-m3
   3              		.fpu softvfp
   4              		.eabi_attribute 20, 1
   5              		.eabi_attribute 21, 1
   6              		.eabi_attribute 23, 3
   7              		.eabi_attribute 24, 1
   8              		.eabi_attribute 25, 1
   9              		.eabi_attribute 26, 1
  10              		.eabi_attribute 30, 1
  11              		.eabi_attribute 34, 1
  12              		.eabi_attribute 18, 4
  13              		.thumb
  14              		.syntax unified
  15              		.file	"tft.c"
  16              		.text
  17              	.Ltext0:
  18              		.cfi_sections	.debug_frame
  19              		.section	.text.charBounds,"ax",%progbits
  20              		.align	2
  21              		.thumb
  22              		.thumb_func
  23              		.type	charBounds, %function
  24              	charBounds:
  25              	.LFB20:
  26              		.file 1 "source\\bsw\\tft\\tft.c"
   1:source\bsw\tft/tft.c **** /**
   2:source\bsw\tft/tft.c ****  * \file	TFT.c
   3:source\bsw\tft/tft.c ****  * \author	Limor Fried 	Adafruit Industries
   4:source\bsw\tft/tft.c ****  * \author	Thomas Barth 	Hochschule Darmstadt - thomas.barth@h-da.de
   5:source\bsw\tft/tft.c ****  * \date 	08.08.2017
   6:source\bsw\tft/tft.c ****  * \version	0.1
   7:source\bsw\tft/tft.c ****  *
   8:source\bsw\tft/tft.c ****  * \copyright Copyright ©2017
   9:source\bsw\tft/tft.c ****  * Department of electrical engineering and information technology, Hochschule Darmstadt - Universi
  10:source\bsw\tft/tft.c ****  * Permission to use, copy, modify, and distribute this software and its documentation for educatio
  11:source\bsw\tft/tft.c ****  * (unless permitted by h_da) and official h_da projects, is hereby granted for enrolled students o
  12:source\bsw\tft/tft.c ****  * this paragraph and the following paragraph appear in all copies, modifications, and distribution
  13:source\bsw\tft/tft.c ****  * Contact Prof.Dr.-Ing. Peter Fromm, peter.fromm@h-da.de, Birkenweg 8 64295 Darmstadt - GERMANY fo
  14:source\bsw\tft/tft.c ****  *
  15:source\bsw\tft/tft.c ****  * \warning This software is a PROTOTYPE version and is not designed or intended for use in product
  16:source\bsw\tft/tft.c ****  * The user represents and warrants that it will NOT use or redistribute the Software for such purp
  17:source\bsw\tft/tft.c ****  * This prototype is for research purposes only. This software is provided "AS IS," without a warra
  18:source\bsw\tft/tft.c ****  */
  19:source\bsw\tft/tft.c **** 
  20:source\bsw\tft/tft.c **** #include "TFT.h"
  21:source\bsw\tft/tft.c **** #include "ST7735.h"
  22:source\bsw\tft/tft.c **** #include "glcdfont.h"
  23:source\bsw\tft/tft.c **** #include "math_helper.h"
  24:source\bsw\tft/tft.c **** #include "logging.h"
  25:source\bsw\tft/tft.c **** 
  26:source\bsw\tft/tft.c **** //-------------------------------------[Definitions]
  27:source\bsw\tft/tft.c **** 
  28:source\bsw\tft/tft.c **** /** 
  29:source\bsw\tft/tft.c **** * \brief API glue for the SPI module
  30:source\bsw\tft/tft.c **** */
  31:source\bsw\tft/tft.c **** #define MODULE_SPI(x)       PPCAT(CFG_TFT_SPI_MODULE, x)
ARM GAS  C:\Users\MATEOC~1.QUE\AppData\Local\Temp\ccxtWYOp.s 			page 2


  32:source\bsw\tft/tft.c **** 
  33:source\bsw\tft/tft.c **** /** 
  34:source\bsw\tft/tft.c **** * \brief API glue for the backlight PWM module
  35:source\bsw\tft/tft.c **** */
  36:source\bsw\tft/tft.c **** #define MODULE_PWM(x)       PPCAT(CFG_TFT_LED_MODULE, x)
  37:source\bsw\tft/tft.c **** 
  38:source\bsw\tft/tft.c **** // API glue for the Pins
  39:source\bsw\tft/tft.c **** #define MODULE_DC(x)        PPCAT(CFG_TFT_DC_PIN, x)      
  40:source\bsw\tft/tft.c **** #define MODULE_RES(x)       PPCAT(CFG_TFT_RES_PIN, x)  
  41:source\bsw\tft/tft.c **** #define TFT_DC_LOW          MODULE_DC(Write)(0)     /**< \brief Macro to set the DC(A0) pin LOW*/
  42:source\bsw\tft/tft.c **** #define TFT_DC_HIGH         MODULE_DC(Write)(1)     /**< \brief Macro to set the DC(A0) pin HIGH*/
  43:source\bsw\tft/tft.c **** #define TFT_RES_LOW         MODULE_RES(Write)(0)    /**< \brief Macro to set the Reset pin LOW*/
  44:source\bsw\tft/tft.c **** #define TFT_RES_HIGH        MODULE_RES(Write)(1)    /**< \brief Macro to set the Reset pin HIGH*/
  45:source\bsw\tft/tft.c **** 
  46:source\bsw\tft/tft.c **** /** 
  47:source\bsw\tft/tft.c **** * \brief swap 2 int 16 values
  48:source\bsw\tft/tft.c **** */
  49:source\bsw\tft/tft.c **** #ifndef _swap_int16_t
  50:source\bsw\tft/tft.c **** #define _swap_int16_t(a, b) { int16_t t = a; a = b; b = t; }
  51:source\bsw\tft/tft.c **** #endif
  52:source\bsw\tft/tft.c **** 
  53:source\bsw\tft/tft.c **** // The code comes from an AVR. Those are macros to overcome that strange PROGMEM read stuff
  54:source\bsw\tft/tft.c **** #ifndef pgm_read_byte
  55:source\bsw\tft/tft.c ****  #define pgm_read_byte(addr) (*(const unsigned char *)(addr))
  56:source\bsw\tft/tft.c **** #endif
  57:source\bsw\tft/tft.c **** #ifndef pgm_read_word
  58:source\bsw\tft/tft.c ****  #define pgm_read_word(addr) (*(const unsigned short *)(addr))
  59:source\bsw\tft/tft.c **** #endif
  60:source\bsw\tft/tft.c **** #ifndef pgm_read_dword
  61:source\bsw\tft/tft.c ****  #define pgm_read_dword(addr) (*(const unsigned long *)(addr))
  62:source\bsw\tft/tft.c **** #endif
  63:source\bsw\tft/tft.c **** 
  64:source\bsw\tft/tft.c **** // Pointers are a peculiar case...typically 16-bit on AVR boards,
  65:source\bsw\tft/tft.c **** // 32 bits elsewhere.  Try to accommodate both...
  66:source\bsw\tft/tft.c **** #if !defined(__INT_MAX__) || (__INT_MAX__ > 0xFFFF)
  67:source\bsw\tft/tft.c ****  #define pgm_read_pointer(addr) ((void *)pgm_read_dword(addr))
  68:source\bsw\tft/tft.c **** #else
  69:source\bsw\tft/tft.c ****  #define pgm_read_pointer(addr) ((void *)pgm_read_word(addr))
  70:source\bsw\tft/tft.c **** #endif
  71:source\bsw\tft/tft.c **** 
  72:source\bsw\tft/tft.c **** #define TFT_write_cmd(x)            TFT_send(TFT_CMD,x)
  73:source\bsw\tft/tft.c **** #define TFT_write_data(x)           TFT_send(TFT_DATA,x)
  74:source\bsw\tft/tft.c **** #define TFT_write_stream(x)         TFT_send(TFT_STREAM,x)
  75:source\bsw\tft/tft.c **** 
  76:source\bsw\tft/tft.c **** //-------------------------------------[types]
  77:source\bsw\tft/tft.c **** /**
  78:source\bsw\tft/tft.c **** * \brief Data send to the TFT is either DATA or COMMAND data.
  79:source\bsw\tft/tft.c **** */
  80:source\bsw\tft/tft.c **** typedef enum{
  81:source\bsw\tft/tft.c ****     TFT_CMD,                        /**< Payload is command. */
  82:source\bsw\tft/tft.c ****     TFT_DATA,                       /**< Payload is data */
  83:source\bsw\tft/tft.c ****     TFT_STREAM                      /**< D/C has already been set */
  84:source\bsw\tft/tft.c **** }TFT_payload_t;
  85:source\bsw\tft/tft.c **** 
  86:source\bsw\tft/tft.c **** /**
  87:source\bsw\tft/tft.c **** * \brief Outgoing data to the tft
  88:source\bsw\tft/tft.c **** */
ARM GAS  C:\Users\MATEOC~1.QUE\AppData\Local\Temp\ccxtWYOp.s 			page 3


  89:source\bsw\tft/tft.c **** typedef struct{
  90:source\bsw\tft/tft.c ****     TFT_payload_t   DC;             /**< Determines if this is a a command (#TFT_CMD) or data (#TFT
  91:source\bsw\tft/tft.c ****     uint8_t         payload;
  92:source\bsw\tft/tft.c **** }TFT_data_t;
  93:source\bsw\tft/tft.c **** 
  94:source\bsw\tft/tft.c **** typedef struct {
  95:source\bsw\tft/tft.c ****     uint16_t    read;
  96:source\bsw\tft/tft.c ****     uint16_t    write;
  97:source\bsw\tft/tft.c ****     uint16_t    fill;
  98:source\bsw\tft/tft.c ****     TFT_data_t  buffer[CFG_TFT_RB_OUT_SZ];
  99:source\bsw\tft/tft.c **** }TFT_RB_out_t;
 100:source\bsw\tft/tft.c **** 
 101:source\bsw\tft/tft.c **** 
 102:source\bsw\tft/tft.c **** //-------------------------------------[local variables]
 103:source\bsw\tft/tft.c **** 
 104:source\bsw\tft/tft.c **** static const char* TAG="TFT";
 105:source\bsw\tft/tft.c **** 
 106:source\bsw\tft/tft.c **** static uint8_t  colstart;           /**< \brief Column (RAM) start*/
 107:source\bsw\tft/tft.c **** static uint8_t  rowstart;           /**< \brief Row (RAM) start*/
 108:source\bsw\tft/tft.c **** static uint8_t  xstart;             /**< \brief x position start*/
 109:source\bsw\tft/tft.c **** static uint8_t  ystart;             /**< \brief y position start*/
 110:source\bsw\tft/tft.c **** 
 111:source\bsw\tft/tft.c **** static uint8_t  textsize;           /**< \brief current text size*/
 112:source\bsw\tft/tft.c **** static uint8_t  rotation;           /**< \brief current orientation/rotation*/
 113:source\bsw\tft/tft.c **** 
 114:source\bsw\tft/tft.c **** static int16_t  _width;             /**< \brief Display width as modified by current rotation*/
 115:source\bsw\tft/tft.c **** static uint16_t _height;            /**< \brief Display heigth as modified by current rotation*/ 
 116:source\bsw\tft/tft.c **** static uint16_t cursor_x;           /**< \brief Cursor X position*/
 117:source\bsw\tft/tft.c **** static uint16_t cursor_y;           /**< \brief Cursor Y position*/
 118:source\bsw\tft/tft.c **** static TFT_color_t color;              /**< \brief Current foreground color*/
 119:source\bsw\tft/tft.c **** static TFT_color_t bgcolor;            /**< \brief Current background color*/
 120:source\bsw\tft/tft.c **** 
 121:source\bsw\tft/tft.c **** static boolean_t wrap;              /**< \brief If set, 'wrap' text at right edge of display*/ 
 122:source\bsw\tft/tft.c ****     
 123:source\bsw\tft/tft.c **** static GFXfont *gfxFont;            /**< \brief Current Font*/ 
 124:source\bsw\tft/tft.c **** 
 125:source\bsw\tft/tft.c **** static TFT_RB_out_t TFT_RB_out;     /**< \brief Ringbuffer for SPI communication*/
 126:source\bsw\tft/tft.c ****     
 127:source\bsw\tft/tft.c **** //-------------------------------------[local function prototypes]
 128:source\bsw\tft/tft.c **** 
 129:source\bsw\tft/tft.c **** static void setAddrWindow(uint8_t x0, uint8_t y0, uint8_t x1, uint8_t y1);
 130:source\bsw\tft/tft.c **** static void charBounds(char c, int16_t *x, int16_t *y,  int16_t *minx, int16_t *miny, int16_t *maxx
 131:source\bsw\tft/tft.c **** static void TFT_drawCircleHelper(int16_t x0, int16_t y0, int16_t r, uint8_t cornername, TFT_color_t
 132:source\bsw\tft/tft.c **** static void TFT_fillCircleHelper(int16_t x0, int16_t y0, int16_t r, uint8_t cornername, int16_t del
 133:source\bsw\tft/tft.c **** 
 134:source\bsw\tft/tft.c **** static RC_t TFT_send(TFT_payload_t type, uint8_t payload);
 135:source\bsw\tft/tft.c **** //-------------------------------------[Implementation]
 136:source\bsw\tft/tft.c **** 
 137:source\bsw\tft/tft.c **** //----------------- Ringbuffer
 138:source\bsw\tft/tft.c **** 
 139:source\bsw\tft/tft.c **** void __TFT_SPI_TX_ISR(void){
 140:source\bsw\tft/tft.c ****     
 141:source\bsw\tft/tft.c ****     //check if we have data waiting
 142:source\bsw\tft/tft.c ****     if(TFT_RB_out.fill==0)
 143:source\bsw\tft/tft.c ****         return;
 144:source\bsw\tft/tft.c ****     
 145:source\bsw\tft/tft.c ****     //get the next frame to be send
ARM GAS  C:\Users\MATEOC~1.QUE\AppData\Local\Temp\ccxtWYOp.s 			page 4


 146:source\bsw\tft/tft.c ****     TFT_data_t* p_next_frame=&TFT_RB_out.buffer[TFT_RB_out.read++];
 147:source\bsw\tft/tft.c ****     
 148:source\bsw\tft/tft.c ****     //adjust read index and fill level
 149:source\bsw\tft/tft.c ****     TFT_RB_out.read%=CFG_TFT_RB_OUT_SZ;
 150:source\bsw\tft/tft.c ****     TFT_RB_out.fill--;
 151:source\bsw\tft/tft.c ****     
 152:source\bsw\tft/tft.c ****     //check payload type
 153:source\bsw\tft/tft.c ****     switch(p_next_frame->DC){
 154:source\bsw\tft/tft.c ****         case TFT_CMD:
 155:source\bsw\tft/tft.c ****             TFT_DC_LOW;
 156:source\bsw\tft/tft.c ****             break;
 157:source\bsw\tft/tft.c ****         
 158:source\bsw\tft/tft.c ****         case TFT_DATA:
 159:source\bsw\tft/tft.c ****             TFT_DC_HIGH;
 160:source\bsw\tft/tft.c ****             break;
 161:source\bsw\tft/tft.c ****         default:
 162:source\bsw\tft/tft.c ****         break;
 163:source\bsw\tft/tft.c ****     }
 164:source\bsw\tft/tft.c **** 
 165:source\bsw\tft/tft.c ****     MODULE_SPI(WriteTxData)(p_next_frame->payload);    
 166:source\bsw\tft/tft.c **** }
 167:source\bsw\tft/tft.c **** 
 168:source\bsw\tft/tft.c **** RC_t TFT_send(TFT_payload_t type, uint8_t payload){
 169:source\bsw\tft/tft.c **** 
 170:source\bsw\tft/tft.c ****     //check if buffer is full
 171:source\bsw\tft/tft.c ****     if(TFT_RB_out.fill>=CFG_TFT_RB_OUT_SZ){
 172:source\bsw\tft/tft.c ****         //TODO: fire event or DET STOP
 173:source\bsw\tft/tft.c ****         LOG_E(TAG,"Buffer overflow");
 174:source\bsw\tft/tft.c ****         return RC_ERROR_BUFFER_FULL;
 175:source\bsw\tft/tft.c ****     }
 176:source\bsw\tft/tft.c ****     
 177:source\bsw\tft/tft.c ****     //add frame to buffer
 178:source\bsw\tft/tft.c ****     TFT_RB_out.buffer[TFT_RB_out.write++]=(TFT_data_t){type,payload};
 179:source\bsw\tft/tft.c **** 
 180:source\bsw\tft/tft.c ****     //adjust write index and fill level
 181:source\bsw\tft/tft.c ****     TFT_RB_out.write%=CFG_TFT_RB_OUT_SZ;
 182:source\bsw\tft/tft.c ****     TFT_RB_out.fill++;
 183:source\bsw\tft/tft.c ****     
 184:source\bsw\tft/tft.c ****     //check if this is the only entry in the ringbuffer and trigger the ISR
 185:source\bsw\tft/tft.c ****     if(TFT_RB_out.fill==1)
 186:source\bsw\tft/tft.c ****         __TFT_SPI_TX_ISR();
 187:source\bsw\tft/tft.c **** 
 188:source\bsw\tft/tft.c ****     return RC_SUCCESS;
 189:source\bsw\tft/tft.c **** }
 190:source\bsw\tft/tft.c **** 
 191:source\bsw\tft/tft.c **** 
 192:source\bsw\tft/tft.c **** //----------------- CTRL
 193:source\bsw\tft/tft.c **** void TFT_init(){
 194:source\bsw\tft/tft.c ****     
 195:source\bsw\tft/tft.c ****     //init local vars
 196:source\bsw\tft/tft.c ****     _width    = CFG_TFT_WIDTH;
 197:source\bsw\tft/tft.c ****     _height   = CFG_TFT_HEIGHT;
 198:source\bsw\tft/tft.c ****     rotation=0;
 199:source\bsw\tft/tft.c ****     cursor_x=0;
 200:source\bsw\tft/tft.c ****     cursor_y=0;
 201:source\bsw\tft/tft.c ****     textsize=1;
 202:source\bsw\tft/tft.c ****     color=CFG_TFT_COLOR_TEXT;
ARM GAS  C:\Users\MATEOC~1.QUE\AppData\Local\Temp\ccxtWYOp.s 			page 5


 203:source\bsw\tft/tft.c ****     bgcolor=CFG_TFT_COLOR_TEXTBG;
 204:source\bsw\tft/tft.c ****     wrap=TRUE;
 205:source\bsw\tft/tft.c ****     gfxFont=NULL;
 206:source\bsw\tft/tft.c ****     ystart = xstart = colstart  = rowstart = 0;
 207:source\bsw\tft/tft.c ****     
 208:source\bsw\tft/tft.c ****     //init ringbuffer
 209:source\bsw\tft/tft.c ****     TFT_RB_out.read=0;
 210:source\bsw\tft/tft.c ****     TFT_RB_out.write=0;
 211:source\bsw\tft/tft.c ****     TFT_RB_out.fill=0;
 212:source\bsw\tft/tft.c ****     
 213:source\bsw\tft/tft.c ****     //Start SPI Interface
 214:source\bsw\tft/tft.c ****     MODULE_SPI(Start)();
 215:source\bsw\tft/tft.c ****     
 216:source\bsw\tft/tft.c ****     //Perform Hardware reset
 217:source\bsw\tft/tft.c ****     TFT_RES_HIGH;
 218:source\bsw\tft/tft.c ****     CFG_TFT_DELAY_MS(100);
 219:source\bsw\tft/tft.c ****     TFT_RES_LOW;
 220:source\bsw\tft/tft.c **** 	CFG_TFT_DELAY_MS(100);
 221:source\bsw\tft/tft.c **** 	TFT_RES_HIGH;
 222:source\bsw\tft/tft.c **** 	CFG_TFT_DELAY_MS(20);
 223:source\bsw\tft/tft.c ****     
 224:source\bsw\tft/tft.c ****     //Software reset
 225:source\bsw\tft/tft.c ****     TFT_write_cmd(ST7735_SWRESET);
 226:source\bsw\tft/tft.c ****     CFG_TFT_DELAY_MS(50);
 227:source\bsw\tft/tft.c ****     
 228:source\bsw\tft/tft.c ****     //sleep out
 229:source\bsw\tft/tft.c ****     TFT_write_cmd(ST7735_SLPOUT);    //Sleep out
 230:source\bsw\tft/tft.c **** 	CFG_TFT_DELAY_MS(120);              //Delay 120ms
 231:source\bsw\tft/tft.c ****     
 232:source\bsw\tft/tft.c ****     //send init commands
 233:source\bsw\tft/tft.c ****     uint8_t* addr=(uint8_t*)SST35S_init_seq;    
 234:source\bsw\tft/tft.c ****     uint8_t  numCommands, numArgs;
 235:source\bsw\tft/tft.c ****     numCommands = *(addr++);        // Number of commands to follow
 236:source\bsw\tft/tft.c ****     while(numCommands--) {          // For each command...
 237:source\bsw\tft/tft.c ****         TFT_write_cmd(*(addr++));    // Read, issue command
 238:source\bsw\tft/tft.c ****         numArgs  = *(addr++);       // Number of args to follow
 239:source\bsw\tft/tft.c ****         while(numArgs--) {          // For each argument...
 240:source\bsw\tft/tft.c ****           TFT_write_data(*(addr++));     // Read, issue argument
 241:source\bsw\tft/tft.c ****         }
 242:source\bsw\tft/tft.c ****     }
 243:source\bsw\tft/tft.c ****     
 244:source\bsw\tft/tft.c ****     //set roation
 245:source\bsw\tft/tft.c ****     TFT_setRotation(CFG_TFT_ORIENTATION);
 246:source\bsw\tft/tft.c ****     
 247:source\bsw\tft/tft.c ****     //init RAM
 248:source\bsw\tft/tft.c ****     TFT_fillScreen(BLACK);
 249:source\bsw\tft/tft.c ****     
 250:source\bsw\tft/tft.c ****     //activate backlight
 251:source\bsw\tft/tft.c ****     MODULE_PWM(Start)();
 252:source\bsw\tft/tft.c ****     MODULE_PWM(WriteCompare)(CFG_TFT_BACKLIGHT);
 253:source\bsw\tft/tft.c **** }
 254:source\bsw\tft/tft.c **** 
 255:source\bsw\tft/tft.c **** void TFT_setBacklight(uint8_t b){
 256:source\bsw\tft/tft.c ****     if(b>100)
 257:source\bsw\tft/tft.c ****         b=100;
 258:source\bsw\tft/tft.c ****     MODULE_PWM(WriteCompare)(b);
 259:source\bsw\tft/tft.c **** }
ARM GAS  C:\Users\MATEOC~1.QUE\AppData\Local\Temp\ccxtWYOp.s 			page 6


 260:source\bsw\tft/tft.c **** 
 261:source\bsw\tft/tft.c **** uint8_t TFT_getBacklight(){
 262:source\bsw\tft/tft.c ****     return MODULE_PWM(ReadCompare)();
 263:source\bsw\tft/tft.c **** };
 264:source\bsw\tft/tft.c **** 
 265:source\bsw\tft/tft.c **** void setAddrWindow(uint8_t x0, uint8_t y0, uint8_t x1, uint8_t y1) {
 266:source\bsw\tft/tft.c **** 
 267:source\bsw\tft/tft.c ****     TFT_write_cmd(ST7735_CASET);   // Column addr set
 268:source\bsw\tft/tft.c ****     TFT_write_data(0x00);
 269:source\bsw\tft/tft.c ****     TFT_write_data(x0+xstart);         // XSTART 
 270:source\bsw\tft/tft.c ****     TFT_write_data(0x00);
 271:source\bsw\tft/tft.c ****     TFT_write_data(x1+xstart);         // XEND
 272:source\bsw\tft/tft.c **** 
 273:source\bsw\tft/tft.c ****     TFT_write_cmd(ST7735_RASET);   // Row addr set
 274:source\bsw\tft/tft.c ****     TFT_write_data(0x00);
 275:source\bsw\tft/tft.c ****     TFT_write_data(y0+ystart);         // YSTART
 276:source\bsw\tft/tft.c ****     TFT_write_data(0x00);
 277:source\bsw\tft/tft.c ****     TFT_write_data(y1+ystart);         // YEND
 278:source\bsw\tft/tft.c **** 
 279:source\bsw\tft/tft.c ****     TFT_write_cmd(ST7735_RAMWR);   // write to RAM
 280:source\bsw\tft/tft.c **** }
 281:source\bsw\tft/tft.c **** 
 282:source\bsw\tft/tft.c **** void TFT_setRotation(TFT_rotation_t m) {
 283:source\bsw\tft/tft.c **** 
 284:source\bsw\tft/tft.c ****     //Memory data access control entry
 285:source\bsw\tft/tft.c ****     TFT_write_cmd(ST7735_MADCTL);
 286:source\bsw\tft/tft.c ****     rotation = m % 4; // can't be higher than 3
 287:source\bsw\tft/tft.c ****     switch (rotation) {
 288:source\bsw\tft/tft.c ****         case 0:
 289:source\bsw\tft/tft.c ****             TFT_write_data(ST7735_MADCTL_MX | ST7735_MADCTL_MY | ST7735_MADCTL_RGB);
 290:source\bsw\tft/tft.c ****             _height = CFG_TFT_HEIGHT;
 291:source\bsw\tft/tft.c ****             _width  = CFG_TFT_WIDTH;
 292:source\bsw\tft/tft.c ****             xstart = colstart;
 293:source\bsw\tft/tft.c ****             ystart = rowstart;
 294:source\bsw\tft/tft.c ****             break;
 295:source\bsw\tft/tft.c ****         case 1:
 296:source\bsw\tft/tft.c ****             TFT_write_data(ST7735_MADCTL_MY | ST7735_MADCTL_MV | ST7735_MADCTL_RGB);
 297:source\bsw\tft/tft.c ****             _width = CFG_TFT_HEIGHT;
 298:source\bsw\tft/tft.c ****             _height = CFG_TFT_WIDTH;
 299:source\bsw\tft/tft.c ****             ystart = colstart;
 300:source\bsw\tft/tft.c ****             xstart = rowstart;
 301:source\bsw\tft/tft.c ****             break;
 302:source\bsw\tft/tft.c ****         case 2:
 303:source\bsw\tft/tft.c ****             TFT_write_data(ST7735_MADCTL_BGR);
 304:source\bsw\tft/tft.c ****             _height = CFG_TFT_HEIGHT;
 305:source\bsw\tft/tft.c ****             _width  = CFG_TFT_WIDTH;
 306:source\bsw\tft/tft.c ****             xstart = colstart;
 307:source\bsw\tft/tft.c ****             ystart = rowstart;
 308:source\bsw\tft/tft.c ****             break;
 309:source\bsw\tft/tft.c ****         case 3:
 310:source\bsw\tft/tft.c ****             TFT_write_data(ST7735_MADCTL_MX | ST7735_MADCTL_MV | ST7735_MADCTL_RGB);
 311:source\bsw\tft/tft.c ****             _width = CFG_TFT_HEIGHT;
 312:source\bsw\tft/tft.c ****             _height = CFG_TFT_WIDTH;
 313:source\bsw\tft/tft.c ****             ystart = colstart;
 314:source\bsw\tft/tft.c ****             xstart = rowstart;
 315:source\bsw\tft/tft.c ****             break;
 316:source\bsw\tft/tft.c ****     }
ARM GAS  C:\Users\MATEOC~1.QUE\AppData\Local\Temp\ccxtWYOp.s 			page 7


 317:source\bsw\tft/tft.c **** }
 318:source\bsw\tft/tft.c **** 
 319:source\bsw\tft/tft.c **** //----------------- USR CTRL
 320:source\bsw\tft/tft.c **** 
 321:source\bsw\tft/tft.c **** void TFT_setCursor(int16_t x, int16_t y) {
 322:source\bsw\tft/tft.c ****     cursor_x = x;
 323:source\bsw\tft/tft.c ****     cursor_y = y;
 324:source\bsw\tft/tft.c **** }
 325:source\bsw\tft/tft.c **** 
 326:source\bsw\tft/tft.c **** void TFT_setTextColor(uint16_t c){
 327:source\bsw\tft/tft.c ****     color   = c;
 328:source\bsw\tft/tft.c **** }
 329:source\bsw\tft/tft.c **** 
 330:source\bsw\tft/tft.c **** void TFT_setcolor(uint16_t c) {
 331:source\bsw\tft/tft.c ****     // For 'transparent' background, we'll set the bg
 332:source\bsw\tft/tft.c ****     // to the same as fg instead of using a flag
 333:source\bsw\tft/tft.c ****     color = bgcolor = c;
 334:source\bsw\tft/tft.c **** }
 335:source\bsw\tft/tft.c **** 
 336:source\bsw\tft/tft.c **** void TFT_setColors(uint16_t c, uint16_t b) {
 337:source\bsw\tft/tft.c ****     color   = c;
 338:source\bsw\tft/tft.c ****     bgcolor = b;
 339:source\bsw\tft/tft.c **** }
 340:source\bsw\tft/tft.c **** 
 341:source\bsw\tft/tft.c **** 
 342:source\bsw\tft/tft.c **** TFT_color_t TFT_getFGcolor(void){return color;};
 343:source\bsw\tft/tft.c **** 
 344:source\bsw\tft/tft.c **** TFT_color_t TFT_getBGcolor(void){return bgcolor;};
 345:source\bsw\tft/tft.c **** 
 346:source\bsw\tft/tft.c **** 
 347:source\bsw\tft/tft.c **** void TFT_setTextWrap(boolean_t w) {
 348:source\bsw\tft/tft.c ****     wrap = w;
 349:source\bsw\tft/tft.c **** }
 350:source\bsw\tft/tft.c **** 
 351:source\bsw\tft/tft.c **** void TFT_setTextSize(uint8_t s) {
 352:source\bsw\tft/tft.c ****     textsize = (s > 0) ? s : 1;
 353:source\bsw\tft/tft.c **** }
 354:source\bsw\tft/tft.c **** 
 355:source\bsw\tft/tft.c **** void TFT_setFont(const GFXfont *f) {
 356:source\bsw\tft/tft.c ****     if(f) {            // Font struct pointer passed in?
 357:source\bsw\tft/tft.c ****         if(!gfxFont) { // And no current font struct?
 358:source\bsw\tft/tft.c ****             // Switching from classic to new font behavior.
 359:source\bsw\tft/tft.c ****             // Move cursor pos down 6 pixels so it's on baseline.
 360:source\bsw\tft/tft.c ****             cursor_y += 6;
 361:source\bsw\tft/tft.c ****         }
 362:source\bsw\tft/tft.c ****     } else if(gfxFont) { // NULL passed.  Current font struct defined?
 363:source\bsw\tft/tft.c ****         // Switching from new to classic font behavior.
 364:source\bsw\tft/tft.c ****         // Move cursor pos up 6 pixels so it's at top-left of char.
 365:source\bsw\tft/tft.c ****         cursor_y -= 6;
 366:source\bsw\tft/tft.c ****     }
 367:source\bsw\tft/tft.c ****     gfxFont = (GFXfont *)f;
 368:source\bsw\tft/tft.c **** }
 369:source\bsw\tft/tft.c **** 
 370:source\bsw\tft/tft.c **** // Pass string and a cursor position, returns UL corner and W,H.
 371:source\bsw\tft/tft.c **** void TFT_getTextBounds(char *str, int16_t x, int16_t y, int16_t *x1, int16_t *y1, uint16_t *w, uint
 372:source\bsw\tft/tft.c ****     uint8_t c; // Current character
 373:source\bsw\tft/tft.c **** 
ARM GAS  C:\Users\MATEOC~1.QUE\AppData\Local\Temp\ccxtWYOp.s 			page 8


 374:source\bsw\tft/tft.c ****     *x1 = x;
 375:source\bsw\tft/tft.c ****     *y1 = y;
 376:source\bsw\tft/tft.c ****     *w  = *h = 0;
 377:source\bsw\tft/tft.c **** 
 378:source\bsw\tft/tft.c ****     int16_t minx = _width, miny = _height, maxx = -1, maxy = -1;
 379:source\bsw\tft/tft.c **** 
 380:source\bsw\tft/tft.c ****     while((c = *str++))
 381:source\bsw\tft/tft.c ****         charBounds(c, &x, &y, &minx, &miny, &maxx, &maxy);
 382:source\bsw\tft/tft.c **** 
 383:source\bsw\tft/tft.c ****     if(maxx >= minx) {
 384:source\bsw\tft/tft.c ****         *x1 = minx;
 385:source\bsw\tft/tft.c ****         *w  = maxx - minx + 1;
 386:source\bsw\tft/tft.c ****     }
 387:source\bsw\tft/tft.c ****     if(maxy >= miny) {
 388:source\bsw\tft/tft.c ****         *y1 = miny;
 389:source\bsw\tft/tft.c ****         *h  = maxy - miny + 1;
 390:source\bsw\tft/tft.c ****     }
 391:source\bsw\tft/tft.c **** }
 392:source\bsw\tft/tft.c **** 
 393:source\bsw\tft/tft.c **** void charBounds(char c, int16_t *x, int16_t *y,  int16_t *minx, int16_t *miny, int16_t *maxx, int16
  27              		.loc 1 393 0
  28              		.cfi_startproc
  29              		@ args = 12, pretend = 0, frame = 0
  30              		@ frame_needed = 0, uses_anonymous_args = 0
  31              	.LVL0:
  32 0000 2DE9F047 		push	{r4, r5, r6, r7, r8, r9, r10, lr}
  33              		.cfi_def_cfa_offset 32
  34              		.cfi_offset 4, -32
  35              		.cfi_offset 5, -28
  36              		.cfi_offset 6, -24
  37              		.cfi_offset 7, -20
  38              		.cfi_offset 8, -16
  39              		.cfi_offset 9, -12
  40              		.cfi_offset 10, -8
  41              		.cfi_offset 14, -4
 394:source\bsw\tft/tft.c **** 
 395:source\bsw\tft/tft.c ****     if(gfxFont) {
  42              		.loc 1 395 0
  43 0004 6C4C     		ldr	r4, .L17
  44 0006 2468     		ldr	r4, [r4]
  45 0008 002C     		cmp	r4, #0
  46 000a 7DD0     		beq	.L2
 396:source\bsw\tft/tft.c **** 
 397:source\bsw\tft/tft.c ****         if(c == '\n') { // Newline?
  47              		.loc 1 397 0
  48 000c 0A28     		cmp	r0, #10
  49 000e 0AD1     		bne	.L3
 398:source\bsw\tft/tft.c ****             *x  = 0;    // Reset x to zero, advance y by one line
  50              		.loc 1 398 0
  51 0010 0023     		movs	r3, #0
  52              	.LVL1:
  53 0012 0B80     		strh	r3, [r1]	@ movhi
 399:source\bsw\tft/tft.c ****             *y += textsize * (uint8_t)pgm_read_byte(&gfxFont->yAdvance);
  54              		.loc 1 399 0
  55 0014 A17A     		ldrb	r1, [r4, #10]	@ zero_extendqisi2
  56              	.LVL2:
  57 0016 684B     		ldr	r3, .L17
ARM GAS  C:\Users\MATEOC~1.QUE\AppData\Local\Temp\ccxtWYOp.s 			page 9


  58 0018 1879     		ldrb	r0, [r3, #4]	@ zero_extendqisi2
  59              	.LVL3:
  60 001a 1388     		ldrh	r3, [r2]
  61 001c 00FB0133 		mla	r3, r0, r1, r3
  62 0020 1380     		strh	r3, [r2]	@ movhi
  63 0022 BDE8F087 		pop	{r4, r5, r6, r7, r8, r9, r10, pc}
  64              	.LVL4:
  65              	.L3:
 400:source\bsw\tft/tft.c ****         } else if(c != '\r') { // Not a carriage return; is normal char
  66              		.loc 1 400 0
  67 0026 0D28     		cmp	r0, #13
  68 0028 00F0C380 		beq	.L1
  69              	.LBB2:
 401:source\bsw\tft/tft.c ****             uint8_t first = pgm_read_byte(&gfxFont->first),
  70              		.loc 1 401 0
  71 002c 257A     		ldrb	r5, [r4, #8]	@ zero_extendqisi2
  72              	.LVL5:
 402:source\bsw\tft/tft.c ****                     last  = pgm_read_byte(&gfxFont->last);
  73              		.loc 1 402 0
  74 002e 667A     		ldrb	r6, [r4, #9]	@ zero_extendqisi2
  75              	.LVL6:
 403:source\bsw\tft/tft.c ****             if((c >= first) && (c <= last)) { // Char present in this font?
  76              		.loc 1 403 0
  77 0030 A842     		cmp	r0, r5
  78 0032 C0F0BE80 		bcc	.L1
  79              		.loc 1 403 0 is_stmt 0 discriminator 1
  80 0036 B042     		cmp	r0, r6
  81 0038 00F2BB80 		bhi	.L1
  82              	.LBB3:
 404:source\bsw\tft/tft.c ****                 GFXglyph *glyph = &(((GFXglyph *)pgm_read_pointer(
 405:source\bsw\tft/tft.c ****                   &gfxFont->glyph))[c - first]);
  83              		.loc 1 405 0 is_stmt 1
  84 003c 401B     		subs	r0, r0, r5
  85              	.LVL7:
  86 003e 6568     		ldr	r5, [r4, #4]
  87              	.LVL8:
  88 0040 05EBC000 		add	r0, r5, r0, lsl #3
  89              	.LVL9:
 406:source\bsw\tft/tft.c ****                 uint8_t gw = pgm_read_byte(&glyph->width),
  90              		.loc 1 406 0
  91 0044 8578     		ldrb	r5, [r0, #2]	@ zero_extendqisi2
  92              	.LVL10:
 407:source\bsw\tft/tft.c ****                         gh = pgm_read_byte(&glyph->height),
  93              		.loc 1 407 0
  94 0046 C678     		ldrb	r6, [r0, #3]	@ zero_extendqisi2
  95              	.LVL11:
 408:source\bsw\tft/tft.c ****                         xa = pgm_read_byte(&glyph->xAdvance);
  96              		.loc 1 408 0
  97 0048 90F804E0 		ldrb	lr, [r0, #4]	@ zero_extendqisi2
  98              	.LVL12:
 409:source\bsw\tft/tft.c ****                 int8_t  xo = pgm_read_byte(&glyph->xOffset),
  99              		.loc 1 409 0
 100 004c 90F90570 		ldrsb	r7, [r0, #5]
 101              	.LVL13:
 410:source\bsw\tft/tft.c ****                         yo = pgm_read_byte(&glyph->yOffset);
 102              		.loc 1 410 0
 103 0050 90F90600 		ldrsb	r0, [r0, #6]
ARM GAS  C:\Users\MATEOC~1.QUE\AppData\Local\Temp\ccxtWYOp.s 			page 10


 104              	.LVL14:
 411:source\bsw\tft/tft.c ****                 if(wrap && ((*x+(((int16_t)xo+gw)*textsize)) > _width)) {
 105              		.loc 1 411 0
 106 0054 DFF860C1 		ldr	ip, .L17
 107 0058 9CF805C0 		ldrb	ip, [ip, #5]	@ zero_extendqisi2
 108 005c BCF1000F 		cmp	ip, #0
 109 0060 18D0     		beq	.L5
 110              		.loc 1 411 0 is_stmt 0 discriminator 1
 111 0062 B1F900A0 		ldrsh	r10, [r1]
 112 0066 07EB050C 		add	ip, r7, r5
 113 006a DFF84C81 		ldr	r8, .L17
 114 006e 98F80490 		ldrb	r9, [r8, #4]	@ zero_extendqisi2
 115 0072 0CFB09AC 		mla	ip, ip, r9, r10
 116 0076 B8F90680 		ldrsh	r8, [r8, #6]
 117 007a C445     		cmp	ip, r8
 118 007c 0ADD     		ble	.L5
 412:source\bsw\tft/tft.c ****                     *x  = 0; // Reset x to zero, advance y by one line
 119              		.loc 1 412 0 is_stmt 1
 120 007e 4FF0000C 		mov	ip, #0
 121 0082 A1F800C0 		strh	ip, [r1]	@ movhi
 122              	.LVL15:
 413:source\bsw\tft/tft.c ****                     *y += textsize * (uint8_t)pgm_read_byte(&gfxFont->yAdvance);
 123              		.loc 1 413 0
 124 0086 A47A     		ldrb	r4, [r4, #10]	@ zero_extendqisi2
 125 0088 B2F800C0 		ldrh	ip, [r2]
 126 008c 09FB04C9 		mla	r9, r9, r4, ip
 127 0090 A2F80090 		strh	r9, [r2]	@ movhi
 128              	.L5:
 129              	.LVL16:
 414:source\bsw\tft/tft.c ****                 }
 415:source\bsw\tft/tft.c ****                 int16_t ts = (int16_t)textsize,
 416:source\bsw\tft/tft.c ****                         x1 = *x + xo * ts,
 130              		.loc 1 416 0
 131 0094 B1F900C0 		ldrsh	ip, [r1]
 132 0098 474C     		ldr	r4, .L17
 133 009a 2479     		ldrb	r4, [r4, #4]	@ zero_extendqisi2
 134 009c 07FB04C7 		mla	r7, r7, r4, ip
 135              	.LVL17:
 136 00a0 BFB2     		uxth	r7, r7
 137 00a2 0FFA87FC 		sxth	ip, r7
 138              	.LVL18:
 417:source\bsw\tft/tft.c ****                         y1 = *y + yo * ts,
 139              		.loc 1 417 0
 140 00a6 B2F90020 		ldrsh	r2, [r2]
 141              	.LVL19:
 142 00aa 00FB0420 		mla	r0, r0, r4, r2
 143              	.LVL20:
 144 00ae 80B2     		uxth	r0, r0
 145 00b0 0FFA80F8 		sxth	r8, r0
 146              	.LVL21:
 418:source\bsw\tft/tft.c ****                         x2 = x1 + gw * ts - 1,
 147              		.loc 1 418 0
 148 00b4 05FB0472 		mla	r2, r5, r4, r7
 149 00b8 013A     		subs	r2, r2, #1
 150 00ba 12B2     		sxth	r2, r2
 151              	.LVL22:
 419:source\bsw\tft/tft.c ****                         y2 = y1 + gh * ts - 1;
ARM GAS  C:\Users\MATEOC~1.QUE\AppData\Local\Temp\ccxtWYOp.s 			page 11


 152              		.loc 1 419 0
 153 00bc 06FB0400 		mla	r0, r6, r4, r0
 154 00c0 0138     		subs	r0, r0, #1
 155 00c2 00B2     		sxth	r0, r0
 156              	.LVL23:
 420:source\bsw\tft/tft.c ****                 if(x1 < *minx) *minx = x1;
 157              		.loc 1 420 0
 158 00c4 B3F90050 		ldrsh	r5, [r3]
 159              	.LVL24:
 160 00c8 AC45     		cmp	ip, r5
 161 00ca 01DA     		bge	.L6
 162              		.loc 1 420 0 is_stmt 0 discriminator 1
 163 00cc A3F800C0 		strh	ip, [r3]	@ movhi
 164              	.L6:
 421:source\bsw\tft/tft.c ****                 if(y1 < *miny) *miny = y1;
 165              		.loc 1 421 0 is_stmt 1
 166 00d0 089B     		ldr	r3, [sp, #32]
 167              	.LVL25:
 168 00d2 B3F90030 		ldrsh	r3, [r3]
 169 00d6 9845     		cmp	r8, r3
 170 00d8 02DA     		bge	.L7
 171              		.loc 1 421 0 is_stmt 0 discriminator 1
 172 00da 089B     		ldr	r3, [sp, #32]
 173 00dc A3F80080 		strh	r8, [r3]	@ movhi
 174              	.L7:
 422:source\bsw\tft/tft.c ****                 if(x2 > *maxx) *maxx = x2;
 175              		.loc 1 422 0 is_stmt 1
 176 00e0 099B     		ldr	r3, [sp, #36]
 177 00e2 B3F90030 		ldrsh	r3, [r3]
 178 00e6 9A42     		cmp	r2, r3
 179 00e8 01DD     		ble	.L8
 180              		.loc 1 422 0 is_stmt 0 discriminator 1
 181 00ea 099B     		ldr	r3, [sp, #36]
 182 00ec 1A80     		strh	r2, [r3]	@ movhi
 183              	.L8:
 423:source\bsw\tft/tft.c ****                 if(y2 > *maxy) *maxy = y2;
 184              		.loc 1 423 0 is_stmt 1
 185 00ee 0A9B     		ldr	r3, [sp, #40]
 186 00f0 B3F90030 		ldrsh	r3, [r3]
 187 00f4 9842     		cmp	r0, r3
 188 00f6 01DD     		ble	.L9
 189              		.loc 1 423 0 is_stmt 0 discriminator 1
 190 00f8 0A9B     		ldr	r3, [sp, #40]
 191 00fa 1880     		strh	r0, [r3]	@ movhi
 192              	.L9:
 424:source\bsw\tft/tft.c ****                 *x += xa * ts;
 193              		.loc 1 424 0 is_stmt 1
 194 00fc 0B88     		ldrh	r3, [r1]
 195 00fe 0EFB0434 		mla	r4, lr, r4, r3
 196 0102 0C80     		strh	r4, [r1]	@ movhi
 197 0104 BDE8F087 		pop	{r4, r5, r6, r7, r8, r9, r10, pc}
 198              	.LVL26:
 199              	.L2:
 200              	.LBE3:
 201              	.LBE2:
 425:source\bsw\tft/tft.c ****             }
 426:source\bsw\tft/tft.c ****         }
ARM GAS  C:\Users\MATEOC~1.QUE\AppData\Local\Temp\ccxtWYOp.s 			page 12


 427:source\bsw\tft/tft.c **** 
 428:source\bsw\tft/tft.c ****     } else { // Default font
 429:source\bsw\tft/tft.c **** 
 430:source\bsw\tft/tft.c ****         if(c == '\n') {                     // Newline?
 202              		.loc 1 430 0
 203 0108 0A28     		cmp	r0, #10
 204 010a 09D1     		bne	.L10
 431:source\bsw\tft/tft.c ****             *x  = 0;                        // Reset x to zero,
 205              		.loc 1 431 0
 206 010c 0023     		movs	r3, #0
 207              	.LVL27:
 208 010e 0B80     		strh	r3, [r1]	@ movhi
 432:source\bsw\tft/tft.c ****             *y += textsize * 8;             // advance y one line
 209              		.loc 1 432 0
 210 0110 294B     		ldr	r3, .L17
 211 0112 1979     		ldrb	r1, [r3, #4]	@ zero_extendqisi2
 212              	.LVL28:
 213 0114 1388     		ldrh	r3, [r2]
 214 0116 03EBC103 		add	r3, r3, r1, lsl #3
 215 011a 1380     		strh	r3, [r2]	@ movhi
 216 011c BDE8F087 		pop	{r4, r5, r6, r7, r8, r9, r10, pc}
 217              	.LVL29:
 218              	.L10:
 433:source\bsw\tft/tft.c ****             // min/max x/y unchaged -- that waits for next 'normal' character
 434:source\bsw\tft/tft.c ****         } else if(c != '\r') {  // Normal char; ignore carriage returns
 219              		.loc 1 434 0
 220 0120 0D28     		cmp	r0, #13
 221 0122 46D0     		beq	.L1
 222              	.LBB4:
 435:source\bsw\tft/tft.c ****             if(wrap && ((*x + textsize * 6) > _width)) { // Off right?
 223              		.loc 1 435 0
 224 0124 2448     		ldr	r0, .L17
 225              	.LVL30:
 226 0126 4079     		ldrb	r0, [r0, #5]	@ zero_extendqisi2
 227 0128 88B1     		cbz	r0, .L11
 228              		.loc 1 435 0 is_stmt 0 discriminator 1
 229 012a B1F90070 		ldrsh	r7, [r1]
 230 012e 224D     		ldr	r5, .L17
 231 0130 2C79     		ldrb	r4, [r5, #4]	@ zero_extendqisi2
 232 0132 04EB4406 		add	r6, r4, r4, lsl #1
 233 0136 7000     		lsls	r0, r6, #1
 234 0138 3844     		add	r0, r0, r7
 235 013a B5F90650 		ldrsh	r5, [r5, #6]
 236 013e A842     		cmp	r0, r5
 237 0140 05DD     		ble	.L11
 436:source\bsw\tft/tft.c ****                 *x  = 0;                    // Reset x to zero,
 238              		.loc 1 436 0 is_stmt 1
 239 0142 0020     		movs	r0, #0
 240 0144 0880     		strh	r0, [r1]	@ movhi
 437:source\bsw\tft/tft.c ****                 *y += textsize * 8;         // advance y one line
 241              		.loc 1 437 0
 242 0146 1088     		ldrh	r0, [r2]
 243 0148 00EBC404 		add	r4, r0, r4, lsl #3
 244 014c 1480     		strh	r4, [r2]	@ movhi
 245              	.L11:
 438:source\bsw\tft/tft.c ****             }
 439:source\bsw\tft/tft.c ****             int x2 = *x + textsize * 6 - 1, // Lower-right pixel of char
ARM GAS  C:\Users\MATEOC~1.QUE\AppData\Local\Temp\ccxtWYOp.s 			page 13


 246              		.loc 1 439 0
 247 014e B1F90060 		ldrsh	r6, [r1]
 248 0152 1948     		ldr	r0, .L17
 249 0154 0079     		ldrb	r0, [r0, #4]	@ zero_extendqisi2
 250 0156 00EB4005 		add	r5, r0, r0, lsl #1
 251 015a 6C00     		lsls	r4, r5, #1
 252 015c 3444     		add	r4, r4, r6
 253 015e 013C     		subs	r4, r4, #1
 254              	.LVL31:
 440:source\bsw\tft/tft.c ****                 y2 = *y + textsize * 8 - 1;
 255              		.loc 1 440 0
 256 0160 B2F90050 		ldrsh	r5, [r2]
 257 0164 05EBC005 		add	r5, r5, r0, lsl #3
 258 0168 013D     		subs	r5, r5, #1
 259              	.LVL32:
 441:source\bsw\tft/tft.c ****             if(x2 > *maxx) *maxx = x2;      // Track max x, y
 260              		.loc 1 441 0
 261 016a 099E     		ldr	r6, [sp, #36]
 262 016c B6F90060 		ldrsh	r6, [r6]
 263 0170 B442     		cmp	r4, r6
 264 0172 01DD     		ble	.L12
 265              		.loc 1 441 0 is_stmt 0 discriminator 1
 266 0174 099E     		ldr	r6, [sp, #36]
 267 0176 3480     		strh	r4, [r6]	@ movhi
 268              	.L12:
 442:source\bsw\tft/tft.c ****             if(y2 > *maxy) *maxy = y2;
 269              		.loc 1 442 0 is_stmt 1
 270 0178 0A9C     		ldr	r4, [sp, #40]
 271              	.LVL33:
 272 017a B4F90040 		ldrsh	r4, [r4]
 273 017e A542     		cmp	r5, r4
 274 0180 01DD     		ble	.L13
 275              		.loc 1 442 0 is_stmt 0 discriminator 1
 276 0182 0A9C     		ldr	r4, [sp, #40]
 277 0184 2580     		strh	r5, [r4]	@ movhi
 278              	.L13:
 443:source\bsw\tft/tft.c ****             if(*x < *minx) *minx = *x;      // Track min x, y
 279              		.loc 1 443 0 is_stmt 1
 280 0186 B1F90040 		ldrsh	r4, [r1]
 281 018a B3F90050 		ldrsh	r5, [r3]
 282              	.LVL34:
 283 018e AC42     		cmp	r4, r5
 284 0190 00DA     		bge	.L14
 285              		.loc 1 443 0 is_stmt 0 discriminator 1
 286 0192 1C80     		strh	r4, [r3]	@ movhi
 287              	.L14:
 444:source\bsw\tft/tft.c ****             if(*y < *miny) *miny = *y;
 288              		.loc 1 444 0 is_stmt 1
 289 0194 B2F90030 		ldrsh	r3, [r2]
 290              	.LVL35:
 291 0198 089A     		ldr	r2, [sp, #32]
 292              	.LVL36:
 293 019a B2F90020 		ldrsh	r2, [r2]
 294 019e 9342     		cmp	r3, r2
 295 01a0 01DA     		bge	.L15
 296              		.loc 1 444 0 is_stmt 0 discriminator 1
 297 01a2 089A     		ldr	r2, [sp, #32]
ARM GAS  C:\Users\MATEOC~1.QUE\AppData\Local\Temp\ccxtWYOp.s 			page 14


 298 01a4 1380     		strh	r3, [r2]	@ movhi
 299              	.L15:
 445:source\bsw\tft/tft.c ****             *x += textsize * 6;             // Advance x one char
 300              		.loc 1 445 0 is_stmt 1
 301 01a6 00EB4000 		add	r0, r0, r0, lsl #1
 302 01aa 4200     		lsls	r2, r0, #1
 303 01ac 0B88     		ldrh	r3, [r1]
 304 01ae 1344     		add	r3, r3, r2
 305 01b0 0B80     		strh	r3, [r1]	@ movhi
 306              	.L1:
 307 01b2 BDE8F087 		pop	{r4, r5, r6, r7, r8, r9, r10, pc}
 308              	.LVL37:
 309              	.L18:
 310 01b6 00BF     		.align	2
 311              	.L17:
 312 01b8 00000000 		.word	.LANCHOR0
 313              	.LBE4:
 314              		.cfi_endproc
 315              	.LFE20:
 316              		.size	charBounds, .-charBounds
 317              		.section	.text.__TFT_SPI_TX_ISR,"ax",%progbits
 318              		.align	2
 319              		.global	__TFT_SPI_TX_ISR
 320              		.thumb
 321              		.thumb_func
 322              		.type	__TFT_SPI_TX_ISR, %function
 323              	__TFT_SPI_TX_ISR:
 324              	.LFB3:
 139:source\bsw\tft/tft.c ****     
 325              		.loc 1 139 0
 326              		.cfi_startproc
 327              		@ args = 0, pretend = 0, frame = 0
 328              		@ frame_needed = 0, uses_anonymous_args = 0
 329 0000 38B5     		push	{r3, r4, r5, lr}
 330              		.cfi_def_cfa_offset 16
 331              		.cfi_offset 3, -16
 332              		.cfi_offset 4, -12
 333              		.cfi_offset 5, -8
 334              		.cfi_offset 14, -4
 142:source\bsw\tft/tft.c ****         return;
 335              		.loc 1 142 0
 336 0002 134B     		ldr	r3, .L25
 337 0004 9889     		ldrh	r0, [r3, #12]
 338 0006 08B3     		cbz	r0, .L19
 146:source\bsw\tft/tft.c ****     
 339              		.loc 1 146 0
 340 0008 1946     		mov	r1, r3
 341 000a 1C89     		ldrh	r4, [r3, #8]
 342 000c 631C     		adds	r3, r4, #1
 343 000e 9BB2     		uxth	r3, r3
 344              	.LVL38:
 149:source\bsw\tft/tft.c ****     TFT_RB_out.fill--;
 345              		.loc 1 149 0
 346 0010 104A     		ldr	r2, .L25+4
 347 0012 A2FB0352 		umull	r5, r2, r2, r3
 348 0016 5209     		lsrs	r2, r2, #5
 349 0018 6425     		movs	r5, #100
ARM GAS  C:\Users\MATEOC~1.QUE\AppData\Local\Temp\ccxtWYOp.s 			page 15


 350 001a 05FB1233 		mls	r3, r5, r2, r3
 351 001e 0B81     		strh	r3, [r1, #8]	@ movhi
 150:source\bsw\tft/tft.c ****     
 352              		.loc 1 150 0
 353 0020 0138     		subs	r0, r0, #1
 354 0022 8881     		strh	r0, [r1, #12]	@ movhi
 153:source\bsw\tft/tft.c ****         case TFT_CMD:
 355              		.loc 1 153 0
 356 0024 01EB4401 		add	r1, r1, r4, lsl #1
 357 0028 8B7B     		ldrb	r3, [r1, #14]	@ zero_extendqisi2
 358 002a 13B1     		cbz	r3, .L22
 359 002c 012B     		cmp	r3, #1
 360 002e 04D0     		beq	.L23
 361 0030 06E0     		b	.L21
 362              	.L22:
 363              	.LBB5:
 155:source\bsw\tft/tft.c ****             break;
 364              		.loc 1 155 0
 365 0032 0020     		movs	r0, #0
 366 0034 FFF7FEFF 		bl	TFT_DC_Write
 367              	.LVL39:
 156:source\bsw\tft/tft.c ****         
 368              		.loc 1 156 0
 369 0038 02E0     		b	.L21
 370              	.L23:
 159:source\bsw\tft/tft.c ****             break;
 371              		.loc 1 159 0
 372 003a 0120     		movs	r0, #1
 373 003c FFF7FEFF 		bl	TFT_DC_Write
 374              	.LVL40:
 375              	.L21:
 376              	.LBE5:
 165:source\bsw\tft/tft.c **** }
 377              		.loc 1 165 0
 378 0040 034B     		ldr	r3, .L25
 379 0042 03EB4404 		add	r4, r3, r4, lsl #1
 380              	.LVL41:
 381 0046 E07B     		ldrb	r0, [r4, #15]	@ zero_extendqisi2
 382 0048 FFF7FEFF 		bl	TFT_SPI_WriteTxData
 383              	.LVL42:
 384              	.L19:
 385 004c 38BD     		pop	{r3, r4, r5, pc}
 386              	.L26:
 387 004e 00BF     		.align	2
 388              	.L25:
 389 0050 00000000 		.word	.LANCHOR0
 390 0054 1F85EB51 		.word	1374389535
 391              		.cfi_endproc
 392              	.LFE3:
 393              		.size	__TFT_SPI_TX_ISR, .-__TFT_SPI_TX_ISR
 394              		.section	.text.TFT_send,"ax",%progbits
 395              		.align	2
 396              		.thumb
 397              		.thumb_func
 398              		.type	TFT_send, %function
 399              	TFT_send:
 400              	.LFB4:
ARM GAS  C:\Users\MATEOC~1.QUE\AppData\Local\Temp\ccxtWYOp.s 			page 16


 168:source\bsw\tft/tft.c **** 
 401              		.loc 1 168 0
 402              		.cfi_startproc
 403              		@ args = 0, pretend = 0, frame = 168
 404              		@ frame_needed = 0, uses_anonymous_args = 0
 405              	.LVL43:
 406 0000 30B5     		push	{r4, r5, lr}
 407              		.cfi_def_cfa_offset 12
 408              		.cfi_offset 4, -12
 409              		.cfi_offset 5, -8
 410              		.cfi_offset 14, -4
 411 0002 ABB0     		sub	sp, sp, #172
 412              		.cfi_def_cfa_offset 184
 171:source\bsw\tft/tft.c ****         //TODO: fire event or DET STOP
 413              		.loc 1 171 0
 414 0004 1B4B     		ldr	r3, .L32
 415 0006 9B89     		ldrh	r3, [r3, #12]
 416 0008 632B     		cmp	r3, #99
 417 000a 17D9     		bls	.L28
 418              	.LBB6:
 173:source\bsw\tft/tft.c ****         return RC_ERROR_BUFFER_FULL;
 419              		.loc 1 173 0 discriminator 1
 420 000c 2AAD     		add	r5, sp, #168
 421 000e 0323     		movs	r3, #3
 422 0010 05F8A83D 		strb	r3, [r5, #-168]!
 423 0014 184B     		ldr	r3, .L32+4
 424 0016 1868     		ldr	r0, [r3]	@ unaligned
 425              	.LVL44:
 426 0018 CDF80100 		str	r0, [sp, #1]	@ unaligned
 427 001c 174C     		ldr	r4, .L32+8
 428 001e 0FCC     		ldmia	r4!, {r0, r1, r2, r3}
 429              	.LVL45:
 430 0020 CDF81100 		str	r0, [sp, #17]	@ unaligned
 431 0024 CDF81510 		str	r1, [sp, #21]	@ unaligned
 432 0028 CDF81920 		str	r2, [sp, #25]	@ unaligned
 433 002c CDF81D30 		str	r3, [sp, #29]	@ unaligned
 434 0030 2846     		mov	r0, r5
 435 0032 FFF7FEFF 		bl	LOG_send
 436              	.LVL46:
 437              	.LBE6:
 174:source\bsw\tft/tft.c ****     }
 438              		.loc 1 174 0 discriminator 1
 439 0036 6FF00700 		mvn	r0, #7
 440 003a 19E0     		b	.L29
 441              	.LVL47:
 442              	.L28:
 178:source\bsw\tft/tft.c **** 
 443              		.loc 1 178 0
 444 003c 0D4D     		ldr	r5, .L32
 445 003e 6C89     		ldrh	r4, [r5, #10]
 446 0040 621C     		adds	r2, r4, #1
 447 0042 92B2     		uxth	r2, r2
 448 0044 05EB4404 		add	r4, r5, r4, lsl #1
 449 0048 A073     		strb	r0, [r4, #14]
 450 004a E173     		strb	r1, [r4, #15]
 181:source\bsw\tft/tft.c ****     TFT_RB_out.fill++;
 451              		.loc 1 181 0
ARM GAS  C:\Users\MATEOC~1.QUE\AppData\Local\Temp\ccxtWYOp.s 			page 17


 452 004c 0C49     		ldr	r1, .L32+12
 453              	.LVL48:
 454 004e A1FB0201 		umull	r0, r1, r1, r2
 455              	.LVL49:
 456 0052 4909     		lsrs	r1, r1, #5
 457 0054 6420     		movs	r0, #100
 458 0056 00FB1122 		mls	r2, r0, r1, r2
 459 005a 6A81     		strh	r2, [r5, #10]	@ movhi
 182:source\bsw\tft/tft.c ****     
 460              		.loc 1 182 0
 461 005c 0133     		adds	r3, r3, #1
 462 005e 9BB2     		uxth	r3, r3
 463 0060 AB81     		strh	r3, [r5, #12]	@ movhi
 185:source\bsw\tft/tft.c ****         __TFT_SPI_TX_ISR();
 464              		.loc 1 185 0
 465 0062 012B     		cmp	r3, #1
 466 0064 03D1     		bne	.L30
 186:source\bsw\tft/tft.c **** 
 467              		.loc 1 186 0
 468 0066 FFF7FEFF 		bl	__TFT_SPI_TX_ISR
 469              	.LVL50:
 188:source\bsw\tft/tft.c **** }
 470              		.loc 1 188 0
 471 006a 0020     		movs	r0, #0
 472 006c 00E0     		b	.L29
 473              	.LVL51:
 474              	.L30:
 475 006e 0020     		movs	r0, #0
 476              	.LVL52:
 477              	.L29:
 189:source\bsw\tft/tft.c **** 
 478              		.loc 1 189 0
 479 0070 2BB0     		add	sp, sp, #172
 480              		.cfi_def_cfa_offset 12
 481              		@ sp needed
 482 0072 30BD     		pop	{r4, r5, pc}
 483              	.L33:
 484              		.align	2
 485              	.L32:
 486 0074 00000000 		.word	.LANCHOR0
 487 0078 00000000 		.word	.LC0
 488 007c 04000000 		.word	.LC1
 489 0080 1F85EB51 		.word	1374389535
 490              		.cfi_endproc
 491              	.LFE4:
 492              		.size	TFT_send, .-TFT_send
 493              		.section	.text.setAddrWindow,"ax",%progbits
 494              		.align	2
 495              		.thumb
 496              		.thumb_func
 497              		.type	setAddrWindow, %function
 498              	setAddrWindow:
 499              	.LFB8:
 265:source\bsw\tft/tft.c **** 
 500              		.loc 1 265 0
 501              		.cfi_startproc
 502              		@ args = 0, pretend = 0, frame = 0
ARM GAS  C:\Users\MATEOC~1.QUE\AppData\Local\Temp\ccxtWYOp.s 			page 18


 503              		@ frame_needed = 0, uses_anonymous_args = 0
 504              	.LVL53:
 505 0000 2DE9F041 		push	{r4, r5, r6, r7, r8, lr}
 506              		.cfi_def_cfa_offset 24
 507              		.cfi_offset 4, -24
 508              		.cfi_offset 5, -20
 509              		.cfi_offset 6, -16
 510              		.cfi_offset 7, -12
 511              		.cfi_offset 8, -8
 512              		.cfi_offset 14, -4
 513 0004 8046     		mov	r8, r0
 514 0006 0E46     		mov	r6, r1
 515 0008 1746     		mov	r7, r2
 516 000a 1D46     		mov	r5, r3
 267:source\bsw\tft/tft.c ****     TFT_write_data(0x00);
 517              		.loc 1 267 0
 518 000c 2A21     		movs	r1, #42
 519              	.LVL54:
 520 000e 0020     		movs	r0, #0
 521              	.LVL55:
 522 0010 FFF7FEFF 		bl	TFT_send
 523              	.LVL56:
 268:source\bsw\tft/tft.c ****     TFT_write_data(x0+xstart);         // XSTART 
 524              		.loc 1 268 0
 525 0014 0021     		movs	r1, #0
 526 0016 0120     		movs	r0, #1
 527 0018 FFF7FEFF 		bl	TFT_send
 528              	.LVL57:
 269:source\bsw\tft/tft.c ****     TFT_write_data(0x00);
 529              		.loc 1 269 0
 530 001c 194C     		ldr	r4, .L36
 531 001e 94F8D610 		ldrb	r1, [r4, #214]	@ zero_extendqisi2
 532 0022 4144     		add	r1, r1, r8
 533 0024 C9B2     		uxtb	r1, r1
 534 0026 0120     		movs	r0, #1
 535 0028 FFF7FEFF 		bl	TFT_send
 536              	.LVL58:
 270:source\bsw\tft/tft.c ****     TFT_write_data(x1+xstart);         // XEND
 537              		.loc 1 270 0
 538 002c 0021     		movs	r1, #0
 539 002e 0120     		movs	r0, #1
 540 0030 FFF7FEFF 		bl	TFT_send
 541              	.LVL59:
 271:source\bsw\tft/tft.c **** 
 542              		.loc 1 271 0
 543 0034 94F8D610 		ldrb	r1, [r4, #214]	@ zero_extendqisi2
 544 0038 3944     		add	r1, r1, r7
 545 003a C9B2     		uxtb	r1, r1
 546 003c 0120     		movs	r0, #1
 547 003e FFF7FEFF 		bl	TFT_send
 548              	.LVL60:
 273:source\bsw\tft/tft.c ****     TFT_write_data(0x00);
 549              		.loc 1 273 0
 550 0042 2B21     		movs	r1, #43
 551 0044 0020     		movs	r0, #0
 552 0046 FFF7FEFF 		bl	TFT_send
 553              	.LVL61:
ARM GAS  C:\Users\MATEOC~1.QUE\AppData\Local\Temp\ccxtWYOp.s 			page 19


 274:source\bsw\tft/tft.c ****     TFT_write_data(y0+ystart);         // YSTART
 554              		.loc 1 274 0
 555 004a 0021     		movs	r1, #0
 556 004c 0120     		movs	r0, #1
 557 004e FFF7FEFF 		bl	TFT_send
 558              	.LVL62:
 275:source\bsw\tft/tft.c ****     TFT_write_data(0x00);
 559              		.loc 1 275 0
 560 0052 94F8D710 		ldrb	r1, [r4, #215]	@ zero_extendqisi2
 561 0056 3144     		add	r1, r1, r6
 562 0058 C9B2     		uxtb	r1, r1
 563 005a 0120     		movs	r0, #1
 564 005c FFF7FEFF 		bl	TFT_send
 565              	.LVL63:
 276:source\bsw\tft/tft.c ****     TFT_write_data(y1+ystart);         // YEND
 566              		.loc 1 276 0
 567 0060 0021     		movs	r1, #0
 568 0062 0120     		movs	r0, #1
 569 0064 FFF7FEFF 		bl	TFT_send
 570              	.LVL64:
 277:source\bsw\tft/tft.c **** 
 571              		.loc 1 277 0
 572 0068 94F8D710 		ldrb	r1, [r4, #215]	@ zero_extendqisi2
 573 006c 2944     		add	r1, r1, r5
 574 006e C9B2     		uxtb	r1, r1
 575 0070 0120     		movs	r0, #1
 576 0072 FFF7FEFF 		bl	TFT_send
 577              	.LVL65:
 279:source\bsw\tft/tft.c **** }
 578              		.loc 1 279 0
 579 0076 2C21     		movs	r1, #44
 580 0078 0020     		movs	r0, #0
 581 007a FFF7FEFF 		bl	TFT_send
 582              	.LVL66:
 583 007e BDE8F081 		pop	{r4, r5, r6, r7, r8, pc}
 584              	.L37:
 585 0082 00BF     		.align	2
 586              	.L36:
 587 0084 00000000 		.word	.LANCHOR0
 588              		.cfi_endproc
 589              	.LFE8:
 590              		.size	setAddrWindow, .-setAddrWindow
 591              		.section	.text.TFT_setBacklight,"ax",%progbits
 592              		.align	2
 593              		.global	TFT_setBacklight
 594              		.thumb
 595              		.thumb_func
 596              		.type	TFT_setBacklight, %function
 597              	TFT_setBacklight:
 598              	.LFB6:
 255:source\bsw\tft/tft.c ****     if(b>100)
 599              		.loc 1 255 0
 600              		.cfi_startproc
 601              		@ args = 0, pretend = 0, frame = 0
 602              		@ frame_needed = 0, uses_anonymous_args = 0
 603              	.LVL67:
 604 0000 08B5     		push	{r3, lr}
ARM GAS  C:\Users\MATEOC~1.QUE\AppData\Local\Temp\ccxtWYOp.s 			page 20


 605              		.cfi_def_cfa_offset 8
 606              		.cfi_offset 3, -8
 607              		.cfi_offset 14, -4
 256:source\bsw\tft/tft.c ****         b=100;
 608              		.loc 1 256 0
 609 0002 6428     		cmp	r0, #100
 610 0004 00D9     		bls	.L39
 257:source\bsw\tft/tft.c ****     MODULE_PWM(WriteCompare)(b);
 611              		.loc 1 257 0
 612 0006 6420     		movs	r0, #100
 613              	.LVL68:
 614              	.L39:
 258:source\bsw\tft/tft.c **** }
 615              		.loc 1 258 0
 616 0008 FFF7FEFF 		bl	TFT_BackLight_WriteCompare
 617              	.LVL69:
 618 000c 08BD     		pop	{r3, pc}
 619              		.cfi_endproc
 620              	.LFE6:
 621              		.size	TFT_setBacklight, .-TFT_setBacklight
 622 000e 00BF     		.section	.text.TFT_getBacklight,"ax",%progbits
 623              		.align	2
 624              		.global	TFT_getBacklight
 625              		.thumb
 626              		.thumb_func
 627              		.type	TFT_getBacklight, %function
 628              	TFT_getBacklight:
 629              	.LFB7:
 261:source\bsw\tft/tft.c ****     return MODULE_PWM(ReadCompare)();
 630              		.loc 1 261 0
 631              		.cfi_startproc
 632              		@ args = 0, pretend = 0, frame = 0
 633              		@ frame_needed = 0, uses_anonymous_args = 0
 634 0000 08B5     		push	{r3, lr}
 635              		.cfi_def_cfa_offset 8
 636              		.cfi_offset 3, -8
 637              		.cfi_offset 14, -4
 262:source\bsw\tft/tft.c **** };
 638              		.loc 1 262 0
 639 0002 FFF7FEFF 		bl	TFT_BackLight_ReadCompare
 640              	.LVL70:
 263:source\bsw\tft/tft.c **** 
 641              		.loc 1 263 0
 642 0006 C0B2     		uxtb	r0, r0
 643 0008 08BD     		pop	{r3, pc}
 644              		.cfi_endproc
 645              	.LFE7:
 646              		.size	TFT_getBacklight, .-TFT_getBacklight
 647              		.section	.text.TFT_setRotation,"ax",%progbits
 648              		.align	2
 649              		.global	TFT_setRotation
 650              		.thumb
 651              		.thumb_func
 652              		.type	TFT_setRotation, %function
 653              	TFT_setRotation:
 654              	.LFB9:
 282:source\bsw\tft/tft.c **** 
ARM GAS  C:\Users\MATEOC~1.QUE\AppData\Local\Temp\ccxtWYOp.s 			page 21


 655              		.loc 1 282 0
 656              		.cfi_startproc
 657              		@ args = 0, pretend = 0, frame = 0
 658              		@ frame_needed = 0, uses_anonymous_args = 0
 659              	.LVL71:
 660 0000 10B5     		push	{r4, lr}
 661              		.cfi_def_cfa_offset 8
 662              		.cfi_offset 4, -8
 663              		.cfi_offset 14, -4
 664 0002 0446     		mov	r4, r0
 285:source\bsw\tft/tft.c ****     rotation = m % 4; // can't be higher than 3
 665              		.loc 1 285 0
 666 0004 3621     		movs	r1, #54
 667 0006 0020     		movs	r0, #0
 668              	.LVL72:
 669 0008 FFF7FEFF 		bl	TFT_send
 670              	.LVL73:
 286:source\bsw\tft/tft.c ****     switch (rotation) {
 671              		.loc 1 286 0
 672 000c 04F00300 		and	r0, r4, #3
 673 0010 2A4B     		ldr	r3, .L52
 674 0012 83F8D800 		strb	r0, [r3, #216]
 287:source\bsw\tft/tft.c ****         case 0:
 675              		.loc 1 287 0
 676 0016 0328     		cmp	r0, #3
 677 0018 4ED8     		bhi	.L44
 678 001a DFE800F0 		tbb	[pc, r0]
 679              	.L47:
 680 001e 02       		.byte	(.L46-.L47)/2
 681 001f 15       		.byte	(.L48-.L47)/2
 682 0020 28       		.byte	(.L49-.L47)/2
 683 0021 3B       		.byte	(.L50-.L47)/2
 684              		.p2align 1
 685              	.L46:
 289:source\bsw\tft/tft.c ****             _height = CFG_TFT_HEIGHT;
 686              		.loc 1 289 0
 687 0022 C221     		movs	r1, #194
 688 0024 0120     		movs	r0, #1
 689 0026 FFF7FEFF 		bl	TFT_send
 690              	.LVL74:
 290:source\bsw\tft/tft.c ****             _width  = CFG_TFT_WIDTH;
 691              		.loc 1 290 0
 692 002a 244B     		ldr	r3, .L52
 693 002c A022     		movs	r2, #160
 694 002e A3F8DA20 		strh	r2, [r3, #218]	@ movhi
 291:source\bsw\tft/tft.c ****             xstart = colstart;
 695              		.loc 1 291 0
 696 0032 8022     		movs	r2, #128
 697 0034 DA80     		strh	r2, [r3, #6]	@ movhi
 292:source\bsw\tft/tft.c ****             ystart = rowstart;
 698              		.loc 1 292 0
 699 0036 93F8DC20 		ldrb	r2, [r3, #220]	@ zero_extendqisi2
 700 003a 83F8D620 		strb	r2, [r3, #214]
 293:source\bsw\tft/tft.c ****             break;
 701              		.loc 1 293 0
 702 003e 93F8DD20 		ldrb	r2, [r3, #221]	@ zero_extendqisi2
 703 0042 83F8D720 		strb	r2, [r3, #215]
ARM GAS  C:\Users\MATEOC~1.QUE\AppData\Local\Temp\ccxtWYOp.s 			page 22


 294:source\bsw\tft/tft.c ****         case 1:
 704              		.loc 1 294 0
 705 0046 10BD     		pop	{r4, pc}
 706              	.L48:
 296:source\bsw\tft/tft.c ****             _width = CFG_TFT_HEIGHT;
 707              		.loc 1 296 0
 708 0048 A221     		movs	r1, #162
 709 004a 0120     		movs	r0, #1
 710 004c FFF7FEFF 		bl	TFT_send
 711              	.LVL75:
 297:source\bsw\tft/tft.c ****             _height = CFG_TFT_WIDTH;
 712              		.loc 1 297 0
 713 0050 1A4B     		ldr	r3, .L52
 714 0052 A022     		movs	r2, #160
 715 0054 DA80     		strh	r2, [r3, #6]	@ movhi
 298:source\bsw\tft/tft.c ****             ystart = colstart;
 716              		.loc 1 298 0
 717 0056 8022     		movs	r2, #128
 718 0058 A3F8DA20 		strh	r2, [r3, #218]	@ movhi
 299:source\bsw\tft/tft.c ****             xstart = rowstart;
 719              		.loc 1 299 0
 720 005c 93F8DC20 		ldrb	r2, [r3, #220]	@ zero_extendqisi2
 721 0060 83F8D720 		strb	r2, [r3, #215]
 300:source\bsw\tft/tft.c ****             break;
 722              		.loc 1 300 0
 723 0064 93F8DD20 		ldrb	r2, [r3, #221]	@ zero_extendqisi2
 724 0068 83F8D620 		strb	r2, [r3, #214]
 301:source\bsw\tft/tft.c ****         case 2:
 725              		.loc 1 301 0
 726 006c 10BD     		pop	{r4, pc}
 727              	.L49:
 303:source\bsw\tft/tft.c ****             _height = CFG_TFT_HEIGHT;
 728              		.loc 1 303 0
 729 006e 0821     		movs	r1, #8
 730 0070 0120     		movs	r0, #1
 731 0072 FFF7FEFF 		bl	TFT_send
 732              	.LVL76:
 304:source\bsw\tft/tft.c ****             _width  = CFG_TFT_WIDTH;
 733              		.loc 1 304 0
 734 0076 114B     		ldr	r3, .L52
 735 0078 A022     		movs	r2, #160
 736 007a A3F8DA20 		strh	r2, [r3, #218]	@ movhi
 305:source\bsw\tft/tft.c ****             xstart = colstart;
 737              		.loc 1 305 0
 738 007e 8022     		movs	r2, #128
 739 0080 DA80     		strh	r2, [r3, #6]	@ movhi
 306:source\bsw\tft/tft.c ****             ystart = rowstart;
 740              		.loc 1 306 0
 741 0082 93F8DC20 		ldrb	r2, [r3, #220]	@ zero_extendqisi2
 742 0086 83F8D620 		strb	r2, [r3, #214]
 307:source\bsw\tft/tft.c ****             break;
 743              		.loc 1 307 0
 744 008a 93F8DD20 		ldrb	r2, [r3, #221]	@ zero_extendqisi2
 745 008e 83F8D720 		strb	r2, [r3, #215]
 308:source\bsw\tft/tft.c ****         case 3:
 746              		.loc 1 308 0
 747 0092 10BD     		pop	{r4, pc}
ARM GAS  C:\Users\MATEOC~1.QUE\AppData\Local\Temp\ccxtWYOp.s 			page 23


 748              	.L50:
 310:source\bsw\tft/tft.c ****             _width = CFG_TFT_HEIGHT;
 749              		.loc 1 310 0
 750 0094 6221     		movs	r1, #98
 751 0096 0120     		movs	r0, #1
 752 0098 FFF7FEFF 		bl	TFT_send
 753              	.LVL77:
 311:source\bsw\tft/tft.c ****             _height = CFG_TFT_WIDTH;
 754              		.loc 1 311 0
 755 009c 074B     		ldr	r3, .L52
 756 009e A022     		movs	r2, #160
 757 00a0 DA80     		strh	r2, [r3, #6]	@ movhi
 312:source\bsw\tft/tft.c ****             ystart = colstart;
 758              		.loc 1 312 0
 759 00a2 8022     		movs	r2, #128
 760 00a4 A3F8DA20 		strh	r2, [r3, #218]	@ movhi
 313:source\bsw\tft/tft.c ****             xstart = rowstart;
 761              		.loc 1 313 0
 762 00a8 93F8DC20 		ldrb	r2, [r3, #220]	@ zero_extendqisi2
 763 00ac 83F8D720 		strb	r2, [r3, #215]
 314:source\bsw\tft/tft.c ****             break;
 764              		.loc 1 314 0
 765 00b0 93F8DD20 		ldrb	r2, [r3, #221]	@ zero_extendqisi2
 766 00b4 83F8D620 		strb	r2, [r3, #214]
 767              	.L44:
 768 00b8 10BD     		pop	{r4, pc}
 769              	.L53:
 770 00ba 00BF     		.align	2
 771              	.L52:
 772 00bc 00000000 		.word	.LANCHOR0
 773              		.cfi_endproc
 774              	.LFE9:
 775              		.size	TFT_setRotation, .-TFT_setRotation
 776              		.section	.text.TFT_setCursor,"ax",%progbits
 777              		.align	2
 778              		.global	TFT_setCursor
 779              		.thumb
 780              		.thumb_func
 781              		.type	TFT_setCursor, %function
 782              	TFT_setCursor:
 783              	.LFB10:
 321:source\bsw\tft/tft.c ****     cursor_x = x;
 784              		.loc 1 321 0
 785              		.cfi_startproc
 786              		@ args = 0, pretend = 0, frame = 0
 787              		@ frame_needed = 0, uses_anonymous_args = 0
 788              		@ link register save eliminated.
 789              	.LVL78:
 322:source\bsw\tft/tft.c ****     cursor_y = y;
 790              		.loc 1 322 0
 791 0000 024B     		ldr	r3, .L55
 792 0002 A3F8DE00 		strh	r0, [r3, #222]	@ movhi
 323:source\bsw\tft/tft.c **** }
 793              		.loc 1 323 0
 794 0006 A3F8E010 		strh	r1, [r3, #224]	@ movhi
 795 000a 7047     		bx	lr
 796              	.L56:
ARM GAS  C:\Users\MATEOC~1.QUE\AppData\Local\Temp\ccxtWYOp.s 			page 24


 797              		.align	2
 798              	.L55:
 799 000c 00000000 		.word	.LANCHOR0
 800              		.cfi_endproc
 801              	.LFE10:
 802              		.size	TFT_setCursor, .-TFT_setCursor
 803              		.section	.text.TFT_setTextColor,"ax",%progbits
 804              		.align	2
 805              		.global	TFT_setTextColor
 806              		.thumb
 807              		.thumb_func
 808              		.type	TFT_setTextColor, %function
 809              	TFT_setTextColor:
 810              	.LFB11:
 326:source\bsw\tft/tft.c ****     color   = c;
 811              		.loc 1 326 0
 812              		.cfi_startproc
 813              		@ args = 0, pretend = 0, frame = 0
 814              		@ frame_needed = 0, uses_anonymous_args = 0
 815              		@ link register save eliminated.
 816              	.LVL79:
 327:source\bsw\tft/tft.c **** }
 817              		.loc 1 327 0
 818 0000 014B     		ldr	r3, .L58
 819 0002 A3F8E200 		strh	r0, [r3, #226]	@ movhi
 820 0006 7047     		bx	lr
 821              	.L59:
 822              		.align	2
 823              	.L58:
 824 0008 00000000 		.word	.LANCHOR0
 825              		.cfi_endproc
 826              	.LFE11:
 827              		.size	TFT_setTextColor, .-TFT_setTextColor
 828              		.section	.text.TFT_setcolor,"ax",%progbits
 829              		.align	2
 830              		.global	TFT_setcolor
 831              		.thumb
 832              		.thumb_func
 833              		.type	TFT_setcolor, %function
 834              	TFT_setcolor:
 835              	.LFB12:
 330:source\bsw\tft/tft.c ****     // For 'transparent' background, we'll set the bg
 836              		.loc 1 330 0
 837              		.cfi_startproc
 838              		@ args = 0, pretend = 0, frame = 0
 839              		@ frame_needed = 0, uses_anonymous_args = 0
 840              		@ link register save eliminated.
 841              	.LVL80:
 333:source\bsw\tft/tft.c **** }
 842              		.loc 1 333 0
 843 0000 024B     		ldr	r3, .L61
 844 0002 A3F8E400 		strh	r0, [r3, #228]	@ movhi
 845 0006 A3F8E200 		strh	r0, [r3, #226]	@ movhi
 846 000a 7047     		bx	lr
 847              	.L62:
 848              		.align	2
 849              	.L61:
ARM GAS  C:\Users\MATEOC~1.QUE\AppData\Local\Temp\ccxtWYOp.s 			page 25


 850 000c 00000000 		.word	.LANCHOR0
 851              		.cfi_endproc
 852              	.LFE12:
 853              		.size	TFT_setcolor, .-TFT_setcolor
 854              		.section	.text.TFT_setColors,"ax",%progbits
 855              		.align	2
 856              		.global	TFT_setColors
 857              		.thumb
 858              		.thumb_func
 859              		.type	TFT_setColors, %function
 860              	TFT_setColors:
 861              	.LFB13:
 336:source\bsw\tft/tft.c ****     color   = c;
 862              		.loc 1 336 0
 863              		.cfi_startproc
 864              		@ args = 0, pretend = 0, frame = 0
 865              		@ frame_needed = 0, uses_anonymous_args = 0
 866              		@ link register save eliminated.
 867              	.LVL81:
 337:source\bsw\tft/tft.c ****     bgcolor = b;
 868              		.loc 1 337 0
 869 0000 024B     		ldr	r3, .L64
 870 0002 A3F8E200 		strh	r0, [r3, #226]	@ movhi
 338:source\bsw\tft/tft.c **** }
 871              		.loc 1 338 0
 872 0006 A3F8E410 		strh	r1, [r3, #228]	@ movhi
 873 000a 7047     		bx	lr
 874              	.L65:
 875              		.align	2
 876              	.L64:
 877 000c 00000000 		.word	.LANCHOR0
 878              		.cfi_endproc
 879              	.LFE13:
 880              		.size	TFT_setColors, .-TFT_setColors
 881              		.section	.text.TFT_getFGcolor,"ax",%progbits
 882              		.align	2
 883              		.global	TFT_getFGcolor
 884              		.thumb
 885              		.thumb_func
 886              		.type	TFT_getFGcolor, %function
 887              	TFT_getFGcolor:
 888              	.LFB14:
 342:source\bsw\tft/tft.c **** 
 889              		.loc 1 342 0
 890              		.cfi_startproc
 891              		@ args = 0, pretend = 0, frame = 0
 892              		@ frame_needed = 0, uses_anonymous_args = 0
 893              		@ link register save eliminated.
 342:source\bsw\tft/tft.c **** 
 894              		.loc 1 342 0
 895 0000 014B     		ldr	r3, .L67
 896 0002 B3F8E200 		ldrh	r0, [r3, #226]
 897 0006 7047     		bx	lr
 898              	.L68:
 899              		.align	2
 900              	.L67:
 901 0008 00000000 		.word	.LANCHOR0
ARM GAS  C:\Users\MATEOC~1.QUE\AppData\Local\Temp\ccxtWYOp.s 			page 26


 902              		.cfi_endproc
 903              	.LFE14:
 904              		.size	TFT_getFGcolor, .-TFT_getFGcolor
 905              		.section	.text.TFT_getBGcolor,"ax",%progbits
 906              		.align	2
 907              		.global	TFT_getBGcolor
 908              		.thumb
 909              		.thumb_func
 910              		.type	TFT_getBGcolor, %function
 911              	TFT_getBGcolor:
 912              	.LFB15:
 344:source\bsw\tft/tft.c **** 
 913              		.loc 1 344 0
 914              		.cfi_startproc
 915              		@ args = 0, pretend = 0, frame = 0
 916              		@ frame_needed = 0, uses_anonymous_args = 0
 917              		@ link register save eliminated.
 344:source\bsw\tft/tft.c **** 
 918              		.loc 1 344 0
 919 0000 014B     		ldr	r3, .L70
 920 0002 B3F8E400 		ldrh	r0, [r3, #228]
 921 0006 7047     		bx	lr
 922              	.L71:
 923              		.align	2
 924              	.L70:
 925 0008 00000000 		.word	.LANCHOR0
 926              		.cfi_endproc
 927              	.LFE15:
 928              		.size	TFT_getBGcolor, .-TFT_getBGcolor
 929              		.section	.text.TFT_setTextWrap,"ax",%progbits
 930              		.align	2
 931              		.global	TFT_setTextWrap
 932              		.thumb
 933              		.thumb_func
 934              		.type	TFT_setTextWrap, %function
 935              	TFT_setTextWrap:
 936              	.LFB16:
 347:source\bsw\tft/tft.c ****     wrap = w;
 937              		.loc 1 347 0
 938              		.cfi_startproc
 939              		@ args = 0, pretend = 0, frame = 0
 940              		@ frame_needed = 0, uses_anonymous_args = 0
 941              		@ link register save eliminated.
 942              	.LVL82:
 348:source\bsw\tft/tft.c **** }
 943              		.loc 1 348 0
 944 0000 014B     		ldr	r3, .L73
 945 0002 5871     		strb	r0, [r3, #5]
 946 0004 7047     		bx	lr
 947              	.L74:
 948 0006 00BF     		.align	2
 949              	.L73:
 950 0008 00000000 		.word	.LANCHOR0
 951              		.cfi_endproc
 952              	.LFE16:
 953              		.size	TFT_setTextWrap, .-TFT_setTextWrap
 954              		.section	.text.TFT_setTextSize,"ax",%progbits
ARM GAS  C:\Users\MATEOC~1.QUE\AppData\Local\Temp\ccxtWYOp.s 			page 27


 955              		.align	2
 956              		.global	TFT_setTextSize
 957              		.thumb
 958              		.thumb_func
 959              		.type	TFT_setTextSize, %function
 960              	TFT_setTextSize:
 961              	.LFB17:
 351:source\bsw\tft/tft.c ****     textsize = (s > 0) ? s : 1;
 962              		.loc 1 351 0
 963              		.cfi_startproc
 964              		@ args = 0, pretend = 0, frame = 0
 965              		@ frame_needed = 0, uses_anonymous_args = 0
 966              		@ link register save eliminated.
 967              	.LVL83:
 352:source\bsw\tft/tft.c **** }
 968              		.loc 1 352 0
 969 0000 08B9     		cbnz	r0, .L77
 970 0002 0120     		movs	r0, #1
 971              	.LVL84:
 972 0004 FFE7     		b	.L76
 973              	.LVL85:
 974              	.L77:
 975              	.L76:
 352:source\bsw\tft/tft.c **** }
 976              		.loc 1 352 0 is_stmt 0 discriminator 4
 977 0006 014B     		ldr	r3, .L78
 978 0008 1871     		strb	r0, [r3, #4]
 979 000a 7047     		bx	lr
 980              	.L79:
 981              		.align	2
 982              	.L78:
 983 000c 00000000 		.word	.LANCHOR0
 984              		.cfi_endproc
 985              	.LFE17:
 986              		.size	TFT_setTextSize, .-TFT_setTextSize
 987              		.section	.text.TFT_setFont,"ax",%progbits
 988              		.align	2
 989              		.global	TFT_setFont
 990              		.thumb
 991              		.thumb_func
 992              		.type	TFT_setFont, %function
 993              	TFT_setFont:
 994              	.LFB18:
 355:source\bsw\tft/tft.c ****     if(f) {            // Font struct pointer passed in?
 995              		.loc 1 355 0 is_stmt 1
 996              		.cfi_startproc
 997              		@ args = 0, pretend = 0, frame = 0
 998              		@ frame_needed = 0, uses_anonymous_args = 0
 999              		@ link register save eliminated.
 1000              	.LVL86:
 356:source\bsw\tft/tft.c ****         if(!gfxFont) { // And no current font struct?
 1001              		.loc 1 356 0
 1002 0000 0246     		mov	r2, r0
 1003 0002 48B1     		cbz	r0, .L81
 357:source\bsw\tft/tft.c ****             // Switching from classic to new font behavior.
 1004              		.loc 1 357 0
 1005 0004 0A4B     		ldr	r3, .L83
ARM GAS  C:\Users\MATEOC~1.QUE\AppData\Local\Temp\ccxtWYOp.s 			page 28


 1006 0006 1B68     		ldr	r3, [r3]
 1007 0008 7BB9     		cbnz	r3, .L82
 360:source\bsw\tft/tft.c ****         }
 1008              		.loc 1 360 0
 1009 000a 0949     		ldr	r1, .L83
 1010 000c B1F8E030 		ldrh	r3, [r1, #224]
 1011 0010 0633     		adds	r3, r3, #6
 1012 0012 A1F8E030 		strh	r3, [r1, #224]	@ movhi
 1013 0016 08E0     		b	.L82
 1014              	.L81:
 362:source\bsw\tft/tft.c ****         // Switching from new to classic font behavior.
 1015              		.loc 1 362 0
 1016 0018 054B     		ldr	r3, .L83
 1017 001a 1B68     		ldr	r3, [r3]
 1018 001c 2BB1     		cbz	r3, .L82
 365:source\bsw\tft/tft.c ****     }
 1019              		.loc 1 365 0
 1020 001e 0449     		ldr	r1, .L83
 1021 0020 B1F8E030 		ldrh	r3, [r1, #224]
 1022 0024 063B     		subs	r3, r3, #6
 1023 0026 A1F8E030 		strh	r3, [r1, #224]	@ movhi
 1024              	.L82:
 367:source\bsw\tft/tft.c **** }
 1025              		.loc 1 367 0
 1026 002a 014B     		ldr	r3, .L83
 1027 002c 1A60     		str	r2, [r3]
 1028 002e 7047     		bx	lr
 1029              	.L84:
 1030              		.align	2
 1031              	.L83:
 1032 0030 00000000 		.word	.LANCHOR0
 1033              		.cfi_endproc
 1034              	.LFE18:
 1035              		.size	TFT_setFont, .-TFT_setFont
 1036              		.section	.text.TFT_getTextBounds,"ax",%progbits
 1037              		.align	2
 1038              		.global	TFT_getTextBounds
 1039              		.thumb
 1040              		.thumb_func
 1041              		.type	TFT_getTextBounds, %function
 1042              	TFT_getTextBounds:
 1043              	.LFB19:
 371:source\bsw\tft/tft.c ****     uint8_t c; // Current character
 1044              		.loc 1 371 0
 1045              		.cfi_startproc
 1046              		@ args = 12, pretend = 0, frame = 16
 1047              		@ frame_needed = 0, uses_anonymous_args = 0
 1048              	.LVL87:
 1049 0000 2DE9F041 		push	{r4, r5, r6, r7, r8, lr}
 1050              		.cfi_def_cfa_offset 24
 1051              		.cfi_offset 4, -24
 1052              		.cfi_offset 5, -20
 1053              		.cfi_offset 6, -16
 1054              		.cfi_offset 7, -12
 1055              		.cfi_offset 8, -8
 1056              		.cfi_offset 14, -4
 1057 0004 88B0     		sub	sp, sp, #32
ARM GAS  C:\Users\MATEOC~1.QUE\AppData\Local\Temp\ccxtWYOp.s 			page 29


 1058              		.cfi_def_cfa_offset 56
 1059 0006 9846     		mov	r8, r3
 1060 0008 0E9E     		ldr	r6, [sp, #56]
 1061 000a 0F9F     		ldr	r7, [sp, #60]
 1062 000c 109D     		ldr	r5, [sp, #64]
 1063 000e ADF81610 		strh	r1, [sp, #22]	@ movhi
 1064 0012 ADF81420 		strh	r2, [sp, #20]	@ movhi
 374:source\bsw\tft/tft.c ****     *y1 = y;
 1065              		.loc 1 374 0
 1066 0016 1980     		strh	r1, [r3]	@ movhi
 375:source\bsw\tft/tft.c ****     *w  = *h = 0;
 1067              		.loc 1 375 0
 1068 0018 3280     		strh	r2, [r6]	@ movhi
 376:source\bsw\tft/tft.c **** 
 1069              		.loc 1 376 0
 1070 001a 0023     		movs	r3, #0
 1071              	.LVL88:
 1072 001c 2B80     		strh	r3, [r5]	@ movhi
 1073 001e 3B80     		strh	r3, [r7]	@ movhi
 378:source\bsw\tft/tft.c **** 
 1074              		.loc 1 378 0
 1075 0020 204B     		ldr	r3, .L91
 1076 0022 DA88     		ldrh	r2, [r3, #6]
 1077              	.LVL89:
 1078 0024 ADF81E20 		strh	r2, [sp, #30]	@ movhi
 1079 0028 B3F8DA30 		ldrh	r3, [r3, #218]
 1080 002c ADF81C30 		strh	r3, [sp, #28]	@ movhi
 1081 0030 4FF6FF73 		movw	r3, #65535
 1082 0034 ADF81A30 		strh	r3, [sp, #26]	@ movhi
 1083 0038 ADF81830 		strh	r3, [sp, #24]	@ movhi
 380:source\bsw\tft/tft.c ****         charBounds(c, &x, &y, &minx, &miny, &maxx, &maxy);
 1084              		.loc 1 380 0
 1085 003c 0EE0     		b	.L86
 1086              	.LVL90:
 1087              	.L87:
 381:source\bsw\tft/tft.c **** 
 1088              		.loc 1 381 0
 1089 003e 06AB     		add	r3, sp, #24
 1090 0040 0293     		str	r3, [sp, #8]
 1091 0042 0DF11A03 		add	r3, sp, #26
 1092 0046 0193     		str	r3, [sp, #4]
 1093 0048 07AB     		add	r3, sp, #28
 1094 004a 0093     		str	r3, [sp]
 1095 004c 0DF11E03 		add	r3, sp, #30
 1096 0050 05AA     		add	r2, sp, #20
 1097 0052 0DF11601 		add	r1, sp, #22
 1098 0056 FFF7FEFF 		bl	charBounds
 1099              	.LVL91:
 380:source\bsw\tft/tft.c ****         charBounds(c, &x, &y, &minx, &miny, &maxx, &maxy);
 1100              		.loc 1 380 0
 1101 005a 2046     		mov	r0, r4
 1102              	.LVL92:
 1103              	.L86:
 1104 005c 441C     		adds	r4, r0, #1
 1105              	.LVL93:
 1106 005e 0078     		ldrb	r0, [r0]	@ zero_extendqisi2
 1107              	.LVL94:
ARM GAS  C:\Users\MATEOC~1.QUE\AppData\Local\Temp\ccxtWYOp.s 			page 30


 1108 0060 0028     		cmp	r0, #0
 1109 0062 ECD1     		bne	.L87
 383:source\bsw\tft/tft.c ****         *x1 = minx;
 1110              		.loc 1 383 0
 1111 0064 BDF91A20 		ldrsh	r2, [sp, #26]
 1112 0068 BDF91E30 		ldrsh	r3, [sp, #30]
 1113 006c 9A42     		cmp	r2, r3
 1114 006e 08DB     		blt	.L88
 384:source\bsw\tft/tft.c ****         *w  = maxx - minx + 1;
 1115              		.loc 1 384 0
 1116 0070 A8F80030 		strh	r3, [r8]	@ movhi
 385:source\bsw\tft/tft.c ****     }
 1117              		.loc 1 385 0
 1118 0074 BDF81A30 		ldrh	r3, [sp, #26]
 1119 0078 BDF81E20 		ldrh	r2, [sp, #30]
 1120 007c 9B1A     		subs	r3, r3, r2
 1121 007e 0133     		adds	r3, r3, #1
 1122 0080 3B80     		strh	r3, [r7]	@ movhi
 1123              	.L88:
 387:source\bsw\tft/tft.c ****         *y1 = miny;
 1124              		.loc 1 387 0
 1125 0082 BDF91820 		ldrsh	r2, [sp, #24]
 1126 0086 BDF91C30 		ldrsh	r3, [sp, #28]
 1127 008a 9A42     		cmp	r2, r3
 1128 008c 07DB     		blt	.L85
 388:source\bsw\tft/tft.c ****         *h  = maxy - miny + 1;
 1129              		.loc 1 388 0
 1130 008e 3380     		strh	r3, [r6]	@ movhi
 389:source\bsw\tft/tft.c ****     }
 1131              		.loc 1 389 0
 1132 0090 BDF81830 		ldrh	r3, [sp, #24]
 1133 0094 BDF81C20 		ldrh	r2, [sp, #28]
 1134 0098 9B1A     		subs	r3, r3, r2
 1135 009a 0133     		adds	r3, r3, #1
 1136 009c 2B80     		strh	r3, [r5]	@ movhi
 1137              	.L85:
 391:source\bsw\tft/tft.c **** 
 1138              		.loc 1 391 0
 1139 009e 08B0     		add	sp, sp, #32
 1140              		.cfi_def_cfa_offset 24
 1141              		@ sp needed
 1142 00a0 BDE8F081 		pop	{r4, r5, r6, r7, r8, pc}
 1143              	.LVL95:
 1144              	.L92:
 1145              		.align	2
 1146              	.L91:
 1147 00a4 00000000 		.word	.LANCHOR0
 1148              		.cfi_endproc
 1149              	.LFE19:
 1150              		.size	TFT_getTextBounds, .-TFT_getTextBounds
 1151              		.section	.text.TFT_fillRect,"ax",%progbits
 1152              		.align	2
 1153              		.global	TFT_fillRect
 1154              		.thumb
 1155              		.thumb_func
 1156              		.type	TFT_fillRect, %function
 1157              	TFT_fillRect:
ARM GAS  C:\Users\MATEOC~1.QUE\AppData\Local\Temp\ccxtWYOp.s 			page 31


 1158              	.LFB26:
 446:source\bsw\tft/tft.c ****         }
 447:source\bsw\tft/tft.c ****     }
 448:source\bsw\tft/tft.c **** }
 449:source\bsw\tft/tft.c ****         
 450:source\bsw\tft/tft.c **** //----------------- USER FCT
 451:source\bsw\tft/tft.c **** 
 452:source\bsw\tft/tft.c **** void TFT_print(char* txt){
 453:source\bsw\tft/tft.c ****     while(*(txt)!=0){
 454:source\bsw\tft/tft.c ****         TFT_write(*(txt++));
 455:source\bsw\tft/tft.c ****     }
 456:source\bsw\tft/tft.c **** }
 457:source\bsw\tft/tft.c **** 
 458:source\bsw\tft/tft.c **** void TFT_println(char* txt){
 459:source\bsw\tft/tft.c ****     while(*(txt)!=0){
 460:source\bsw\tft/tft.c ****         TFT_write(*(txt++));
 461:source\bsw\tft/tft.c ****     }
 462:source\bsw\tft/tft.c ****     TFT_write('\n');
 463:source\bsw\tft/tft.c **** }
 464:source\bsw\tft/tft.c **** 
 465:source\bsw\tft/tft.c **** void TFT_write(uint8_t c) {
 466:source\bsw\tft/tft.c **** 
 467:source\bsw\tft/tft.c ****     if(!gfxFont) {                              // 'Classic' built-in font
 468:source\bsw\tft/tft.c **** 
 469:source\bsw\tft/tft.c ****         if(c == '\n') {                         // Newline?
 470:source\bsw\tft/tft.c ****             cursor_x  = 0;                      // Reset x to zero,
 471:source\bsw\tft/tft.c ****             cursor_y += textsize * 8;           // advance y one line
 472:source\bsw\tft/tft.c ****         } else if(c != '\r') {                  // Ignore carriage returns
 473:source\bsw\tft/tft.c ****             if(wrap && ((cursor_x + textsize * 6) > _width)) { // Off right?
 474:source\bsw\tft/tft.c ****                 cursor_x  = 0;                  // Reset x to zero,
 475:source\bsw\tft/tft.c ****                 cursor_y += textsize * 8;       // advance y one line
 476:source\bsw\tft/tft.c ****             }
 477:source\bsw\tft/tft.c ****             TFT_drawChar(cursor_x, cursor_y, c, color, bgcolor, textsize);
 478:source\bsw\tft/tft.c ****             cursor_x += textsize * 6;          // Advance x one char
 479:source\bsw\tft/tft.c ****         }
 480:source\bsw\tft/tft.c **** 
 481:source\bsw\tft/tft.c ****     } else { // Custom font
 482:source\bsw\tft/tft.c **** 
 483:source\bsw\tft/tft.c ****         if(c == '\n') {
 484:source\bsw\tft/tft.c ****             cursor_x  = 0;
 485:source\bsw\tft/tft.c ****             cursor_y += (int16_t)textsize *
 486:source\bsw\tft/tft.c ****                         (uint8_t)pgm_read_byte(&gfxFont->yAdvance);
 487:source\bsw\tft/tft.c ****         } else if(c != '\r') {
 488:source\bsw\tft/tft.c ****             uint8_t first = pgm_read_byte(&gfxFont->first);
 489:source\bsw\tft/tft.c ****             if((c >= first) && (c <= (uint8_t)pgm_read_byte(&gfxFont->last))) {
 490:source\bsw\tft/tft.c ****                 GFXglyph *glyph = &(((GFXglyph *)pgm_read_pointer(
 491:source\bsw\tft/tft.c ****                   &gfxFont->glyph))[c - first]);
 492:source\bsw\tft/tft.c ****                 uint8_t   w     = pgm_read_byte(&glyph->width),
 493:source\bsw\tft/tft.c ****                           h     = pgm_read_byte(&glyph->height);
 494:source\bsw\tft/tft.c ****                 if((w > 0) && (h > 0)) { // Is there an associated bitmap?
 495:source\bsw\tft/tft.c ****                     int16_t xo = (int8_t)pgm_read_byte(&glyph->xOffset); // sic
 496:source\bsw\tft/tft.c ****                     if(wrap && ((cursor_x + textsize * (xo + w)) > _width)) {
 497:source\bsw\tft/tft.c ****                         cursor_x  = 0;
 498:source\bsw\tft/tft.c ****                         cursor_y += (int16_t)textsize *
 499:source\bsw\tft/tft.c ****                           (uint8_t)pgm_read_byte(&gfxFont->yAdvance);
 500:source\bsw\tft/tft.c ****                     }
 501:source\bsw\tft/tft.c ****                     TFT_drawChar(cursor_x, cursor_y, c, color, bgcolor, textsize);
ARM GAS  C:\Users\MATEOC~1.QUE\AppData\Local\Temp\ccxtWYOp.s 			page 32


 502:source\bsw\tft/tft.c ****                 }
 503:source\bsw\tft/tft.c ****                 cursor_x += (uint8_t)pgm_read_byte(&glyph->xAdvance) * (int16_t)textsize;
 504:source\bsw\tft/tft.c ****             }
 505:source\bsw\tft/tft.c ****         }
 506:source\bsw\tft/tft.c **** 
 507:source\bsw\tft/tft.c ****     }
 508:source\bsw\tft/tft.c **** }
 509:source\bsw\tft/tft.c **** 
 510:source\bsw\tft/tft.c **** void TFT_fillScreen(TFT_color_t color) {
 511:source\bsw\tft/tft.c ****   TFT_fillRect(0, 0,  _width, _height, color);
 512:source\bsw\tft/tft.c **** }
 513:source\bsw\tft/tft.c **** 
 514:source\bsw\tft/tft.c **** void TFT_clearScreen(void){TFT_fillScreen(TFT_getBGcolor());};
 515:source\bsw\tft/tft.c **** 
 516:source\bsw\tft/tft.c **** void TFT_fillRect(int16_t x, int16_t y, int16_t w, int16_t h, TFT_color_t color) {
 1159              		.loc 1 516 0
 1160              		.cfi_startproc
 1161              		@ args = 4, pretend = 0, frame = 0
 1162              		@ frame_needed = 0, uses_anonymous_args = 0
 1163              	.LVL96:
 1164 0000 2DE9F041 		push	{r4, r5, r6, r7, r8, lr}
 1165              		.cfi_def_cfa_offset 24
 1166              		.cfi_offset 4, -24
 1167              		.cfi_offset 5, -20
 1168              		.cfi_offset 6, -16
 1169              		.cfi_offset 7, -12
 1170              		.cfi_offset 8, -8
 1171              		.cfi_offset 14, -4
 1172 0004 1F46     		mov	r7, r3
 1173 0006 BDF81850 		ldrh	r5, [sp, #24]
 517:source\bsw\tft/tft.c ****     
 518:source\bsw\tft/tft.c ****     // rudimentary clipping (drawChar w/big text requires this)
 519:source\bsw\tft/tft.c ****     if((x >= _width) || (y >= _height)) return;
 1174              		.loc 1 519 0
 1175 000a 1F4B     		ldr	r3, .L102
 1176              	.LVL97:
 1177 000c B3F90630 		ldrsh	r3, [r3, #6]
 1178 0010 8342     		cmp	r3, r0
 1179 0012 36DD     		ble	.L93
 1180 0014 9046     		mov	r8, r2
 1181              		.loc 1 519 0 is_stmt 0 discriminator 1
 1182 0016 1C4A     		ldr	r2, .L102
 1183              	.LVL98:
 1184 0018 B2F8DA20 		ldrh	r2, [r2, #218]
 1185 001c 9142     		cmp	r1, r2
 1186 001e 30DA     		bge	.L93
 520:source\bsw\tft/tft.c ****     
 521:source\bsw\tft/tft.c ****     if((x + w - 1) >= _width)  w = _width  - x;
 1187              		.loc 1 521 0 is_stmt 1
 1188 0020 00EB0804 		add	r4, r0, r8
 1189 0024 013C     		subs	r4, r4, #1
 1190 0026 9C42     		cmp	r4, r3
 1191 0028 02DB     		blt	.L95
 1192              		.loc 1 521 0 is_stmt 0 discriminator 1
 1193 002a 1B1A     		subs	r3, r3, r0
 1194 002c 0FFA83F8 		sxth	r8, r3
 1195              	.LVL99:
ARM GAS  C:\Users\MATEOC~1.QUE\AppData\Local\Temp\ccxtWYOp.s 			page 33


 1196              	.L95:
 522:source\bsw\tft/tft.c ****     if((y + h - 1) >= _height) h = _height - y;
 1197              		.loc 1 522 0 is_stmt 1
 1198 0030 7B18     		adds	r3, r7, r1
 1199 0032 013B     		subs	r3, r3, #1
 1200 0034 9A42     		cmp	r2, r3
 1201 0036 01DC     		bgt	.L96
 1202              		.loc 1 522 0 is_stmt 0 discriminator 1
 1203 0038 571A     		subs	r7, r2, r1
 1204 003a 3FB2     		sxth	r7, r7
 1205              	.LVL100:
 1206              	.L96:
 523:source\bsw\tft/tft.c ****     
 524:source\bsw\tft/tft.c ****     setAddrWindow(x, y, x+w-1, y+h-1);
 1207              		.loc 1 524 0 is_stmt 1
 1208 003c C0B2     		uxtb	r0, r0
 1209              	.LVL101:
 1210 003e C9B2     		uxtb	r1, r1
 1211              	.LVL102:
 1212 0040 CB19     		adds	r3, r1, r7
 1213 0042 013B     		subs	r3, r3, #1
 1214 0044 00EB0802 		add	r2, r0, r8
 1215 0048 013A     		subs	r2, r2, #1
 1216 004a DBB2     		uxtb	r3, r3
 1217 004c D2B2     		uxtb	r2, r2
 1218 004e FFF7FEFF 		bl	setAddrWindow
 1219              	.LVL103:
 525:source\bsw\tft/tft.c **** 
 526:source\bsw\tft/tft.c ****     uint8_t hi = color >> 8, lo = color;
 1220              		.loc 1 526 0
 1221 0052 2E0A     		lsrs	r6, r5, #8
 1222              	.LVL104:
 1223 0054 EDB2     		uxtb	r5, r5
 1224              	.LVL105:
 527:source\bsw\tft/tft.c ****     
 528:source\bsw\tft/tft.c ****     TFT_DC_HIGH;
 1225              		.loc 1 528 0
 1226 0056 0120     		movs	r0, #1
 1227 0058 FFF7FEFF 		bl	TFT_DC_Write
 1228              	.LVL106:
 529:source\bsw\tft/tft.c ****     for(y=h; y>0; y--) {
 1229              		.loc 1 529 0
 1230 005c 0FE0     		b	.L97
 1231              	.LVL107:
 1232              	.L98:
 530:source\bsw\tft/tft.c ****         for(x=w; x>0; x--) {
 531:source\bsw\tft/tft.c ****           TFT_write_stream(hi);
 1233              		.loc 1 531 0 discriminator 3
 1234 005e 3146     		mov	r1, r6
 1235 0060 0220     		movs	r0, #2
 1236 0062 FFF7FEFF 		bl	TFT_send
 1237              	.LVL108:
 532:source\bsw\tft/tft.c ****           TFT_write_stream(lo);
 1238              		.loc 1 532 0 discriminator 3
 1239 0066 2946     		mov	r1, r5
 1240 0068 0220     		movs	r0, #2
 1241 006a FFF7FEFF 		bl	TFT_send
ARM GAS  C:\Users\MATEOC~1.QUE\AppData\Local\Temp\ccxtWYOp.s 			page 34


 1242              	.LVL109:
 530:source\bsw\tft/tft.c ****         for(x=w; x>0; x--) {
 1243              		.loc 1 530 0 discriminator 3
 1244 006e 013C     		subs	r4, r4, #1
 1245              	.LVL110:
 1246 0070 24B2     		sxth	r4, r4
 1247              	.LVL111:
 1248 0072 00E0     		b	.L99
 1249              	.LVL112:
 1250              	.L100:
 1251 0074 4446     		mov	r4, r8
 1252              	.L99:
 1253              	.LVL113:
 530:source\bsw\tft/tft.c ****         for(x=w; x>0; x--) {
 1254              		.loc 1 530 0 is_stmt 0 discriminator 1
 1255 0076 002C     		cmp	r4, #0
 1256 0078 F1DC     		bgt	.L98
 529:source\bsw\tft/tft.c ****     for(y=h; y>0; y--) {
 1257              		.loc 1 529 0 is_stmt 1 discriminator 2
 1258 007a 013F     		subs	r7, r7, #1
 1259              	.LVL114:
 1260 007c 3FB2     		sxth	r7, r7
 1261              	.LVL115:
 1262              	.L97:
 529:source\bsw\tft/tft.c ****     for(y=h; y>0; y--) {
 1263              		.loc 1 529 0 is_stmt 0 discriminator 1
 1264 007e 002F     		cmp	r7, #0
 1265 0080 F8DC     		bgt	.L100
 1266              	.LVL116:
 1267              	.L93:
 1268 0082 BDE8F081 		pop	{r4, r5, r6, r7, r8, pc}
 1269              	.LVL117:
 1270              	.L103:
 1271 0086 00BF     		.align	2
 1272              	.L102:
 1273 0088 00000000 		.word	.LANCHOR0
 1274              		.cfi_endproc
 1275              	.LFE26:
 1276              		.size	TFT_fillRect, .-TFT_fillRect
 1277              		.section	.text.TFT_fillScreen,"ax",%progbits
 1278              		.align	2
 1279              		.global	TFT_fillScreen
 1280              		.thumb
 1281              		.thumb_func
 1282              		.type	TFT_fillScreen, %function
 1283              	TFT_fillScreen:
 1284              	.LFB24:
 510:source\bsw\tft/tft.c ****   TFT_fillRect(0, 0,  _width, _height, color);
 1285              		.loc 1 510 0 is_stmt 1
 1286              		.cfi_startproc
 1287              		@ args = 0, pretend = 0, frame = 0
 1288              		@ frame_needed = 0, uses_anonymous_args = 0
 1289              	.LVL118:
 1290 0000 00B5     		push	{lr}
 1291              		.cfi_def_cfa_offset 4
 1292              		.cfi_offset 14, -4
 1293 0002 83B0     		sub	sp, sp, #12
ARM GAS  C:\Users\MATEOC~1.QUE\AppData\Local\Temp\ccxtWYOp.s 			page 35


 1294              		.cfi_def_cfa_offset 16
 511:source\bsw\tft/tft.c **** }
 1295              		.loc 1 511 0
 1296 0004 064A     		ldr	r2, .L106
 1297 0006 B2F9DA30 		ldrsh	r3, [r2, #218]
 1298 000a B2F90620 		ldrsh	r2, [r2, #6]
 1299 000e 0090     		str	r0, [sp]
 1300 0010 0021     		movs	r1, #0
 1301 0012 0846     		mov	r0, r1
 1302              	.LVL119:
 1303 0014 FFF7FEFF 		bl	TFT_fillRect
 1304              	.LVL120:
 512:source\bsw\tft/tft.c **** 
 1305              		.loc 1 512 0
 1306 0018 03B0     		add	sp, sp, #12
 1307              		.cfi_def_cfa_offset 4
 1308              		@ sp needed
 1309 001a 5DF804FB 		ldr	pc, [sp], #4
 1310              	.L107:
 1311 001e 00BF     		.align	2
 1312              	.L106:
 1313 0020 00000000 		.word	.LANCHOR0
 1314              		.cfi_endproc
 1315              	.LFE24:
 1316              		.size	TFT_fillScreen, .-TFT_fillScreen
 1317              		.section	.text.TFT_init,"ax",%progbits
 1318              		.align	2
 1319              		.global	TFT_init
 1320              		.thumb
 1321              		.thumb_func
 1322              		.type	TFT_init, %function
 1323              	TFT_init:
 1324              	.LFB5:
 193:source\bsw\tft/tft.c ****     
 1325              		.loc 1 193 0
 1326              		.cfi_startproc
 1327              		@ args = 0, pretend = 0, frame = 0
 1328              		@ frame_needed = 0, uses_anonymous_args = 0
 1329 0000 F8B5     		push	{r3, r4, r5, r6, r7, lr}
 1330              		.cfi_def_cfa_offset 24
 1331              		.cfi_offset 3, -24
 1332              		.cfi_offset 4, -20
 1333              		.cfi_offset 5, -16
 1334              		.cfi_offset 6, -12
 1335              		.cfi_offset 7, -8
 1336              		.cfi_offset 14, -4
 196:source\bsw\tft/tft.c ****     _height   = CFG_TFT_HEIGHT;
 1337              		.loc 1 196 0
 1338 0002 364B     		ldr	r3, .L114
 1339 0004 8022     		movs	r2, #128
 1340 0006 DA80     		strh	r2, [r3, #6]	@ movhi
 197:source\bsw\tft/tft.c ****     rotation=0;
 1341              		.loc 1 197 0
 1342 0008 A022     		movs	r2, #160
 1343 000a A3F8DA20 		strh	r2, [r3, #218]	@ movhi
 198:source\bsw\tft/tft.c ****     cursor_x=0;
 1344              		.loc 1 198 0
ARM GAS  C:\Users\MATEOC~1.QUE\AppData\Local\Temp\ccxtWYOp.s 			page 36


 1345 000e 0024     		movs	r4, #0
 1346 0010 83F8D840 		strb	r4, [r3, #216]
 199:source\bsw\tft/tft.c ****     cursor_y=0;
 1347              		.loc 1 199 0
 1348 0014 A3F8DE40 		strh	r4, [r3, #222]	@ movhi
 200:source\bsw\tft/tft.c ****     textsize=1;
 1349              		.loc 1 200 0
 1350 0018 A3F8E040 		strh	r4, [r3, #224]	@ movhi
 201:source\bsw\tft/tft.c ****     color=CFG_TFT_COLOR_TEXT;
 1351              		.loc 1 201 0
 1352 001c 0125     		movs	r5, #1
 1353 001e 1D71     		strb	r5, [r3, #4]
 202:source\bsw\tft/tft.c ****     bgcolor=CFG_TFT_COLOR_TEXTBG;
 1354              		.loc 1 202 0
 1355 0020 4FF6FF72 		movw	r2, #65535
 1356 0024 A3F8E220 		strh	r2, [r3, #226]	@ movhi
 203:source\bsw\tft/tft.c ****     wrap=TRUE;
 1357              		.loc 1 203 0
 1358 0028 A3F8E440 		strh	r4, [r3, #228]	@ movhi
 204:source\bsw\tft/tft.c ****     gfxFont=NULL;
 1359              		.loc 1 204 0
 1360 002c 5D71     		strb	r5, [r3, #5]
 205:source\bsw\tft/tft.c ****     ystart = xstart = colstart  = rowstart = 0;
 1361              		.loc 1 205 0
 1362 002e 1C60     		str	r4, [r3]
 206:source\bsw\tft/tft.c ****     
 1363              		.loc 1 206 0
 1364 0030 83F8DD40 		strb	r4, [r3, #221]
 1365 0034 83F8DC40 		strb	r4, [r3, #220]
 1366 0038 83F8D640 		strb	r4, [r3, #214]
 1367 003c 83F8D740 		strb	r4, [r3, #215]
 209:source\bsw\tft/tft.c ****     TFT_RB_out.write=0;
 1368              		.loc 1 209 0
 1369 0040 1C81     		strh	r4, [r3, #8]	@ movhi
 210:source\bsw\tft/tft.c ****     TFT_RB_out.fill=0;
 1370              		.loc 1 210 0
 1371 0042 5C81     		strh	r4, [r3, #10]	@ movhi
 211:source\bsw\tft/tft.c ****     
 1372              		.loc 1 211 0
 1373 0044 9C81     		strh	r4, [r3, #12]	@ movhi
 214:source\bsw\tft/tft.c ****     
 1374              		.loc 1 214 0
 1375 0046 FFF7FEFF 		bl	TFT_SPI_Start
 1376              	.LVL121:
 217:source\bsw\tft/tft.c ****     CFG_TFT_DELAY_MS(100);
 1377              		.loc 1 217 0
 1378 004a 2846     		mov	r0, r5
 1379 004c FFF7FEFF 		bl	TFT_RES_Write
 1380              	.LVL122:
 218:source\bsw\tft/tft.c ****     TFT_RES_LOW;
 1381              		.loc 1 218 0
 1382 0050 6420     		movs	r0, #100
 1383 0052 FFF7FEFF 		bl	CyDelay
 1384              	.LVL123:
 219:source\bsw\tft/tft.c **** 	CFG_TFT_DELAY_MS(100);
 1385              		.loc 1 219 0
 1386 0056 2046     		mov	r0, r4
ARM GAS  C:\Users\MATEOC~1.QUE\AppData\Local\Temp\ccxtWYOp.s 			page 37


 1387 0058 FFF7FEFF 		bl	TFT_RES_Write
 1388              	.LVL124:
 220:source\bsw\tft/tft.c **** 	TFT_RES_HIGH;
 1389              		.loc 1 220 0
 1390 005c 6420     		movs	r0, #100
 1391 005e FFF7FEFF 		bl	CyDelay
 1392              	.LVL125:
 221:source\bsw\tft/tft.c **** 	CFG_TFT_DELAY_MS(20);
 1393              		.loc 1 221 0
 1394 0062 2846     		mov	r0, r5
 1395 0064 FFF7FEFF 		bl	TFT_RES_Write
 1396              	.LVL126:
 222:source\bsw\tft/tft.c ****     
 1397              		.loc 1 222 0
 1398 0068 1420     		movs	r0, #20
 1399 006a FFF7FEFF 		bl	CyDelay
 1400              	.LVL127:
 225:source\bsw\tft/tft.c ****     CFG_TFT_DELAY_MS(50);
 1401              		.loc 1 225 0
 1402 006e 2946     		mov	r1, r5
 1403 0070 2046     		mov	r0, r4
 1404 0072 FFF7FEFF 		bl	TFT_send
 1405              	.LVL128:
 226:source\bsw\tft/tft.c ****     
 1406              		.loc 1 226 0
 1407 0076 3220     		movs	r0, #50
 1408 0078 FFF7FEFF 		bl	CyDelay
 1409              	.LVL129:
 229:source\bsw\tft/tft.c **** 	CFG_TFT_DELAY_MS(120);              //Delay 120ms
 1410              		.loc 1 229 0
 1411 007c 1121     		movs	r1, #17
 1412 007e 2046     		mov	r0, r4
 1413 0080 FFF7FEFF 		bl	TFT_send
 1414              	.LVL130:
 230:source\bsw\tft/tft.c ****     
 1415              		.loc 1 230 0
 1416 0084 7820     		movs	r0, #120
 1417 0086 FFF7FEFF 		bl	CyDelay
 1418              	.LVL131:
 235:source\bsw\tft/tft.c ****     while(numCommands--) {          // For each command...
 1419              		.loc 1 235 0
 1420 008a 0F22     		movs	r2, #15
 1421 008c 144D     		ldr	r5, .L114+4
 236:source\bsw\tft/tft.c ****         TFT_write_cmd(*(addr++));    // Read, issue command
 1422              		.loc 1 236 0
 1423 008e 14E0     		b	.L109
 1424              	.LVL132:
 1425              	.L112:
 237:source\bsw\tft/tft.c ****         numArgs  = *(addr++);       // Number of args to follow
 1426              		.loc 1 237 0
 1427 0090 2C46     		mov	r4, r5
 1428 0092 14F8021B 		ldrb	r1, [r4], #2	@ zero_extendqisi2
 1429 0096 0020     		movs	r0, #0
 1430 0098 FFF7FEFF 		bl	TFT_send
 1431              	.LVL133:
 238:source\bsw\tft/tft.c ****         while(numArgs--) {          // For each argument...
 1432              		.loc 1 238 0
ARM GAS  C:\Users\MATEOC~1.QUE\AppData\Local\Temp\ccxtWYOp.s 			page 38


 1433 009c 6A78     		ldrb	r2, [r5, #1]	@ zero_extendqisi2
 1434              	.LVL134:
 1435 009e 2546     		mov	r5, r4
 239:source\bsw\tft/tft.c ****           TFT_write_data(*(addr++));     // Read, issue argument
 1436              		.loc 1 239 0
 1437 00a0 06E0     		b	.L110
 1438              	.LVL135:
 1439              	.L111:
 240:source\bsw\tft/tft.c ****         }
 1440              		.loc 1 240 0
 1441 00a2 6E1C     		adds	r6, r5, #1
 1442              	.LVL136:
 1443 00a4 2978     		ldrb	r1, [r5]	@ zero_extendqisi2
 1444 00a6 0120     		movs	r0, #1
 1445 00a8 FFF7FEFF 		bl	TFT_send
 1446              	.LVL137:
 239:source\bsw\tft/tft.c ****           TFT_write_data(*(addr++));     // Read, issue argument
 1447              		.loc 1 239 0
 1448 00ac 2246     		mov	r2, r4
 240:source\bsw\tft/tft.c ****         }
 1449              		.loc 1 240 0
 1450 00ae 3546     		mov	r5, r6
 1451              	.LVL138:
 1452              	.L110:
 239:source\bsw\tft/tft.c ****           TFT_write_data(*(addr++));     // Read, issue argument
 1453              		.loc 1 239 0
 1454 00b0 531E     		subs	r3, r2, #1
 1455 00b2 DCB2     		uxtb	r4, r3
 1456              	.LVL139:
 1457 00b4 002A     		cmp	r2, #0
 1458 00b6 F4D1     		bne	.L111
 236:source\bsw\tft/tft.c ****         TFT_write_cmd(*(addr++));    // Read, issue command
 1459              		.loc 1 236 0
 1460 00b8 3A46     		mov	r2, r7
 1461              	.LVL140:
 1462              	.L109:
 1463 00ba 531E     		subs	r3, r2, #1
 1464 00bc DFB2     		uxtb	r7, r3
 1465              	.LVL141:
 1466 00be 002A     		cmp	r2, #0
 1467 00c0 E6D1     		bne	.L112
 245:source\bsw\tft/tft.c ****     
 1468              		.loc 1 245 0
 1469 00c2 0220     		movs	r0, #2
 1470 00c4 FFF7FEFF 		bl	TFT_setRotation
 1471              	.LVL142:
 248:source\bsw\tft/tft.c ****     
 1472              		.loc 1 248 0
 1473 00c8 0020     		movs	r0, #0
 1474 00ca FFF7FEFF 		bl	TFT_fillScreen
 1475              	.LVL143:
 251:source\bsw\tft/tft.c ****     MODULE_PWM(WriteCompare)(CFG_TFT_BACKLIGHT);
 1476              		.loc 1 251 0
 1477 00ce FFF7FEFF 		bl	TFT_BackLight_Start
 1478              	.LVL144:
 252:source\bsw\tft/tft.c **** }
 1479              		.loc 1 252 0
ARM GAS  C:\Users\MATEOC~1.QUE\AppData\Local\Temp\ccxtWYOp.s 			page 39


 1480 00d2 6420     		movs	r0, #100
 1481 00d4 FFF7FEFF 		bl	TFT_BackLight_WriteCompare
 1482              	.LVL145:
 1483 00d8 F8BD     		pop	{r3, r4, r5, r6, r7, pc}
 1484              	.LVL146:
 1485              	.L115:
 1486 00da 00BF     		.align	2
 1487              	.L114:
 1488 00dc 00000000 		.word	.LANCHOR0
 1489 00e0 01000000 		.word	.LANCHOR1+1
 1490              		.cfi_endproc
 1491              	.LFE5:
 1492              		.size	TFT_init, .-TFT_init
 1493              		.section	.text.TFT_clearScreen,"ax",%progbits
 1494              		.align	2
 1495              		.global	TFT_clearScreen
 1496              		.thumb
 1497              		.thumb_func
 1498              		.type	TFT_clearScreen, %function
 1499              	TFT_clearScreen:
 1500              	.LFB25:
 514:source\bsw\tft/tft.c **** 
 1501              		.loc 1 514 0
 1502              		.cfi_startproc
 1503              		@ args = 0, pretend = 0, frame = 0
 1504              		@ frame_needed = 0, uses_anonymous_args = 0
 1505 0000 08B5     		push	{r3, lr}
 1506              		.cfi_def_cfa_offset 8
 1507              		.cfi_offset 3, -8
 1508              		.cfi_offset 14, -4
 514:source\bsw\tft/tft.c **** 
 1509              		.loc 1 514 0
 1510 0002 FFF7FEFF 		bl	TFT_getBGcolor
 1511              	.LVL147:
 1512 0006 FFF7FEFF 		bl	TFT_fillScreen
 1513              	.LVL148:
 1514 000a 08BD     		pop	{r3, pc}
 1515              		.cfi_endproc
 1516              	.LFE25:
 1517              		.size	TFT_clearScreen, .-TFT_clearScreen
 1518              		.section	.text.TFT_drawPixel,"ax",%progbits
 1519              		.align	2
 1520              		.global	TFT_drawPixel
 1521              		.thumb
 1522              		.thumb_func
 1523              		.type	TFT_drawPixel, %function
 1524              	TFT_drawPixel:
 1525              	.LFB27:
 533:source\bsw\tft/tft.c ****         }
 534:source\bsw\tft/tft.c ****     }
 535:source\bsw\tft/tft.c **** }
 536:source\bsw\tft/tft.c **** 
 537:source\bsw\tft/tft.c **** void TFT_drawPixel(int16_t x, int16_t y, TFT_color_t color) {
 1526              		.loc 1 537 0
 1527              		.cfi_startproc
 1528              		@ args = 0, pretend = 0, frame = 0
 1529              		@ frame_needed = 0, uses_anonymous_args = 0
ARM GAS  C:\Users\MATEOC~1.QUE\AppData\Local\Temp\ccxtWYOp.s 			page 40


 1530              	.LVL149:
 538:source\bsw\tft/tft.c **** 
 539:source\bsw\tft/tft.c ****     if((x < 0) ||(x >= _width) || (y < 0) || (y >= _height)) return;
 1531              		.loc 1 539 0
 1532 0000 0028     		cmp	r0, #0
 1533              	.LVL150:
 1534 0002 21DB     		blt	.L121
 1535              		.loc 1 539 0 is_stmt 0 discriminator 1
 1536 0004 114B     		ldr	r3, .L122
 1537 0006 B3F90630 		ldrsh	r3, [r3, #6]
 1538 000a 9842     		cmp	r0, r3
 1539 000c 1CDA     		bge	.L121
 1540              		.loc 1 539 0 discriminator 2
 1541 000e 0029     		cmp	r1, #0
 1542 0010 1ADB     		blt	.L121
 1543              		.loc 1 539 0 discriminator 3
 1544 0012 0E4B     		ldr	r3, .L122
 1545 0014 B3F8DA30 		ldrh	r3, [r3, #218]
 1546 0018 9942     		cmp	r1, r3
 1547 001a 15DA     		bge	.L121
 537:source\bsw\tft/tft.c **** 
 1548              		.loc 1 537 0 is_stmt 1
 1549 001c 10B5     		push	{r4, lr}
 1550              		.cfi_def_cfa_offset 8
 1551              		.cfi_offset 4, -8
 1552              		.cfi_offset 14, -4
 1553 001e 1446     		mov	r4, r2
 540:source\bsw\tft/tft.c ****     setAddrWindow(x,y,x+1,y+1);
 1554              		.loc 1 540 0
 1555 0020 C0B2     		uxtb	r0, r0
 1556 0022 C9B2     		uxtb	r1, r1
 1557              	.LVL151:
 1558 0024 4B1C     		adds	r3, r1, #1
 1559 0026 421C     		adds	r2, r0, #1
 1560              	.LVL152:
 1561 0028 DBB2     		uxtb	r3, r3
 1562 002a D2B2     		uxtb	r2, r2
 1563 002c FFF7FEFF 		bl	setAddrWindow
 1564              	.LVL153:
 541:source\bsw\tft/tft.c **** 
 542:source\bsw\tft/tft.c ****     TFT_DC_HIGH;
 1565              		.loc 1 542 0
 1566 0030 0120     		movs	r0, #1
 1567 0032 FFF7FEFF 		bl	TFT_DC_Write
 1568              	.LVL154:
 543:source\bsw\tft/tft.c ****     TFT_write_stream(color >> 8);
 1569              		.loc 1 543 0
 1570 0036 210A     		lsrs	r1, r4, #8
 1571 0038 0220     		movs	r0, #2
 1572 003a FFF7FEFF 		bl	TFT_send
 1573              	.LVL155:
 544:source\bsw\tft/tft.c ****     TFT_write_stream(color);
 1574              		.loc 1 544 0
 1575 003e E1B2     		uxtb	r1, r4
 1576 0040 0220     		movs	r0, #2
 1577 0042 FFF7FEFF 		bl	TFT_send
 1578              	.LVL156:
ARM GAS  C:\Users\MATEOC~1.QUE\AppData\Local\Temp\ccxtWYOp.s 			page 41


 1579 0046 10BD     		pop	{r4, pc}
 1580              	.LVL157:
 1581              	.L121:
 1582              		.cfi_def_cfa_offset 0
 1583              		.cfi_restore 4
 1584              		.cfi_restore 14
 1585 0048 7047     		bx	lr
 1586              	.L123:
 1587 004a 00BF     		.align	2
 1588              	.L122:
 1589 004c 00000000 		.word	.LANCHOR0
 1590              		.cfi_endproc
 1591              	.LFE27:
 1592              		.size	TFT_drawPixel, .-TFT_drawPixel
 1593              		.section	.text.TFT_drawCircleHelper,"ax",%progbits
 1594              		.align	2
 1595              		.thumb
 1596              		.thumb_func
 1597              		.type	TFT_drawCircleHelper, %function
 1598              	TFT_drawCircleHelper:
 1599              	.LFB33:
 545:source\bsw\tft/tft.c **** 
 546:source\bsw\tft/tft.c **** }
 547:source\bsw\tft/tft.c **** 
 548:source\bsw\tft/tft.c **** void TFT_fastVLine(int16_t x, int16_t y, int16_t h, TFT_color_t color) {
 549:source\bsw\tft/tft.c **** 
 550:source\bsw\tft/tft.c ****   // Rudimentary clipping
 551:source\bsw\tft/tft.c ****   if((x >= _width) || (y >= _height)) return;
 552:source\bsw\tft/tft.c ****   if((y+h-1) >= _height) h = _height-y;
 553:source\bsw\tft/tft.c ****   setAddrWindow(x, y, x, y+h-1);
 554:source\bsw\tft/tft.c **** 
 555:source\bsw\tft/tft.c ****   uint8_t hi = color >> 8, lo = color;
 556:source\bsw\tft/tft.c ****     
 557:source\bsw\tft/tft.c ****   TFT_DC_HIGH;
 558:source\bsw\tft/tft.c ****   while (h--) {
 559:source\bsw\tft/tft.c ****     TFT_write_stream(hi);
 560:source\bsw\tft/tft.c ****     TFT_write_stream(lo);
 561:source\bsw\tft/tft.c ****   }
 562:source\bsw\tft/tft.c **** }
 563:source\bsw\tft/tft.c **** 
 564:source\bsw\tft/tft.c **** void TFT_fastHLine(int16_t x, int16_t y, int16_t w,  TFT_color_t color) {
 565:source\bsw\tft/tft.c **** 
 566:source\bsw\tft/tft.c ****     // Rudimentary clipping
 567:source\bsw\tft/tft.c ****     if((x >= _width) || (y >= _height)) return;
 568:source\bsw\tft/tft.c ****     if((x+w-1) >= _width)  w = _width-x;
 569:source\bsw\tft/tft.c ****     setAddrWindow(x, y, x+w-1, y);
 570:source\bsw\tft/tft.c **** 
 571:source\bsw\tft/tft.c ****     uint8_t hi = color >> 8, lo = color;
 572:source\bsw\tft/tft.c **** 
 573:source\bsw\tft/tft.c ****     TFT_DC_HIGH;
 574:source\bsw\tft/tft.c **** 
 575:source\bsw\tft/tft.c ****     while (w--) {
 576:source\bsw\tft/tft.c ****         TFT_write_stream(hi);
 577:source\bsw\tft/tft.c ****         TFT_write_stream(lo);
 578:source\bsw\tft/tft.c ****     }
 579:source\bsw\tft/tft.c **** }
 580:source\bsw\tft/tft.c **** 
ARM GAS  C:\Users\MATEOC~1.QUE\AppData\Local\Temp\ccxtWYOp.s 			page 42


 581:source\bsw\tft/tft.c **** // Bresenham's algorithm - thx wikpedia
 582:source\bsw\tft/tft.c **** void TFT_writeLine(int16_t x0, int16_t y0, int16_t x1, int16_t y1,  TFT_color_t color) {
 583:source\bsw\tft/tft.c ****     int16_t steep = _abs(y1 - y0) > _abs(x1 - x0);
 584:source\bsw\tft/tft.c ****     if (steep) {
 585:source\bsw\tft/tft.c ****         _swap_int16_t(x0, y0);
 586:source\bsw\tft/tft.c ****         _swap_int16_t(x1, y1);
 587:source\bsw\tft/tft.c ****     }
 588:source\bsw\tft/tft.c **** 
 589:source\bsw\tft/tft.c ****     if (x0 > x1) {
 590:source\bsw\tft/tft.c ****         _swap_int16_t(x0, x1);
 591:source\bsw\tft/tft.c ****         _swap_int16_t(y0, y1);
 592:source\bsw\tft/tft.c ****     }
 593:source\bsw\tft/tft.c **** 
 594:source\bsw\tft/tft.c ****     int16_t dx, dy;
 595:source\bsw\tft/tft.c ****     dx = x1 - x0;
 596:source\bsw\tft/tft.c ****     dy = _abs(y1 - y0);
 597:source\bsw\tft/tft.c **** 
 598:source\bsw\tft/tft.c ****     int16_t err = dx / 2;
 599:source\bsw\tft/tft.c ****     int16_t ystep;
 600:source\bsw\tft/tft.c **** 
 601:source\bsw\tft/tft.c ****     if (y0 < y1) {
 602:source\bsw\tft/tft.c ****         ystep = 1;
 603:source\bsw\tft/tft.c ****     } else {
 604:source\bsw\tft/tft.c ****         ystep = -1;
 605:source\bsw\tft/tft.c ****     }
 606:source\bsw\tft/tft.c **** 
 607:source\bsw\tft/tft.c ****     for (; x0<=x1; x0++) {
 608:source\bsw\tft/tft.c ****         if (steep) {
 609:source\bsw\tft/tft.c ****             TFT_drawPixel(y0, x0, color);
 610:source\bsw\tft/tft.c ****         } else {
 611:source\bsw\tft/tft.c ****             TFT_drawPixel(x0, y0, color);
 612:source\bsw\tft/tft.c ****         }
 613:source\bsw\tft/tft.c ****         err -= dy;
 614:source\bsw\tft/tft.c ****         if (err < 0) {
 615:source\bsw\tft/tft.c ****             y0 += ystep;
 616:source\bsw\tft/tft.c ****             err += dx;
 617:source\bsw\tft/tft.c ****         }
 618:source\bsw\tft/tft.c ****     }
 619:source\bsw\tft/tft.c **** }
 620:source\bsw\tft/tft.c **** 
 621:source\bsw\tft/tft.c **** void TFT_invertDisplay(boolean_t i) {
 622:source\bsw\tft/tft.c ****   TFT_write_cmd(i ? ST7735_INVON : ST7735_INVOFF);
 623:source\bsw\tft/tft.c **** }
 624:source\bsw\tft/tft.c **** 
 625:source\bsw\tft/tft.c **** // Draw a circle outline
 626:source\bsw\tft/tft.c **** void TFT_drawCircle(int16_t x0, int16_t y0, int16_t r, TFT_color_t color) {
 627:source\bsw\tft/tft.c ****     int16_t f = 1 - r;
 628:source\bsw\tft/tft.c ****     int16_t ddF_x = 1;
 629:source\bsw\tft/tft.c ****     int16_t ddF_y = -2 * r;
 630:source\bsw\tft/tft.c ****     int16_t x = 0;
 631:source\bsw\tft/tft.c ****     int16_t y = r;
 632:source\bsw\tft/tft.c **** 
 633:source\bsw\tft/tft.c ****     TFT_drawPixel(x0  , y0+r, color);
 634:source\bsw\tft/tft.c ****     TFT_drawPixel(x0  , y0-r, color);
 635:source\bsw\tft/tft.c ****     TFT_drawPixel(x0+r, y0  , color);
 636:source\bsw\tft/tft.c ****     TFT_drawPixel(x0-r, y0  , color);
 637:source\bsw\tft/tft.c **** 
ARM GAS  C:\Users\MATEOC~1.QUE\AppData\Local\Temp\ccxtWYOp.s 			page 43


 638:source\bsw\tft/tft.c ****     while (x<y) {
 639:source\bsw\tft/tft.c ****         if (f >= 0) {
 640:source\bsw\tft/tft.c ****             y--;
 641:source\bsw\tft/tft.c ****             ddF_y += 2;
 642:source\bsw\tft/tft.c ****             f += ddF_y;
 643:source\bsw\tft/tft.c ****         }
 644:source\bsw\tft/tft.c ****         x++;
 645:source\bsw\tft/tft.c ****         ddF_x += 2;
 646:source\bsw\tft/tft.c ****         f += ddF_x;
 647:source\bsw\tft/tft.c **** 
 648:source\bsw\tft/tft.c ****         TFT_drawPixel(x0 + x, y0 + y, color);
 649:source\bsw\tft/tft.c ****         TFT_drawPixel(x0 - x, y0 + y, color);
 650:source\bsw\tft/tft.c ****         TFT_drawPixel(x0 + x, y0 - y, color);
 651:source\bsw\tft/tft.c ****         TFT_drawPixel(x0 - x, y0 - y, color);
 652:source\bsw\tft/tft.c ****         TFT_drawPixel(x0 + y, y0 + x, color);
 653:source\bsw\tft/tft.c ****         TFT_drawPixel(x0 - y, y0 + x, color);
 654:source\bsw\tft/tft.c ****         TFT_drawPixel(x0 + y, y0 - x, color);
 655:source\bsw\tft/tft.c ****         TFT_drawPixel(x0 - y, y0 - x, color);
 656:source\bsw\tft/tft.c ****     }
 657:source\bsw\tft/tft.c **** 
 658:source\bsw\tft/tft.c **** }
 659:source\bsw\tft/tft.c **** 
 660:source\bsw\tft/tft.c **** void TFT_drawCircleHelper( int16_t x0, int16_t y0, int16_t r, uint8_t cornername, TFT_color_t color
 1600              		.loc 1 660 0
 1601              		.cfi_startproc
 1602              		@ args = 4, pretend = 0, frame = 24
 1603              		@ frame_needed = 0, uses_anonymous_args = 0
 1604              	.LVL158:
 1605 0000 2DE9F04F 		push	{r4, r5, r6, r7, r8, r9, r10, fp, lr}
 1606              		.cfi_def_cfa_offset 36
 1607              		.cfi_offset 4, -36
 1608              		.cfi_offset 5, -32
 1609              		.cfi_offset 6, -28
 1610              		.cfi_offset 7, -24
 1611              		.cfi_offset 8, -20
 1612              		.cfi_offset 9, -16
 1613              		.cfi_offset 10, -12
 1614              		.cfi_offset 11, -8
 1615              		.cfi_offset 14, -4
 1616 0004 87B0     		sub	sp, sp, #28
 1617              		.cfi_def_cfa_offset 64
 1618 0006 0490     		str	r0, [sp, #16]
 1619 0008 0591     		str	r1, [sp, #20]
 1620 000a 1746     		mov	r7, r2
 1621 000c 9946     		mov	r9, r3
 1622 000e BDF84030 		ldrh	r3, [sp, #64]
 1623              	.LVL159:
 1624 0012 0193     		str	r3, [sp, #4]
 661:source\bsw\tft/tft.c ****     int16_t f     = 1 - r;
 1625              		.loc 1 661 0
 1626 0014 93B2     		uxth	r3, r2
 1627 0016 C3F10104 		rsb	r4, r3, #1
 1628 001a 24B2     		sxth	r4, r4
 1629              	.LVL160:
 662:source\bsw\tft/tft.c ****     int16_t ddF_x = 1;
 663:source\bsw\tft/tft.c ****     int16_t ddF_y = -2 * r;
 1630              		.loc 1 663 0
ARM GAS  C:\Users\MATEOC~1.QUE\AppData\Local\Temp\ccxtWYOp.s 			page 44


 1631 001c C3EBC333 		rsb	r3, r3, r3, lsl #15
 1632 0020 5A00     		lsls	r2, r3, #1
 1633              	.LVL161:
 1634 0022 13B2     		sxth	r3, r2
 1635 0024 0393     		str	r3, [sp, #12]
 1636              	.LVL162:
 664:source\bsw\tft/tft.c ****     int16_t x     = 0;
 1637              		.loc 1 664 0
 1638 0026 4FF00008 		mov	r8, #0
 662:source\bsw\tft/tft.c ****     int16_t ddF_x = 1;
 1639              		.loc 1 662 0
 1640 002a 0123     		movs	r3, #1
 1641 002c 0293     		str	r3, [sp, #8]
 665:source\bsw\tft/tft.c ****     int16_t y     = r;
 666:source\bsw\tft/tft.c **** 
 667:source\bsw\tft/tft.c ****     while (x<y) {
 1642              		.loc 1 667 0
 1643 002e 7FE0     		b	.L125
 1644              	.LVL163:
 1645              	.L131:
 668:source\bsw\tft/tft.c ****         if (f >= 0) {
 1646              		.loc 1 668 0
 1647 0030 002C     		cmp	r4, #0
 1648 0032 08DB     		blt	.L126
 669:source\bsw\tft/tft.c ****             y--;
 1649              		.loc 1 669 0
 1650 0034 013F     		subs	r7, r7, #1
 1651              	.LVL164:
 1652 0036 3FB2     		sxth	r7, r7
 1653              	.LVL165:
 670:source\bsw\tft/tft.c ****             ddF_y += 2;
 1654              		.loc 1 670 0
 1655 0038 039B     		ldr	r3, [sp, #12]
 1656 003a 0233     		adds	r3, r3, #2
 1657 003c 9BB2     		uxth	r3, r3
 1658 003e 1AB2     		sxth	r2, r3
 1659 0040 0392     		str	r2, [sp, #12]
 1660              	.LVL166:
 671:source\bsw\tft/tft.c ****             f     += ddF_y;
 1661              		.loc 1 671 0
 1662 0042 1C44     		add	r4, r4, r3
 1663              	.LVL167:
 1664 0044 24B2     		sxth	r4, r4
 1665              	.LVL168:
 1666              	.L126:
 672:source\bsw\tft/tft.c ****         }
 673:source\bsw\tft/tft.c ****         x++;
 1667              		.loc 1 673 0
 1668 0046 08F10108 		add	r8, r8, #1
 1669              	.LVL169:
 1670 004a 1FFA88F5 		uxth	r5, r8
 1671 004e 0FFA85F8 		sxth	r8, r5
 1672              	.LVL170:
 674:source\bsw\tft/tft.c ****         ddF_x += 2;
 1673              		.loc 1 674 0
 1674 0052 029B     		ldr	r3, [sp, #8]
 1675 0054 0233     		adds	r3, r3, #2
ARM GAS  C:\Users\MATEOC~1.QUE\AppData\Local\Temp\ccxtWYOp.s 			page 45


 1676 0056 9BB2     		uxth	r3, r3
 1677 0058 1AB2     		sxth	r2, r3
 1678 005a 0292     		str	r2, [sp, #8]
 1679              	.LVL171:
 675:source\bsw\tft/tft.c ****         f     += ddF_x;
 1680              		.loc 1 675 0
 1681 005c 1C44     		add	r4, r4, r3
 1682              	.LVL172:
 1683 005e 24B2     		sxth	r4, r4
 1684              	.LVL173:
 676:source\bsw\tft/tft.c ****         if (cornername & 0x4) {
 1685              		.loc 1 676 0
 1686 0060 19F0040F 		tst	r9, #4
 1687 0064 16D0     		beq	.L127
 677:source\bsw\tft/tft.c ****             TFT_drawPixel(x0 + x, y0 + y, color);
 1688              		.loc 1 677 0
 1689 0066 BDF810B0 		ldrh	fp, [sp, #16]
 1690 006a BDF81460 		ldrh	r6, [sp, #20]
 1691 006e 1FFA87FA 		uxth	r10, r7
 1692 0072 06EB0A01 		add	r1, r6, r10
 1693 0076 05EB0B00 		add	r0, r5, fp
 1694 007a 019A     		ldr	r2, [sp, #4]
 1695 007c 09B2     		sxth	r1, r1
 1696 007e 00B2     		sxth	r0, r0
 1697 0080 FFF7FEFF 		bl	TFT_drawPixel
 1698              	.LVL174:
 678:source\bsw\tft/tft.c ****             TFT_drawPixel(x0 + y, y0 + x, color);
 1699              		.loc 1 678 0
 1700 0084 A919     		adds	r1, r5, r6
 1701 0086 0BEB0A00 		add	r0, fp, r10
 1702 008a 019A     		ldr	r2, [sp, #4]
 1703 008c 09B2     		sxth	r1, r1
 1704 008e 00B2     		sxth	r0, r0
 1705 0090 FFF7FEFF 		bl	TFT_drawPixel
 1706              	.LVL175:
 1707              	.L127:
 679:source\bsw\tft/tft.c ****         }
 680:source\bsw\tft/tft.c ****         if (cornername & 0x2) {
 1708              		.loc 1 680 0
 1709 0094 19F0020F 		tst	r9, #2
 1710 0098 16D0     		beq	.L128
 681:source\bsw\tft/tft.c ****             TFT_drawPixel(x0 + x, y0 - y, color);
 1711              		.loc 1 681 0
 1712 009a BDF810B0 		ldrh	fp, [sp, #16]
 1713 009e BDF81460 		ldrh	r6, [sp, #20]
 1714 00a2 1FFA87FA 		uxth	r10, r7
 1715 00a6 CAEB0601 		rsb	r1, r10, r6
 1716 00aa 05EB0B00 		add	r0, r5, fp
 1717 00ae 019A     		ldr	r2, [sp, #4]
 1718 00b0 09B2     		sxth	r1, r1
 1719 00b2 00B2     		sxth	r0, r0
 1720 00b4 FFF7FEFF 		bl	TFT_drawPixel
 1721              	.LVL176:
 682:source\bsw\tft/tft.c ****             TFT_drawPixel(x0 + y, y0 - x, color);
 1722              		.loc 1 682 0
 1723 00b8 711B     		subs	r1, r6, r5
 1724 00ba 0BEB0A00 		add	r0, fp, r10
ARM GAS  C:\Users\MATEOC~1.QUE\AppData\Local\Temp\ccxtWYOp.s 			page 46


 1725 00be 019A     		ldr	r2, [sp, #4]
 1726 00c0 09B2     		sxth	r1, r1
 1727 00c2 00B2     		sxth	r0, r0
 1728 00c4 FFF7FEFF 		bl	TFT_drawPixel
 1729              	.LVL177:
 1730              	.L128:
 683:source\bsw\tft/tft.c ****         }
 684:source\bsw\tft/tft.c ****         if (cornername & 0x8) {
 1731              		.loc 1 684 0
 1732 00c8 19F0080F 		tst	r9, #8
 1733 00cc 16D0     		beq	.L129
 685:source\bsw\tft/tft.c ****             TFT_drawPixel(x0 - y, y0 + x, color);
 1734              		.loc 1 685 0
 1735 00ce BDF81060 		ldrh	r6, [sp, #16]
 1736 00d2 1FFA87FB 		uxth	fp, r7
 1737 00d6 BDF814A0 		ldrh	r10, [sp, #20]
 1738 00da 05EB0A01 		add	r1, r5, r10
 1739 00de CBEB0600 		rsb	r0, fp, r6
 1740 00e2 019A     		ldr	r2, [sp, #4]
 1741 00e4 09B2     		sxth	r1, r1
 1742 00e6 00B2     		sxth	r0, r0
 1743 00e8 FFF7FEFF 		bl	TFT_drawPixel
 1744              	.LVL178:
 686:source\bsw\tft/tft.c ****             TFT_drawPixel(x0 - x, y0 + y, color);
 1745              		.loc 1 686 0
 1746 00ec 0BEB0A01 		add	r1, fp, r10
 1747 00f0 701B     		subs	r0, r6, r5
 1748 00f2 019A     		ldr	r2, [sp, #4]
 1749 00f4 09B2     		sxth	r1, r1
 1750 00f6 00B2     		sxth	r0, r0
 1751 00f8 FFF7FEFF 		bl	TFT_drawPixel
 1752              	.LVL179:
 1753              	.L129:
 687:source\bsw\tft/tft.c ****         }
 688:source\bsw\tft/tft.c ****         if (cornername & 0x1) {
 1754              		.loc 1 688 0
 1755 00fc 19F0010F 		tst	r9, #1
 1756 0100 16D0     		beq	.L125
 689:source\bsw\tft/tft.c ****             TFT_drawPixel(x0 - y, y0 - x, color);
 1757              		.loc 1 689 0
 1758 0102 BDF81060 		ldrh	r6, [sp, #16]
 1759 0106 1FFA87FB 		uxth	fp, r7
 1760 010a BDF814A0 		ldrh	r10, [sp, #20]
 1761 010e C5EB0A01 		rsb	r1, r5, r10
 1762 0112 CBEB0600 		rsb	r0, fp, r6
 1763 0116 019A     		ldr	r2, [sp, #4]
 1764 0118 09B2     		sxth	r1, r1
 1765 011a 00B2     		sxth	r0, r0
 1766 011c FFF7FEFF 		bl	TFT_drawPixel
 1767              	.LVL180:
 690:source\bsw\tft/tft.c ****             TFT_drawPixel(x0 - x, y0 - y, color);
 1768              		.loc 1 690 0
 1769 0120 CBEB0A01 		rsb	r1, fp, r10
 1770 0124 701B     		subs	r0, r6, r5
 1771 0126 019A     		ldr	r2, [sp, #4]
 1772 0128 09B2     		sxth	r1, r1
 1773 012a 00B2     		sxth	r0, r0
ARM GAS  C:\Users\MATEOC~1.QUE\AppData\Local\Temp\ccxtWYOp.s 			page 47


 1774 012c FFF7FEFF 		bl	TFT_drawPixel
 1775              	.LVL181:
 1776              	.L125:
 667:source\bsw\tft/tft.c ****         if (f >= 0) {
 1777              		.loc 1 667 0
 1778 0130 B845     		cmp	r8, r7
 1779 0132 FFF67DAF 		blt	.L131
 691:source\bsw\tft/tft.c ****         }
 692:source\bsw\tft/tft.c ****     }
 693:source\bsw\tft/tft.c **** }
 1780              		.loc 1 693 0
 1781 0136 07B0     		add	sp, sp, #28
 1782              		.cfi_def_cfa_offset 36
 1783              		@ sp needed
 1784 0138 BDE8F08F 		pop	{r4, r5, r6, r7, r8, r9, r10, fp, pc}
 1785              		.cfi_endproc
 1786              	.LFE33:
 1787              		.size	TFT_drawCircleHelper, .-TFT_drawCircleHelper
 1788              		.section	.text.TFT_fastVLine,"ax",%progbits
 1789              		.align	2
 1790              		.global	TFT_fastVLine
 1791              		.thumb
 1792              		.thumb_func
 1793              		.type	TFT_fastVLine, %function
 1794              	TFT_fastVLine:
 1795              	.LFB28:
 548:source\bsw\tft/tft.c **** 
 1796              		.loc 1 548 0
 1797              		.cfi_startproc
 1798              		@ args = 0, pretend = 0, frame = 0
 1799              		@ frame_needed = 0, uses_anonymous_args = 0
 1800              	.LVL182:
 1801 0000 F8B5     		push	{r3, r4, r5, r6, r7, lr}
 1802              		.cfi_def_cfa_offset 24
 1803              		.cfi_offset 3, -24
 1804              		.cfi_offset 4, -20
 1805              		.cfi_offset 5, -16
 1806              		.cfi_offset 6, -12
 1807              		.cfi_offset 7, -8
 1808              		.cfi_offset 14, -4
 1809 0002 1E46     		mov	r6, r3
 551:source\bsw\tft/tft.c ****   if((y+h-1) >= _height) h = _height-y;
 1810              		.loc 1 551 0
 1811 0004 164B     		ldr	r3, .L139
 1812              	.LVL183:
 1813 0006 B3F90630 		ldrsh	r3, [r3, #6]
 1814 000a 8342     		cmp	r3, r0
 1815 000c 26DD     		ble	.L133
 1816 000e 1546     		mov	r5, r2
 551:source\bsw\tft/tft.c ****   if((y+h-1) >= _height) h = _height-y;
 1817              		.loc 1 551 0 is_stmt 0 discriminator 1
 1818 0010 134B     		ldr	r3, .L139
 1819 0012 B3F8DA30 		ldrh	r3, [r3, #218]
 1820 0016 9942     		cmp	r1, r3
 1821 0018 20DA     		bge	.L133
 552:source\bsw\tft/tft.c ****   setAddrWindow(x, y, x, y+h-1);
 1822              		.loc 1 552 0 is_stmt 1
ARM GAS  C:\Users\MATEOC~1.QUE\AppData\Local\Temp\ccxtWYOp.s 			page 48


 1823 001a 0A44     		add	r2, r2, r1
 1824              	.LVL184:
 1825 001c 013A     		subs	r2, r2, #1
 1826 001e 9342     		cmp	r3, r2
 1827 0020 01DC     		bgt	.L135
 552:source\bsw\tft/tft.c ****   setAddrWindow(x, y, x, y+h-1);
 1828              		.loc 1 552 0 is_stmt 0 discriminator 1
 1829 0022 5D1A     		subs	r5, r3, r1
 1830 0024 2DB2     		sxth	r5, r5
 1831              	.LVL185:
 1832              	.L135:
 553:source\bsw\tft/tft.c **** 
 1833              		.loc 1 553 0 is_stmt 1
 1834 0026 C0B2     		uxtb	r0, r0
 1835              	.LVL186:
 1836 0028 C9B2     		uxtb	r1, r1
 1837              	.LVL187:
 1838 002a 4B19     		adds	r3, r1, r5
 1839 002c 013B     		subs	r3, r3, #1
 1840 002e DBB2     		uxtb	r3, r3
 1841 0030 0246     		mov	r2, r0
 1842 0032 FFF7FEFF 		bl	setAddrWindow
 1843              	.LVL188:
 555:source\bsw\tft/tft.c ****     
 1844              		.loc 1 555 0
 1845 0036 370A     		lsrs	r7, r6, #8
 1846              	.LVL189:
 1847 0038 F6B2     		uxtb	r6, r6
 1848              	.LVL190:
 557:source\bsw\tft/tft.c ****   while (h--) {
 1849              		.loc 1 557 0
 1850 003a 0120     		movs	r0, #1
 1851 003c FFF7FEFF 		bl	TFT_DC_Write
 1852              	.LVL191:
 558:source\bsw\tft/tft.c ****     TFT_write_stream(hi);
 1853              		.loc 1 558 0
 1854 0040 08E0     		b	.L136
 1855              	.LVL192:
 1856              	.L137:
 559:source\bsw\tft/tft.c ****     TFT_write_stream(lo);
 1857              		.loc 1 559 0
 1858 0042 3946     		mov	r1, r7
 1859 0044 0220     		movs	r0, #2
 1860 0046 FFF7FEFF 		bl	TFT_send
 1861              	.LVL193:
 560:source\bsw\tft/tft.c ****   }
 1862              		.loc 1 560 0
 1863 004a 3146     		mov	r1, r6
 1864 004c 0220     		movs	r0, #2
 1865 004e FFF7FEFF 		bl	TFT_send
 1866              	.LVL194:
 558:source\bsw\tft/tft.c ****     TFT_write_stream(hi);
 1867              		.loc 1 558 0
 1868 0052 2546     		mov	r5, r4
 1869              	.LVL195:
 1870              	.L136:
 1871 0054 6A1E     		subs	r2, r5, #1
ARM GAS  C:\Users\MATEOC~1.QUE\AppData\Local\Temp\ccxtWYOp.s 			page 49


 1872 0056 14B2     		sxth	r4, r2
 1873              	.LVL196:
 1874 0058 002D     		cmp	r5, #0
 1875 005a F2D1     		bne	.L137
 1876              	.LVL197:
 1877              	.L133:
 1878 005c F8BD     		pop	{r3, r4, r5, r6, r7, pc}
 1879              	.L140:
 1880 005e 00BF     		.align	2
 1881              	.L139:
 1882 0060 00000000 		.word	.LANCHOR0
 1883              		.cfi_endproc
 1884              	.LFE28:
 1885              		.size	TFT_fastVLine, .-TFT_fastVLine
 1886              		.section	.text.TFT_fillCircleHelper,"ax",%progbits
 1887              		.align	2
 1888              		.thumb
 1889              		.thumb_func
 1890              		.type	TFT_fillCircleHelper, %function
 1891              	TFT_fillCircleHelper:
 1892              	.LFB35:
 694:source\bsw\tft/tft.c **** 
 695:source\bsw\tft/tft.c **** void TFT_fillCircle(int16_t x0, int16_t y0, int16_t r, TFT_color_t color) {
 696:source\bsw\tft/tft.c **** 
 697:source\bsw\tft/tft.c ****     TFT_fastVLine(x0, y0-r, 2*r+1, color);
 698:source\bsw\tft/tft.c ****     TFT_fillCircleHelper(x0, y0, r, 3, 0, color);
 699:source\bsw\tft/tft.c **** }
 700:source\bsw\tft/tft.c **** 
 701:source\bsw\tft/tft.c **** // Used to do circles and roundrects
 702:source\bsw\tft/tft.c **** void TFT_fillCircleHelper(int16_t x0, int16_t y0, int16_t r, uint8_t cornername, int16_t delta, TFT
 1893              		.loc 1 702 0
 1894              		.cfi_startproc
 1895              		@ args = 8, pretend = 0, frame = 32
 1896              		@ frame_needed = 0, uses_anonymous_args = 0
 1897              	.LVL198:
 1898 0000 2DE9F04F 		push	{r4, r5, r6, r7, r8, r9, r10, fp, lr}
 1899              		.cfi_def_cfa_offset 36
 1900              		.cfi_offset 4, -36
 1901              		.cfi_offset 5, -32
 1902              		.cfi_offset 6, -28
 1903              		.cfi_offset 7, -24
 1904              		.cfi_offset 8, -20
 1905              		.cfi_offset 9, -16
 1906              		.cfi_offset 10, -12
 1907              		.cfi_offset 11, -8
 1908              		.cfi_offset 14, -4
 1909 0004 89B0     		sub	sp, sp, #36
 1910              		.cfi_def_cfa_offset 72
 1911 0006 0390     		str	r0, [sp, #12]
 1912 0008 0491     		str	r1, [sp, #16]
 1913 000a 9046     		mov	r8, r2
 1914 000c 9A46     		mov	r10, r3
 1915 000e BDF94830 		ldrsh	r3, [sp, #72]
 1916              	.LVL199:
 1917 0012 0593     		str	r3, [sp, #20]
 1918 0014 BDF84C30 		ldrh	r3, [sp, #76]
 1919 0018 0293     		str	r3, [sp, #8]
ARM GAS  C:\Users\MATEOC~1.QUE\AppData\Local\Temp\ccxtWYOp.s 			page 50


 703:source\bsw\tft/tft.c **** 
 704:source\bsw\tft/tft.c ****     int16_t f     = 1 - r;
 1920              		.loc 1 704 0
 1921 001a 93B2     		uxth	r3, r2
 1922 001c C3F10104 		rsb	r4, r3, #1
 1923 0020 24B2     		sxth	r4, r4
 1924              	.LVL200:
 705:source\bsw\tft/tft.c ****     int16_t ddF_x = 1;
 706:source\bsw\tft/tft.c ****     int16_t ddF_y = -2 * r;
 1925              		.loc 1 706 0
 1926 0022 C3EBC333 		rsb	r3, r3, r3, lsl #15
 1927 0026 5A00     		lsls	r2, r3, #1
 1928              	.LVL201:
 1929 0028 13B2     		sxth	r3, r2
 1930 002a 0193     		str	r3, [sp, #4]
 1931              	.LVL202:
 707:source\bsw\tft/tft.c ****     int16_t x     = 0;
 1932              		.loc 1 707 0
 1933 002c 0027     		movs	r7, #0
 705:source\bsw\tft/tft.c ****     int16_t ddF_x = 1;
 1934              		.loc 1 705 0
 1935 002e 4FF0010B 		mov	fp, #1
 708:source\bsw\tft/tft.c ****     int16_t y     = r;
 709:source\bsw\tft/tft.c **** 
 710:source\bsw\tft/tft.c ****     while (x<y) {
 1936              		.loc 1 710 0
 1937 0032 63E0     		b	.L142
 1938              	.LVL203:
 1939              	.L146:
 711:source\bsw\tft/tft.c ****         if (f >= 0) {
 1940              		.loc 1 711 0
 1941 0034 002C     		cmp	r4, #0
 1942 0036 0ADB     		blt	.L143
 712:source\bsw\tft/tft.c ****             y--;
 1943              		.loc 1 712 0
 1944 0038 08F1FF38 		add	r8, r8, #-1
 1945              	.LVL204:
 1946 003c 0FFA88F8 		sxth	r8, r8
 1947              	.LVL205:
 713:source\bsw\tft/tft.c ****             ddF_y += 2;
 1948              		.loc 1 713 0
 1949 0040 019B     		ldr	r3, [sp, #4]
 1950 0042 0233     		adds	r3, r3, #2
 1951 0044 9BB2     		uxth	r3, r3
 1952 0046 1AB2     		sxth	r2, r3
 1953 0048 0192     		str	r2, [sp, #4]
 1954              	.LVL206:
 714:source\bsw\tft/tft.c ****             f     += ddF_y;
 1955              		.loc 1 714 0
 1956 004a 1C44     		add	r4, r4, r3
 1957              	.LVL207:
 1958 004c 24B2     		sxth	r4, r4
 1959              	.LVL208:
 1960              	.L143:
 715:source\bsw\tft/tft.c ****         }
 716:source\bsw\tft/tft.c ****         x++;
 1961              		.loc 1 716 0
ARM GAS  C:\Users\MATEOC~1.QUE\AppData\Local\Temp\ccxtWYOp.s 			page 51


 1962 004e 0137     		adds	r7, r7, #1
 1963              	.LVL209:
 1964 0050 BDB2     		uxth	r5, r7
 1965 0052 2FB2     		sxth	r7, r5
 1966              	.LVL210:
 717:source\bsw\tft/tft.c ****         ddF_x += 2;
 1967              		.loc 1 717 0
 1968 0054 0BF1020B 		add	fp, fp, #2
 1969              	.LVL211:
 1970 0058 1FFA8BF3 		uxth	r3, fp
 1971 005c 0FFA83FB 		sxth	fp, r3
 1972              	.LVL212:
 718:source\bsw\tft/tft.c ****         f     += ddF_x;
 1973              		.loc 1 718 0
 1974 0060 1C44     		add	r4, r4, r3
 1975              	.LVL213:
 1976 0062 24B2     		sxth	r4, r4
 1977              	.LVL214:
 719:source\bsw\tft/tft.c **** 
 720:source\bsw\tft/tft.c ****         if (cornername & 0x1) {
 1978              		.loc 1 720 0
 1979 0064 1AF0010F 		tst	r10, #1
 1980 0068 21D0     		beq	.L144
 721:source\bsw\tft/tft.c ****             TFT_fastVLine(x0+x, y0-y, 2*y+1+delta, color);
 1981              		.loc 1 721 0
 1982 006a BDF80C00 		ldrh	r0, [sp, #12]
 1983 006e BDF81010 		ldrh	r1, [sp, #16]
 1984 0072 1FFA88F6 		uxth	r6, r8
 1985 0076 BDF81490 		ldrh	r9, [sp, #20]
 1986 007a 09EB4602 		add	r2, r9, r6, lsl #1
 1987 007e 0132     		adds	r2, r2, #1
 1988 0080 0791     		str	r1, [sp, #28]
 1989 0082 891B     		subs	r1, r1, r6
 1990 0084 0690     		str	r0, [sp, #24]
 1991 0086 2818     		adds	r0, r5, r0
 1992 0088 029B     		ldr	r3, [sp, #8]
 1993 008a 12B2     		sxth	r2, r2
 1994 008c 09B2     		sxth	r1, r1
 1995 008e 00B2     		sxth	r0, r0
 1996 0090 FFF7FEFF 		bl	TFT_fastVLine
 1997              	.LVL215:
 722:source\bsw\tft/tft.c ****             TFT_fastVLine(x0+y, y0-x, 2*x+1+delta, color);
 1998              		.loc 1 722 0
 1999 0094 09EB4502 		add	r2, r9, r5, lsl #1
 2000 0098 0132     		adds	r2, r2, #1
 2001 009a 0799     		ldr	r1, [sp, #28]
 2002 009c 491B     		subs	r1, r1, r5
 2003 009e 0698     		ldr	r0, [sp, #24]
 2004 00a0 3044     		add	r0, r0, r6
 2005 00a2 029B     		ldr	r3, [sp, #8]
 2006 00a4 12B2     		sxth	r2, r2
 2007 00a6 09B2     		sxth	r1, r1
 2008 00a8 00B2     		sxth	r0, r0
 2009 00aa FFF7FEFF 		bl	TFT_fastVLine
 2010              	.LVL216:
 2011              	.L144:
 723:source\bsw\tft/tft.c ****         }
ARM GAS  C:\Users\MATEOC~1.QUE\AppData\Local\Temp\ccxtWYOp.s 			page 52


 724:source\bsw\tft/tft.c ****         if (cornername & 0x2) {
 2012              		.loc 1 724 0
 2013 00ae 1AF0020F 		tst	r10, #2
 2014 00b2 23D0     		beq	.L142
 725:source\bsw\tft/tft.c ****             TFT_fastVLine(x0-x, y0-y, 2*y+1+delta, color);
 2015              		.loc 1 725 0
 2016 00b4 BDF80C60 		ldrh	r6, [sp, #12]
 2017 00b8 BDF81010 		ldrh	r1, [sp, #16]
 2018 00bc 1FFA88F0 		uxth	r0, r8
 2019 00c0 BDF81430 		ldrh	r3, [sp, #20]
 2020 00c4 8146     		mov	r9, r0
 2021 00c6 0793     		str	r3, [sp, #28]
 2022 00c8 03EB4002 		add	r2, r3, r0, lsl #1
 2023 00cc 0132     		adds	r2, r2, #1
 2024 00ce 0691     		str	r1, [sp, #24]
 2025 00d0 091A     		subs	r1, r1, r0
 2026 00d2 701B     		subs	r0, r6, r5
 2027 00d4 029B     		ldr	r3, [sp, #8]
 2028 00d6 12B2     		sxth	r2, r2
 2029 00d8 09B2     		sxth	r1, r1
 2030 00da 00B2     		sxth	r0, r0
 2031 00dc FFF7FEFF 		bl	TFT_fastVLine
 2032              	.LVL217:
 726:source\bsw\tft/tft.c ****             TFT_fastVLine(x0-y, y0-x, 2*x+1+delta, color);
 2033              		.loc 1 726 0
 2034 00e0 079A     		ldr	r2, [sp, #28]
 2035 00e2 02EB4502 		add	r2, r2, r5, lsl #1
 2036 00e6 0132     		adds	r2, r2, #1
 2037 00e8 0699     		ldr	r1, [sp, #24]
 2038 00ea 491B     		subs	r1, r1, r5
 2039 00ec C9EB0600 		rsb	r0, r9, r6
 2040 00f0 029B     		ldr	r3, [sp, #8]
 2041 00f2 12B2     		sxth	r2, r2
 2042 00f4 09B2     		sxth	r1, r1
 2043 00f6 00B2     		sxth	r0, r0
 2044 00f8 FFF7FEFF 		bl	TFT_fastVLine
 2045              	.LVL218:
 2046              	.L142:
 710:source\bsw\tft/tft.c ****         if (f >= 0) {
 2047              		.loc 1 710 0
 2048 00fc 4745     		cmp	r7, r8
 2049 00fe 99DB     		blt	.L146
 727:source\bsw\tft/tft.c ****         }
 728:source\bsw\tft/tft.c ****     }
 729:source\bsw\tft/tft.c **** }
 2050              		.loc 1 729 0
 2051 0100 09B0     		add	sp, sp, #36
 2052              		.cfi_def_cfa_offset 36
 2053              		@ sp needed
 2054 0102 BDE8F08F 		pop	{r4, r5, r6, r7, r8, r9, r10, fp, pc}
 2055              		.cfi_endproc
 2056              	.LFE35:
 2057              		.size	TFT_fillCircleHelper, .-TFT_fillCircleHelper
 2058 0106 00BF     		.section	.text.TFT_fastHLine,"ax",%progbits
 2059              		.align	2
 2060              		.global	TFT_fastHLine
 2061              		.thumb
ARM GAS  C:\Users\MATEOC~1.QUE\AppData\Local\Temp\ccxtWYOp.s 			page 53


 2062              		.thumb_func
 2063              		.type	TFT_fastHLine, %function
 2064              	TFT_fastHLine:
 2065              	.LFB29:
 564:source\bsw\tft/tft.c **** 
 2066              		.loc 1 564 0
 2067              		.cfi_startproc
 2068              		@ args = 0, pretend = 0, frame = 0
 2069              		@ frame_needed = 0, uses_anonymous_args = 0
 2070              	.LVL219:
 2071 0000 F8B5     		push	{r3, r4, r5, r6, r7, lr}
 2072              		.cfi_def_cfa_offset 24
 2073              		.cfi_offset 3, -24
 2074              		.cfi_offset 4, -20
 2075              		.cfi_offset 5, -16
 2076              		.cfi_offset 6, -12
 2077              		.cfi_offset 7, -8
 2078              		.cfi_offset 14, -4
 2079 0002 1E46     		mov	r6, r3
 567:source\bsw\tft/tft.c ****     if((x+w-1) >= _width)  w = _width-x;
 2080              		.loc 1 567 0
 2081 0004 164B     		ldr	r3, .L154
 2082              	.LVL220:
 2083 0006 B3F90630 		ldrsh	r3, [r3, #6]
 2084 000a 8342     		cmp	r3, r0
 2085 000c 26DD     		ble	.L148
 2086 000e 1546     		mov	r5, r2
 567:source\bsw\tft/tft.c ****     if((x+w-1) >= _width)  w = _width-x;
 2087              		.loc 1 567 0 is_stmt 0 discriminator 1
 2088 0010 134A     		ldr	r2, .L154
 2089              	.LVL221:
 2090 0012 B2F8DA20 		ldrh	r2, [r2, #218]
 2091 0016 9142     		cmp	r1, r2
 2092 0018 20DA     		bge	.L148
 568:source\bsw\tft/tft.c ****     setAddrWindow(x, y, x+w-1, y);
 2093              		.loc 1 568 0 is_stmt 1
 2094 001a 4219     		adds	r2, r0, r5
 2095 001c 013A     		subs	r2, r2, #1
 2096 001e 9A42     		cmp	r2, r3
 2097 0020 01DB     		blt	.L150
 568:source\bsw\tft/tft.c ****     setAddrWindow(x, y, x+w-1, y);
 2098              		.loc 1 568 0 is_stmt 0 discriminator 1
 2099 0022 1D1A     		subs	r5, r3, r0
 2100 0024 2DB2     		sxth	r5, r5
 2101              	.LVL222:
 2102              	.L150:
 569:source\bsw\tft/tft.c **** 
 2103              		.loc 1 569 0 is_stmt 1
 2104 0026 C0B2     		uxtb	r0, r0
 2105              	.LVL223:
 2106 0028 C9B2     		uxtb	r1, r1
 2107              	.LVL224:
 2108 002a 4219     		adds	r2, r0, r5
 2109 002c 013A     		subs	r2, r2, #1
 2110 002e 0B46     		mov	r3, r1
 2111 0030 D2B2     		uxtb	r2, r2
 2112 0032 FFF7FEFF 		bl	setAddrWindow
ARM GAS  C:\Users\MATEOC~1.QUE\AppData\Local\Temp\ccxtWYOp.s 			page 54


 2113              	.LVL225:
 571:source\bsw\tft/tft.c **** 
 2114              		.loc 1 571 0
 2115 0036 370A     		lsrs	r7, r6, #8
 2116              	.LVL226:
 2117 0038 F6B2     		uxtb	r6, r6
 2118              	.LVL227:
 573:source\bsw\tft/tft.c **** 
 2119              		.loc 1 573 0
 2120 003a 0120     		movs	r0, #1
 2121 003c FFF7FEFF 		bl	TFT_DC_Write
 2122              	.LVL228:
 575:source\bsw\tft/tft.c ****         TFT_write_stream(hi);
 2123              		.loc 1 575 0
 2124 0040 08E0     		b	.L151
 2125              	.LVL229:
 2126              	.L152:
 576:source\bsw\tft/tft.c ****         TFT_write_stream(lo);
 2127              		.loc 1 576 0
 2128 0042 3946     		mov	r1, r7
 2129 0044 0220     		movs	r0, #2
 2130 0046 FFF7FEFF 		bl	TFT_send
 2131              	.LVL230:
 577:source\bsw\tft/tft.c ****     }
 2132              		.loc 1 577 0
 2133 004a 3146     		mov	r1, r6
 2134 004c 0220     		movs	r0, #2
 2135 004e FFF7FEFF 		bl	TFT_send
 2136              	.LVL231:
 575:source\bsw\tft/tft.c ****         TFT_write_stream(hi);
 2137              		.loc 1 575 0
 2138 0052 2546     		mov	r5, r4
 2139              	.LVL232:
 2140              	.L151:
 2141 0054 6A1E     		subs	r2, r5, #1
 2142 0056 14B2     		sxth	r4, r2
 2143              	.LVL233:
 2144 0058 002D     		cmp	r5, #0
 2145 005a F2D1     		bne	.L152
 2146              	.LVL234:
 2147              	.L148:
 2148 005c F8BD     		pop	{r3, r4, r5, r6, r7, pc}
 2149              	.L155:
 2150 005e 00BF     		.align	2
 2151              	.L154:
 2152 0060 00000000 		.word	.LANCHOR0
 2153              		.cfi_endproc
 2154              	.LFE29:
 2155              		.size	TFT_fastHLine, .-TFT_fastHLine
 2156              		.section	.text.TFT_writeLine,"ax",%progbits
 2157              		.align	2
 2158              		.global	TFT_writeLine
 2159              		.thumb
 2160              		.thumb_func
 2161              		.type	TFT_writeLine, %function
 2162              	TFT_writeLine:
 2163              	.LFB30:
ARM GAS  C:\Users\MATEOC~1.QUE\AppData\Local\Temp\ccxtWYOp.s 			page 55


 582:source\bsw\tft/tft.c ****     int16_t steep = _abs(y1 - y0) > _abs(x1 - x0);
 2164              		.loc 1 582 0
 2165              		.cfi_startproc
 2166              		@ args = 4, pretend = 0, frame = 8
 2167              		@ frame_needed = 0, uses_anonymous_args = 0
 2168              	.LVL235:
 2169 0000 2DE9F04F 		push	{r4, r5, r6, r7, r8, r9, r10, fp, lr}
 2170              		.cfi_def_cfa_offset 36
 2171              		.cfi_offset 4, -36
 2172              		.cfi_offset 5, -32
 2173              		.cfi_offset 6, -28
 2174              		.cfi_offset 7, -24
 2175              		.cfi_offset 8, -20
 2176              		.cfi_offset 9, -16
 2177              		.cfi_offset 10, -12
 2178              		.cfi_offset 11, -8
 2179              		.cfi_offset 14, -4
 2180 0004 83B0     		sub	sp, sp, #12
 2181              		.cfi_def_cfa_offset 48
 2182 0006 0546     		mov	r5, r0
 2183 0008 0E46     		mov	r6, r1
 2184 000a 1746     		mov	r7, r2
 2185 000c BDF83020 		ldrh	r2, [sp, #48]
 2186              	.LVL236:
 2187 0010 0092     		str	r2, [sp]
 583:source\bsw\tft/tft.c ****     if (steep) {
 2188              		.loc 1 583 0
 2189 0012 C1EB0308 		rsb	r8, r1, r3
 2190 0016 B8F1000F 		cmp	r8, #0
 2191 001a B8BF     		it	lt
 2192 001c C8F10008 		rsblt	r8, r8, #0
 2193 0020 C0EB0709 		rsb	r9, r0, r7
 2194 0024 B9F1000F 		cmp	r9, #0
 2195 0028 B8BF     		it	lt
 2196 002a C9F10009 		rsblt	r9, r9, #0
 2197              	.LVL237:
 584:source\bsw\tft/tft.c ****         _swap_int16_t(x0, y0);
 2198              		.loc 1 584 0
 2199 002e C845     		cmp	r8, r9
 2200 0030 04DD     		ble	.L157
 2201 0032 3A46     		mov	r2, r7
 2202              	.LBB7:
 586:source\bsw\tft/tft.c ****     }
 2203              		.loc 1 586 0
 2204 0034 1F46     		mov	r7, r3
 2205 0036 1346     		mov	r3, r2
 2206              	.LVL238:
 2207              	.LBE7:
 2208              	.LBB8:
 585:source\bsw\tft/tft.c ****         _swap_int16_t(x1, y1);
 2209              		.loc 1 585 0
 2210 0038 0D46     		mov	r5, r1
 2211 003a 0646     		mov	r6, r0
 2212              	.L157:
 2213              	.LVL239:
 2214              	.LBE8:
 589:source\bsw\tft/tft.c ****         _swap_int16_t(x0, x1);
ARM GAS  C:\Users\MATEOC~1.QUE\AppData\Local\Temp\ccxtWYOp.s 			page 56


 2215              		.loc 1 589 0
 2216 003c BD42     		cmp	r5, r7
 2217 003e 05DD     		ble	.L158
 2218 0040 3246     		mov	r2, r6
 2219              	.LBB9:
 591:source\bsw\tft/tft.c ****     }
 2220              		.loc 1 591 0
 2221 0042 1E46     		mov	r6, r3
 2222              	.LVL240:
 2223 0044 1346     		mov	r3, r2
 2224              	.LVL241:
 2225              	.LBE9:
 2226 0046 2A46     		mov	r2, r5
 2227              	.LBB10:
 590:source\bsw\tft/tft.c ****         _swap_int16_t(y0, y1);
 2228              		.loc 1 590 0
 2229 0048 3D46     		mov	r5, r7
 2230              	.LVL242:
 2231 004a 1746     		mov	r7, r2
 2232              	.LVL243:
 2233              	.L158:
 2234              	.LBE10:
 595:source\bsw\tft/tft.c ****     dy = _abs(y1 - y0);
 2235              		.loc 1 595 0
 2236 004c C5EB070B 		rsb	fp, r5, r7
 2237 0050 1FFA8BFB 		uxth	fp, fp
 2238 0054 0FFA8BF4 		sxth	r4, fp
 2239              	.LVL244:
 596:source\bsw\tft/tft.c **** 
 2240              		.loc 1 596 0
 2241 0058 C6EB030A 		rsb	r10, r6, r3
 2242 005c BAF1000F 		cmp	r10, #0
 2243 0060 B8BF     		it	lt
 2244 0062 CAF1000A 		rsblt	r10, r10, #0
 2245              	.LVL245:
 598:source\bsw\tft/tft.c ****     int16_t ystep;
 2246              		.loc 1 598 0
 2247 0066 04EBD474 		add	r4, r4, r4, lsr #31
 2248              	.LVL246:
 2249 006a 6410     		asrs	r4, r4, #1
 2250              	.LVL247:
 601:source\bsw\tft/tft.c ****         ystep = 1;
 2251              		.loc 1 601 0
 2252 006c 9E42     		cmp	r6, r3
 2253 006e 02DA     		bge	.L167
 602:source\bsw\tft/tft.c ****     } else {
 2254              		.loc 1 602 0
 2255 0070 0123     		movs	r3, #1
 2256              	.LVL248:
 2257 0072 0193     		str	r3, [sp, #4]
 2258 0074 1EE0     		b	.L160
 2259              	.LVL249:
 2260              	.L167:
 604:source\bsw\tft/tft.c ****     }
 2261              		.loc 1 604 0
 2262 0076 4FF0FF33 		mov	r3, #-1
 2263              	.LVL250:
ARM GAS  C:\Users\MATEOC~1.QUE\AppData\Local\Temp\ccxtWYOp.s 			page 57


 2264 007a 0193     		str	r3, [sp, #4]
 2265 007c 1AE0     		b	.L160
 2266              	.LVL251:
 2267              	.L164:
 608:source\bsw\tft/tft.c ****             TFT_drawPixel(y0, x0, color);
 2268              		.loc 1 608 0
 2269 007e C845     		cmp	r8, r9
 2270 0080 05DD     		ble	.L161
 609:source\bsw\tft/tft.c ****         } else {
 2271              		.loc 1 609 0
 2272 0082 009A     		ldr	r2, [sp]
 2273 0084 2946     		mov	r1, r5
 2274 0086 3046     		mov	r0, r6
 2275 0088 FFF7FEFF 		bl	TFT_drawPixel
 2276              	.LVL252:
 2277 008c 04E0     		b	.L162
 2278              	.L161:
 611:source\bsw\tft/tft.c ****         }
 2279              		.loc 1 611 0
 2280 008e 009A     		ldr	r2, [sp]
 2281 0090 3146     		mov	r1, r6
 2282 0092 2846     		mov	r0, r5
 2283 0094 FFF7FEFF 		bl	TFT_drawPixel
 2284              	.LVL253:
 2285              	.L162:
 613:source\bsw\tft/tft.c ****         if (err < 0) {
 2286              		.loc 1 613 0
 2287 0098 CAEB0404 		rsb	r4, r10, r4
 2288              	.LVL254:
 2289 009c A3B2     		uxth	r3, r4
 2290 009e 1CB2     		sxth	r4, r3
 2291              	.LVL255:
 614:source\bsw\tft/tft.c ****             y0 += ystep;
 2292              		.loc 1 614 0
 2293 00a0 002C     		cmp	r4, #0
 2294 00a2 05DA     		bge	.L163
 615:source\bsw\tft/tft.c ****             err += dx;
 2295              		.loc 1 615 0
 2296 00a4 019A     		ldr	r2, [sp, #4]
 2297 00a6 1644     		add	r6, r6, r2
 2298              	.LVL256:
 2299 00a8 36B2     		sxth	r6, r6
 2300              	.LVL257:
 616:source\bsw\tft/tft.c ****         }
 2301              		.loc 1 616 0
 2302 00aa 0BEB0304 		add	r4, fp, r3
 2303              	.LVL258:
 2304 00ae 24B2     		sxth	r4, r4
 2305              	.LVL259:
 2306              	.L163:
 607:source\bsw\tft/tft.c ****         if (steep) {
 2307              		.loc 1 607 0
 2308 00b0 0135     		adds	r5, r5, #1
 2309              	.LVL260:
 2310 00b2 2DB2     		sxth	r5, r5
 2311              	.LVL261:
 2312              	.L160:
ARM GAS  C:\Users\MATEOC~1.QUE\AppData\Local\Temp\ccxtWYOp.s 			page 58


 607:source\bsw\tft/tft.c ****         if (steep) {
 2313              		.loc 1 607 0 is_stmt 0 discriminator 1
 2314 00b4 BD42     		cmp	r5, r7
 2315 00b6 E2DD     		ble	.L164
 619:source\bsw\tft/tft.c **** 
 2316              		.loc 1 619 0 is_stmt 1
 2317 00b8 03B0     		add	sp, sp, #12
 2318              		.cfi_def_cfa_offset 36
 2319              		@ sp needed
 2320 00ba BDE8F08F 		pop	{r4, r5, r6, r7, r8, r9, r10, fp, pc}
 2321              		.cfi_endproc
 2322              	.LFE30:
 2323              		.size	TFT_writeLine, .-TFT_writeLine
 2324 00be 00BF     		.section	.text.TFT_invertDisplay,"ax",%progbits
 2325              		.align	2
 2326              		.global	TFT_invertDisplay
 2327              		.thumb
 2328              		.thumb_func
 2329              		.type	TFT_invertDisplay, %function
 2330              	TFT_invertDisplay:
 2331              	.LFB31:
 621:source\bsw\tft/tft.c ****   TFT_write_cmd(i ? ST7735_INVON : ST7735_INVOFF);
 2332              		.loc 1 621 0
 2333              		.cfi_startproc
 2334              		@ args = 0, pretend = 0, frame = 0
 2335              		@ frame_needed = 0, uses_anonymous_args = 0
 2336              	.LVL262:
 2337 0000 08B5     		push	{r3, lr}
 2338              		.cfi_def_cfa_offset 8
 2339              		.cfi_offset 3, -8
 2340              		.cfi_offset 14, -4
 622:source\bsw\tft/tft.c **** }
 2341              		.loc 1 622 0
 2342 0002 08B1     		cbz	r0, .L171
 2343 0004 2121     		movs	r1, #33
 2344 0006 00E0     		b	.L170
 2345              	.L171:
 2346 0008 2021     		movs	r1, #32
 2347              	.L170:
 622:source\bsw\tft/tft.c **** }
 2348              		.loc 1 622 0 is_stmt 0 discriminator 4
 2349 000a 0020     		movs	r0, #0
 2350              	.LVL263:
 2351 000c FFF7FEFF 		bl	TFT_send
 2352              	.LVL264:
 2353 0010 08BD     		pop	{r3, pc}
 2354              		.cfi_endproc
 2355              	.LFE31:
 2356              		.size	TFT_invertDisplay, .-TFT_invertDisplay
 2357 0012 00BF     		.section	.text.TFT_drawCircle,"ax",%progbits
 2358              		.align	2
 2359              		.global	TFT_drawCircle
 2360              		.thumb
 2361              		.thumb_func
 2362              		.type	TFT_drawCircle, %function
 2363              	TFT_drawCircle:
 2364              	.LFB32:
ARM GAS  C:\Users\MATEOC~1.QUE\AppData\Local\Temp\ccxtWYOp.s 			page 59


 626:source\bsw\tft/tft.c ****     int16_t f = 1 - r;
 2365              		.loc 1 626 0 is_stmt 1
 2366              		.cfi_startproc
 2367              		@ args = 0, pretend = 0, frame = 24
 2368              		@ frame_needed = 0, uses_anonymous_args = 0
 2369              	.LVL265:
 2370 0000 2DE9F04F 		push	{r4, r5, r6, r7, r8, r9, r10, fp, lr}
 2371              		.cfi_def_cfa_offset 36
 2372              		.cfi_offset 4, -36
 2373              		.cfi_offset 5, -32
 2374              		.cfi_offset 6, -28
 2375              		.cfi_offset 7, -24
 2376              		.cfi_offset 8, -20
 2377              		.cfi_offset 9, -16
 2378              		.cfi_offset 10, -12
 2379              		.cfi_offset 11, -8
 2380              		.cfi_offset 14, -4
 2381 0004 87B0     		sub	sp, sp, #28
 2382              		.cfi_def_cfa_offset 64
 2383 0006 8246     		mov	r10, r0
 2384 0008 0E46     		mov	r6, r1
 2385 000a 0292     		str	r2, [sp, #8]
 2386 000c 1F46     		mov	r7, r3
 2387 000e 0193     		str	r3, [sp, #4]
 627:source\bsw\tft/tft.c ****     int16_t ddF_x = 1;
 2388              		.loc 1 627 0
 2389 0010 95B2     		uxth	r5, r2
 2390 0012 C5F10104 		rsb	r4, r5, #1
 2391 0016 24B2     		sxth	r4, r4
 2392              	.LVL266:
 629:source\bsw\tft/tft.c ****     int16_t x = 0;
 2393              		.loc 1 629 0
 2394 0018 C5EBC532 		rsb	r2, r5, r5, lsl #15
 2395              	.LVL267:
 2396 001c 5300     		lsls	r3, r2, #1
 2397              	.LVL268:
 2398 001e 1AB2     		sxth	r2, r3
 2399 0020 0592     		str	r2, [sp, #20]
 2400              	.LVL269:
 633:source\bsw\tft/tft.c ****     TFT_drawPixel(x0  , y0-r, color);
 2401              		.loc 1 633 0
 2402 0022 1FFA81FB 		uxth	fp, r1
 2403 0026 05EB0B01 		add	r1, r5, fp
 2404              	.LVL270:
 2405 002a 3A46     		mov	r2, r7
 2406 002c 09B2     		sxth	r1, r1
 2407 002e FFF7FEFF 		bl	TFT_drawPixel
 2408              	.LVL271:
 634:source\bsw\tft/tft.c ****     TFT_drawPixel(x0+r, y0  , color);
 2409              		.loc 1 634 0
 2410 0032 C5EB0B01 		rsb	r1, r5, fp
 2411 0036 3A46     		mov	r2, r7
 2412 0038 09B2     		sxth	r1, r1
 2413 003a 5046     		mov	r0, r10
 2414 003c FFF7FEFF 		bl	TFT_drawPixel
 2415              	.LVL272:
 635:source\bsw\tft/tft.c ****     TFT_drawPixel(x0-r, y0  , color);
ARM GAS  C:\Users\MATEOC~1.QUE\AppData\Local\Temp\ccxtWYOp.s 			page 60


 2416              		.loc 1 635 0
 2417 0040 1FFA8AFA 		uxth	r10, r10
 2418 0044 05EB0A00 		add	r0, r5, r10
 2419 0048 3A46     		mov	r2, r7
 2420 004a 3146     		mov	r1, r6
 2421 004c 00B2     		sxth	r0, r0
 2422 004e FFF7FEFF 		bl	TFT_drawPixel
 2423              	.LVL273:
 636:source\bsw\tft/tft.c **** 
 2424              		.loc 1 636 0
 2425 0052 C5EB0A00 		rsb	r0, r5, r10
 2426 0056 3A46     		mov	r2, r7
 2427 0058 3146     		mov	r1, r6
 2428 005a 00B2     		sxth	r0, r0
 2429 005c FFF7FEFF 		bl	TFT_drawPixel
 2430              	.LVL274:
 630:source\bsw\tft/tft.c ****     int16_t y = r;
 2431              		.loc 1 630 0
 2432 0060 4FF00009 		mov	r9, #0
 628:source\bsw\tft/tft.c ****     int16_t ddF_y = -2 * r;
 2433              		.loc 1 628 0
 2434 0064 0123     		movs	r3, #1
 2435 0066 0393     		str	r3, [sp, #12]
 638:source\bsw\tft/tft.c ****         if (f >= 0) {
 2436              		.loc 1 638 0
 2437 0068 60E0     		b	.L174
 2438              	.LVL275:
 2439              	.L176:
 639:source\bsw\tft/tft.c ****             y--;
 2440              		.loc 1 639 0
 2441 006a 002C     		cmp	r4, #0
 2442 006c 0ADB     		blt	.L175
 640:source\bsw\tft/tft.c ****             ddF_y += 2;
 2443              		.loc 1 640 0
 2444 006e 029B     		ldr	r3, [sp, #8]
 2445 0070 013B     		subs	r3, r3, #1
 2446 0072 1BB2     		sxth	r3, r3
 2447 0074 0293     		str	r3, [sp, #8]
 2448              	.LVL276:
 641:source\bsw\tft/tft.c ****             f += ddF_y;
 2449              		.loc 1 641 0
 2450 0076 059B     		ldr	r3, [sp, #20]
 2451 0078 0233     		adds	r3, r3, #2
 2452 007a 9BB2     		uxth	r3, r3
 2453 007c 1AB2     		sxth	r2, r3
 2454 007e 0592     		str	r2, [sp, #20]
 2455              	.LVL277:
 642:source\bsw\tft/tft.c ****         }
 2456              		.loc 1 642 0
 2457 0080 1C44     		add	r4, r4, r3
 2458              	.LVL278:
 2459 0082 24B2     		sxth	r4, r4
 2460              	.LVL279:
 2461              	.L175:
 644:source\bsw\tft/tft.c ****         ddF_x += 2;
 2462              		.loc 1 644 0
 2463 0084 09F10105 		add	r5, r9, #1
ARM GAS  C:\Users\MATEOC~1.QUE\AppData\Local\Temp\ccxtWYOp.s 			page 61


 2464 0088 ADB2     		uxth	r5, r5
 2465 008a 0FFA85F9 		sxth	r9, r5
 2466              	.LVL280:
 645:source\bsw\tft/tft.c ****         f += ddF_x;
 2467              		.loc 1 645 0
 2468 008e 039B     		ldr	r3, [sp, #12]
 2469 0090 0233     		adds	r3, r3, #2
 2470 0092 9BB2     		uxth	r3, r3
 2471 0094 1AB2     		sxth	r2, r3
 2472 0096 0392     		str	r2, [sp, #12]
 2473              	.LVL281:
 646:source\bsw\tft/tft.c **** 
 2474              		.loc 1 646 0
 2475 0098 1C44     		add	r4, r4, r3
 2476              	.LVL282:
 2477 009a 24B2     		sxth	r4, r4
 2478              	.LVL283:
 648:source\bsw\tft/tft.c ****         TFT_drawPixel(x0 - x, y0 + y, color);
 2479              		.loc 1 648 0
 2480 009c 0AEB0503 		add	r3, r10, r5
 2481 00a0 1BB2     		sxth	r3, r3
 2482 00a2 BDF80860 		ldrh	r6, [sp, #8]
 2483 00a6 0BEB0608 		add	r8, fp, r6
 2484 00aa 0FFA88F8 		sxth	r8, r8
 2485 00ae 019A     		ldr	r2, [sp, #4]
 2486 00b0 4146     		mov	r1, r8
 2487 00b2 0493     		str	r3, [sp, #16]
 2488 00b4 1846     		mov	r0, r3
 2489 00b6 FFF7FEFF 		bl	TFT_drawPixel
 2490              	.LVL284:
 649:source\bsw\tft/tft.c ****         TFT_drawPixel(x0 + x, y0 - y, color);
 2491              		.loc 1 649 0
 2492 00ba C5EB0A07 		rsb	r7, r5, r10
 2493 00be 3FB2     		sxth	r7, r7
 2494 00c0 019A     		ldr	r2, [sp, #4]
 2495 00c2 4146     		mov	r1, r8
 2496 00c4 3846     		mov	r0, r7
 2497 00c6 FFF7FEFF 		bl	TFT_drawPixel
 2498              	.LVL285:
 650:source\bsw\tft/tft.c ****         TFT_drawPixel(x0 - x, y0 - y, color);
 2499              		.loc 1 650 0
 2500 00ca C6EB0B08 		rsb	r8, r6, fp
 2501 00ce 0FFA88F8 		sxth	r8, r8
 2502 00d2 019A     		ldr	r2, [sp, #4]
 2503 00d4 4146     		mov	r1, r8
 2504 00d6 0498     		ldr	r0, [sp, #16]
 2505 00d8 FFF7FEFF 		bl	TFT_drawPixel
 2506              	.LVL286:
 651:source\bsw\tft/tft.c ****         TFT_drawPixel(x0 + y, y0 + x, color);
 2507              		.loc 1 651 0
 2508 00dc 019A     		ldr	r2, [sp, #4]
 2509 00de 4146     		mov	r1, r8
 2510 00e0 3846     		mov	r0, r7
 2511 00e2 FFF7FEFF 		bl	TFT_drawPixel
 2512              	.LVL287:
 652:source\bsw\tft/tft.c ****         TFT_drawPixel(x0 - y, y0 + x, color);
 2513              		.loc 1 652 0
ARM GAS  C:\Users\MATEOC~1.QUE\AppData\Local\Temp\ccxtWYOp.s 			page 62


 2514 00e6 0AEB0607 		add	r7, r10, r6
 2515 00ea 3FB2     		sxth	r7, r7
 2516 00ec 0BEB0508 		add	r8, fp, r5
 2517 00f0 0FFA88F8 		sxth	r8, r8
 2518 00f4 019A     		ldr	r2, [sp, #4]
 2519 00f6 4146     		mov	r1, r8
 2520 00f8 3846     		mov	r0, r7
 2521 00fa FFF7FEFF 		bl	TFT_drawPixel
 2522              	.LVL288:
 653:source\bsw\tft/tft.c ****         TFT_drawPixel(x0 + y, y0 - x, color);
 2523              		.loc 1 653 0
 2524 00fe C6EB0A06 		rsb	r6, r6, r10
 2525 0102 36B2     		sxth	r6, r6
 2526 0104 019A     		ldr	r2, [sp, #4]
 2527 0106 4146     		mov	r1, r8
 2528 0108 3046     		mov	r0, r6
 2529 010a FFF7FEFF 		bl	TFT_drawPixel
 2530              	.LVL289:
 654:source\bsw\tft/tft.c ****         TFT_drawPixel(x0 - y, y0 - x, color);
 2531              		.loc 1 654 0
 2532 010e C5EB0B05 		rsb	r5, r5, fp
 2533 0112 2DB2     		sxth	r5, r5
 2534 0114 DDF80480 		ldr	r8, [sp, #4]
 2535 0118 4246     		mov	r2, r8
 2536 011a 2946     		mov	r1, r5
 2537 011c 3846     		mov	r0, r7
 2538 011e FFF7FEFF 		bl	TFT_drawPixel
 2539              	.LVL290:
 655:source\bsw\tft/tft.c ****     }
 2540              		.loc 1 655 0
 2541 0122 4246     		mov	r2, r8
 2542 0124 2946     		mov	r1, r5
 2543 0126 3046     		mov	r0, r6
 2544 0128 FFF7FEFF 		bl	TFT_drawPixel
 2545              	.LVL291:
 2546              	.L174:
 638:source\bsw\tft/tft.c ****         if (f >= 0) {
 2547              		.loc 1 638 0
 2548 012c 029B     		ldr	r3, [sp, #8]
 2549 012e 9945     		cmp	r9, r3
 2550 0130 9BDB     		blt	.L176
 658:source\bsw\tft/tft.c **** 
 2551              		.loc 1 658 0
 2552 0132 07B0     		add	sp, sp, #28
 2553              		.cfi_def_cfa_offset 36
 2554              		@ sp needed
 2555 0134 BDE8F08F 		pop	{r4, r5, r6, r7, r8, r9, r10, fp, pc}
 2556              		.cfi_endproc
 2557              	.LFE32:
 2558              		.size	TFT_drawCircle, .-TFT_drawCircle
 2559              		.section	.text.TFT_fillCircle,"ax",%progbits
 2560              		.align	2
 2561              		.global	TFT_fillCircle
 2562              		.thumb
 2563              		.thumb_func
 2564              		.type	TFT_fillCircle, %function
 2565              	TFT_fillCircle:
ARM GAS  C:\Users\MATEOC~1.QUE\AppData\Local\Temp\ccxtWYOp.s 			page 63


 2566              	.LFB34:
 695:source\bsw\tft/tft.c **** 
 2567              		.loc 1 695 0
 2568              		.cfi_startproc
 2569              		@ args = 0, pretend = 0, frame = 0
 2570              		@ frame_needed = 0, uses_anonymous_args = 0
 2571              	.LVL292:
 2572 0000 F0B5     		push	{r4, r5, r6, r7, lr}
 2573              		.cfi_def_cfa_offset 20
 2574              		.cfi_offset 4, -20
 2575              		.cfi_offset 5, -16
 2576              		.cfi_offset 6, -12
 2577              		.cfi_offset 7, -8
 2578              		.cfi_offset 14, -4
 2579 0002 83B0     		sub	sp, sp, #12
 2580              		.cfi_def_cfa_offset 32
 2581 0004 0646     		mov	r6, r0
 2582 0006 0C46     		mov	r4, r1
 2583 0008 1546     		mov	r5, r2
 2584 000a 1F46     		mov	r7, r3
 697:source\bsw\tft/tft.c ****     TFT_fillCircleHelper(x0, y0, r, 3, 0, color);
 2585              		.loc 1 697 0
 2586 000c 91B2     		uxth	r1, r2
 2587              	.LVL293:
 2588 000e 4A00     		lsls	r2, r1, #1
 2589              	.LVL294:
 2590 0010 0132     		adds	r2, r2, #1
 2591 0012 611A     		subs	r1, r4, r1
 2592              	.LVL295:
 2593 0014 12B2     		sxth	r2, r2
 2594 0016 09B2     		sxth	r1, r1
 2595 0018 FFF7FEFF 		bl	TFT_fastVLine
 2596              	.LVL296:
 698:source\bsw\tft/tft.c **** }
 2597              		.loc 1 698 0
 2598 001c 0197     		str	r7, [sp, #4]
 2599 001e 0023     		movs	r3, #0
 2600 0020 0093     		str	r3, [sp]
 2601 0022 0323     		movs	r3, #3
 2602 0024 2A46     		mov	r2, r5
 2603 0026 2146     		mov	r1, r4
 2604 0028 3046     		mov	r0, r6
 2605 002a FFF7FEFF 		bl	TFT_fillCircleHelper
 2606              	.LVL297:
 699:source\bsw\tft/tft.c **** 
 2607              		.loc 1 699 0
 2608 002e 03B0     		add	sp, sp, #12
 2609              		.cfi_def_cfa_offset 20
 2610              		@ sp needed
 2611 0030 F0BD     		pop	{r4, r5, r6, r7, pc}
 2612              		.cfi_endproc
 2613              	.LFE34:
 2614              		.size	TFT_fillCircle, .-TFT_fillCircle
 2615 0032 00BF     		.section	.text.TFT_drawTriangle,"ax",%progbits
 2616              		.align	2
 2617              		.global	TFT_drawTriangle
 2618              		.thumb
ARM GAS  C:\Users\MATEOC~1.QUE\AppData\Local\Temp\ccxtWYOp.s 			page 64


 2619              		.thumb_func
 2620              		.type	TFT_drawTriangle, %function
 2621              	TFT_drawTriangle:
 2622              	.LFB36:
 730:source\bsw\tft/tft.c **** 
 731:source\bsw\tft/tft.c **** // Draw a triangle
 732:source\bsw\tft/tft.c **** void TFT_drawTriangle(int16_t x0, int16_t y0, int16_t x1, int16_t y1, int16_t x2, int16_t y2, TFT_c
 2623              		.loc 1 732 0
 2624              		.cfi_startproc
 2625              		@ args = 12, pretend = 0, frame = 0
 2626              		@ frame_needed = 0, uses_anonymous_args = 0
 2627              	.LVL298:
 2628 0000 2DE9F047 		push	{r4, r5, r6, r7, r8, r9, r10, lr}
 2629              		.cfi_def_cfa_offset 32
 2630              		.cfi_offset 4, -32
 2631              		.cfi_offset 5, -28
 2632              		.cfi_offset 6, -24
 2633              		.cfi_offset 7, -20
 2634              		.cfi_offset 8, -16
 2635              		.cfi_offset 9, -12
 2636              		.cfi_offset 10, -8
 2637              		.cfi_offset 14, -4
 2638 0004 82B0     		sub	sp, sp, #8
 2639              		.cfi_def_cfa_offset 40
 2640 0006 0746     		mov	r7, r0
 2641 0008 8846     		mov	r8, r1
 2642 000a 9146     		mov	r9, r2
 2643 000c 9A46     		mov	r10, r3
 2644 000e BDF92850 		ldrsh	r5, [sp, #40]
 2645 0012 BDF92C60 		ldrsh	r6, [sp, #44]
 2646 0016 BDF83040 		ldrh	r4, [sp, #48]
 733:source\bsw\tft/tft.c ****     TFT_writeLine(x0, y0, x1, y1, color);
 2647              		.loc 1 733 0
 2648 001a 0094     		str	r4, [sp]
 2649 001c FFF7FEFF 		bl	TFT_writeLine
 2650              	.LVL299:
 734:source\bsw\tft/tft.c ****     TFT_writeLine(x1, y1, x2, y2, color);
 2651              		.loc 1 734 0
 2652 0020 0094     		str	r4, [sp]
 2653 0022 3346     		mov	r3, r6
 2654 0024 2A46     		mov	r2, r5
 2655 0026 5146     		mov	r1, r10
 2656 0028 4846     		mov	r0, r9
 2657 002a FFF7FEFF 		bl	TFT_writeLine
 2658              	.LVL300:
 735:source\bsw\tft/tft.c ****     TFT_writeLine(x2, y2, x0, y0, color);
 2659              		.loc 1 735 0
 2660 002e 0094     		str	r4, [sp]
 2661 0030 4346     		mov	r3, r8
 2662 0032 3A46     		mov	r2, r7
 2663 0034 3146     		mov	r1, r6
 2664 0036 2846     		mov	r0, r5
 2665 0038 FFF7FEFF 		bl	TFT_writeLine
 2666              	.LVL301:
 736:source\bsw\tft/tft.c **** }
 2667              		.loc 1 736 0
 2668 003c 02B0     		add	sp, sp, #8
ARM GAS  C:\Users\MATEOC~1.QUE\AppData\Local\Temp\ccxtWYOp.s 			page 65


 2669              		.cfi_def_cfa_offset 32
 2670              		@ sp needed
 2671 003e BDE8F087 		pop	{r4, r5, r6, r7, r8, r9, r10, pc}
 2672              		.cfi_endproc
 2673              	.LFE36:
 2674              		.size	TFT_drawTriangle, .-TFT_drawTriangle
 2675 0042 00BF     		.section	.text.TFT_fillTriangle,"ax",%progbits
 2676              		.align	2
 2677              		.global	TFT_fillTriangle
 2678              		.thumb
 2679              		.thumb_func
 2680              		.type	TFT_fillTriangle, %function
 2681              	TFT_fillTriangle:
 2682              	.LFB37:
 737:source\bsw\tft/tft.c **** 
 738:source\bsw\tft/tft.c **** // Fill a triangle
 739:source\bsw\tft/tft.c **** void TFT_fillTriangle(int16_t x0, int16_t y0, int16_t x1, int16_t y1, int16_t x2, int16_t y2, TFT_c
 2683              		.loc 1 739 0
 2684              		.cfi_startproc
 2685              		@ args = 12, pretend = 0, frame = 32
 2686              		@ frame_needed = 0, uses_anonymous_args = 0
 2687              	.LVL302:
 2688 0000 2DE9F04F 		push	{r4, r5, r6, r7, r8, r9, r10, fp, lr}
 2689              		.cfi_def_cfa_offset 36
 2690              		.cfi_offset 4, -36
 2691              		.cfi_offset 5, -32
 2692              		.cfi_offset 6, -28
 2693              		.cfi_offset 7, -24
 2694              		.cfi_offset 8, -20
 2695              		.cfi_offset 9, -16
 2696              		.cfi_offset 10, -12
 2697              		.cfi_offset 11, -8
 2698              		.cfi_offset 14, -4
 2699 0004 89B0     		sub	sp, sp, #36
 2700              		.cfi_def_cfa_offset 72
 2701 0006 0C46     		mov	r4, r1
 2702 0008 0491     		str	r1, [sp, #16]
 2703 000a 1E46     		mov	r6, r3
 2704 000c 0593     		str	r3, [sp, #20]
 2705 000e BDF94850 		ldrsh	r5, [sp, #72]
 2706 0012 BDF94C90 		ldrsh	r9, [sp, #76]
 2707 0016 BDF85070 		ldrh	r7, [sp, #80]
 2708 001a 0097     		str	r7, [sp]
 740:source\bsw\tft/tft.c **** 
 741:source\bsw\tft/tft.c ****     int16_t a, b, y, last;
 742:source\bsw\tft/tft.c **** 
 743:source\bsw\tft/tft.c ****     // Sort coordinates by Y order (y2 >= y1 >= y0)
 744:source\bsw\tft/tft.c ****     if (y0 > y1) {
 2709              		.loc 1 744 0
 2710 001c 9942     		cmp	r1, r3
 2711 001e 04DD     		ble	.L183
 2712              	.LBB11:
 745:source\bsw\tft/tft.c ****         _swap_int16_t(y0, y1); _swap_int16_t(x0, x1);
 2713              		.loc 1 745 0
 2714 0020 0496     		str	r6, [sp, #16]
 2715 0022 0594     		str	r4, [sp, #20]
 2716              	.LBE11:
ARM GAS  C:\Users\MATEOC~1.QUE\AppData\Local\Temp\ccxtWYOp.s 			page 66


 2717 0024 0346     		mov	r3, r0
 2718              	.LVL303:
 2719              	.LBB12:
 2720 0026 1046     		mov	r0, r2
 2721              	.LVL304:
 2722 0028 1A46     		mov	r2, r3
 2723              	.LVL305:
 2724              	.L183:
 2725              	.LBE12:
 746:source\bsw\tft/tft.c ****     }
 747:source\bsw\tft/tft.c ****     if (y1 > y2) {
 2726              		.loc 1 747 0
 2727 002a 059B     		ldr	r3, [sp, #20]
 2728 002c 4B45     		cmp	r3, r9
 2729 002e 05DD     		ble	.L184
 2730              	.LBB13:
 748:source\bsw\tft/tft.c ****         _swap_int16_t(y2, y1); _swap_int16_t(x2, x1);
 2731              		.loc 1 748 0
 2732 0030 CDF81490 		str	r9, [sp, #20]
 2733              	.LVL306:
 2734 0034 9946     		mov	r9, r3
 2735              	.LBE13:
 2736 0036 1346     		mov	r3, r2
 2737              	.LBB14:
 2738 0038 2A46     		mov	r2, r5
 2739              	.LVL307:
 2740 003a 1D46     		mov	r5, r3
 2741              	.L184:
 2742              	.LVL308:
 2743              	.LBE14:
 749:source\bsw\tft/tft.c ****     }
 750:source\bsw\tft/tft.c ****     if (y0 > y1) {
 2744              		.loc 1 750 0
 2745 003c 049B     		ldr	r3, [sp, #16]
 2746 003e 059E     		ldr	r6, [sp, #20]
 2747 0040 B342     		cmp	r3, r6
 2748 0042 04DD     		ble	.L185
 2749              	.LBB15:
 751:source\bsw\tft/tft.c ****         _swap_int16_t(y0, y1); _swap_int16_t(x0, x1);
 2750              		.loc 1 751 0
 2751 0044 0496     		str	r6, [sp, #16]
 2752              	.LVL309:
 2753 0046 0593     		str	r3, [sp, #20]
 2754              	.LVL310:
 2755              	.LBE15:
 2756 0048 0346     		mov	r3, r0
 2757              	.LBB16:
 2758 004a 1046     		mov	r0, r2
 2759              	.LVL311:
 2760 004c 1A46     		mov	r2, r3
 2761              	.LVL312:
 2762              	.L185:
 2763              	.LBE16:
 752:source\bsw\tft/tft.c ****     }
 753:source\bsw\tft/tft.c **** 
 754:source\bsw\tft/tft.c ****     if(y0 == y2) { // Handle awkward all-on-same-line case as its own thing
 2764              		.loc 1 754 0
ARM GAS  C:\Users\MATEOC~1.QUE\AppData\Local\Temp\ccxtWYOp.s 			page 67


 2765 004e 049B     		ldr	r3, [sp, #16]
 2766 0050 4B45     		cmp	r3, r9
 2767 0052 18D1     		bne	.L186
 2768              	.LVL313:
 755:source\bsw\tft/tft.c ****         a = b = x0;
 756:source\bsw\tft/tft.c ****         if(x1 < a)      a = x1;
 2769              		.loc 1 756 0
 2770 0054 9042     		cmp	r0, r2
 2771 0056 05DC     		bgt	.L187
 757:source\bsw\tft/tft.c ****         else if(x1 > b) b = x1;
 2772              		.loc 1 757 0
 2773 0058 01DB     		blt	.L200
 755:source\bsw\tft/tft.c ****         a = b = x0;
 2774              		.loc 1 755 0
 2775 005a 0246     		mov	r2, r0
 2776              	.LVL314:
 2777 005c 02E0     		b	.L187
 2778              	.LVL315:
 2779              	.L200:
 2780 005e 1346     		mov	r3, r2
 2781 0060 0246     		mov	r2, r0
 2782              	.LVL316:
 2783              		.loc 1 757 0
 2784 0062 1846     		mov	r0, r3
 2785              	.LVL317:
 2786              	.L187:
 758:source\bsw\tft/tft.c ****         if(x2 < a)      a = x2;
 2787              		.loc 1 758 0
 2788 0064 9542     		cmp	r5, r2
 2789 0066 05DB     		blt	.L188
 759:source\bsw\tft/tft.c ****         else if(x2 > b) b = x2;
 2790              		.loc 1 759 0
 2791 0068 8542     		cmp	r5, r0
 2792 006a 01DC     		bgt	.L201
 2793 006c 1546     		mov	r5, r2
 2794              	.LVL318:
 2795 006e 01E0     		b	.L188
 2796              	.LVL319:
 2797              	.L201:
 2798 0070 2846     		mov	r0, r5
 2799              	.LVL320:
 2800 0072 1546     		mov	r5, r2
 2801              	.LVL321:
 2802              	.L188:
 760:source\bsw\tft/tft.c ****         TFT_fastHLine(a, y0, b-a+1, color);
 2803              		.loc 1 760 0
 2804 0074 401B     		subs	r0, r0, r5
 2805              	.LVL322:
 2806 0076 421C     		adds	r2, r0, #1
 2807 0078 009B     		ldr	r3, [sp]
 2808 007a 12B2     		sxth	r2, r2
 2809 007c 0499     		ldr	r1, [sp, #16]
 2810 007e 2846     		mov	r0, r5
 2811 0080 FFF7FEFF 		bl	TFT_fastHLine
 2812              	.LVL323:
 761:source\bsw\tft/tft.c ****         return;
 2813              		.loc 1 761 0
ARM GAS  C:\Users\MATEOC~1.QUE\AppData\Local\Temp\ccxtWYOp.s 			page 68


 2814 0084 74E0     		b	.L182
 2815              	.LVL324:
 2816              	.L186:
 762:source\bsw\tft/tft.c ****     }
 763:source\bsw\tft/tft.c **** 
 764:source\bsw\tft/tft.c ****     int16_t
 765:source\bsw\tft/tft.c ****     dx01 = x1 - x0,
 2817              		.loc 1 765 0
 2818 0086 93B2     		uxth	r3, r2
 2819 0088 1A46     		mov	r2, r3
 2820 008a 0193     		str	r3, [sp, #4]
 2821 008c 87B2     		uxth	r7, r0
 2822 008e DB1B     		subs	r3, r3, r7
 2823 0090 1BB2     		sxth	r3, r3
 2824 0092 0293     		str	r3, [sp, #8]
 2825              	.LVL325:
 766:source\bsw\tft/tft.c ****     dy01 = y1 - y0,
 2826              		.loc 1 766 0
 2827 0094 0599     		ldr	r1, [sp, #20]
 2828 0096 1FFA81FB 		uxth	fp, r1
 2829 009a BDF81080 		ldrh	r8, [sp, #16]
 2830 009e C8EB0B03 		rsb	r3, r8, fp
 2831 00a2 1BB2     		sxth	r3, r3
 2832 00a4 1846     		mov	r0, r3
 2833              	.LVL326:
 767:source\bsw\tft/tft.c ****     dx02 = x2 - x0,
 2834              		.loc 1 767 0
 2835 00a6 ADB2     		uxth	r5, r5
 2836 00a8 EE1B     		subs	r6, r5, r7
 2837 00aa 36B2     		sxth	r6, r6
 2838              	.LVL327:
 768:source\bsw\tft/tft.c ****     dy02 = y2 - y0,
 2839              		.loc 1 768 0
 2840 00ac 1FFA89F3 		uxth	r3, r9
 2841 00b0 C8EB0308 		rsb	r8, r8, r3
 2842 00b4 0FFA88F8 		sxth	r8, r8
 2843              	.LVL328:
 769:source\bsw\tft/tft.c ****     dx12 = x2 - x1,
 2844              		.loc 1 769 0
 2845 00b8 AD1A     		subs	r5, r5, r2
 2846              	.LVL329:
 2847 00ba 2AB2     		sxth	r2, r5
 2848              	.LVL330:
 2849 00bc 0692     		str	r2, [sp, #24]
 2850              	.LVL331:
 770:source\bsw\tft/tft.c ****     dy12 = y2 - y1;
 2851              		.loc 1 770 0
 2852 00be CBEB0303 		rsb	r3, fp, r3
 2853 00c2 1BB2     		sxth	r3, r3
 2854 00c4 0393     		str	r3, [sp, #12]
 2855              	.LVL332:
 771:source\bsw\tft/tft.c ****     int32_t
 772:source\bsw\tft/tft.c ****     sa   = 0,
 773:source\bsw\tft/tft.c ****     sb   = 0;
 774:source\bsw\tft/tft.c **** 
 775:source\bsw\tft/tft.c ****     // For upper part of triangle, find scanline crossings for segments
 776:source\bsw\tft/tft.c ****     // 0-1 and 0-2.  If y1=y2 (flat-bottomed triangle), the scanline y1
ARM GAS  C:\Users\MATEOC~1.QUE\AppData\Local\Temp\ccxtWYOp.s 			page 69


 777:source\bsw\tft/tft.c ****     // is included here (and second loop will be skipped, avoiding a /0
 778:source\bsw\tft/tft.c ****     // error there), otherwise scanline y1 is skipped here and handled
 779:source\bsw\tft/tft.c ****     // in the second loop...which also avoids a /0 error here if y0=y1
 780:source\bsw\tft/tft.c ****     // (flat-topped triangle).
 781:source\bsw\tft/tft.c ****     if(y1 == y2) last = y1;   // Include y1 scanline
 2856              		.loc 1 781 0
 2857 00c6 4945     		cmp	r1, r9
 2858 00c8 04D0     		beq	.L202
 782:source\bsw\tft/tft.c ****     else         last = y1-1; // Skip it
 2859              		.loc 1 782 0
 2860 00ca 0BF1FF3B 		add	fp, fp, #-1
 2861 00ce 0FFA8BFB 		sxth	fp, fp
 2862              	.LVL333:
 2863 00d2 01E0     		b	.L190
 2864              	.LVL334:
 2865              	.L202:
 781:source\bsw\tft/tft.c ****     else         last = y1-1; // Skip it
 2866              		.loc 1 781 0
 2867 00d4 DDF814B0 		ldr	fp, [sp, #20]
 2868              	.L190:
 2869              	.LVL335:
 783:source\bsw\tft/tft.c **** 
 784:source\bsw\tft/tft.c ****     for(y=y0; y<=last; y++) {
 2870              		.loc 1 784 0
 2871 00d8 049C     		ldr	r4, [sp, #16]
 773:source\bsw\tft/tft.c **** 
 2872              		.loc 1 773 0
 2873 00da 0025     		movs	r5, #0
 772:source\bsw\tft/tft.c ****     sb   = 0;
 2874              		.loc 1 772 0
 2875 00dc AA46     		mov	r10, r5
 2876 00de CDF81C90 		str	r9, [sp, #28]
 2877 00e2 8146     		mov	r9, r0
 2878              	.LVL336:
 2879              		.loc 1 784 0
 2880 00e4 18E0     		b	.L191
 2881              	.LVL337:
 2882              	.L193:
 785:source\bsw\tft/tft.c ****         a   = x0 + sa / dy01;
 2883              		.loc 1 785 0
 2884 00e6 9AFBF9F2 		sdiv	r2, r10, r9
 2885 00ea 3A44     		add	r2, r2, r7
 2886 00ec 12B2     		sxth	r2, r2
 2887              	.LVL338:
 786:source\bsw\tft/tft.c ****         b   = x0 + sb / dy02;
 2888              		.loc 1 786 0
 2889 00ee 95FBF8F0 		sdiv	r0, r5, r8
 2890 00f2 3844     		add	r0, r0, r7
 2891 00f4 00B2     		sxth	r0, r0
 2892              	.LVL339:
 787:source\bsw\tft/tft.c ****         sa += dx01;
 2893              		.loc 1 787 0
 2894 00f6 029B     		ldr	r3, [sp, #8]
 2895 00f8 9A44     		add	r10, r10, r3
 2896              	.LVL340:
 788:source\bsw\tft/tft.c ****         sb += dx02;
 2897              		.loc 1 788 0
ARM GAS  C:\Users\MATEOC~1.QUE\AppData\Local\Temp\ccxtWYOp.s 			page 70


 2898 00fa 3544     		add	r5, r5, r6
 2899              	.LVL341:
 789:source\bsw\tft/tft.c ****         /* longhand:
 790:source\bsw\tft/tft.c ****         a = x0 + (x1 - x0) * (y - y0) / (y1 - y0);
 791:source\bsw\tft/tft.c ****         b = x0 + (x2 - x0) * (y - y0) / (y2 - y0);
 792:source\bsw\tft/tft.c ****         */
 793:source\bsw\tft/tft.c ****         if(a > b) _swap_int16_t(a,b);
 2900              		.loc 1 793 0
 2901 00fc 8242     		cmp	r2, r0
 2902 00fe 02DC     		bgt	.L192
 2903 0100 0346     		mov	r3, r0
 785:source\bsw\tft/tft.c ****         b   = x0 + sb / dy02;
 2904              		.loc 1 785 0
 2905 0102 1046     		mov	r0, r2
 2906              	.LVL342:
 786:source\bsw\tft/tft.c ****         sa += dx01;
 2907              		.loc 1 786 0
 2908 0104 1A46     		mov	r2, r3
 2909              	.LVL343:
 2910              	.L192:
 794:source\bsw\tft/tft.c ****         TFT_fastHLine(a, y, b-a+1, color);
 2911              		.loc 1 794 0 discriminator 2
 2912 0106 121A     		subs	r2, r2, r0
 2913              	.LVL344:
 2914 0108 0132     		adds	r2, r2, #1
 2915 010a 009B     		ldr	r3, [sp]
 2916 010c 12B2     		sxth	r2, r2
 2917 010e 2146     		mov	r1, r4
 2918 0110 FFF7FEFF 		bl	TFT_fastHLine
 2919              	.LVL345:
 784:source\bsw\tft/tft.c ****         a   = x0 + sa / dy01;
 2920              		.loc 1 784 0 discriminator 2
 2921 0114 0134     		adds	r4, r4, #1
 2922              	.LVL346:
 2923 0116 24B2     		sxth	r4, r4
 2924              	.LVL347:
 2925              	.L191:
 784:source\bsw\tft/tft.c ****         a   = x0 + sa / dy01;
 2926              		.loc 1 784 0 is_stmt 0 discriminator 1
 2927 0118 5C45     		cmp	r4, fp
 2928 011a E4DD     		ble	.L193
 2929 011c DDF81C90 		ldr	r9, [sp, #28]
 2930              	.LVL348:
 795:source\bsw\tft/tft.c ****     }
 796:source\bsw\tft/tft.c **** 
 797:source\bsw\tft/tft.c ****     // For lower part of triangle, find scanline crossings for segments
 798:source\bsw\tft/tft.c ****     // 0-2 and 1-2.  This loop is skipped if y1=y2.
 799:source\bsw\tft/tft.c ****     sa = dx12 * (y - y1);
 2931              		.loc 1 799 0 is_stmt 1
 2932 0120 069A     		ldr	r2, [sp, #24]
 2933 0122 9346     		mov	fp, r2
 2934              	.LVL349:
 2935 0124 059B     		ldr	r3, [sp, #20]
 2936 0126 E51A     		subs	r5, r4, r3
 2937              	.LVL350:
 2938 0128 05FB02F5 		mul	r5, r5, r2
 2939              	.LVL351:
ARM GAS  C:\Users\MATEOC~1.QUE\AppData\Local\Temp\ccxtWYOp.s 			page 71


 800:source\bsw\tft/tft.c ****     sb = dx02 * (y - y0);
 2940              		.loc 1 800 0
 2941 012c B246     		mov	r10, r6
 2942 012e 049B     		ldr	r3, [sp, #16]
 2943 0130 E31A     		subs	r3, r4, r3
 2944 0132 03FB06F6 		mul	r6, r3, r6
 2945              	.LVL352:
 801:source\bsw\tft/tft.c ****     for(; y<=y2; y++) {
 2946              		.loc 1 801 0
 2947 0136 19E0     		b	.L194
 2948              	.L196:
 802:source\bsw\tft/tft.c ****         a   = x1 + sa / dy12;
 2949              		.loc 1 802 0
 2950 0138 039B     		ldr	r3, [sp, #12]
 2951 013a 95FBF3F2 		sdiv	r2, r5, r3
 2952 013e 019B     		ldr	r3, [sp, #4]
 2953 0140 1A44     		add	r2, r2, r3
 2954 0142 12B2     		sxth	r2, r2
 2955              	.LVL353:
 803:source\bsw\tft/tft.c ****         b   = x0 + sb / dy02;
 2956              		.loc 1 803 0
 2957 0144 96FBF8F0 		sdiv	r0, r6, r8
 2958 0148 3844     		add	r0, r0, r7
 2959 014a 00B2     		sxth	r0, r0
 2960              	.LVL354:
 804:source\bsw\tft/tft.c ****         sa += dx12;
 2961              		.loc 1 804 0
 2962 014c 5D44     		add	r5, r5, fp
 2963              	.LVL355:
 805:source\bsw\tft/tft.c ****         sb += dx02;
 2964              		.loc 1 805 0
 2965 014e 5644     		add	r6, r6, r10
 2966              	.LVL356:
 806:source\bsw\tft/tft.c ****         /* longhand:
 807:source\bsw\tft/tft.c ****         a = x1 + (x2 - x1) * (y - y1) / (y2 - y1);
 808:source\bsw\tft/tft.c ****         b = x0 + (x2 - x0) * (y - y0) / (y2 - y0);
 809:source\bsw\tft/tft.c ****         */
 810:source\bsw\tft/tft.c ****         if(a > b) _swap_int16_t(a,b);
 2967              		.loc 1 810 0
 2968 0150 8242     		cmp	r2, r0
 2969 0152 02DC     		bgt	.L195
 2970 0154 0346     		mov	r3, r0
 802:source\bsw\tft/tft.c ****         b   = x0 + sb / dy02;
 2971              		.loc 1 802 0
 2972 0156 1046     		mov	r0, r2
 2973              	.LVL357:
 803:source\bsw\tft/tft.c ****         sa += dx12;
 2974              		.loc 1 803 0
 2975 0158 1A46     		mov	r2, r3
 2976              	.LVL358:
 2977              	.L195:
 811:source\bsw\tft/tft.c ****         TFT_fastHLine(a, y, b-a+1, color);
 2978              		.loc 1 811 0
 2979 015a 121A     		subs	r2, r2, r0
 2980              	.LVL359:
 2981 015c 0132     		adds	r2, r2, #1
 2982 015e 009B     		ldr	r3, [sp]
ARM GAS  C:\Users\MATEOC~1.QUE\AppData\Local\Temp\ccxtWYOp.s 			page 72


 2983 0160 12B2     		sxth	r2, r2
 2984 0162 2146     		mov	r1, r4
 2985 0164 FFF7FEFF 		bl	TFT_fastHLine
 2986              	.LVL360:
 801:source\bsw\tft/tft.c ****         a   = x1 + sa / dy12;
 2987              		.loc 1 801 0
 2988 0168 0134     		adds	r4, r4, #1
 2989              	.LVL361:
 2990 016a 24B2     		sxth	r4, r4
 2991              	.LVL362:
 2992              	.L194:
 801:source\bsw\tft/tft.c ****         a   = x1 + sa / dy12;
 2993              		.loc 1 801 0 is_stmt 0 discriminator 1
 2994 016c A145     		cmp	r9, r4
 2995 016e E3DA     		bge	.L196
 2996              	.LVL363:
 2997              	.L182:
 812:source\bsw\tft/tft.c ****     }
 813:source\bsw\tft/tft.c **** }
 2998              		.loc 1 813 0 is_stmt 1
 2999 0170 09B0     		add	sp, sp, #36
 3000              		.cfi_def_cfa_offset 36
 3001              		@ sp needed
 3002 0172 BDE8F08F 		pop	{r4, r5, r6, r7, r8, r9, r10, fp, pc}
 3003              		.cfi_endproc
 3004              	.LFE37:
 3005              		.size	TFT_fillTriangle, .-TFT_fillTriangle
 3006 0176 00BF     		.section	.text.TFT_drawRoundRect,"ax",%progbits
 3007              		.align	2
 3008              		.global	TFT_drawRoundRect
 3009              		.thumb
 3010              		.thumb_func
 3011              		.type	TFT_drawRoundRect, %function
 3012              	TFT_drawRoundRect:
 3013              	.LFB38:
 814:source\bsw\tft/tft.c **** 
 815:source\bsw\tft/tft.c **** // Draw a rounded rectangle
 816:source\bsw\tft/tft.c **** void TFT_drawRoundRect(int16_t x, int16_t y, int16_t w, int16_t h, int16_t r, TFT_color_t color) {
 3014              		.loc 1 816 0
 3015              		.cfi_startproc
 3016              		@ args = 8, pretend = 0, frame = 16
 3017              		@ frame_needed = 0, uses_anonymous_args = 0
 3018              	.LVL364:
 3019 0000 2DE9F04F 		push	{r4, r5, r6, r7, r8, r9, r10, fp, lr}
 3020              		.cfi_def_cfa_offset 36
 3021              		.cfi_offset 4, -36
 3022              		.cfi_offset 5, -32
 3023              		.cfi_offset 6, -28
 3024              		.cfi_offset 7, -24
 3025              		.cfi_offset 8, -20
 3026              		.cfi_offset 9, -16
 3027              		.cfi_offset 10, -12
 3028              		.cfi_offset 11, -8
 3029              		.cfi_offset 14, -4
 3030 0004 87B0     		sub	sp, sp, #28
 3031              		.cfi_def_cfa_offset 64
 3032 0006 0E46     		mov	r6, r1
ARM GAS  C:\Users\MATEOC~1.QUE\AppData\Local\Temp\ccxtWYOp.s 			page 73


 3033 0008 1F46     		mov	r7, r3
 3034 000a BDF94030 		ldrsh	r3, [sp, #64]
 3035              	.LVL365:
 3036 000e BDF84480 		ldrh	r8, [sp, #68]
 817:source\bsw\tft/tft.c ****     // smarter version
 818:source\bsw\tft/tft.c ****     TFT_fastHLine(x+r  , y    , w-2*r, color); // Top
 3037              		.loc 1 818 0
 3038 0012 0390     		str	r0, [sp, #12]
 3039 0014 BDF80CB0 		ldrh	fp, [sp, #12]
 3040 0018 0493     		str	r3, [sp, #16]
 3041 001a BDF81090 		ldrh	r9, [sp, #16]
 3042 001e 0BEB0903 		add	r3, fp, r9
 3043 0022 1CB2     		sxth	r4, r3
 3044 0024 2546     		mov	r5, r4
 3045 0026 94B2     		uxth	r4, r2
 3046 0028 4FEA490A 		lsl	r10, r9, #1
 3047 002c 1FFA8AFA 		uxth	r10, r10
 3048 0030 CAEB0403 		rsb	r3, r10, r4
 3049 0034 1AB2     		sxth	r2, r3
 3050              	.LVL366:
 3051 0036 4346     		mov	r3, r8
 3052 0038 0592     		str	r2, [sp, #20]
 3053 003a 0295     		str	r5, [sp, #8]
 3054 003c 2846     		mov	r0, r5
 3055              	.LVL367:
 3056 003e FFF7FEFF 		bl	TFT_fastHLine
 3057              	.LVL368:
 819:source\bsw\tft/tft.c ****     TFT_fastHLine(x+r  , y+h-1, w-2*r, color); // Bottom
 3058              		.loc 1 819 0
 3059 0042 B6B2     		uxth	r6, r6
 3060 0044 BFB2     		uxth	r7, r7
 3061 0046 F519     		adds	r5, r6, r7
 3062 0048 ADB2     		uxth	r5, r5
 3063 004a 691E     		subs	r1, r5, #1
 3064 004c 4346     		mov	r3, r8
 3065 004e 059A     		ldr	r2, [sp, #20]
 3066 0050 09B2     		sxth	r1, r1
 3067 0052 0298     		ldr	r0, [sp, #8]
 3068 0054 FFF7FEFF 		bl	TFT_fastHLine
 3069              	.LVL369:
 820:source\bsw\tft/tft.c ****     TFT_fastVLine(x    , y+r  , h-2*r, color); // Left
 3070              		.loc 1 820 0
 3071 0058 4E44     		add	r6, r6, r9
 3072 005a 36B2     		sxth	r6, r6
 3073 005c CAEB0707 		rsb	r7, r10, r7
 3074 0060 3FB2     		sxth	r7, r7
 3075 0062 4346     		mov	r3, r8
 3076 0064 3A46     		mov	r2, r7
 3077 0066 3146     		mov	r1, r6
 3078 0068 0398     		ldr	r0, [sp, #12]
 3079 006a FFF7FEFF 		bl	TFT_fastVLine
 3080              	.LVL370:
 821:source\bsw\tft/tft.c ****     TFT_fastVLine(x+w-1, y+r  , h-2*r, color); // Right
 3081              		.loc 1 821 0
 3082 006e 5C44     		add	r4, r4, fp
 3083              	.LVL371:
 3084 0070 A4B2     		uxth	r4, r4
ARM GAS  C:\Users\MATEOC~1.QUE\AppData\Local\Temp\ccxtWYOp.s 			page 74


 3085 0072 601E     		subs	r0, r4, #1
 3086 0074 4346     		mov	r3, r8
 3087 0076 3A46     		mov	r2, r7
 3088 0078 3146     		mov	r1, r6
 3089 007a 00B2     		sxth	r0, r0
 3090 007c FFF7FEFF 		bl	TFT_fastVLine
 3091              	.LVL372:
 822:source\bsw\tft/tft.c ****     // draw four corners
 823:source\bsw\tft/tft.c ****     TFT_drawCircleHelper(x+r    , y+r    , r, 1, color);
 3092              		.loc 1 823 0
 3093 0080 CDF80080 		str	r8, [sp]
 3094 0084 0123     		movs	r3, #1
 3095 0086 049F     		ldr	r7, [sp, #16]
 3096 0088 3A46     		mov	r2, r7
 3097 008a 3146     		mov	r1, r6
 3098 008c DDF808A0 		ldr	r10, [sp, #8]
 3099 0090 5046     		mov	r0, r10
 3100 0092 FFF7FEFF 		bl	TFT_drawCircleHelper
 3101              	.LVL373:
 824:source\bsw\tft/tft.c ****     TFT_drawCircleHelper(x+w-r-1, y+r    , r, 2, color);
 3102              		.loc 1 824 0
 3103 0096 C9EB0404 		rsb	r4, r9, r4
 3104 009a 013C     		subs	r4, r4, #1
 3105 009c 24B2     		sxth	r4, r4
 3106 009e CDF80080 		str	r8, [sp]
 3107 00a2 0223     		movs	r3, #2
 3108 00a4 3A46     		mov	r2, r7
 3109 00a6 3146     		mov	r1, r6
 3110 00a8 2046     		mov	r0, r4
 3111 00aa FFF7FEFF 		bl	TFT_drawCircleHelper
 3112              	.LVL374:
 825:source\bsw\tft/tft.c ****     TFT_drawCircleHelper(x+w-r-1, y+h-r-1, r, 4, color);
 3113              		.loc 1 825 0
 3114 00ae C9EB0505 		rsb	r5, r9, r5
 3115 00b2 013D     		subs	r5, r5, #1
 3116 00b4 2DB2     		sxth	r5, r5
 3117 00b6 CDF80080 		str	r8, [sp]
 3118 00ba 0423     		movs	r3, #4
 3119 00bc 3A46     		mov	r2, r7
 3120 00be 2946     		mov	r1, r5
 3121 00c0 2046     		mov	r0, r4
 3122 00c2 FFF7FEFF 		bl	TFT_drawCircleHelper
 3123              	.LVL375:
 826:source\bsw\tft/tft.c ****     TFT_drawCircleHelper(x+r    , y+h-r-1, r, 8, color);
 3124              		.loc 1 826 0
 3125 00c6 CDF80080 		str	r8, [sp]
 3126 00ca 0823     		movs	r3, #8
 3127 00cc 3A46     		mov	r2, r7
 3128 00ce 2946     		mov	r1, r5
 3129 00d0 5046     		mov	r0, r10
 3130 00d2 FFF7FEFF 		bl	TFT_drawCircleHelper
 3131              	.LVL376:
 827:source\bsw\tft/tft.c **** 
 828:source\bsw\tft/tft.c **** }
 3132              		.loc 1 828 0
 3133 00d6 07B0     		add	sp, sp, #28
 3134              		.cfi_def_cfa_offset 36
ARM GAS  C:\Users\MATEOC~1.QUE\AppData\Local\Temp\ccxtWYOp.s 			page 75


 3135              		@ sp needed
 3136 00d8 BDE8F08F 		pop	{r4, r5, r6, r7, r8, r9, r10, fp, pc}
 3137              		.cfi_endproc
 3138              	.LFE38:
 3139              		.size	TFT_drawRoundRect, .-TFT_drawRoundRect
 3140              		.section	.text.TFT_fillRoundRect,"ax",%progbits
 3141              		.align	2
 3142              		.global	TFT_fillRoundRect
 3143              		.thumb
 3144              		.thumb_func
 3145              		.type	TFT_fillRoundRect, %function
 3146              	TFT_fillRoundRect:
 3147              	.LFB39:
 829:source\bsw\tft/tft.c **** 
 830:source\bsw\tft/tft.c **** // Fill a rounded rectangle
 831:source\bsw\tft/tft.c **** void TFT_fillRoundRect(int16_t x, int16_t y, int16_t w, int16_t h, int16_t r, TFT_color_t color) {
 3148              		.loc 1 831 0
 3149              		.cfi_startproc
 3150              		@ args = 8, pretend = 0, frame = 8
 3151              		@ frame_needed = 0, uses_anonymous_args = 0
 3152              	.LVL377:
 3153 0000 2DE9F04F 		push	{r4, r5, r6, r7, r8, r9, r10, fp, lr}
 3154              		.cfi_def_cfa_offset 36
 3155              		.cfi_offset 4, -36
 3156              		.cfi_offset 5, -32
 3157              		.cfi_offset 6, -28
 3158              		.cfi_offset 7, -24
 3159              		.cfi_offset 8, -20
 3160              		.cfi_offset 9, -16
 3161              		.cfi_offset 10, -12
 3162              		.cfi_offset 11, -8
 3163              		.cfi_offset 14, -4
 3164 0004 85B0     		sub	sp, sp, #20
 3165              		.cfi_def_cfa_offset 56
 3166 0006 0D46     		mov	r5, r1
 3167 0008 0393     		str	r3, [sp, #12]
 3168 000a BDF93890 		ldrsh	r9, [sp, #56]
 3169 000e BDF83CA0 		ldrh	r10, [sp, #60]
 832:source\bsw\tft/tft.c ****     // smarter version
 833:source\bsw\tft/tft.c **** 
 834:source\bsw\tft/tft.c ****     TFT_fillRect(x+r, y, w-2*r, h, color);
 3170              		.loc 1 834 0
 3171 0012 1FFA80FB 		uxth	fp, r0
 3172 0016 1FFA89F7 		uxth	r7, r9
 3173 001a 0BEB0706 		add	r6, fp, r7
 3174 001e 36B2     		sxth	r6, r6
 3175 0020 94B2     		uxth	r4, r2
 3176 0022 4FEA4708 		lsl	r8, r7, #1
 3177 0026 1FFA88F8 		uxth	r8, r8
 3178 002a C8EB0402 		rsb	r2, r8, r4
 3179              	.LVL378:
 3180 002e CDF800A0 		str	r10, [sp]
 3181 0032 12B2     		sxth	r2, r2
 3182 0034 3046     		mov	r0, r6
 3183              	.LVL379:
 3184 0036 FFF7FEFF 		bl	TFT_fillRect
 3185              	.LVL380:
ARM GAS  C:\Users\MATEOC~1.QUE\AppData\Local\Temp\ccxtWYOp.s 			page 76


 835:source\bsw\tft/tft.c **** 
 836:source\bsw\tft/tft.c ****     // draw four corners
 837:source\bsw\tft/tft.c ****     TFT_fillCircleHelper(x+w-r-1, y+r, r, 1, h-2*r-1, color);
 3186              		.loc 1 837 0
 3187 003a 3D44     		add	r5, r5, r7
 3188 003c 2DB2     		sxth	r5, r5
 3189 003e 039B     		ldr	r3, [sp, #12]
 3190 0040 C8EB0308 		rsb	r8, r8, r3
 3191 0044 08F1FF38 		add	r8, r8, #-1
 3192 0048 0FFA88F8 		sxth	r8, r8
 3193 004c 0BEB0400 		add	r0, fp, r4
 3194 0050 C01B     		subs	r0, r0, r7
 3195 0052 0138     		subs	r0, r0, #1
 3196 0054 CDF804A0 		str	r10, [sp, #4]
 3197 0058 CDF80080 		str	r8, [sp]
 3198 005c 0123     		movs	r3, #1
 3199 005e 4A46     		mov	r2, r9
 3200 0060 2946     		mov	r1, r5
 3201 0062 00B2     		sxth	r0, r0
 3202 0064 FFF7FEFF 		bl	TFT_fillCircleHelper
 3203              	.LVL381:
 838:source\bsw\tft/tft.c ****     TFT_fillCircleHelper(x+r    , y+r, r, 2, h-2*r-1, color);
 3204              		.loc 1 838 0
 3205 0068 CDF804A0 		str	r10, [sp, #4]
 3206 006c CDF80080 		str	r8, [sp]
 3207 0070 0223     		movs	r3, #2
 3208 0072 4A46     		mov	r2, r9
 3209 0074 2946     		mov	r1, r5
 3210 0076 3046     		mov	r0, r6
 3211 0078 FFF7FEFF 		bl	TFT_fillCircleHelper
 3212              	.LVL382:
 839:source\bsw\tft/tft.c **** 
 840:source\bsw\tft/tft.c **** }
 3213              		.loc 1 840 0
 3214 007c 05B0     		add	sp, sp, #20
 3215              		.cfi_def_cfa_offset 36
 3216              		@ sp needed
 3217 007e BDE8F08F 		pop	{r4, r5, r6, r7, r8, r9, r10, fp, pc}
 3218              		.cfi_endproc
 3219              	.LFE39:
 3220              		.size	TFT_fillRoundRect, .-TFT_fillRoundRect
 3221 0082 00BF     		.section	.text.TFT_drawRect,"ax",%progbits
 3222              		.align	2
 3223              		.global	TFT_drawRect
 3224              		.thumb
 3225              		.thumb_func
 3226              		.type	TFT_drawRect, %function
 3227              	TFT_drawRect:
 3228              	.LFB40:
 841:source\bsw\tft/tft.c **** 
 842:source\bsw\tft/tft.c **** // Draw a rectangle
 843:source\bsw\tft/tft.c **** void TFT_drawRect(int16_t x, int16_t y, int16_t w, int16_t h,  TFT_color_t color) {
 3229              		.loc 1 843 0
 3230              		.cfi_startproc
 3231              		@ args = 4, pretend = 0, frame = 0
 3232              		@ frame_needed = 0, uses_anonymous_args = 0
 3233              	.LVL383:
ARM GAS  C:\Users\MATEOC~1.QUE\AppData\Local\Temp\ccxtWYOp.s 			page 77


 3234 0000 2DE9F041 		push	{r4, r5, r6, r7, r8, lr}
 3235              		.cfi_def_cfa_offset 24
 3236              		.cfi_offset 4, -24
 3237              		.cfi_offset 5, -20
 3238              		.cfi_offset 6, -16
 3239              		.cfi_offset 7, -12
 3240              		.cfi_offset 8, -8
 3241              		.cfi_offset 14, -4
 3242 0004 8046     		mov	r8, r0
 3243 0006 0E46     		mov	r6, r1
 3244 0008 1446     		mov	r4, r2
 3245 000a 1F46     		mov	r7, r3
 3246 000c BDF81850 		ldrh	r5, [sp, #24]
 844:source\bsw\tft/tft.c ****     TFT_fastHLine(x, y, w, color);
 3247              		.loc 1 844 0
 3248 0010 2B46     		mov	r3, r5
 3249              	.LVL384:
 3250 0012 FFF7FEFF 		bl	TFT_fastHLine
 3251              	.LVL385:
 845:source\bsw\tft/tft.c ****     TFT_fastHLine(x, y+h-1, w, color);
 3252              		.loc 1 845 0
 3253 0016 F119     		adds	r1, r6, r7
 3254 0018 0139     		subs	r1, r1, #1
 3255 001a 2B46     		mov	r3, r5
 3256 001c 2246     		mov	r2, r4
 3257 001e 09B2     		sxth	r1, r1
 3258 0020 4046     		mov	r0, r8
 3259 0022 FFF7FEFF 		bl	TFT_fastHLine
 3260              	.LVL386:
 846:source\bsw\tft/tft.c ****     TFT_fastVLine(x, y, h, color);
 3261              		.loc 1 846 0
 3262 0026 2B46     		mov	r3, r5
 3263 0028 3A46     		mov	r2, r7
 3264 002a 3146     		mov	r1, r6
 3265 002c 4046     		mov	r0, r8
 3266 002e FFF7FEFF 		bl	TFT_fastVLine
 3267              	.LVL387:
 847:source\bsw\tft/tft.c ****     TFT_fastVLine(x+w-1, y, h, color);
 3268              		.loc 1 847 0
 3269 0032 08EB0400 		add	r0, r8, r4
 3270 0036 0138     		subs	r0, r0, #1
 3271 0038 2B46     		mov	r3, r5
 3272 003a 3A46     		mov	r2, r7
 3273 003c 3146     		mov	r1, r6
 3274 003e 00B2     		sxth	r0, r0
 3275 0040 FFF7FEFF 		bl	TFT_fastVLine
 3276              	.LVL388:
 3277 0044 BDE8F081 		pop	{r4, r5, r6, r7, r8, pc}
 3278              		.cfi_endproc
 3279              	.LFE40:
 3280              		.size	TFT_drawRect, .-TFT_drawRect
 3281              		.section	.text.TFT_drawChar,"ax",%progbits
 3282              		.align	2
 3283              		.global	TFT_drawChar
 3284              		.thumb
 3285              		.thumb_func
 3286              		.type	TFT_drawChar, %function
ARM GAS  C:\Users\MATEOC~1.QUE\AppData\Local\Temp\ccxtWYOp.s 			page 78


 3287              	TFT_drawChar:
 3288              	.LFB41:
 848:source\bsw\tft/tft.c **** }
 849:source\bsw\tft/tft.c **** 
 850:source\bsw\tft/tft.c **** // Draw a character
 851:source\bsw\tft/tft.c **** void TFT_drawChar(int16_t x, int16_t y, unsigned char c,  TFT_color_t color, TFT_color_t bg, uint8_
 3289              		.loc 1 851 0
 3290              		.cfi_startproc
 3291              		@ args = 8, pretend = 0, frame = 32
 3292              		@ frame_needed = 0, uses_anonymous_args = 0
 3293              	.LVL389:
 3294 0000 2DE9F04F 		push	{r4, r5, r6, r7, r8, r9, r10, fp, lr}
 3295              		.cfi_def_cfa_offset 36
 3296              		.cfi_offset 4, -36
 3297              		.cfi_offset 5, -32
 3298              		.cfi_offset 6, -28
 3299              		.cfi_offset 7, -24
 3300              		.cfi_offset 8, -20
 3301              		.cfi_offset 9, -16
 3302              		.cfi_offset 10, -12
 3303              		.cfi_offset 11, -8
 3304              		.cfi_offset 14, -4
 3305 0004 8BB0     		sub	sp, sp, #44
 3306              		.cfi_def_cfa_offset 80
 3307 0006 0290     		str	r0, [sp, #8]
 3308 0008 0391     		str	r1, [sp, #12]
 3309 000a 1546     		mov	r5, r2
 3310 000c 0493     		str	r3, [sp, #16]
 3311 000e BDF85070 		ldrh	r7, [sp, #80]
 3312 0012 9DF854A0 		ldrb	r10, [sp, #84]	@ zero_extendqisi2
 852:source\bsw\tft/tft.c **** 
 853:source\bsw\tft/tft.c ****     if(!gfxFont) { // 'Classic' built-in font
 3313              		.loc 1 853 0
 3314 0016 7F4B     		ldr	r3, .L232
 3315              	.LVL390:
 3316 0018 1A68     		ldr	r2, [r3]
 3317              	.LVL391:
 3318 001a 002A     		cmp	r2, #0
 3319 001c 40F09080 		bne	.L211
 854:source\bsw\tft/tft.c **** 
 855:source\bsw\tft/tft.c ****         if((x >= _width)            || // Clip right
 3320              		.loc 1 855 0
 3321 0020 B3F90630 		ldrsh	r3, [r3, #6]
 3322 0024 0146     		mov	r1, r0
 3323              	.LVL392:
 3324 0026 8342     		cmp	r3, r0
 3325 0028 40F3F180 		ble	.L210
 856:source\bsw\tft/tft.c ****            (y >= _height)           || // Clip bottom
 3326              		.loc 1 856 0 discriminator 1
 3327 002c 794B     		ldr	r3, .L232
 3328 002e B3F8DA30 		ldrh	r3, [r3, #218]
 855:source\bsw\tft/tft.c ****            (y >= _height)           || // Clip bottom
 3329              		.loc 1 855 0 discriminator 1
 3330 0032 0398     		ldr	r0, [sp, #12]
 3331              	.LVL393:
 3332 0034 9842     		cmp	r0, r3
 3333 0036 80F2EA80 		bge	.L210
ARM GAS  C:\Users\MATEOC~1.QUE\AppData\Local\Temp\ccxtWYOp.s 			page 79


 857:source\bsw\tft/tft.c ****            ((x + 6 * size - 1) < 0) || // Clip left
 3334              		.loc 1 857 0
 3335 003a 0AEB4A02 		add	r2, r10, r10, lsl #1
 3336 003e 5300     		lsls	r3, r2, #1
 3337 0040 0B44     		add	r3, r3, r1
 856:source\bsw\tft/tft.c ****            (y >= _height)           || // Clip bottom
 3338              		.loc 1 856 0
 3339 0042 012B     		cmp	r3, #1
 3340 0044 00F1E380 		bmi	.L210
 858:source\bsw\tft/tft.c ****            ((y + 8 * size - 1) < 0))   // Clip top
 3341              		.loc 1 858 0
 3342 0048 00EBCA03 		add	r3, r0, r10, lsl #3
 857:source\bsw\tft/tft.c ****            ((x + 6 * size - 1) < 0) || // Clip left
 3343              		.loc 1 857 0
 3344 004c 012B     		cmp	r3, #1
 3345 004e 00F1DE80 		bmi	.L210
 3346 0052 4FF00008 		mov	r8, #0
 3347 0056 8946     		mov	r9, r1
 3348 0058 8346     		mov	fp, r0
 3349 005a 0595     		str	r5, [sp, #20]
 3350 005c 049E     		ldr	r6, [sp, #16]
 3351 005e 4EE0     		b	.L213
 3352              	.LVL394:
 3353              	.L220:
 3354              	.LBB17:
 3355              	.LBB18:
 859:source\bsw\tft/tft.c ****             return;
 860:source\bsw\tft/tft.c **** 
 861:source\bsw\tft/tft.c ****         for(int8_t i=0; i<5; i++ ) { // Char bitmap = 5 columns
 862:source\bsw\tft/tft.c ****             uint8_t line = pgm_read_byte(&font[c * 5 + i]);
 3356              		.loc 1 862 0
 3357 0060 059B     		ldr	r3, [sp, #20]
 3358 0062 03EB8303 		add	r3, r3, r3, lsl #2
 3359 0066 4344     		add	r3, r3, r8
 3360 0068 6B4A     		ldr	r2, .L232+4
 3361 006a 1344     		add	r3, r3, r2
 3362 006c 93F85850 		ldrb	r5, [r3, #88]	@ zero_extendqisi2
 3363              	.LVL395:
 3364              	.LBB19:
 863:source\bsw\tft/tft.c ****             for(int8_t j=0; j<8; j++, line >>= 1) {
 3365              		.loc 1 863 0
 3366 0070 0024     		movs	r4, #0
 3367 0072 3EE0     		b	.L214
 3368              	.LVL396:
 3369              	.L219:
 864:source\bsw\tft/tft.c ****                 if(line & 1) {
 3370              		.loc 1 864 0
 3371 0074 15F0010F 		tst	r5, #1
 3372 0078 1BD0     		beq	.L215
 865:source\bsw\tft/tft.c ****                     if(size == 1)
 3373              		.loc 1 865 0
 3374 007a BAF1010F 		cmp	r10, #1
 3375 007e 09D1     		bne	.L216
 866:source\bsw\tft/tft.c ****                         TFT_drawPixel(x+i, y+j, color);
 3376              		.loc 1 866 0
 3377 0080 04EB0B01 		add	r1, r4, fp
 3378 0084 08EB0900 		add	r0, r8, r9
ARM GAS  C:\Users\MATEOC~1.QUE\AppData\Local\Temp\ccxtWYOp.s 			page 80


 3379 0088 3246     		mov	r2, r6
 3380 008a 09B2     		sxth	r1, r1
 3381 008c 00B2     		sxth	r0, r0
 3382 008e FFF7FEFF 		bl	TFT_drawPixel
 3383              	.LVL397:
 3384 0092 2BE0     		b	.L217
 3385              	.L216:
 867:source\bsw\tft/tft.c ****                     else
 868:source\bsw\tft/tft.c ****                         TFT_fillRect(x+i*size, y+j*size, size, size, color);
 3386              		.loc 1 868 0
 3387 0094 1FFA8AF0 		uxth	r0, r10
 3388 0098 0FFA8AF2 		sxth	r2, r10
 3389 009c 04FB00B1 		mla	r1, r4, r0, fp
 3390 00a0 08FB0090 		mla	r0, r8, r0, r9
 3391 00a4 0096     		str	r6, [sp]
 3392 00a6 1346     		mov	r3, r2
 3393 00a8 09B2     		sxth	r1, r1
 3394 00aa 00B2     		sxth	r0, r0
 3395 00ac FFF7FEFF 		bl	TFT_fillRect
 3396              	.LVL398:
 3397 00b0 1CE0     		b	.L217
 3398              	.L215:
 869:source\bsw\tft/tft.c ****                 } else if(bg != color) {
 3399              		.loc 1 869 0
 3400 00b2 BE42     		cmp	r6, r7
 3401 00b4 1AD0     		beq	.L217
 870:source\bsw\tft/tft.c ****                     if(size == 1)
 3402              		.loc 1 870 0
 3403 00b6 BAF1010F 		cmp	r10, #1
 3404 00ba 09D1     		bne	.L218
 871:source\bsw\tft/tft.c ****                         TFT_drawPixel(x+i, y+j, bg);
 3405              		.loc 1 871 0
 3406 00bc 04EB0B01 		add	r1, r4, fp
 3407 00c0 08EB0900 		add	r0, r8, r9
 3408 00c4 3A46     		mov	r2, r7
 3409 00c6 09B2     		sxth	r1, r1
 3410 00c8 00B2     		sxth	r0, r0
 3411 00ca FFF7FEFF 		bl	TFT_drawPixel
 3412              	.LVL399:
 3413 00ce 0DE0     		b	.L217
 3414              	.L218:
 872:source\bsw\tft/tft.c ****                     else
 873:source\bsw\tft/tft.c ****                         TFT_fillRect(x+i*size, y+j*size, size, size, bg);
 3415              		.loc 1 873 0
 3416 00d0 1FFA8AF0 		uxth	r0, r10
 3417 00d4 0FFA8AF2 		sxth	r2, r10
 3418 00d8 04FB00B1 		mla	r1, r4, r0, fp
 3419 00dc 08FB0090 		mla	r0, r8, r0, r9
 3420 00e0 0097     		str	r7, [sp]
 3421 00e2 1346     		mov	r3, r2
 3422 00e4 09B2     		sxth	r1, r1
 3423 00e6 00B2     		sxth	r0, r0
 3424 00e8 FFF7FEFF 		bl	TFT_fillRect
 3425              	.LVL400:
 3426              	.L217:
 863:source\bsw\tft/tft.c ****                 if(line & 1) {
 3427              		.loc 1 863 0 discriminator 2
ARM GAS  C:\Users\MATEOC~1.QUE\AppData\Local\Temp\ccxtWYOp.s 			page 81


 3428 00ec 0134     		adds	r4, r4, #1
 3429              	.LVL401:
 3430 00ee 64B2     		sxtb	r4, r4
 3431              	.LVL402:
 3432 00f0 6D08     		lsrs	r5, r5, #1
 3433              	.LVL403:
 3434              	.L214:
 863:source\bsw\tft/tft.c ****                 if(line & 1) {
 3435              		.loc 1 863 0 is_stmt 0 discriminator 1
 3436 00f2 072C     		cmp	r4, #7
 3437 00f4 BEDD     		ble	.L219
 3438              	.LBE19:
 3439              	.LBE18:
 861:source\bsw\tft/tft.c ****             uint8_t line = pgm_read_byte(&font[c * 5 + i]);
 3440              		.loc 1 861 0 is_stmt 1 discriminator 2
 3441 00f6 08F10108 		add	r8, r8, #1
 3442              	.LVL404:
 3443 00fa 4FFA88F8 		sxtb	r8, r8
 3444              	.LVL405:
 3445              	.L213:
 861:source\bsw\tft/tft.c ****             uint8_t line = pgm_read_byte(&font[c * 5 + i]);
 3446              		.loc 1 861 0 is_stmt 0 discriminator 1
 3447 00fe B8F1040F 		cmp	r8, #4
 3448 0102 ADDD     		ble	.L220
 3449              	.LBE17:
 874:source\bsw\tft/tft.c ****                 }
 875:source\bsw\tft/tft.c ****             }
 876:source\bsw\tft/tft.c ****         }
 877:source\bsw\tft/tft.c ****         if(bg != color) { // If opaque, draw vertical line for last column
 3450              		.loc 1 877 0 is_stmt 1
 3451 0104 049B     		ldr	r3, [sp, #16]
 3452 0106 BB42     		cmp	r3, r7
 3453 0108 00F08180 		beq	.L210
 878:source\bsw\tft/tft.c ****             if(size == 1) TFT_fastVLine(x+5, y, 8, bg);
 3454              		.loc 1 878 0
 3455 010c BAF1010F 		cmp	r10, #1
 3456 0110 08D1     		bne	.L221
 3457              		.loc 1 878 0 is_stmt 0 discriminator 1
 3458 0112 0298     		ldr	r0, [sp, #8]
 3459 0114 0530     		adds	r0, r0, #5
 3460 0116 3B46     		mov	r3, r7
 3461 0118 0822     		movs	r2, #8
 3462 011a 0399     		ldr	r1, [sp, #12]
 3463 011c 00B2     		sxth	r0, r0
 3464 011e FFF7FEFF 		bl	TFT_fastVLine
 3465              	.LVL406:
 3466 0122 74E0     		b	.L210
 3467              	.L221:
 879:source\bsw\tft/tft.c ****             else          TFT_fillRect(x+5*size, y, size, 8*size, bg);
 3468              		.loc 1 879 0 is_stmt 1
 3469 0124 1FFA8AF3 		uxth	r3, r10
 3470 0128 03EB8300 		add	r0, r3, r3, lsl #2
 3471 012c 029A     		ldr	r2, [sp, #8]
 3472 012e 1044     		add	r0, r0, r2
 3473 0130 0097     		str	r7, [sp]
 3474 0132 DB00     		lsls	r3, r3, #3
 3475 0134 5246     		mov	r2, r10
ARM GAS  C:\Users\MATEOC~1.QUE\AppData\Local\Temp\ccxtWYOp.s 			page 82


 3476 0136 0399     		ldr	r1, [sp, #12]
 3477 0138 00B2     		sxth	r0, r0
 3478 013a FFF7FEFF 		bl	TFT_fillRect
 3479              	.LVL407:
 3480 013e 66E0     		b	.L210
 3481              	.LVL408:
 3482              	.L211:
 3483              	.LBB20:
 880:source\bsw\tft/tft.c ****         }
 881:source\bsw\tft/tft.c **** 
 882:source\bsw\tft/tft.c ****     } else { // Custom font
 883:source\bsw\tft/tft.c **** 
 884:source\bsw\tft/tft.c ****         // Character is assumed previously filtered by write() to eliminate
 885:source\bsw\tft/tft.c ****         // newlines, returns, non-printable characters, etc.  Calling
 886:source\bsw\tft/tft.c ****         // drawChar() directly with 'bad' characters of font may cause mayhem!
 887:source\bsw\tft/tft.c **** 
 888:source\bsw\tft/tft.c ****         c -= (uint8_t)pgm_read_byte(&gfxFont->first);
 3484              		.loc 1 888 0
 3485 0140 137A     		ldrb	r3, [r2, #8]	@ zero_extendqisi2
 3486 0142 EB1A     		subs	r3, r5, r3
 3487 0144 DBB2     		uxtb	r3, r3
 3488              	.LVL409:
 889:source\bsw\tft/tft.c ****         GFXglyph *glyph  = &(((GFXglyph *)pgm_read_pointer(&gfxFont->glyph))[c]);
 3489              		.loc 1 889 0
 3490 0146 5068     		ldr	r0, [r2, #4]
 3491              	.LVL410:
 3492 0148 00EBC301 		add	r1, r0, r3, lsl #3
 3493              	.LVL411:
 890:source\bsw\tft/tft.c ****         uint8_t  *bitmap = (uint8_t *)pgm_read_pointer(&gfxFont->bitmap);
 3494              		.loc 1 890 0
 3495 014c D2F800B0 		ldr	fp, [r2]
 3496              	.LVL412:
 891:source\bsw\tft/tft.c **** 
 892:source\bsw\tft/tft.c ****         uint16_t bo = pgm_read_word(&glyph->bitmapOffset);
 3497              		.loc 1 892 0
 3498 0150 30F83370 		ldrh	r7, [r0, r3, lsl #3]
 3499              	.LVL413:
 893:source\bsw\tft/tft.c ****         uint8_t  w  = pgm_read_byte(&glyph->width),
 3500              		.loc 1 893 0
 3501 0154 91F80280 		ldrb	r8, [r1, #2]	@ zero_extendqisi2
 3502              	.LVL414:
 894:source\bsw\tft/tft.c ****                  h  = pgm_read_byte(&glyph->height);
 3503              		.loc 1 894 0
 3504 0158 CB78     		ldrb	r3, [r1, #3]	@ zero_extendqisi2
 3505              	.LVL415:
 3506 015a 0793     		str	r3, [sp, #28]
 3507              	.LVL416:
 895:source\bsw\tft/tft.c ****         int8_t   xo = pgm_read_byte(&glyph->xOffset),
 3508              		.loc 1 895 0
 3509 015c 91F90530 		ldrsb	r3, [r1, #5]
 3510 0160 0893     		str	r3, [sp, #32]
 3511              	.LVL417:
 896:source\bsw\tft/tft.c ****                  yo = pgm_read_byte(&glyph->yOffset);
 3512              		.loc 1 896 0
 3513 0162 91F90620 		ldrsb	r2, [r1, #6]
 3514              	.LVL418:
 3515 0166 0992     		str	r2, [sp, #36]
ARM GAS  C:\Users\MATEOC~1.QUE\AppData\Local\Temp\ccxtWYOp.s 			page 83


 3516              	.LVL419:
 897:source\bsw\tft/tft.c ****         uint8_t  xx, yy, bits = 0, bit = 0;
 898:source\bsw\tft/tft.c ****         int16_t  xo16 = 0, yo16 = 0;
 899:source\bsw\tft/tft.c **** 
 900:source\bsw\tft/tft.c ****         if(size > 1) {
 3517              		.loc 1 900 0
 3518 0168 BAF1010F 		cmp	r10, #1
 3519 016c 04D9     		bls	.L229
 901:source\bsw\tft/tft.c ****             xo16 = xo;
 3520              		.loc 1 901 0
 3521 016e 1BB2     		sxth	r3, r3
 3522              	.LVL420:
 3523 0170 0593     		str	r3, [sp, #20]
 3524              	.LVL421:
 902:source\bsw\tft/tft.c ****             yo16 = yo;
 3525              		.loc 1 902 0
 3526 0172 13B2     		sxth	r3, r2
 3527 0174 0693     		str	r3, [sp, #24]
 3528              	.LVL422:
 3529 0176 02E0     		b	.L222
 3530              	.LVL423:
 3531              	.L229:
 898:source\bsw\tft/tft.c **** 
 3532              		.loc 1 898 0
 3533 0178 0023     		movs	r3, #0
 3534              	.LVL424:
 3535 017a 0693     		str	r3, [sp, #24]
 3536 017c 0593     		str	r3, [sp, #20]
 3537              	.LVL425:
 3538              	.L222:
 897:source\bsw\tft/tft.c ****         int16_t  xo16 = 0, yo16 = 0;
 3539              		.loc 1 897 0
 3540 017e 0023     		movs	r3, #0
 3541 0180 1C46     		mov	r4, r3
 903:source\bsw\tft/tft.c ****         }
 904:source\bsw\tft/tft.c **** 
 905:source\bsw\tft/tft.c ****         // Todo: Add character clipping here
 906:source\bsw\tft/tft.c **** 
 907:source\bsw\tft/tft.c ****         // NOTE: THERE IS NO 'BACKGROUND' COLOR OPTION ON CUSTOM FONTS.
 908:source\bsw\tft/tft.c ****         // THIS IS ON PURPOSE AND BY DESIGN.  The background color feature
 909:source\bsw\tft/tft.c ****         // has typically been used with the 'classic' font to overwrite old
 910:source\bsw\tft/tft.c ****         // screen contents with new data.  This ONLY works because the
 911:source\bsw\tft/tft.c ****         // characters are a uniform size; it's not a sensible thing to do with
 912:source\bsw\tft/tft.c ****         // proportionally-spaced fonts with glyphs of varying sizes (and that
 913:source\bsw\tft/tft.c ****         // may overlap).  To replace previously-drawn text when using a custom
 914:source\bsw\tft/tft.c ****         // font, use the getTextBounds() function to determine the smallest
 915:source\bsw\tft/tft.c ****         // rectangle encompassing a string, erase the area with fillRect(),
 916:source\bsw\tft/tft.c ****         // then draw new text.  This WILL infortunately 'blink' the text, but
 917:source\bsw\tft/tft.c ****         // is unavoidable.  Drawing 'background' pixels will NOT fix this,
 918:source\bsw\tft/tft.c ****         // only creates a new set of problems.  Have an idea to work around
 919:source\bsw\tft/tft.c ****         // this (a canvas object type for MCUs that can afford the RAM and
 920:source\bsw\tft/tft.c ****         // displays supporting setAddrWindow() and pushColors()), but haven't
 921:source\bsw\tft/tft.c ****         // implemented this yet.
 922:source\bsw\tft/tft.c ****         for(yy=0; yy<h; yy++) {
 3542              		.loc 1 922 0
 3543 0182 9946     		mov	r9, r3
 3544 0184 40E0     		b	.L223
ARM GAS  C:\Users\MATEOC~1.QUE\AppData\Local\Temp\ccxtWYOp.s 			page 84


 3545              	.LVL426:
 3546              	.L227:
 923:source\bsw\tft/tft.c ****             for(xx=0; xx<w; xx++) {
 924:source\bsw\tft/tft.c ****                 if(!(bit++ & 7)) {
 3547              		.loc 1 924 0
 3548 0186 5E1C     		adds	r6, r3, #1
 3549 0188 F6B2     		uxtb	r6, r6
 3550              	.LVL427:
 3551 018a 13F0070F 		tst	r3, #7
 3552 018e 03D1     		bne	.L224
 925:source\bsw\tft/tft.c ****                     bits = pgm_read_byte(&bitmap[bo++]);
 3553              		.loc 1 925 0
 3554 0190 7B1C     		adds	r3, r7, #1
 3555              	.LVL428:
 3556 0192 1BF80740 		ldrb	r4, [fp, r7]	@ zero_extendqisi2
 3557              	.LVL429:
 3558 0196 9FB2     		uxth	r7, r3
 3559              	.LVL430:
 3560              	.L224:
 926:source\bsw\tft/tft.c ****                 }
 927:source\bsw\tft/tft.c ****                 if(bits & 0x80) {
 3561              		.loc 1 927 0
 3562 0198 14F0800F 		tst	r4, #128
 3563 019c 27D0     		beq	.L225
 928:source\bsw\tft/tft.c ****                     if(size == 1) {
 3564              		.loc 1 928 0
 3565 019e BAF1010F 		cmp	r10, #1
 3566 01a2 0DD1     		bne	.L226
 929:source\bsw\tft/tft.c ****                         TFT_drawPixel(x+xo+xx, y+yo+yy, color);
 3567              		.loc 1 929 0
 3568 01a4 099B     		ldr	r3, [sp, #36]
 3569 01a6 039A     		ldr	r2, [sp, #12]
 3570 01a8 9918     		adds	r1, r3, r2
 3571 01aa 4944     		add	r1, r1, r9
 3572 01ac 089B     		ldr	r3, [sp, #32]
 3573 01ae 029A     		ldr	r2, [sp, #8]
 3574 01b0 9818     		adds	r0, r3, r2
 3575 01b2 2844     		add	r0, r0, r5
 3576 01b4 049A     		ldr	r2, [sp, #16]
 3577 01b6 09B2     		sxth	r1, r1
 3578 01b8 00B2     		sxth	r0, r0
 3579 01ba FFF7FEFF 		bl	TFT_drawPixel
 3580              	.LVL431:
 3581 01be 16E0     		b	.L225
 3582              	.L226:
 930:source\bsw\tft/tft.c ****                     } else {
 931:source\bsw\tft/tft.c ****                         TFT_fillRect(x+(xo16+xx)*size, y+(yo16+yy)*size,
 3583              		.loc 1 931 0
 3584 01c0 059B     		ldr	r3, [sp, #20]
 3585 01c2 5819     		adds	r0, r3, r5
 3586 01c4 1FFA8AF3 		uxth	r3, r10
 3587 01c8 069A     		ldr	r2, [sp, #24]
 3588 01ca 02EB0901 		add	r1, r2, r9
 3589 01ce 0FFA8AFE 		sxth	lr, r10
 3590 01d2 039A     		ldr	r2, [sp, #12]
 3591 01d4 01FB0321 		mla	r1, r1, r3, r2
 3592 01d8 029A     		ldr	r2, [sp, #8]
ARM GAS  C:\Users\MATEOC~1.QUE\AppData\Local\Temp\ccxtWYOp.s 			page 85


 3593 01da 00FB0320 		mla	r0, r0, r3, r2
 3594 01de 049B     		ldr	r3, [sp, #16]
 3595 01e0 0093     		str	r3, [sp]
 3596 01e2 7246     		mov	r2, lr
 3597 01e4 7346     		mov	r3, lr
 3598 01e6 09B2     		sxth	r1, r1
 3599 01e8 00B2     		sxth	r0, r0
 3600 01ea FFF7FEFF 		bl	TFT_fillRect
 3601              	.LVL432:
 3602              	.L225:
 932:source\bsw\tft/tft.c ****                           size, size, color);
 933:source\bsw\tft/tft.c ****                     }
 934:source\bsw\tft/tft.c ****                 }
 935:source\bsw\tft/tft.c ****                 bits <<= 1;
 3603              		.loc 1 935 0 discriminator 2
 3604 01ee 6400     		lsls	r4, r4, #1
 3605              	.LVL433:
 3606 01f0 E4B2     		uxtb	r4, r4
 3607              	.LVL434:
 923:source\bsw\tft/tft.c ****                 if(!(bit++ & 7)) {
 3608              		.loc 1 923 0 discriminator 2
 3609 01f2 0135     		adds	r5, r5, #1
 3610              	.LVL435:
 3611 01f4 EDB2     		uxtb	r5, r5
 3612              	.LVL436:
 924:source\bsw\tft/tft.c ****                     bits = pgm_read_byte(&bitmap[bo++]);
 3613              		.loc 1 924 0 discriminator 2
 3614 01f6 3346     		mov	r3, r6
 3615 01f8 00E0     		b	.L228
 3616              	.LVL437:
 3617              	.L230:
 3618 01fa 0025     		movs	r5, #0
 3619              	.LVL438:
 3620              	.L228:
 923:source\bsw\tft/tft.c ****                 if(!(bit++ & 7)) {
 3621              		.loc 1 923 0 discriminator 1
 3622 01fc 4545     		cmp	r5, r8
 3623 01fe C2D3     		bcc	.L227
 922:source\bsw\tft/tft.c ****             for(xx=0; xx<w; xx++) {
 3624              		.loc 1 922 0 discriminator 2
 3625 0200 09F10109 		add	r9, r9, #1
 3626              	.LVL439:
 3627 0204 5FFA89F9 		uxtb	r9, r9
 3628              	.LVL440:
 3629              	.L223:
 922:source\bsw\tft/tft.c ****             for(xx=0; xx<w; xx++) {
 3630              		.loc 1 922 0 is_stmt 0 discriminator 1
 3631 0208 079A     		ldr	r2, [sp, #28]
 3632 020a 9145     		cmp	r9, r2
 3633 020c F5D3     		bcc	.L230
 3634              	.LVL441:
 3635              	.L210:
 3636              	.LBE20:
 936:source\bsw\tft/tft.c ****             }
 937:source\bsw\tft/tft.c ****         }
 938:source\bsw\tft/tft.c **** 
 939:source\bsw\tft/tft.c ****     } // End classic vs custom font
ARM GAS  C:\Users\MATEOC~1.QUE\AppData\Local\Temp\ccxtWYOp.s 			page 86


 940:source\bsw\tft/tft.c **** }
 3637              		.loc 1 940 0 is_stmt 1
 3638 020e 0BB0     		add	sp, sp, #44
 3639              		.cfi_def_cfa_offset 36
 3640              		@ sp needed
 3641 0210 BDE8F08F 		pop	{r4, r5, r6, r7, r8, r9, r10, fp, pc}
 3642              	.LVL442:
 3643              	.L233:
 3644              		.align	2
 3645              	.L232:
 3646 0214 00000000 		.word	.LANCHOR0
 3647 0218 00000000 		.word	.LANCHOR1
 3648              		.cfi_endproc
 3649              	.LFE41:
 3650              		.size	TFT_drawChar, .-TFT_drawChar
 3651              		.section	.text.TFT_write,"ax",%progbits
 3652              		.align	2
 3653              		.global	TFT_write
 3654              		.thumb
 3655              		.thumb_func
 3656              		.type	TFT_write, %function
 3657              	TFT_write:
 3658              	.LFB23:
 465:source\bsw\tft/tft.c **** 
 3659              		.loc 1 465 0
 3660              		.cfi_startproc
 3661              		@ args = 0, pretend = 0, frame = 0
 3662              		@ frame_needed = 0, uses_anonymous_args = 0
 3663              	.LVL443:
 3664 0000 70B5     		push	{r4, r5, r6, lr}
 3665              		.cfi_def_cfa_offset 16
 3666              		.cfi_offset 4, -16
 3667              		.cfi_offset 5, -12
 3668              		.cfi_offset 6, -8
 3669              		.cfi_offset 14, -4
 3670 0002 82B0     		sub	sp, sp, #8
 3671              		.cfi_def_cfa_offset 24
 467:source\bsw\tft/tft.c **** 
 3672              		.loc 1 467 0
 3673 0004 4E4B     		ldr	r3, .L243
 3674 0006 1B68     		ldr	r3, [r3]
 3675 0008 002B     		cmp	r3, #0
 3676 000a 43D1     		bne	.L235
 469:source\bsw\tft/tft.c ****             cursor_x  = 0;                      // Reset x to zero,
 3677              		.loc 1 469 0
 3678 000c 0A28     		cmp	r0, #10
 3679 000e 0BD1     		bne	.L236
 470:source\bsw\tft/tft.c ****             cursor_y += textsize * 8;           // advance y one line
 3680              		.loc 1 470 0
 3681 0010 4B4B     		ldr	r3, .L243
 3682 0012 0022     		movs	r2, #0
 3683 0014 A3F8DE20 		strh	r2, [r3, #222]	@ movhi
 471:source\bsw\tft/tft.c ****         } else if(c != '\r') {                  // Ignore carriage returns
 3684              		.loc 1 471 0
 3685 0018 1979     		ldrb	r1, [r3, #4]	@ zero_extendqisi2
 3686 001a B3F8E020 		ldrh	r2, [r3, #224]
 3687 001e 02EBC102 		add	r2, r2, r1, lsl #3
ARM GAS  C:\Users\MATEOC~1.QUE\AppData\Local\Temp\ccxtWYOp.s 			page 87


 3688 0022 A3F8E020 		strh	r2, [r3, #224]	@ movhi
 3689 0026 88E0     		b	.L234
 3690              	.L236:
 472:source\bsw\tft/tft.c ****             if(wrap && ((cursor_x + textsize * 6) > _width)) { // Off right?
 3691              		.loc 1 472 0
 3692 0028 0D28     		cmp	r0, #13
 3693 002a 00F08680 		beq	.L234
 473:source\bsw\tft/tft.c ****                 cursor_x  = 0;                  // Reset x to zero,
 3694              		.loc 1 473 0
 3695 002e 444B     		ldr	r3, .L243
 3696 0030 5B79     		ldrb	r3, [r3, #5]	@ zero_extendqisi2
 3697 0032 ABB1     		cbz	r3, .L238
 473:source\bsw\tft/tft.c ****                 cursor_x  = 0;                  // Reset x to zero,
 3698              		.loc 1 473 0 is_stmt 0 discriminator 1
 3699 0034 424A     		ldr	r2, .L243
 3700 0036 1179     		ldrb	r1, [r2, #4]	@ zero_extendqisi2
 3701 0038 01EB4104 		add	r4, r1, r1, lsl #1
 3702 003c 6300     		lsls	r3, r4, #1
 3703 003e B2F8DE40 		ldrh	r4, [r2, #222]
 3704 0042 2344     		add	r3, r3, r4
 3705 0044 B2F90620 		ldrsh	r2, [r2, #6]
 3706 0048 9342     		cmp	r3, r2
 3707 004a 09DD     		ble	.L238
 474:source\bsw\tft/tft.c ****                 cursor_y += textsize * 8;       // advance y one line
 3708              		.loc 1 474 0 is_stmt 1
 3709 004c 3C4B     		ldr	r3, .L243
 3710 004e 0022     		movs	r2, #0
 3711 0050 A3F8DE20 		strh	r2, [r3, #222]	@ movhi
 475:source\bsw\tft/tft.c ****             }
 3712              		.loc 1 475 0
 3713 0054 B3F8E020 		ldrh	r2, [r3, #224]
 3714 0058 02EBC101 		add	r1, r2, r1, lsl #3
 3715 005c A3F8E010 		strh	r1, [r3, #224]	@ movhi
 3716              	.L238:
 477:source\bsw\tft/tft.c ****             cursor_x += textsize * 6;          // Advance x one char
 3717              		.loc 1 477 0
 3718 0060 374C     		ldr	r4, .L243
 3719 0062 B4F8E230 		ldrh	r3, [r4, #226]
 3720 0066 B4F9E010 		ldrsh	r1, [r4, #224]
 3721 006a B4F9DE50 		ldrsh	r5, [r4, #222]
 3722 006e 2279     		ldrb	r2, [r4, #4]	@ zero_extendqisi2
 3723 0070 0192     		str	r2, [sp, #4]
 3724 0072 B4F8E420 		ldrh	r2, [r4, #228]
 3725 0076 0092     		str	r2, [sp]
 3726 0078 0246     		mov	r2, r0
 3727 007a 2846     		mov	r0, r5
 3728              	.LVL444:
 3729 007c FFF7FEFF 		bl	TFT_drawChar
 3730              	.LVL445:
 478:source\bsw\tft/tft.c ****         }
 3731              		.loc 1 478 0
 3732 0080 2379     		ldrb	r3, [r4, #4]	@ zero_extendqisi2
 3733 0082 03EB4303 		add	r3, r3, r3, lsl #1
 3734 0086 5A00     		lsls	r2, r3, #1
 3735 0088 B4F8DE30 		ldrh	r3, [r4, #222]
 3736 008c 1344     		add	r3, r3, r2
 3737 008e A4F8DE30 		strh	r3, [r4, #222]	@ movhi
ARM GAS  C:\Users\MATEOC~1.QUE\AppData\Local\Temp\ccxtWYOp.s 			page 88


 3738 0092 52E0     		b	.L234
 3739              	.LVL446:
 3740              	.L235:
 483:source\bsw\tft/tft.c ****             cursor_x  = 0;
 3741              		.loc 1 483 0
 3742 0094 0A28     		cmp	r0, #10
 3743 0096 0CD1     		bne	.L239
 484:source\bsw\tft/tft.c ****             cursor_y += (int16_t)textsize *
 3744              		.loc 1 484 0
 3745 0098 294A     		ldr	r2, .L243
 3746 009a 0021     		movs	r1, #0
 3747 009c A2F8DE10 		strh	r1, [r2, #222]	@ movhi
 486:source\bsw\tft/tft.c ****         } else if(c != '\r') {
 3748              		.loc 1 486 0
 3749 00a0 997A     		ldrb	r1, [r3, #10]	@ zero_extendqisi2
 485:source\bsw\tft/tft.c ****                         (uint8_t)pgm_read_byte(&gfxFont->yAdvance);
 3750              		.loc 1 485 0
 3751 00a2 1079     		ldrb	r0, [r2, #4]	@ zero_extendqisi2
 3752              	.LVL447:
 3753 00a4 B2F8E030 		ldrh	r3, [r2, #224]
 3754 00a8 00FB0133 		mla	r3, r0, r1, r3
 3755 00ac A2F8E030 		strh	r3, [r2, #224]	@ movhi
 3756 00b0 43E0     		b	.L234
 3757              	.LVL448:
 3758              	.L239:
 487:source\bsw\tft/tft.c ****             uint8_t first = pgm_read_byte(&gfxFont->first);
 3759              		.loc 1 487 0
 3760 00b2 0D28     		cmp	r0, #13
 3761 00b4 41D0     		beq	.L234
 3762              	.LBB21:
 488:source\bsw\tft/tft.c ****             if((c >= first) && (c <= (uint8_t)pgm_read_byte(&gfxFont->last))) {
 3763              		.loc 1 488 0
 3764 00b6 1A7A     		ldrb	r2, [r3, #8]	@ zero_extendqisi2
 3765              	.LVL449:
 489:source\bsw\tft/tft.c ****                 GFXglyph *glyph = &(((GFXglyph *)pgm_read_pointer(
 3766              		.loc 1 489 0
 3767 00b8 9042     		cmp	r0, r2
 3768 00ba 3ED3     		bcc	.L234
 489:source\bsw\tft/tft.c ****                 GFXglyph *glyph = &(((GFXglyph *)pgm_read_pointer(
 3769              		.loc 1 489 0 is_stmt 0 discriminator 1
 3770 00bc 597A     		ldrb	r1, [r3, #9]	@ zero_extendqisi2
 3771 00be 8842     		cmp	r0, r1
 3772 00c0 3BD8     		bhi	.L234
 3773              	.LBB22:
 491:source\bsw\tft/tft.c ****                 uint8_t   w     = pgm_read_byte(&glyph->width),
 3774              		.loc 1 491 0 is_stmt 1
 3775 00c2 821A     		subs	r2, r0, r2
 3776              	.LVL450:
 3777 00c4 5C68     		ldr	r4, [r3, #4]
 3778 00c6 04EBC204 		add	r4, r4, r2, lsl #3
 3779              	.LVL451:
 492:source\bsw\tft/tft.c ****                           h     = pgm_read_byte(&glyph->height);
 3780              		.loc 1 492 0
 3781 00ca A278     		ldrb	r2, [r4, #2]	@ zero_extendqisi2
 3782              	.LVL452:
 493:source\bsw\tft/tft.c ****                 if((w > 0) && (h > 0)) { // Is there an associated bitmap?
 3783              		.loc 1 493 0
ARM GAS  C:\Users\MATEOC~1.QUE\AppData\Local\Temp\ccxtWYOp.s 			page 89


 3784 00cc E178     		ldrb	r1, [r4, #3]	@ zero_extendqisi2
 3785              	.LVL453:
 494:source\bsw\tft/tft.c ****                     int16_t xo = (int8_t)pgm_read_byte(&glyph->xOffset); // sic
 3786              		.loc 1 494 0
 3787 00ce 5AB3     		cbz	r2, .L240
 494:source\bsw\tft/tft.c ****                     int16_t xo = (int8_t)pgm_read_byte(&glyph->xOffset); // sic
 3788              		.loc 1 494 0 is_stmt 0 discriminator 1
 3789 00d0 51B3     		cbz	r1, .L240
 3790              	.LBB23:
 495:source\bsw\tft/tft.c ****                     if(wrap && ((cursor_x + textsize * (xo + w)) > _width)) {
 3791              		.loc 1 495 0 is_stmt 1
 3792 00d2 94F90550 		ldrsb	r5, [r4, #5]
 3793              	.LVL454:
 496:source\bsw\tft/tft.c ****                         cursor_x  = 0;
 3794              		.loc 1 496 0
 3795 00d6 1A49     		ldr	r1, .L243
 3796              	.LVL455:
 3797 00d8 4979     		ldrb	r1, [r1, #5]	@ zero_extendqisi2
 3798 00da A9B1     		cbz	r1, .L241
 496:source\bsw\tft/tft.c ****                         cursor_x  = 0;
 3799              		.loc 1 496 0 is_stmt 0 discriminator 1
 3800 00dc 1849     		ldr	r1, .L243
 3801 00de 0E79     		ldrb	r6, [r1, #4]	@ zero_extendqisi2
 3802 00e0 2A44     		add	r2, r2, r5
 3803              	.LVL456:
 3804 00e2 B1F8DE50 		ldrh	r5, [r1, #222]
 3805              	.LVL457:
 3806 00e6 02FB0652 		mla	r2, r2, r6, r5
 3807 00ea B1F90610 		ldrsh	r1, [r1, #6]
 3808 00ee 8A42     		cmp	r2, r1
 3809 00f0 0ADD     		ble	.L241
 497:source\bsw\tft/tft.c ****                         cursor_y += (int16_t)textsize *
 3810              		.loc 1 497 0 is_stmt 1
 3811 00f2 134A     		ldr	r2, .L243
 3812 00f4 0021     		movs	r1, #0
 3813 00f6 A2F8DE10 		strh	r1, [r2, #222]	@ movhi
 499:source\bsw\tft/tft.c ****                     }
 3814              		.loc 1 499 0
 3815 00fa 9B7A     		ldrb	r3, [r3, #10]	@ zero_extendqisi2
 3816              	.LVL458:
 498:source\bsw\tft/tft.c ****                           (uint8_t)pgm_read_byte(&gfxFont->yAdvance);
 3817              		.loc 1 498 0
 3818 00fc B2F8E010 		ldrh	r1, [r2, #224]
 3819 0100 06FB0316 		mla	r6, r6, r3, r1
 3820 0104 A2F8E060 		strh	r6, [r2, #224]	@ movhi
 3821              	.L241:
 501:source\bsw\tft/tft.c ****                 }
 3822              		.loc 1 501 0
 3823 0108 0D4A     		ldr	r2, .L243
 3824 010a B2F8E230 		ldrh	r3, [r2, #226]
 3825 010e B2F9E010 		ldrsh	r1, [r2, #224]
 3826 0112 B2F9DE50 		ldrsh	r5, [r2, #222]
 3827 0116 1679     		ldrb	r6, [r2, #4]	@ zero_extendqisi2
 3828 0118 0196     		str	r6, [sp, #4]
 3829              	.LVL459:
 3830 011a B2F8E420 		ldrh	r2, [r2, #228]
 3831 011e 0092     		str	r2, [sp]
ARM GAS  C:\Users\MATEOC~1.QUE\AppData\Local\Temp\ccxtWYOp.s 			page 90


 3832 0120 0246     		mov	r2, r0
 3833 0122 2846     		mov	r0, r5
 3834              	.LVL460:
 3835 0124 FFF7FEFF 		bl	TFT_drawChar
 3836              	.LVL461:
 3837              	.L240:
 3838              	.LBE23:
 503:source\bsw\tft/tft.c ****             }
 3839              		.loc 1 503 0
 3840 0128 2179     		ldrb	r1, [r4, #4]	@ zero_extendqisi2
 3841 012a 054B     		ldr	r3, .L243
 3842 012c 1879     		ldrb	r0, [r3, #4]	@ zero_extendqisi2
 3843 012e B3F8DE20 		ldrh	r2, [r3, #222]
 3844 0132 00FB0122 		mla	r2, r0, r1, r2
 3845 0136 A3F8DE20 		strh	r2, [r3, #222]	@ movhi
 3846              	.LVL462:
 3847              	.L234:
 3848              	.LBE22:
 3849              	.LBE21:
 508:source\bsw\tft/tft.c **** 
 3850              		.loc 1 508 0
 3851 013a 02B0     		add	sp, sp, #8
 3852              		.cfi_def_cfa_offset 16
 3853              		@ sp needed
 3854 013c 70BD     		pop	{r4, r5, r6, pc}
 3855              	.L244:
 3856 013e 00BF     		.align	2
 3857              	.L243:
 3858 0140 00000000 		.word	.LANCHOR0
 3859              		.cfi_endproc
 3860              	.LFE23:
 3861              		.size	TFT_write, .-TFT_write
 3862              		.section	.text.TFT_print,"ax",%progbits
 3863              		.align	2
 3864              		.global	TFT_print
 3865              		.thumb
 3866              		.thumb_func
 3867              		.type	TFT_print, %function
 3868              	TFT_print:
 3869              	.LFB21:
 452:source\bsw\tft/tft.c ****     while(*(txt)!=0){
 3870              		.loc 1 452 0
 3871              		.cfi_startproc
 3872              		@ args = 0, pretend = 0, frame = 0
 3873              		@ frame_needed = 0, uses_anonymous_args = 0
 3874              	.LVL463:
 3875 0000 10B5     		push	{r4, lr}
 3876              		.cfi_def_cfa_offset 8
 3877              		.cfi_offset 4, -8
 3878              		.cfi_offset 14, -4
 3879 0002 0446     		mov	r4, r0
 453:source\bsw\tft/tft.c ****         TFT_write(*(txt++));
 3880              		.loc 1 453 0
 3881 0004 02E0     		b	.L246
 3882              	.LVL464:
 3883              	.L247:
 454:source\bsw\tft/tft.c ****     }
ARM GAS  C:\Users\MATEOC~1.QUE\AppData\Local\Temp\ccxtWYOp.s 			page 91


 3884              		.loc 1 454 0
 3885 0006 0134     		adds	r4, r4, #1
 3886              	.LVL465:
 3887 0008 FFF7FEFF 		bl	TFT_write
 3888              	.LVL466:
 3889              	.L246:
 453:source\bsw\tft/tft.c ****         TFT_write(*(txt++));
 3890              		.loc 1 453 0
 3891 000c 2078     		ldrb	r0, [r4]	@ zero_extendqisi2
 3892 000e 0028     		cmp	r0, #0
 3893 0010 F9D1     		bne	.L247
 456:source\bsw\tft/tft.c **** 
 3894              		.loc 1 456 0
 3895 0012 10BD     		pop	{r4, pc}
 3896              		.cfi_endproc
 3897              	.LFE21:
 3898              		.size	TFT_print, .-TFT_print
 3899              		.section	.text.TFT_println,"ax",%progbits
 3900              		.align	2
 3901              		.global	TFT_println
 3902              		.thumb
 3903              		.thumb_func
 3904              		.type	TFT_println, %function
 3905              	TFT_println:
 3906              	.LFB22:
 458:source\bsw\tft/tft.c ****     while(*(txt)!=0){
 3907              		.loc 1 458 0
 3908              		.cfi_startproc
 3909              		@ args = 0, pretend = 0, frame = 0
 3910              		@ frame_needed = 0, uses_anonymous_args = 0
 3911              	.LVL467:
 3912 0000 10B5     		push	{r4, lr}
 3913              		.cfi_def_cfa_offset 8
 3914              		.cfi_offset 4, -8
 3915              		.cfi_offset 14, -4
 3916 0002 0446     		mov	r4, r0
 459:source\bsw\tft/tft.c ****         TFT_write(*(txt++));
 3917              		.loc 1 459 0
 3918 0004 02E0     		b	.L250
 3919              	.LVL468:
 3920              	.L251:
 460:source\bsw\tft/tft.c ****     }
 3921              		.loc 1 460 0
 3922 0006 0134     		adds	r4, r4, #1
 3923              	.LVL469:
 3924 0008 FFF7FEFF 		bl	TFT_write
 3925              	.LVL470:
 3926              	.L250:
 459:source\bsw\tft/tft.c ****         TFT_write(*(txt++));
 3927              		.loc 1 459 0
 3928 000c 2078     		ldrb	r0, [r4]	@ zero_extendqisi2
 3929 000e 0028     		cmp	r0, #0
 3930 0010 F9D1     		bne	.L251
 462:source\bsw\tft/tft.c **** }
 3931              		.loc 1 462 0
 3932 0012 0A20     		movs	r0, #10
 3933 0014 FFF7FEFF 		bl	TFT_write
ARM GAS  C:\Users\MATEOC~1.QUE\AppData\Local\Temp\ccxtWYOp.s 			page 92


 3934              	.LVL471:
 3935 0018 10BD     		pop	{r4, pc}
 3936              		.cfi_endproc
 3937              	.LFE22:
 3938              		.size	TFT_println, .-TFT_println
 3939 001a 00BF     		.section	.text.TFT_width,"ax",%progbits
 3940              		.align	2
 3941              		.global	TFT_width
 3942              		.thumb
 3943              		.thumb_func
 3944              		.type	TFT_width, %function
 3945              	TFT_width:
 3946              	.LFB42:
 941:source\bsw\tft/tft.c **** 
 942:source\bsw\tft/tft.c **** int16_t TFT_width(void){
 3947              		.loc 1 942 0
 3948              		.cfi_startproc
 3949              		@ args = 0, pretend = 0, frame = 0
 3950              		@ frame_needed = 0, uses_anonymous_args = 0
 3951              		@ link register save eliminated.
 943:source\bsw\tft/tft.c ****     return _width;
 944:source\bsw\tft/tft.c **** }
 3952              		.loc 1 944 0
 3953 0000 014B     		ldr	r3, .L254
 3954 0002 B3F90600 		ldrsh	r0, [r3, #6]
 3955 0006 7047     		bx	lr
 3956              	.L255:
 3957              		.align	2
 3958              	.L254:
 3959 0008 00000000 		.word	.LANCHOR0
 3960              		.cfi_endproc
 3961              	.LFE42:
 3962              		.size	TFT_width, .-TFT_width
 3963              		.section	.text.TFT_height,"ax",%progbits
 3964              		.align	2
 3965              		.global	TFT_height
 3966              		.thumb
 3967              		.thumb_func
 3968              		.type	TFT_height, %function
 3969              	TFT_height:
 3970              	.LFB43:
 945:source\bsw\tft/tft.c **** 
 946:source\bsw\tft/tft.c **** int16_t TFT_height(void) {
 3971              		.loc 1 946 0
 3972              		.cfi_startproc
 3973              		@ args = 0, pretend = 0, frame = 0
 3974              		@ frame_needed = 0, uses_anonymous_args = 0
 3975              		@ link register save eliminated.
 947:source\bsw\tft/tft.c ****     return _height;
 948:source\bsw\tft/tft.c **** }
 3976              		.loc 1 948 0
 3977 0000 014B     		ldr	r3, .L257
 3978 0002 B3F9DA00 		ldrsh	r0, [r3, #218]
 3979 0006 7047     		bx	lr
 3980              	.L258:
 3981              		.align	2
 3982              	.L257:
ARM GAS  C:\Users\MATEOC~1.QUE\AppData\Local\Temp\ccxtWYOp.s 			page 93


 3983 0008 00000000 		.word	.LANCHOR0
 3984              		.cfi_endproc
 3985              	.LFE43:
 3986              		.size	TFT_height, .-TFT_height
 3987              		.section	.text.TFT_getRotation,"ax",%progbits
 3988              		.align	2
 3989              		.global	TFT_getRotation
 3990              		.thumb
 3991              		.thumb_func
 3992              		.type	TFT_getRotation, %function
 3993              	TFT_getRotation:
 3994              	.LFB44:
 949:source\bsw\tft/tft.c **** 
 950:source\bsw\tft/tft.c **** TFT_rotation_t TFT_getRotation(void){
 3995              		.loc 1 950 0
 3996              		.cfi_startproc
 3997              		@ args = 0, pretend = 0, frame = 0
 3998              		@ frame_needed = 0, uses_anonymous_args = 0
 3999              		@ link register save eliminated.
 951:source\bsw\tft/tft.c ****     return rotation;
 952:source\bsw\tft/tft.c **** }
 4000              		.loc 1 952 0
 4001 0000 014B     		ldr	r3, .L260
 4002 0002 93F8D800 		ldrb	r0, [r3, #216]	@ zero_extendqisi2
 4003 0006 7047     		bx	lr
 4004              	.L261:
 4005              		.align	2
 4006              	.L260:
 4007 0008 00000000 		.word	.LANCHOR0
 4008              		.cfi_endproc
 4009              	.LFE44:
 4010              		.size	TFT_getRotation, .-TFT_getRotation
 4011              		.section	.text.TFT_getCursorX,"ax",%progbits
 4012              		.align	2
 4013              		.global	TFT_getCursorX
 4014              		.thumb
 4015              		.thumb_func
 4016              		.type	TFT_getCursorX, %function
 4017              	TFT_getCursorX:
 4018              	.LFB45:
 953:source\bsw\tft/tft.c **** 
 954:source\bsw\tft/tft.c **** int16_t TFT_getCursorX(void){
 4019              		.loc 1 954 0
 4020              		.cfi_startproc
 4021              		@ args = 0, pretend = 0, frame = 0
 4022              		@ frame_needed = 0, uses_anonymous_args = 0
 4023              		@ link register save eliminated.
 955:source\bsw\tft/tft.c ****     return cursor_x;
 956:source\bsw\tft/tft.c **** }
 4024              		.loc 1 956 0
 4025 0000 014B     		ldr	r3, .L263
 4026 0002 B3F9DE00 		ldrsh	r0, [r3, #222]
 4027 0006 7047     		bx	lr
 4028              	.L264:
 4029              		.align	2
 4030              	.L263:
 4031 0008 00000000 		.word	.LANCHOR0
ARM GAS  C:\Users\MATEOC~1.QUE\AppData\Local\Temp\ccxtWYOp.s 			page 94


 4032              		.cfi_endproc
 4033              	.LFE45:
 4034              		.size	TFT_getCursorX, .-TFT_getCursorX
 4035              		.section	.text.TFT_getCursorY,"ax",%progbits
 4036              		.align	2
 4037              		.global	TFT_getCursorY
 4038              		.thumb
 4039              		.thumb_func
 4040              		.type	TFT_getCursorY, %function
 4041              	TFT_getCursorY:
 4042              	.LFB46:
 957:source\bsw\tft/tft.c **** 
 958:source\bsw\tft/tft.c **** int16_t TFT_getCursorY(void) {
 4043              		.loc 1 958 0
 4044              		.cfi_startproc
 4045              		@ args = 0, pretend = 0, frame = 0
 4046              		@ frame_needed = 0, uses_anonymous_args = 0
 4047              		@ link register save eliminated.
 959:source\bsw\tft/tft.c ****     return cursor_y;
 960:source\bsw\tft/tft.c **** }
 4048              		.loc 1 960 0
 4049 0000 014B     		ldr	r3, .L266
 4050 0002 B3F9E000 		ldrsh	r0, [r3, #224]
 4051 0006 7047     		bx	lr
 4052              	.L267:
 4053              		.align	2
 4054              	.L266:
 4055 0008 00000000 		.word	.LANCHOR0
 4056              		.cfi_endproc
 4057              	.LFE46:
 4058              		.size	TFT_getCursorY, .-TFT_getCursorY
 4059              		.section	.rodata
 4060              		.align	2
 4061              		.set	.LANCHOR1,. + 0
 4062              		.type	SST35S_init_seq, %object
 4063              		.size	SST35S_init_seq, 88
 4064              	SST35S_init_seq:
 4065 0000 0F       		.byte	15
 4066 0001 B1       		.byte	-79
 4067 0002 03       		.byte	3
 4068 0003 05       		.byte	5
 4069 0004 3C       		.byte	60
 4070 0005 3C       		.byte	60
 4071 0006 B2       		.byte	-78
 4072 0007 03       		.byte	3
 4073 0008 05       		.byte	5
 4074 0009 3C       		.byte	60
 4075 000a 3C       		.byte	60
 4076 000b B3       		.byte	-77
 4077 000c 06       		.byte	6
 4078 000d 05       		.byte	5
 4079 000e 3C       		.byte	60
 4080 000f 3C       		.byte	60
 4081 0010 05       		.byte	5
 4082 0011 3C       		.byte	60
 4083 0012 3C       		.byte	60
 4084 0013 B4       		.byte	-76
ARM GAS  C:\Users\MATEOC~1.QUE\AppData\Local\Temp\ccxtWYOp.s 			page 95


 4085 0014 01       		.byte	1
 4086 0015 03       		.byte	3
 4087 0016 C0       		.byte	-64
 4088 0017 03       		.byte	3
 4089 0018 28       		.byte	40
 4090 0019 08       		.byte	8
 4091 001a 04       		.byte	4
 4092 001b C1       		.byte	-63
 4093 001c 01       		.byte	1
 4094 001d C0       		.byte	-64
 4095 001e C2       		.byte	-62
 4096 001f 02       		.byte	2
 4097 0020 0D       		.byte	13
 4098 0021 00       		.byte	0
 4099 0022 C3       		.byte	-61
 4100 0023 02       		.byte	2
 4101 0024 8D       		.byte	-115
 4102 0025 2A       		.byte	42
 4103 0026 C4       		.byte	-60
 4104 0027 02       		.byte	2
 4105 0028 8D       		.byte	-115
 4106 0029 EE       		.byte	-18
 4107 002a C5       		.byte	-59
 4108 002b 01       		.byte	1
 4109 002c 1A       		.byte	26
 4110 002d 36       		.byte	54
 4111 002e 01       		.byte	1
 4112 002f C0       		.byte	-64
 4113 0030 E0       		.byte	-32
 4114 0031 10       		.byte	16
 4115 0032 04       		.byte	4
 4116 0033 22       		.byte	34
 4117 0034 07       		.byte	7
 4118 0035 0A       		.byte	10
 4119 0036 2E       		.byte	46
 4120 0037 30       		.byte	48
 4121 0038 25       		.byte	37
 4122 0039 2A       		.byte	42
 4123 003a 28       		.byte	40
 4124 003b 26       		.byte	38
 4125 003c 2E       		.byte	46
 4126 003d 3A       		.byte	58
 4127 003e 00       		.byte	0
 4128 003f 01       		.byte	1
 4129 0040 03       		.byte	3
 4130 0041 13       		.byte	19
 4131 0042 E1       		.byte	-31
 4132 0043 0F       		.byte	15
 4133 0044 16       		.byte	22
 4134 0045 06       		.byte	6
 4135 0046 0D       		.byte	13
 4136 0047 2D       		.byte	45
 4137 0048 26       		.byte	38
 4138 0049 23       		.byte	35
 4139 004a 27       		.byte	39
 4140 004b 27       		.byte	39
 4141 004c 25       		.byte	37
ARM GAS  C:\Users\MATEOC~1.QUE\AppData\Local\Temp\ccxtWYOp.s 			page 96


 4142 004d 2D       		.byte	45
 4143 004e 3B       		.byte	59
 4144 004f 00       		.byte	0
 4145 0050 01       		.byte	1
 4146 0051 04       		.byte	4
 4147 0052 13       		.byte	19
 4148 0053 3A       		.byte	58
 4149 0054 01       		.byte	1
 4150 0055 05       		.byte	5
 4151 0056 29       		.byte	41
 4152 0057 00       		.byte	0
 4153              		.type	font, %object
 4154              		.size	font, 1280
 4155              	font:
 4156 0058 00       		.byte	0
 4157 0059 00       		.byte	0
 4158 005a 00       		.byte	0
 4159 005b 00       		.byte	0
 4160 005c 00       		.byte	0
 4161 005d 3E       		.byte	62
 4162 005e 5B       		.byte	91
 4163 005f 4F       		.byte	79
 4164 0060 5B       		.byte	91
 4165 0061 3E       		.byte	62
 4166 0062 3E       		.byte	62
 4167 0063 6B       		.byte	107
 4168 0064 4F       		.byte	79
 4169 0065 6B       		.byte	107
 4170 0066 3E       		.byte	62
 4171 0067 1C       		.byte	28
 4172 0068 3E       		.byte	62
 4173 0069 7C       		.byte	124
 4174 006a 3E       		.byte	62
 4175 006b 1C       		.byte	28
 4176 006c 18       		.byte	24
 4177 006d 3C       		.byte	60
 4178 006e 7E       		.byte	126
 4179 006f 3C       		.byte	60
 4180 0070 18       		.byte	24
 4181 0071 1C       		.byte	28
 4182 0072 57       		.byte	87
 4183 0073 7D       		.byte	125
 4184 0074 57       		.byte	87
 4185 0075 1C       		.byte	28
 4186 0076 1C       		.byte	28
 4187 0077 5E       		.byte	94
 4188 0078 7F       		.byte	127
 4189 0079 5E       		.byte	94
 4190 007a 1C       		.byte	28
 4191 007b 00       		.byte	0
 4192 007c 18       		.byte	24
 4193 007d 3C       		.byte	60
 4194 007e 18       		.byte	24
 4195 007f 00       		.byte	0
 4196 0080 FF       		.byte	-1
 4197 0081 E7       		.byte	-25
 4198 0082 C3       		.byte	-61
ARM GAS  C:\Users\MATEOC~1.QUE\AppData\Local\Temp\ccxtWYOp.s 			page 97


 4199 0083 E7       		.byte	-25
 4200 0084 FF       		.byte	-1
 4201 0085 00       		.byte	0
 4202 0086 18       		.byte	24
 4203 0087 24       		.byte	36
 4204 0088 18       		.byte	24
 4205 0089 00       		.byte	0
 4206 008a FF       		.byte	-1
 4207 008b E7       		.byte	-25
 4208 008c DB       		.byte	-37
 4209 008d E7       		.byte	-25
 4210 008e FF       		.byte	-1
 4211 008f 30       		.byte	48
 4212 0090 48       		.byte	72
 4213 0091 3A       		.byte	58
 4214 0092 06       		.byte	6
 4215 0093 0E       		.byte	14
 4216 0094 26       		.byte	38
 4217 0095 29       		.byte	41
 4218 0096 79       		.byte	121
 4219 0097 29       		.byte	41
 4220 0098 26       		.byte	38
 4221 0099 40       		.byte	64
 4222 009a 7F       		.byte	127
 4223 009b 05       		.byte	5
 4224 009c 05       		.byte	5
 4225 009d 07       		.byte	7
 4226 009e 40       		.byte	64
 4227 009f 7F       		.byte	127
 4228 00a0 05       		.byte	5
 4229 00a1 25       		.byte	37
 4230 00a2 3F       		.byte	63
 4231 00a3 5A       		.byte	90
 4232 00a4 3C       		.byte	60
 4233 00a5 E7       		.byte	-25
 4234 00a6 3C       		.byte	60
 4235 00a7 5A       		.byte	90
 4236 00a8 7F       		.byte	127
 4237 00a9 3E       		.byte	62
 4238 00aa 1C       		.byte	28
 4239 00ab 1C       		.byte	28
 4240 00ac 08       		.byte	8
 4241 00ad 08       		.byte	8
 4242 00ae 1C       		.byte	28
 4243 00af 1C       		.byte	28
 4244 00b0 3E       		.byte	62
 4245 00b1 7F       		.byte	127
 4246 00b2 14       		.byte	20
 4247 00b3 22       		.byte	34
 4248 00b4 7F       		.byte	127
 4249 00b5 22       		.byte	34
 4250 00b6 14       		.byte	20
 4251 00b7 5F       		.byte	95
 4252 00b8 5F       		.byte	95
 4253 00b9 00       		.byte	0
 4254 00ba 5F       		.byte	95
 4255 00bb 5F       		.byte	95
ARM GAS  C:\Users\MATEOC~1.QUE\AppData\Local\Temp\ccxtWYOp.s 			page 98


 4256 00bc 06       		.byte	6
 4257 00bd 09       		.byte	9
 4258 00be 7F       		.byte	127
 4259 00bf 01       		.byte	1
 4260 00c0 7F       		.byte	127
 4261 00c1 00       		.byte	0
 4262 00c2 66       		.byte	102
 4263 00c3 89       		.byte	-119
 4264 00c4 95       		.byte	-107
 4265 00c5 6A       		.byte	106
 4266 00c6 60       		.byte	96
 4267 00c7 60       		.byte	96
 4268 00c8 60       		.byte	96
 4269 00c9 60       		.byte	96
 4270 00ca 60       		.byte	96
 4271 00cb 94       		.byte	-108
 4272 00cc A2       		.byte	-94
 4273 00cd FF       		.byte	-1
 4274 00ce A2       		.byte	-94
 4275 00cf 94       		.byte	-108
 4276 00d0 08       		.byte	8
 4277 00d1 04       		.byte	4
 4278 00d2 7E       		.byte	126
 4279 00d3 04       		.byte	4
 4280 00d4 08       		.byte	8
 4281 00d5 10       		.byte	16
 4282 00d6 20       		.byte	32
 4283 00d7 7E       		.byte	126
 4284 00d8 20       		.byte	32
 4285 00d9 10       		.byte	16
 4286 00da 08       		.byte	8
 4287 00db 08       		.byte	8
 4288 00dc 2A       		.byte	42
 4289 00dd 1C       		.byte	28
 4290 00de 08       		.byte	8
 4291 00df 08       		.byte	8
 4292 00e0 1C       		.byte	28
 4293 00e1 2A       		.byte	42
 4294 00e2 08       		.byte	8
 4295 00e3 08       		.byte	8
 4296 00e4 1E       		.byte	30
 4297 00e5 10       		.byte	16
 4298 00e6 10       		.byte	16
 4299 00e7 10       		.byte	16
 4300 00e8 10       		.byte	16
 4301 00e9 0C       		.byte	12
 4302 00ea 1E       		.byte	30
 4303 00eb 0C       		.byte	12
 4304 00ec 1E       		.byte	30
 4305 00ed 0C       		.byte	12
 4306 00ee 30       		.byte	48
 4307 00ef 38       		.byte	56
 4308 00f0 3E       		.byte	62
 4309 00f1 38       		.byte	56
 4310 00f2 30       		.byte	48
 4311 00f3 06       		.byte	6
 4312 00f4 0E       		.byte	14
ARM GAS  C:\Users\MATEOC~1.QUE\AppData\Local\Temp\ccxtWYOp.s 			page 99


 4313 00f5 3E       		.byte	62
 4314 00f6 0E       		.byte	14
 4315 00f7 06       		.byte	6
 4316 00f8 00       		.byte	0
 4317 00f9 00       		.byte	0
 4318 00fa 00       		.byte	0
 4319 00fb 00       		.byte	0
 4320 00fc 00       		.byte	0
 4321 00fd 00       		.byte	0
 4322 00fe 00       		.byte	0
 4323 00ff 5F       		.byte	95
 4324 0100 00       		.byte	0
 4325 0101 00       		.byte	0
 4326 0102 00       		.byte	0
 4327 0103 07       		.byte	7
 4328 0104 00       		.byte	0
 4329 0105 07       		.byte	7
 4330 0106 00       		.byte	0
 4331 0107 14       		.byte	20
 4332 0108 7F       		.byte	127
 4333 0109 14       		.byte	20
 4334 010a 7F       		.byte	127
 4335 010b 14       		.byte	20
 4336 010c 24       		.byte	36
 4337 010d 2A       		.byte	42
 4338 010e 7F       		.byte	127
 4339 010f 2A       		.byte	42
 4340 0110 12       		.byte	18
 4341 0111 23       		.byte	35
 4342 0112 13       		.byte	19
 4343 0113 08       		.byte	8
 4344 0114 64       		.byte	100
 4345 0115 62       		.byte	98
 4346 0116 36       		.byte	54
 4347 0117 49       		.byte	73
 4348 0118 56       		.byte	86
 4349 0119 20       		.byte	32
 4350 011a 50       		.byte	80
 4351 011b 00       		.byte	0
 4352 011c 08       		.byte	8
 4353 011d 07       		.byte	7
 4354 011e 03       		.byte	3
 4355 011f 00       		.byte	0
 4356 0120 00       		.byte	0
 4357 0121 1C       		.byte	28
 4358 0122 22       		.byte	34
 4359 0123 41       		.byte	65
 4360 0124 00       		.byte	0
 4361 0125 00       		.byte	0
 4362 0126 41       		.byte	65
 4363 0127 22       		.byte	34
 4364 0128 1C       		.byte	28
 4365 0129 00       		.byte	0
 4366 012a 2A       		.byte	42
 4367 012b 1C       		.byte	28
 4368 012c 7F       		.byte	127
 4369 012d 1C       		.byte	28
ARM GAS  C:\Users\MATEOC~1.QUE\AppData\Local\Temp\ccxtWYOp.s 			page 100


 4370 012e 2A       		.byte	42
 4371 012f 08       		.byte	8
 4372 0130 08       		.byte	8
 4373 0131 3E       		.byte	62
 4374 0132 08       		.byte	8
 4375 0133 08       		.byte	8
 4376 0134 00       		.byte	0
 4377 0135 80       		.byte	-128
 4378 0136 70       		.byte	112
 4379 0137 30       		.byte	48
 4380 0138 00       		.byte	0
 4381 0139 08       		.byte	8
 4382 013a 08       		.byte	8
 4383 013b 08       		.byte	8
 4384 013c 08       		.byte	8
 4385 013d 08       		.byte	8
 4386 013e 00       		.byte	0
 4387 013f 00       		.byte	0
 4388 0140 60       		.byte	96
 4389 0141 60       		.byte	96
 4390 0142 00       		.byte	0
 4391 0143 20       		.byte	32
 4392 0144 10       		.byte	16
 4393 0145 08       		.byte	8
 4394 0146 04       		.byte	4
 4395 0147 02       		.byte	2
 4396 0148 3E       		.byte	62
 4397 0149 51       		.byte	81
 4398 014a 49       		.byte	73
 4399 014b 45       		.byte	69
 4400 014c 3E       		.byte	62
 4401 014d 00       		.byte	0
 4402 014e 42       		.byte	66
 4403 014f 7F       		.byte	127
 4404 0150 40       		.byte	64
 4405 0151 00       		.byte	0
 4406 0152 72       		.byte	114
 4407 0153 49       		.byte	73
 4408 0154 49       		.byte	73
 4409 0155 49       		.byte	73
 4410 0156 46       		.byte	70
 4411 0157 21       		.byte	33
 4412 0158 41       		.byte	65
 4413 0159 49       		.byte	73
 4414 015a 4D       		.byte	77
 4415 015b 33       		.byte	51
 4416 015c 18       		.byte	24
 4417 015d 14       		.byte	20
 4418 015e 12       		.byte	18
 4419 015f 7F       		.byte	127
 4420 0160 10       		.byte	16
 4421 0161 27       		.byte	39
 4422 0162 45       		.byte	69
 4423 0163 45       		.byte	69
 4424 0164 45       		.byte	69
 4425 0165 39       		.byte	57
 4426 0166 3C       		.byte	60
ARM GAS  C:\Users\MATEOC~1.QUE\AppData\Local\Temp\ccxtWYOp.s 			page 101


 4427 0167 4A       		.byte	74
 4428 0168 49       		.byte	73
 4429 0169 49       		.byte	73
 4430 016a 31       		.byte	49
 4431 016b 41       		.byte	65
 4432 016c 21       		.byte	33
 4433 016d 11       		.byte	17
 4434 016e 09       		.byte	9
 4435 016f 07       		.byte	7
 4436 0170 36       		.byte	54
 4437 0171 49       		.byte	73
 4438 0172 49       		.byte	73
 4439 0173 49       		.byte	73
 4440 0174 36       		.byte	54
 4441 0175 46       		.byte	70
 4442 0176 49       		.byte	73
 4443 0177 49       		.byte	73
 4444 0178 29       		.byte	41
 4445 0179 1E       		.byte	30
 4446 017a 00       		.byte	0
 4447 017b 00       		.byte	0
 4448 017c 14       		.byte	20
 4449 017d 00       		.byte	0
 4450 017e 00       		.byte	0
 4451 017f 00       		.byte	0
 4452 0180 40       		.byte	64
 4453 0181 34       		.byte	52
 4454 0182 00       		.byte	0
 4455 0183 00       		.byte	0
 4456 0184 00       		.byte	0
 4457 0185 08       		.byte	8
 4458 0186 14       		.byte	20
 4459 0187 22       		.byte	34
 4460 0188 41       		.byte	65
 4461 0189 14       		.byte	20
 4462 018a 14       		.byte	20
 4463 018b 14       		.byte	20
 4464 018c 14       		.byte	20
 4465 018d 14       		.byte	20
 4466 018e 00       		.byte	0
 4467 018f 41       		.byte	65
 4468 0190 22       		.byte	34
 4469 0191 14       		.byte	20
 4470 0192 08       		.byte	8
 4471 0193 02       		.byte	2
 4472 0194 01       		.byte	1
 4473 0195 59       		.byte	89
 4474 0196 09       		.byte	9
 4475 0197 06       		.byte	6
 4476 0198 3E       		.byte	62
 4477 0199 41       		.byte	65
 4478 019a 5D       		.byte	93
 4479 019b 59       		.byte	89
 4480 019c 4E       		.byte	78
 4481 019d 7C       		.byte	124
 4482 019e 12       		.byte	18
 4483 019f 11       		.byte	17
ARM GAS  C:\Users\MATEOC~1.QUE\AppData\Local\Temp\ccxtWYOp.s 			page 102


 4484 01a0 12       		.byte	18
 4485 01a1 7C       		.byte	124
 4486 01a2 7F       		.byte	127
 4487 01a3 49       		.byte	73
 4488 01a4 49       		.byte	73
 4489 01a5 49       		.byte	73
 4490 01a6 36       		.byte	54
 4491 01a7 3E       		.byte	62
 4492 01a8 41       		.byte	65
 4493 01a9 41       		.byte	65
 4494 01aa 41       		.byte	65
 4495 01ab 22       		.byte	34
 4496 01ac 7F       		.byte	127
 4497 01ad 41       		.byte	65
 4498 01ae 41       		.byte	65
 4499 01af 41       		.byte	65
 4500 01b0 3E       		.byte	62
 4501 01b1 7F       		.byte	127
 4502 01b2 49       		.byte	73
 4503 01b3 49       		.byte	73
 4504 01b4 49       		.byte	73
 4505 01b5 41       		.byte	65
 4506 01b6 7F       		.byte	127
 4507 01b7 09       		.byte	9
 4508 01b8 09       		.byte	9
 4509 01b9 09       		.byte	9
 4510 01ba 01       		.byte	1
 4511 01bb 3E       		.byte	62
 4512 01bc 41       		.byte	65
 4513 01bd 41       		.byte	65
 4514 01be 51       		.byte	81
 4515 01bf 73       		.byte	115
 4516 01c0 7F       		.byte	127
 4517 01c1 08       		.byte	8
 4518 01c2 08       		.byte	8
 4519 01c3 08       		.byte	8
 4520 01c4 7F       		.byte	127
 4521 01c5 00       		.byte	0
 4522 01c6 41       		.byte	65
 4523 01c7 7F       		.byte	127
 4524 01c8 41       		.byte	65
 4525 01c9 00       		.byte	0
 4526 01ca 20       		.byte	32
 4527 01cb 40       		.byte	64
 4528 01cc 41       		.byte	65
 4529 01cd 3F       		.byte	63
 4530 01ce 01       		.byte	1
 4531 01cf 7F       		.byte	127
 4532 01d0 08       		.byte	8
 4533 01d1 14       		.byte	20
 4534 01d2 22       		.byte	34
 4535 01d3 41       		.byte	65
 4536 01d4 7F       		.byte	127
 4537 01d5 40       		.byte	64
 4538 01d6 40       		.byte	64
 4539 01d7 40       		.byte	64
 4540 01d8 40       		.byte	64
ARM GAS  C:\Users\MATEOC~1.QUE\AppData\Local\Temp\ccxtWYOp.s 			page 103


 4541 01d9 7F       		.byte	127
 4542 01da 02       		.byte	2
 4543 01db 1C       		.byte	28
 4544 01dc 02       		.byte	2
 4545 01dd 7F       		.byte	127
 4546 01de 7F       		.byte	127
 4547 01df 04       		.byte	4
 4548 01e0 08       		.byte	8
 4549 01e1 10       		.byte	16
 4550 01e2 7F       		.byte	127
 4551 01e3 3E       		.byte	62
 4552 01e4 41       		.byte	65
 4553 01e5 41       		.byte	65
 4554 01e6 41       		.byte	65
 4555 01e7 3E       		.byte	62
 4556 01e8 7F       		.byte	127
 4557 01e9 09       		.byte	9
 4558 01ea 09       		.byte	9
 4559 01eb 09       		.byte	9
 4560 01ec 06       		.byte	6
 4561 01ed 3E       		.byte	62
 4562 01ee 41       		.byte	65
 4563 01ef 51       		.byte	81
 4564 01f0 21       		.byte	33
 4565 01f1 5E       		.byte	94
 4566 01f2 7F       		.byte	127
 4567 01f3 09       		.byte	9
 4568 01f4 19       		.byte	25
 4569 01f5 29       		.byte	41
 4570 01f6 46       		.byte	70
 4571 01f7 26       		.byte	38
 4572 01f8 49       		.byte	73
 4573 01f9 49       		.byte	73
 4574 01fa 49       		.byte	73
 4575 01fb 32       		.byte	50
 4576 01fc 03       		.byte	3
 4577 01fd 01       		.byte	1
 4578 01fe 7F       		.byte	127
 4579 01ff 01       		.byte	1
