ARM GAS  C:\Users\MATEOC~1.QUE\AppData\Local\Temp\ccXdiRAX.s 			page 1


   1              		.syntax unified
   2              		.cpu cortex-m3
   3              		.fpu softvfp
   4              		.eabi_attribute 20, 1
   5              		.eabi_attribute 21, 1
   6              		.eabi_attribute 23, 3
   7              		.eabi_attribute 24, 1
   8              		.eabi_attribute 25, 1
   9              		.eabi_attribute 26, 1
  10              		.eabi_attribute 30, 1
  11              		.eabi_attribute 34, 1
  12              		.eabi_attribute 18, 4
  13              		.thumb
  14              		.syntax unified
  15              		.file	"joystick.c"
  16              		.text
  17              	.Ltext0:
  18              		.cfi_sections	.debug_frame
  19              		.section	.text.JOYSTICK_Init,"ax",%progbits
  20              		.align	2
  21              		.global	JOYSTICK_Init
  22              		.thumb
  23              		.thumb_func
  24              		.type	JOYSTICK_Init, %function
  25              	JOYSTICK_Init:
  26              	.LFB63:
  27              		.file 1 "source\\bsw\\LabBoard\\joystick.c"
   1:source\bsw\LabBoard/joystick.c **** /**
   2:source\bsw\LabBoard/joystick.c **** * \file joystick.c
   3:source\bsw\LabBoard/joystick.c **** * \author P. Fromm
   4:source\bsw\LabBoard/joystick.c **** * \date 29.8.17
   5:source\bsw\LabBoard/joystick.c **** *
   6:source\bsw\LabBoard/joystick.c **** * \brief Joystick driver
   7:source\bsw\LabBoard/joystick.c **** *
   8:source\bsw\LabBoard/joystick.c **** * \copyright Copyright ©2016
   9:source\bsw\LabBoard/joystick.c **** * Department of electrical engineering and information technology, Hochschule Darmstadt - Universit
  10:source\bsw\LabBoard/joystick.c **** * Permission to use, copy, modify, and distribute this software and its documentation for education
  11:source\bsw\LabBoard/joystick.c **** * (unless permitted by h_da) and official h_da projects, is hereby granted for enrolled students of
  12:source\bsw\LabBoard/joystick.c **** * this paragraph and the following paragraph appear in all copies, modifications, and distributions
  13:source\bsw\LabBoard/joystick.c **** * Contact Prof.Dr.-Ing. Peter Fromm, peter.fromm@h-da.de, Birkenweg 8 64295 Darmstadt - GERMANY for
  14:source\bsw\LabBoard/joystick.c **** *
  15:source\bsw\LabBoard/joystick.c **** * \warning This software is a PROTOTYPE version and is not designed or intended for use in producti
  16:source\bsw\LabBoard/joystick.c **** * The user represents and warrants that it will NOT use or redistribute the Software for such purpo
  17:source\bsw\LabBoard/joystick.c **** * This prototype is for research purposes only. This software is provided "AS IS," without a warran
  18:source\bsw\LabBoard/joystick.c **** */
  19:source\bsw\LabBoard/joystick.c **** 
  20:source\bsw\LabBoard/joystick.c **** /*****************************************************************************/
  21:source\bsw\LabBoard/joystick.c **** /* Include files                                                             */
  22:source\bsw\LabBoard/joystick.c **** /*****************************************************************************/
  23:source\bsw\LabBoard/joystick.c **** 
  24:source\bsw\LabBoard/joystick.c **** #include "project.h"
  25:source\bsw\LabBoard/joystick.c **** #include "joystick.h"
  26:source\bsw\LabBoard/joystick.c **** 
  27:source\bsw\LabBoard/joystick.c **** 
  28:source\bsw\LabBoard/joystick.c **** 
  29:source\bsw\LabBoard/joystick.c **** /*****************************************************************************/
  30:source\bsw\LabBoard/joystick.c **** /* Local pre-processor symbols/macros ('#define')                            */
ARM GAS  C:\Users\MATEOC~1.QUE\AppData\Local\Temp\ccXdiRAX.s 			page 2


  31:source\bsw\LabBoard/joystick.c **** /*****************************************************************************/
  32:source\bsw\LabBoard/joystick.c **** 
  33:source\bsw\LabBoard/joystick.c **** /*****************************************************************************/
  34:source\bsw\LabBoard/joystick.c **** /* Global variable definitions (declared in header file with 'extern')       */
  35:source\bsw\LabBoard/joystick.c **** /*****************************************************************************/
  36:source\bsw\LabBoard/joystick.c **** 
  37:source\bsw\LabBoard/joystick.c **** /*****************************************************************************/
  38:source\bsw\LabBoard/joystick.c **** /* Local type definitions ('typedef')                                        */
  39:source\bsw\LabBoard/joystick.c **** /*****************************************************************************/
  40:source\bsw\LabBoard/joystick.c **** 
  41:source\bsw\LabBoard/joystick.c **** /*****************************************************************************/
  42:source\bsw\LabBoard/joystick.c **** /* Local variable definitions ('static')                                     */
  43:source\bsw\LabBoard/joystick.c **** /*****************************************************************************/
  44:source\bsw\LabBoard/joystick.c **** 
  45:source\bsw\LabBoard/joystick.c **** 
  46:source\bsw\LabBoard/joystick.c **** 
  47:source\bsw\LabBoard/joystick.c **** /*****************************************************************************/
  48:source\bsw\LabBoard/joystick.c **** /* Local function prototypes ('static')                                      */
  49:source\bsw\LabBoard/joystick.c **** /*****************************************************************************/
  50:source\bsw\LabBoard/joystick.c **** 
  51:source\bsw\LabBoard/joystick.c **** 
  52:source\bsw\LabBoard/joystick.c **** /*****************************************************************************/
  53:source\bsw\LabBoard/joystick.c **** /* Function implementation - global ('extern') and local ('static')          */
  54:source\bsw\LabBoard/joystick.c **** /*****************************************************************************/
  55:source\bsw\LabBoard/joystick.c **** 
  56:source\bsw\LabBoard/joystick.c **** /**
  57:source\bsw\LabBoard/joystick.c ****  * Initialisation of the Joystick
  58:source\bsw\LabBoard/joystick.c ****  * @return RC_SUCCESS if all ok
  59:source\bsw\LabBoard/joystick.c ****  */
  60:source\bsw\LabBoard/joystick.c **** RC_t JOYSTICK_Init()
  61:source\bsw\LabBoard/joystick.c **** {
  28              		.loc 1 61 0
  29              		.cfi_startproc
  30              		@ args = 0, pretend = 0, frame = 0
  31              		@ frame_needed = 0, uses_anonymous_args = 0
  32 0000 08B5     		push	{r3, lr}
  33              		.cfi_def_cfa_offset 8
  34              		.cfi_offset 3, -8
  35              		.cfi_offset 14, -4
  62:source\bsw\LabBoard/joystick.c ****     
  63:source\bsw\LabBoard/joystick.c ****     JOYSTICK_ADC_XY_Start();
  36              		.loc 1 63 0
  37 0002 FFF7FEFF 		bl	JOYSTICK_ADC_XY_Start
  38              	.LVL0:
  64:source\bsw\LabBoard/joystick.c ****     //JOYSTICK_ADC_X_IRQ_Enable(); //May be activated later
  65:source\bsw\LabBoard/joystick.c ****     JOYSTICK_ADC_XY_StartConvert();
  39              		.loc 1 65 0
  40 0006 FFF7FEFF 		bl	JOYSTICK_ADC_XY_StartConvert
  41              	.LVL1:
  66:source\bsw\LabBoard/joystick.c ****     
  67:source\bsw\LabBoard/joystick.c ****     return RC_SUCCESS;
  68:source\bsw\LabBoard/joystick.c **** }
  42              		.loc 1 68 0
  43 000a 0020     		movs	r0, #0
  44 000c 08BD     		pop	{r3, pc}
  45              		.cfi_endproc
  46              	.LFE63:
ARM GAS  C:\Users\MATEOC~1.QUE\AppData\Local\Temp\ccXdiRAX.s 			page 3


  47              		.size	JOYSTICK_Init, .-JOYSTICK_Init
  48 000e 00BF     		.section	.text.JOYSTICK_ReadPosition,"ax",%progbits
  49              		.align	2
  50              		.global	JOYSTICK_ReadPosition
  51              		.thumb
  52              		.thumb_func
  53              		.type	JOYSTICK_ReadPosition, %function
  54              	JOYSTICK_ReadPosition:
  55              	.LFB64:
  69:source\bsw\LabBoard/joystick.c **** 
  70:source\bsw\LabBoard/joystick.c **** /**
  71:source\bsw\LabBoard/joystick.c ****  * Read the Joystick position
  72:source\bsw\LabBoard/joystick.c ****  * @param sint8_t* x, sint8_t* y - OUT x and y position
  73:source\bsw\LabBoard/joystick.c ****  * @return RC_SUCCESS if all ok
  74:source\bsw\LabBoard/joystick.c ****  */
  75:source\bsw\LabBoard/joystick.c **** RC_t JOYSTICK_ReadPosition(sint8_t* x, sint8_t* y)
  76:source\bsw\LabBoard/joystick.c **** {
  56              		.loc 1 76 0
  57              		.cfi_startproc
  58              		@ args = 0, pretend = 0, frame = 0
  59              		@ frame_needed = 0, uses_anonymous_args = 0
  60              	.LVL2:
  61 0000 70B5     		push	{r4, r5, r6, lr}
  62              		.cfi_def_cfa_offset 16
  63              		.cfi_offset 4, -16
  64              		.cfi_offset 5, -12
  65              		.cfi_offset 6, -8
  66              		.cfi_offset 14, -4
  67 0002 0646     		mov	r6, r0
  68 0004 0D46     		mov	r5, r1
  77:source\bsw\LabBoard/joystick.c ****     //Wait for end of conversion
  78:source\bsw\LabBoard/joystick.c ****     JOYSTICK_ADC_XY_IsEndConversion(JOYSTICK_ADC_XY_WAIT_FOR_RESULT);
  69              		.loc 1 78 0
  70 0006 0020     		movs	r0, #0
  71              	.LVL3:
  72 0008 FFF7FEFF 		bl	JOYSTICK_ADC_XY_IsEndConversion
  73              	.LVL4:
  79:source\bsw\LabBoard/joystick.c **** 
  80:source\bsw\LabBoard/joystick.c ****     //Read channels
  81:source\bsw\LabBoard/joystick.c ****     uint16_t posX = JOYSTICK_ADC_XY_GetResult16(0);
  74              		.loc 1 81 0
  75 000c 0020     		movs	r0, #0
  76 000e FFF7FEFF 		bl	JOYSTICK_ADC_XY_GetResult16
  77              	.LVL5:
  78 0012 84B2     		uxth	r4, r0
  79              	.LVL6:
  82:source\bsw\LabBoard/joystick.c ****     uint16_t posY = JOYSTICK_ADC_XY_GetResult16(1);
  80              		.loc 1 82 0
  81 0014 0120     		movs	r0, #1
  82 0016 FFF7FEFF 		bl	JOYSTICK_ADC_XY_GetResult16
  83              	.LVL7:
  84 001a 80B2     		uxth	r0, r0
  85              	.LVL8:
  83:source\bsw\LabBoard/joystick.c ****     
  84:source\bsw\LabBoard/joystick.c ****     //Convert to scaled 8bit signal
  85:source\bsw\LabBoard/joystick.c ****     *x = (sint8_t)((2048 - posX) / 16);
  86              		.loc 1 85 0
ARM GAS  C:\Users\MATEOC~1.QUE\AppData\Local\Temp\ccXdiRAX.s 			page 4


  87 001c D4F50064 		rsbs	r4, r4, #2048
  88              	.LVL9:
  89 0020 00D5     		bpl	.L4
  90 0022 0F34     		adds	r4, r4, #15
  91              	.L4:
  92 0024 44F30714 		sbfx	r4, r4, #4, #8
  93 0028 3470     		strb	r4, [r6]
  86:source\bsw\LabBoard/joystick.c ****     *y = (sint8_t)((2048 - posY) / 16);
  94              		.loc 1 86 0
  95 002a D0F50060 		rsbs	r0, r0, #2048
  96              	.LVL10:
  97 002e 00D5     		bpl	.L5
  98 0030 0F30     		adds	r0, r0, #15
  99              	.L5:
 100 0032 40F30710 		sbfx	r0, r0, #4, #8
 101 0036 2870     		strb	r0, [r5]
  87:source\bsw\LabBoard/joystick.c ****     
  88:source\bsw\LabBoard/joystick.c ****     return RC_SUCCESS;
  89:source\bsw\LabBoard/joystick.c **** }
 102              		.loc 1 89 0
 103 0038 0020     		movs	r0, #0
 104 003a 70BD     		pop	{r4, r5, r6, pc}
 105              		.cfi_endproc
 106              	.LFE64:
 107              		.size	JOYSTICK_ReadPosition, .-JOYSTICK_ReadPosition
 108              		.text
 109              	.Letext0:
 110              		.file 2 "c:\\program files (x86)\\cypress\\psoc creator\\4.4\\psoc creator\\import\\gnu\\arm\\5.4.
 111              		.file 3 "c:\\program files (x86)\\cypress\\psoc creator\\4.4\\psoc creator\\import\\gnu\\arm\\5.4.
 112              		.file 4 ".\\source\\bsw/global.h"
 113              		.file 5 "Generated_Source\\PSoC5/JOYSTICK_ADC_XY.h"
 114              		.file 6 "Generated_Source\\PSoC5/core_cm3.h"