ARM GAS  C:\Users\robom\AppData\Local\Temp\cclz0sxz.s 			page 1


   1              		.syntax unified
   2              		.cpu cortex-m3
   3              		.fpu softvfp
   4              		.eabi_attribute 20, 1
   5              		.eabi_attribute 21, 1
   6              		.eabi_attribute 23, 3
   7              		.eabi_attribute 24, 1
   8              		.eabi_attribute 25, 1
   9              		.eabi_attribute 26, 1
  10              		.eabi_attribute 30, 1
  11              		.eabi_attribute 34, 1
  12              		.eabi_attribute 18, 4
  13              		.thumb
  14              		.syntax unified
  15              		.file	"ErikaOS_1_ee_alget.c"
  16              		.text
  17              	.Ltext0:
  18              		.cfi_sections	.debug_frame
  19              		.section	.text.EE_oo_GetAlarm,"ax",%progbits
  20              		.align	2
  21              		.global	EE_oo_GetAlarm
  22              		.thumb
  23              		.thumb_func
  24              		.type	EE_oo_GetAlarm, %function
  25              	EE_oo_GetAlarm:
  26              	.LFB139:
  27              		.file 1 "Generated_Source\\PSoC5\\ErikaOS_1_ee_alget.c"
   1:Generated_Source\PSoC5/ErikaOS_1_ee_alget.c **** /* ###*B*###
   2:Generated_Source\PSoC5/ErikaOS_1_ee_alget.c ****  * ERIKA Enterprise - a tiny RTOS for small microcontrollers
   3:Generated_Source\PSoC5/ErikaOS_1_ee_alget.c ****  *
   4:Generated_Source\PSoC5/ErikaOS_1_ee_alget.c ****  * Copyright (C) 2002-2008  Evidence Srl
   5:Generated_Source\PSoC5/ErikaOS_1_ee_alget.c ****  *
   6:Generated_Source\PSoC5/ErikaOS_1_ee_alget.c ****  * This file is part of ERIKA Enterprise.
   7:Generated_Source\PSoC5/ErikaOS_1_ee_alget.c ****  *
   8:Generated_Source\PSoC5/ErikaOS_1_ee_alget.c ****  * ERIKA Enterprise is free software; you can redistribute it
   9:Generated_Source\PSoC5/ErikaOS_1_ee_alget.c ****  * and/or modify it under the terms of the GNU General Public License
  10:Generated_Source\PSoC5/ErikaOS_1_ee_alget.c ****  * version 2 as published by the Free Software Foundation, 
  11:Generated_Source\PSoC5/ErikaOS_1_ee_alget.c ****  * (with a special exception described below).
  12:Generated_Source\PSoC5/ErikaOS_1_ee_alget.c ****  *
  13:Generated_Source\PSoC5/ErikaOS_1_ee_alget.c ****  * Linking this code statically or dynamically with other modules is
  14:Generated_Source\PSoC5/ErikaOS_1_ee_alget.c ****  * making a combined work based on this code.  Thus, the terms and
  15:Generated_Source\PSoC5/ErikaOS_1_ee_alget.c ****  * conditions of the GNU General Public License cover the whole
  16:Generated_Source\PSoC5/ErikaOS_1_ee_alget.c ****  * combination.
  17:Generated_Source\PSoC5/ErikaOS_1_ee_alget.c ****  *
  18:Generated_Source\PSoC5/ErikaOS_1_ee_alget.c ****  * As a special exception, the copyright holders of this library give you
  19:Generated_Source\PSoC5/ErikaOS_1_ee_alget.c ****  * permission to link this code with independent modules to produce an
  20:Generated_Source\PSoC5/ErikaOS_1_ee_alget.c ****  * executable, regardless of the license terms of these independent
  21:Generated_Source\PSoC5/ErikaOS_1_ee_alget.c ****  * modules, and to copy and distribute the resulting executable under
  22:Generated_Source\PSoC5/ErikaOS_1_ee_alget.c ****  * terms of your choice, provided that you also meet, for each linked
  23:Generated_Source\PSoC5/ErikaOS_1_ee_alget.c ****  * independent module, the terms and conditions of the license of that
  24:Generated_Source\PSoC5/ErikaOS_1_ee_alget.c ****  * module.  An independent module is a module which is not derived from
  25:Generated_Source\PSoC5/ErikaOS_1_ee_alget.c ****  * or based on this library.  If you modify this code, you may extend
  26:Generated_Source\PSoC5/ErikaOS_1_ee_alget.c ****  * this exception to your version of the code, but you are not
  27:Generated_Source\PSoC5/ErikaOS_1_ee_alget.c ****  * obligated to do so.  If you do not wish to do so, delete this
  28:Generated_Source\PSoC5/ErikaOS_1_ee_alget.c ****  * exception statement from your version.
  29:Generated_Source\PSoC5/ErikaOS_1_ee_alget.c ****  *
  30:Generated_Source\PSoC5/ErikaOS_1_ee_alget.c ****  * ERIKA Enterprise is distributed in the hope that it will be
ARM GAS  C:\Users\robom\AppData\Local\Temp\cclz0sxz.s 			page 2


  31:Generated_Source\PSoC5/ErikaOS_1_ee_alget.c ****  * useful, but WITHOUT ANY WARRANTY; without even the implied warranty
  32:Generated_Source\PSoC5/ErikaOS_1_ee_alget.c ****  * of MERCHANTABILITY or FITNESS FOR A PARTICULAR PURPOSE.  See the
  33:Generated_Source\PSoC5/ErikaOS_1_ee_alget.c ****  * GNU General Public License version 2 for more details.
  34:Generated_Source\PSoC5/ErikaOS_1_ee_alget.c ****  *
  35:Generated_Source\PSoC5/ErikaOS_1_ee_alget.c ****  * You should have received a copy of the GNU General Public License
  36:Generated_Source\PSoC5/ErikaOS_1_ee_alget.c ****  * version 2 along with ERIKA Enterprise; if not, write to the
  37:Generated_Source\PSoC5/ErikaOS_1_ee_alget.c ****  * Free Software Foundation, Inc., 51 Franklin Street, Fifth Floor,
  38:Generated_Source\PSoC5/ErikaOS_1_ee_alget.c ****  * Boston, MA 02110-1301 USA.
  39:Generated_Source\PSoC5/ErikaOS_1_ee_alget.c ****  * ###*E*### */
  40:Generated_Source\PSoC5/ErikaOS_1_ee_alget.c **** 
  41:Generated_Source\PSoC5/ErikaOS_1_ee_alget.c **** /*
  42:Generated_Source\PSoC5/ErikaOS_1_ee_alget.c ****  * Author: 2002 Paolo Gai
  43:Generated_Source\PSoC5/ErikaOS_1_ee_alget.c ****  * CVS: $Id: ee_alget.c,v 1.1 2005/07/16 12:23:42 pj Exp $
  44:Generated_Source\PSoC5/ErikaOS_1_ee_alget.c ****  */
  45:Generated_Source\PSoC5/ErikaOS_1_ee_alget.c **** 
  46:Generated_Source\PSoC5/ErikaOS_1_ee_alget.c **** /*
  47:Generated_Source\PSoC5/ErikaOS_1_ee_alget.c ****  * PSoC Port and API Generation
  48:Generated_Source\PSoC5/ErikaOS_1_ee_alget.c ****  * Carlos Fernando Meier Martinez
  49:Generated_Source\PSoC5/ErikaOS_1_ee_alget.c ****  * Hochschule Darmstadt, Germany. 2017.
  50:Generated_Source\PSoC5/ErikaOS_1_ee_alget.c ****  */
  51:Generated_Source\PSoC5/ErikaOS_1_ee_alget.c ****  
  52:Generated_Source\PSoC5/ErikaOS_1_ee_alget.c **** #include "ErikaOS_1_ee_tracing.h"
  53:Generated_Source\PSoC5/ErikaOS_1_ee_alget.c **** 
  54:Generated_Source\PSoC5/ErikaOS_1_ee_alget.c **** #include "ErikaOS_1_ee_internal.inc"
  55:Generated_Source\PSoC5/ErikaOS_1_ee_alget.c **** 
  56:Generated_Source\PSoC5/ErikaOS_1_ee_alget.c **** #if (__OO_configUSE_TRACE_FACILITY == 1)
  57:Generated_Source\PSoC5/ErikaOS_1_ee_alget.c **** #include "trcKernelPort.h"
  58:Generated_Source\PSoC5/ErikaOS_1_ee_alget.c **** #endif
  59:Generated_Source\PSoC5/ErikaOS_1_ee_alget.c **** 
  60:Generated_Source\PSoC5/ErikaOS_1_ee_alget.c **** #if (defined(__OO_BCC1__) || defined(__OO_BCC2__) || defined(__OO_ECC1__) || defined(__OO_ECC2__)) 
  61:Generated_Source\PSoC5/ErikaOS_1_ee_alget.c **** 
  62:Generated_Source\PSoC5/ErikaOS_1_ee_alget.c **** /* GetAlarm
  63:Generated_Source\PSoC5/ErikaOS_1_ee_alget.c ****    - This function returns the relative value in ticks before the alarm
  64:Generated_Source\PSoC5/ErikaOS_1_ee_alget.c ****      expires
  65:Generated_Source\PSoC5/ErikaOS_1_ee_alget.c ****    - it returns E_OK if all OK
  66:Generated_Source\PSoC5/ErikaOS_1_ee_alget.c ****      E_OS_NOFUNC if the Alarm is not used
  67:Generated_Source\PSoC5/ErikaOS_1_ee_alget.c ****      E_OS_ID if the alarm is invalid (only Extended status)
  68:Generated_Source\PSoC5/ErikaOS_1_ee_alget.c **** */
  69:Generated_Source\PSoC5/ErikaOS_1_ee_alget.c **** 
  70:Generated_Source\PSoC5/ErikaOS_1_ee_alget.c **** #ifndef __PRIVATE_GETALARM__
  71:Generated_Source\PSoC5/ErikaOS_1_ee_alget.c **** StatusType EE_oo_GetAlarm(AlarmType AlarmID, TickRefType Tick)
  72:Generated_Source\PSoC5/ErikaOS_1_ee_alget.c **** {
  28              		.loc 1 72 0
  29              		.cfi_startproc
  30              		@ args = 0, pretend = 0, frame = 0
  31              		@ frame_needed = 0, uses_anonymous_args = 0
  32              	.LVL0:
  33 0000 38B5     		push	{r3, r4, r5, lr}
  34              		.cfi_def_cfa_offset 16
  35              		.cfi_offset 3, -16
  36              		.cfi_offset 4, -12
  37              		.cfi_offset 5, -8
  38              		.cfi_offset 14, -4
  39              	.LBB25:
  40              	.LBB26:
  41              	.LBB27:
  42              		.file 2 "Generated_Source\\PSoC5\\ErikaOS_1_cortex_mx_ee_cpu.inc"
ARM GAS  C:\Users\robom\AppData\Local\Temp\cclz0sxz.s 			page 3


   1:Generated_Source\PSoC5/ErikaOS_1_cortex_mx_ee_cpu.inc **** /* ###*B*###
   2:Generated_Source\PSoC5/ErikaOS_1_cortex_mx_ee_cpu.inc ****  * ERIKA Enterprise - a tiny RTOS for small microcontrollers
   3:Generated_Source\PSoC5/ErikaOS_1_cortex_mx_ee_cpu.inc ****  *
   4:Generated_Source\PSoC5/ErikaOS_1_cortex_mx_ee_cpu.inc ****  * Copyright (C) 2002-2011  Evidence Srl
   5:Generated_Source\PSoC5/ErikaOS_1_cortex_mx_ee_cpu.inc ****  *
   6:Generated_Source\PSoC5/ErikaOS_1_cortex_mx_ee_cpu.inc ****  * This file is part of ERIKA Enterprise.
   7:Generated_Source\PSoC5/ErikaOS_1_cortex_mx_ee_cpu.inc ****  *
   8:Generated_Source\PSoC5/ErikaOS_1_cortex_mx_ee_cpu.inc ****  * ERIKA Enterprise is free software; you can redistribute it
   9:Generated_Source\PSoC5/ErikaOS_1_cortex_mx_ee_cpu.inc ****  * and/or modify it under the terms of the GNU General Public License
  10:Generated_Source\PSoC5/ErikaOS_1_cortex_mx_ee_cpu.inc ****  * version 2 as published by the Free Software Foundation, 
  11:Generated_Source\PSoC5/ErikaOS_1_cortex_mx_ee_cpu.inc ****  * (with a special exception described below).
  12:Generated_Source\PSoC5/ErikaOS_1_cortex_mx_ee_cpu.inc ****  *
  13:Generated_Source\PSoC5/ErikaOS_1_cortex_mx_ee_cpu.inc ****  * Linking this code statically or dynamically with other modules is
  14:Generated_Source\PSoC5/ErikaOS_1_cortex_mx_ee_cpu.inc ****  * making a combined work based on this code.  Thus, the terms and
  15:Generated_Source\PSoC5/ErikaOS_1_cortex_mx_ee_cpu.inc ****  * conditions of the GNU General Public License cover the whole
  16:Generated_Source\PSoC5/ErikaOS_1_cortex_mx_ee_cpu.inc ****  * combination.
  17:Generated_Source\PSoC5/ErikaOS_1_cortex_mx_ee_cpu.inc ****  *
  18:Generated_Source\PSoC5/ErikaOS_1_cortex_mx_ee_cpu.inc ****  * As a special exception, the copyright holders of this library give you
  19:Generated_Source\PSoC5/ErikaOS_1_cortex_mx_ee_cpu.inc ****  * permission to link this code with independent modules to produce an
  20:Generated_Source\PSoC5/ErikaOS_1_cortex_mx_ee_cpu.inc ****  * executable, regardless of the license terms of these independent
  21:Generated_Source\PSoC5/ErikaOS_1_cortex_mx_ee_cpu.inc ****  * modules, and to copy and distribute the resulting executable under
  22:Generated_Source\PSoC5/ErikaOS_1_cortex_mx_ee_cpu.inc ****  * terms of your choice, provided that you also meet, for each linked
  23:Generated_Source\PSoC5/ErikaOS_1_cortex_mx_ee_cpu.inc ****  * independent module, the terms and conditions of the license of that
  24:Generated_Source\PSoC5/ErikaOS_1_cortex_mx_ee_cpu.inc ****  * module.  An independent module is a module which is not derived from
  25:Generated_Source\PSoC5/ErikaOS_1_cortex_mx_ee_cpu.inc ****  * or based on this library.  If you modify this code, you may extend
  26:Generated_Source\PSoC5/ErikaOS_1_cortex_mx_ee_cpu.inc ****  * this exception to your version of the code, but you are not
  27:Generated_Source\PSoC5/ErikaOS_1_cortex_mx_ee_cpu.inc ****  * obligated to do so.  If you do not wish to do so, delete this
  28:Generated_Source\PSoC5/ErikaOS_1_cortex_mx_ee_cpu.inc ****  * exception statement from your version.
  29:Generated_Source\PSoC5/ErikaOS_1_cortex_mx_ee_cpu.inc ****  *
  30:Generated_Source\PSoC5/ErikaOS_1_cortex_mx_ee_cpu.inc ****  * ERIKA Enterprise is distributed in the hope that it will be
  31:Generated_Source\PSoC5/ErikaOS_1_cortex_mx_ee_cpu.inc ****  * useful, but WITHOUT ANY WARRANTY; without even the implied warranty
  32:Generated_Source\PSoC5/ErikaOS_1_cortex_mx_ee_cpu.inc ****  * of MERCHANTABILITY or FITNESS FOR A PARTICULAR PURPOSE.  See the
  33:Generated_Source\PSoC5/ErikaOS_1_cortex_mx_ee_cpu.inc ****  * GNU General Public License version 2 for more details.
  34:Generated_Source\PSoC5/ErikaOS_1_cortex_mx_ee_cpu.inc ****  *
  35:Generated_Source\PSoC5/ErikaOS_1_cortex_mx_ee_cpu.inc ****  * You should have received a copy of the GNU General Public License
  36:Generated_Source\PSoC5/ErikaOS_1_cortex_mx_ee_cpu.inc ****  * version 2 along with ERIKA Enterprise; if not, write to the
  37:Generated_Source\PSoC5/ErikaOS_1_cortex_mx_ee_cpu.inc ****  * Free Software Foundation, Inc., 51 Franklin Street, Fifth Floor,
  38:Generated_Source\PSoC5/ErikaOS_1_cortex_mx_ee_cpu.inc ****  * Boston, MA 02110-1301 USA.
  39:Generated_Source\PSoC5/ErikaOS_1_cortex_mx_ee_cpu.inc ****  * ###*E*### */
  40:Generated_Source\PSoC5/ErikaOS_1_cortex_mx_ee_cpu.inc **** 
  41:Generated_Source\PSoC5/ErikaOS_1_cortex_mx_ee_cpu.inc **** /** 
  42:Generated_Source\PSoC5/ErikaOS_1_cortex_mx_ee_cpu.inc **** 	@file ee_cpu.h
  43:Generated_Source\PSoC5/ErikaOS_1_cortex_mx_ee_cpu.inc **** 	@brief CPU-dependent part of HAL. Derived from pkg/cpu/pic30/inc/ee_cpu.h
  44:Generated_Source\PSoC5/ErikaOS_1_cortex_mx_ee_cpu.inc **** 	@author Gianluca Franchino
  45:Generated_Source\PSoC5/ErikaOS_1_cortex_mx_ee_cpu.inc **** 	@author Giuseppe Serano
  46:Generated_Source\PSoC5/ErikaOS_1_cortex_mx_ee_cpu.inc **** 	@date 2011
  47:Generated_Source\PSoC5/ErikaOS_1_cortex_mx_ee_cpu.inc **** */ 
  48:Generated_Source\PSoC5/ErikaOS_1_cortex_mx_ee_cpu.inc ****     
  49:Generated_Source\PSoC5/ErikaOS_1_cortex_mx_ee_cpu.inc **** /*
  50:Generated_Source\PSoC5/ErikaOS_1_cortex_mx_ee_cpu.inc ****  * PSoC Port and API Generation
  51:Generated_Source\PSoC5/ErikaOS_1_cortex_mx_ee_cpu.inc ****  * Carlos Fernando Meier Martinez
  52:Generated_Source\PSoC5/ErikaOS_1_cortex_mx_ee_cpu.inc ****  * Hochschule Darmstadt, Germany. 2017.
  53:Generated_Source\PSoC5/ErikaOS_1_cortex_mx_ee_cpu.inc ****  */
  54:Generated_Source\PSoC5/ErikaOS_1_cortex_mx_ee_cpu.inc **** 
  55:Generated_Source\PSoC5/ErikaOS_1_cortex_mx_ee_cpu.inc **** #ifndef __INCLUDE_CORTEX_MX_EE_CPU_H__
  56:Generated_Source\PSoC5/ErikaOS_1_cortex_mx_ee_cpu.inc **** #define __INCLUDE_CORTEX_MX_EE_CPU_H__
  57:Generated_Source\PSoC5/ErikaOS_1_cortex_mx_ee_cpu.inc **** 
ARM GAS  C:\Users\robom\AppData\Local\Temp\cclz0sxz.s 			page 4


  58:Generated_Source\PSoC5/ErikaOS_1_cortex_mx_ee_cpu.inc **** #include "ErikaOS_1_eecfg.inc"
  59:Generated_Source\PSoC5/ErikaOS_1_cortex_mx_ee_cpu.inc **** 
  60:Generated_Source\PSoC5/ErikaOS_1_cortex_mx_ee_cpu.inc **** 
  61:Generated_Source\PSoC5/ErikaOS_1_cortex_mx_ee_cpu.inc **** #ifdef __GNU__
  62:Generated_Source\PSoC5/ErikaOS_1_cortex_mx_ee_cpu.inc **** #include "ErikaOS_1_common_ee_compiler_gcc.inc"
  63:Generated_Source\PSoC5/ErikaOS_1_cortex_mx_ee_cpu.inc **** #endif
  64:Generated_Source\PSoC5/ErikaOS_1_cortex_mx_ee_cpu.inc **** 
  65:Generated_Source\PSoC5/ErikaOS_1_cortex_mx_ee_cpu.inc **** /* Initial stack offset (in words): Used in multistack. */
  66:Generated_Source\PSoC5/ErikaOS_1_cortex_mx_ee_cpu.inc **** #ifndef CORTEX_MX_INIT_TOS_OFFSET
  67:Generated_Source\PSoC5/ErikaOS_1_cortex_mx_ee_cpu.inc **** #define CORTEX_MX_INIT_TOS_OFFSET 10
  68:Generated_Source\PSoC5/ErikaOS_1_cortex_mx_ee_cpu.inc **** #endif
  69:Generated_Source\PSoC5/ErikaOS_1_cortex_mx_ee_cpu.inc **** 
  70:Generated_Source\PSoC5/ErikaOS_1_cortex_mx_ee_cpu.inc **** /*************************************************************************
  71:Generated_Source\PSoC5/ErikaOS_1_cortex_mx_ee_cpu.inc ****  HAL Types and structures
  72:Generated_Source\PSoC5/ErikaOS_1_cortex_mx_ee_cpu.inc ****  *************************************************************************/
  73:Generated_Source\PSoC5/ErikaOS_1_cortex_mx_ee_cpu.inc **** 
  74:Generated_Source\PSoC5/ErikaOS_1_cortex_mx_ee_cpu.inc **** /* Primitive data types */
  75:Generated_Source\PSoC5/ErikaOS_1_cortex_mx_ee_cpu.inc **** #include "ErikaOS_1_common_ee_types.inc"
  76:Generated_Source\PSoC5/ErikaOS_1_cortex_mx_ee_cpu.inc **** 
  77:Generated_Source\PSoC5/ErikaOS_1_cortex_mx_ee_cpu.inc **** typedef EE_UINT32 EE_UREG;
  78:Generated_Source\PSoC5/ErikaOS_1_cortex_mx_ee_cpu.inc **** typedef EE_INT32  EE_SREG;
  79:Generated_Source\PSoC5/ErikaOS_1_cortex_mx_ee_cpu.inc **** typedef EE_UINT32 EE_FREG;
  80:Generated_Source\PSoC5/ErikaOS_1_cortex_mx_ee_cpu.inc **** #define EE_UREG_SIZE 4
  81:Generated_Source\PSoC5/ErikaOS_1_cortex_mx_ee_cpu.inc **** 
  82:Generated_Source\PSoC5/ErikaOS_1_cortex_mx_ee_cpu.inc **** /* boolean type */
  83:Generated_Source\PSoC5/ErikaOS_1_cortex_mx_ee_cpu.inc **** #ifndef EE_TYPEBOOL
  84:Generated_Source\PSoC5/ErikaOS_1_cortex_mx_ee_cpu.inc **** typedef EE_UREG EE_TYPEBOOL;
  85:Generated_Source\PSoC5/ErikaOS_1_cortex_mx_ee_cpu.inc **** #endif
  86:Generated_Source\PSoC5/ErikaOS_1_cortex_mx_ee_cpu.inc **** 
  87:Generated_Source\PSoC5/ErikaOS_1_cortex_mx_ee_cpu.inc **** /* boolean true define */
  88:Generated_Source\PSoC5/ErikaOS_1_cortex_mx_ee_cpu.inc **** #ifndef EE_TRUE
  89:Generated_Source\PSoC5/ErikaOS_1_cortex_mx_ee_cpu.inc **** #define EE_TRUE ((EE_TYPEBOOL)1U)
  90:Generated_Source\PSoC5/ErikaOS_1_cortex_mx_ee_cpu.inc **** #endif
  91:Generated_Source\PSoC5/ErikaOS_1_cortex_mx_ee_cpu.inc **** 
  92:Generated_Source\PSoC5/ErikaOS_1_cortex_mx_ee_cpu.inc **** /* boolean false define */
  93:Generated_Source\PSoC5/ErikaOS_1_cortex_mx_ee_cpu.inc **** #ifndef EE_FALSE
  94:Generated_Source\PSoC5/ErikaOS_1_cortex_mx_ee_cpu.inc **** #define EE_FALSE ((EE_TYPEBOOL)0U)
  95:Generated_Source\PSoC5/ErikaOS_1_cortex_mx_ee_cpu.inc **** #endif
  96:Generated_Source\PSoC5/ErikaOS_1_cortex_mx_ee_cpu.inc **** 
  97:Generated_Source\PSoC5/ErikaOS_1_cortex_mx_ee_cpu.inc **** #define	EE_HWREG_PTR		volatile EE_UREG *
  98:Generated_Source\PSoC5/ErikaOS_1_cortex_mx_ee_cpu.inc **** #define	EE_HWREG_ADDR(x)	((EE_HWREG_PTR)(x))
  99:Generated_Source\PSoC5/ErikaOS_1_cortex_mx_ee_cpu.inc **** #define	EE_HWREG(x)		(*EE_HWREG_ADDR(x))
 100:Generated_Source\PSoC5/ErikaOS_1_cortex_mx_ee_cpu.inc **** 
 101:Generated_Source\PSoC5/ErikaOS_1_cortex_mx_ee_cpu.inc **** #ifdef __GNU__
 102:Generated_Source\PSoC5/ErikaOS_1_cortex_mx_ee_cpu.inc **** 
 103:Generated_Source\PSoC5/ErikaOS_1_cortex_mx_ee_cpu.inc **** /* Get current SP */
 104:Generated_Source\PSoC5/ErikaOS_1_cortex_mx_ee_cpu.inc **** __INLINE__ EE_UINT32  __current_sp(void)
 105:Generated_Source\PSoC5/ErikaOS_1_cortex_mx_ee_cpu.inc **** {
 106:Generated_Source\PSoC5/ErikaOS_1_cortex_mx_ee_cpu.inc **** EE_UINT32 temp;
 107:Generated_Source\PSoC5/ErikaOS_1_cortex_mx_ee_cpu.inc **** __ASM ("mov %0, sp" : "=r" (temp) : );
 108:Generated_Source\PSoC5/ErikaOS_1_cortex_mx_ee_cpu.inc **** return temp;
 109:Generated_Source\PSoC5/ErikaOS_1_cortex_mx_ee_cpu.inc **** }
 110:Generated_Source\PSoC5/ErikaOS_1_cortex_mx_ee_cpu.inc **** 
 111:Generated_Source\PSoC5/ErikaOS_1_cortex_mx_ee_cpu.inc **** /* Set a breakpoint */
 112:Generated_Source\PSoC5/ErikaOS_1_cortex_mx_ee_cpu.inc **** #define __breakpoint(value)	__ASM ("bkpt "#value)
 113:Generated_Source\PSoC5/ErikaOS_1_cortex_mx_ee_cpu.inc **** 
 114:Generated_Source\PSoC5/ErikaOS_1_cortex_mx_ee_cpu.inc **** #endif
ARM GAS  C:\Users\robom\AppData\Local\Temp\cclz0sxz.s 			page 5


 115:Generated_Source\PSoC5/ErikaOS_1_cortex_mx_ee_cpu.inc **** 
 116:Generated_Source\PSoC5/ErikaOS_1_cortex_mx_ee_cpu.inc **** /* ISR Priority representation type */
 117:Generated_Source\PSoC5/ErikaOS_1_cortex_mx_ee_cpu.inc **** typedef EE_UREG EE_TYPEISR2PRIO;
 118:Generated_Source\PSoC5/ErikaOS_1_cortex_mx_ee_cpu.inc **** 
 119:Generated_Source\PSoC5/ErikaOS_1_cortex_mx_ee_cpu.inc **** /* Thread IDs */
 120:Generated_Source\PSoC5/ErikaOS_1_cortex_mx_ee_cpu.inc **** typedef EE_INT32 EE_TID;
 121:Generated_Source\PSoC5/ErikaOS_1_cortex_mx_ee_cpu.inc **** 
 122:Generated_Source\PSoC5/ErikaOS_1_cortex_mx_ee_cpu.inc **** /* Thread IDs - unsigned version*/
 123:Generated_Source\PSoC5/ErikaOS_1_cortex_mx_ee_cpu.inc **** typedef EE_UINT32 EE_UTID;
 124:Generated_Source\PSoC5/ErikaOS_1_cortex_mx_ee_cpu.inc **** 
 125:Generated_Source\PSoC5/ErikaOS_1_cortex_mx_ee_cpu.inc **** /* Used by the common layer to decide whether to start a new thread */
 126:Generated_Source\PSoC5/ErikaOS_1_cortex_mx_ee_cpu.inc **** #define TID_IS_STACKED_MARK 0x80000000
 127:Generated_Source\PSoC5/ErikaOS_1_cortex_mx_ee_cpu.inc **** 
 128:Generated_Source\PSoC5/ErikaOS_1_cortex_mx_ee_cpu.inc **** /* EE_TYPEIRQ is currently unused */
 129:Generated_Source\PSoC5/ErikaOS_1_cortex_mx_ee_cpu.inc **** 
 130:Generated_Source\PSoC5/ErikaOS_1_cortex_mx_ee_cpu.inc **** /* XXX: define EE_TIME? */
 131:Generated_Source\PSoC5/ErikaOS_1_cortex_mx_ee_cpu.inc **** 
 132:Generated_Source\PSoC5/ErikaOS_1_cortex_mx_ee_cpu.inc **** /* Use the "standard" implementation */
 133:Generated_Source\PSoC5/ErikaOS_1_cortex_mx_ee_cpu.inc **** #include "ErikaOS_1_common_ee_hal_structs.inc"
 134:Generated_Source\PSoC5/ErikaOS_1_cortex_mx_ee_cpu.inc **** 
 135:Generated_Source\PSoC5/ErikaOS_1_cortex_mx_ee_cpu.inc **** /******************************************************************************
 136:Generated_Source\PSoC5/ErikaOS_1_cortex_mx_ee_cpu.inc ****  Application dependent data types
 137:Generated_Source\PSoC5/ErikaOS_1_cortex_mx_ee_cpu.inc ****  ******************************************************************************/
 138:Generated_Source\PSoC5/ErikaOS_1_cortex_mx_ee_cpu.inc **** 
 139:Generated_Source\PSoC5/ErikaOS_1_cortex_mx_ee_cpu.inc **** #ifdef	__HAS_TYPES_H__
 140:Generated_Source\PSoC5/ErikaOS_1_cortex_mx_ee_cpu.inc **** #include	"types.h"
 141:Generated_Source\PSoC5/ErikaOS_1_cortex_mx_ee_cpu.inc **** #endif
 142:Generated_Source\PSoC5/ErikaOS_1_cortex_mx_ee_cpu.inc **** 
 143:Generated_Source\PSoC5/ErikaOS_1_cortex_mx_ee_cpu.inc **** /******************************************************************************
 144:Generated_Source\PSoC5/ErikaOS_1_cortex_mx_ee_cpu.inc ****  CPU Peripherals
 145:Generated_Source\PSoC5/ErikaOS_1_cortex_mx_ee_cpu.inc ****  ******************************************************************************/
 146:Generated_Source\PSoC5/ErikaOS_1_cortex_mx_ee_cpu.inc **** 
 147:Generated_Source\PSoC5/ErikaOS_1_cortex_mx_ee_cpu.inc **** #ifdef __CORTEX_MX__
 148:Generated_Source\PSoC5/ErikaOS_1_cortex_mx_ee_cpu.inc **** #include "ErikaOS_1_cortex_mx_ee_nvic.inc"
 149:Generated_Source\PSoC5/ErikaOS_1_cortex_mx_ee_cpu.inc **** #include "ErikaOS_1_cortex_mx_ee_systick.inc"
 150:Generated_Source\PSoC5/ErikaOS_1_cortex_mx_ee_cpu.inc **** #endif
 151:Generated_Source\PSoC5/ErikaOS_1_cortex_mx_ee_cpu.inc **** 
 152:Generated_Source\PSoC5/ErikaOS_1_cortex_mx_ee_cpu.inc **** /******************************************************************************
 153:Generated_Source\PSoC5/ErikaOS_1_cortex_mx_ee_cpu.inc ****  HAL Variables
 154:Generated_Source\PSoC5/ErikaOS_1_cortex_mx_ee_cpu.inc ****  ******************************************************************************/
 155:Generated_Source\PSoC5/ErikaOS_1_cortex_mx_ee_cpu.inc **** 
 156:Generated_Source\PSoC5/ErikaOS_1_cortex_mx_ee_cpu.inc **** #ifdef __MULTI__
 157:Generated_Source\PSoC5/ErikaOS_1_cortex_mx_ee_cpu.inc **** 
 158:Generated_Source\PSoC5/ErikaOS_1_cortex_mx_ee_cpu.inc **** /* Top-of-stack of each private stack */
 159:Generated_Source\PSoC5/ErikaOS_1_cortex_mx_ee_cpu.inc **** extern struct EE_TOS EE_cortex_mx_system_tos[];
 160:Generated_Source\PSoC5/ErikaOS_1_cortex_mx_ee_cpu.inc **** //#define	EE_std_system_tos EE_cortex_mx_system_tos
 161:Generated_Source\PSoC5/ErikaOS_1_cortex_mx_ee_cpu.inc **** 
 162:Generated_Source\PSoC5/ErikaOS_1_cortex_mx_ee_cpu.inc **** /* Index of the current stack */
 163:Generated_Source\PSoC5/ErikaOS_1_cortex_mx_ee_cpu.inc **** extern EE_UREG EE_cortex_mx_active_tos;
 164:Generated_Source\PSoC5/ErikaOS_1_cortex_mx_ee_cpu.inc **** #define	EE_hal_active_tos EE_cortex_mx_active_tos
 165:Generated_Source\PSoC5/ErikaOS_1_cortex_mx_ee_cpu.inc **** 
 166:Generated_Source\PSoC5/ErikaOS_1_cortex_mx_ee_cpu.inc **** /*extern	EE_UREG EE_pic30_thread_tos[];
 167:Generated_Source\PSoC5/ErikaOS_1_cortex_mx_ee_cpu.inc **** #define	EE_std_thread_tos EE_pic30_thread_tos */
 168:Generated_Source\PSoC5/ErikaOS_1_cortex_mx_ee_cpu.inc **** #endif /* __MULTI__ */
 169:Generated_Source\PSoC5/ErikaOS_1_cortex_mx_ee_cpu.inc **** 
 170:Generated_Source\PSoC5/ErikaOS_1_cortex_mx_ee_cpu.inc **** /*********************************************************************
 171:Generated_Source\PSoC5/ErikaOS_1_cortex_mx_ee_cpu.inc ****  Cortex M0 interrupt disabling/enabling
ARM GAS  C:\Users\robom\AppData\Local\Temp\cclz0sxz.s 			page 6


 172:Generated_Source\PSoC5/ErikaOS_1_cortex_mx_ee_cpu.inc ****  *********************************************************************/
 173:Generated_Source\PSoC5/ErikaOS_1_cortex_mx_ee_cpu.inc **** 
 174:Generated_Source\PSoC5/ErikaOS_1_cortex_mx_ee_cpu.inc **** /* Used to check the value returned by EE_cortex_mx_disableIRQ */
 175:Generated_Source\PSoC5/ErikaOS_1_cortex_mx_ee_cpu.inc **** #define EE_cortex_mx_are_IRQs_enabled(ie) ((ie) ^ 1)
 176:Generated_Source\PSoC5/ErikaOS_1_cortex_mx_ee_cpu.inc **** 
 177:Generated_Source\PSoC5/ErikaOS_1_cortex_mx_ee_cpu.inc **** /**
 178:Generated_Source\PSoC5/ErikaOS_1_cortex_mx_ee_cpu.inc ****  * Enable interrupts
 179:Generated_Source\PSoC5/ErikaOS_1_cortex_mx_ee_cpu.inc ****  */
 180:Generated_Source\PSoC5/ErikaOS_1_cortex_mx_ee_cpu.inc **** __INLINE__ void  EE_cortex_mx_enableIRQ(void)
 181:Generated_Source\PSoC5/ErikaOS_1_cortex_mx_ee_cpu.inc **** {
 182:Generated_Source\PSoC5/ErikaOS_1_cortex_mx_ee_cpu.inc **** #ifdef __IAR__
 183:Generated_Source\PSoC5/ErikaOS_1_cortex_mx_ee_cpu.inc **** 	__ASM ("cpsie i");
 184:Generated_Source\PSoC5/ErikaOS_1_cortex_mx_ee_cpu.inc **** #else	/* __IAR__ */
 185:Generated_Source\PSoC5/ErikaOS_1_cortex_mx_ee_cpu.inc **** #ifdef __CCS__
 186:Generated_Source\PSoC5/ErikaOS_1_cortex_mx_ee_cpu.inc **** 	__ASM ("    cpsie    i\n");
 187:Generated_Source\PSoC5/ErikaOS_1_cortex_mx_ee_cpu.inc **** #else	/* __CCS__ */
 188:Generated_Source\PSoC5/ErikaOS_1_cortex_mx_ee_cpu.inc **** #ifdef __KEIL__
 189:Generated_Source\PSoC5/ErikaOS_1_cortex_mx_ee_cpu.inc **** 	__enable_irq();
 190:Generated_Source\PSoC5/ErikaOS_1_cortex_mx_ee_cpu.inc **** #else	/* __KEIL__ */
 191:Generated_Source\PSoC5/ErikaOS_1_cortex_mx_ee_cpu.inc **** 	__ASM volatile("cpsie i");
 192:Generated_Source\PSoC5/ErikaOS_1_cortex_mx_ee_cpu.inc **** #endif	/* !__KEIL__ */
 193:Generated_Source\PSoC5/ErikaOS_1_cortex_mx_ee_cpu.inc **** #endif	/* !__CCS__ */
 194:Generated_Source\PSoC5/ErikaOS_1_cortex_mx_ee_cpu.inc **** #endif	/* !__IAR__ */
 195:Generated_Source\PSoC5/ErikaOS_1_cortex_mx_ee_cpu.inc **** }
 196:Generated_Source\PSoC5/ErikaOS_1_cortex_mx_ee_cpu.inc **** 
 197:Generated_Source\PSoC5/ErikaOS_1_cortex_mx_ee_cpu.inc **** /**
 198:Generated_Source\PSoC5/ErikaOS_1_cortex_mx_ee_cpu.inc ****  * Disable interrupts
 199:Generated_Source\PSoC5/ErikaOS_1_cortex_mx_ee_cpu.inc ****  */
 200:Generated_Source\PSoC5/ErikaOS_1_cortex_mx_ee_cpu.inc **** __INLINE__ void  EE_cortex_mx_disableIRQ(void)
 201:Generated_Source\PSoC5/ErikaOS_1_cortex_mx_ee_cpu.inc **** {
 202:Generated_Source\PSoC5/ErikaOS_1_cortex_mx_ee_cpu.inc **** #ifdef __IAR__
 203:Generated_Source\PSoC5/ErikaOS_1_cortex_mx_ee_cpu.inc **** 	__ASM ("cpsid i");
 204:Generated_Source\PSoC5/ErikaOS_1_cortex_mx_ee_cpu.inc **** #else	/* __IAR__ */
 205:Generated_Source\PSoC5/ErikaOS_1_cortex_mx_ee_cpu.inc **** #ifdef __CCS__
 206:Generated_Source\PSoC5/ErikaOS_1_cortex_mx_ee_cpu.inc **** 	__ASM ("    cpsid    i\n");
 207:Generated_Source\PSoC5/ErikaOS_1_cortex_mx_ee_cpu.inc **** #else	/* __CCS__ */
 208:Generated_Source\PSoC5/ErikaOS_1_cortex_mx_ee_cpu.inc **** #ifdef __KEIL__
 209:Generated_Source\PSoC5/ErikaOS_1_cortex_mx_ee_cpu.inc **** 	__disable_irq();
 210:Generated_Source\PSoC5/ErikaOS_1_cortex_mx_ee_cpu.inc **** #else	/* __KEIL__ */
 211:Generated_Source\PSoC5/ErikaOS_1_cortex_mx_ee_cpu.inc **** 	__ASM volatile("cpsid i");
 212:Generated_Source\PSoC5/ErikaOS_1_cortex_mx_ee_cpu.inc **** #endif	/* !__KEIL__ */
 213:Generated_Source\PSoC5/ErikaOS_1_cortex_mx_ee_cpu.inc **** #endif	/* !__CCS__ */
 214:Generated_Source\PSoC5/ErikaOS_1_cortex_mx_ee_cpu.inc **** #endif	/* !__IAR__ */
 215:Generated_Source\PSoC5/ErikaOS_1_cortex_mx_ee_cpu.inc **** }
 216:Generated_Source\PSoC5/ErikaOS_1_cortex_mx_ee_cpu.inc **** 
 217:Generated_Source\PSoC5/ErikaOS_1_cortex_mx_ee_cpu.inc **** /**
 218:Generated_Source\PSoC5/ErikaOS_1_cortex_mx_ee_cpu.inc ****  * Resume interrupts
 219:Generated_Source\PSoC5/ErikaOS_1_cortex_mx_ee_cpu.inc ****  */
 220:Generated_Source\PSoC5/ErikaOS_1_cortex_mx_ee_cpu.inc **** __INLINE__ void  EE_cortex_mx_resumeIRQ(EE_FREG f)
 221:Generated_Source\PSoC5/ErikaOS_1_cortex_mx_ee_cpu.inc **** {
 222:Generated_Source\PSoC5/ErikaOS_1_cortex_mx_ee_cpu.inc **** #ifdef __IAR__
 223:Generated_Source\PSoC5/ErikaOS_1_cortex_mx_ee_cpu.inc **** 	__set_PRIMASK(f);
 224:Generated_Source\PSoC5/ErikaOS_1_cortex_mx_ee_cpu.inc **** #else	/* __IAR__ */
 225:Generated_Source\PSoC5/ErikaOS_1_cortex_mx_ee_cpu.inc **** #ifdef __CCS__
 226:Generated_Source\PSoC5/ErikaOS_1_cortex_mx_ee_cpu.inc **** 	__ASM ("    msr    primask, r0\n");
 227:Generated_Source\PSoC5/ErikaOS_1_cortex_mx_ee_cpu.inc **** #else	/* __CCS__ */
 228:Generated_Source\PSoC5/ErikaOS_1_cortex_mx_ee_cpu.inc **** #ifdef __KEIL__
ARM GAS  C:\Users\robom\AppData\Local\Temp\cclz0sxz.s 			page 7


 229:Generated_Source\PSoC5/ErikaOS_1_cortex_mx_ee_cpu.inc **** 	register EE_FREG PRIMASK __ASM("primask");
 230:Generated_Source\PSoC5/ErikaOS_1_cortex_mx_ee_cpu.inc **** 	PRIMASK = f;
 231:Generated_Source\PSoC5/ErikaOS_1_cortex_mx_ee_cpu.inc **** #else	/* __KEIL__ */
 232:Generated_Source\PSoC5/ErikaOS_1_cortex_mx_ee_cpu.inc **** 	__ASM volatile("msr primask, %0" :: "r" (f));
 233:Generated_Source\PSoC5/ErikaOS_1_cortex_mx_ee_cpu.inc **** #endif	/* !__KEIL__ */
 234:Generated_Source\PSoC5/ErikaOS_1_cortex_mx_ee_cpu.inc **** #endif	/* !__CCS__ */
 235:Generated_Source\PSoC5/ErikaOS_1_cortex_mx_ee_cpu.inc **** #endif	/* !__IAR__ */
 236:Generated_Source\PSoC5/ErikaOS_1_cortex_mx_ee_cpu.inc **** }
 237:Generated_Source\PSoC5/ErikaOS_1_cortex_mx_ee_cpu.inc **** 
 238:Generated_Source\PSoC5/ErikaOS_1_cortex_mx_ee_cpu.inc **** /**
 239:Generated_Source\PSoC5/ErikaOS_1_cortex_mx_ee_cpu.inc ****  * Suspend interrupts
 240:Generated_Source\PSoC5/ErikaOS_1_cortex_mx_ee_cpu.inc ****  */
 241:Generated_Source\PSoC5/ErikaOS_1_cortex_mx_ee_cpu.inc **** __INLINE__ EE_FREG  EE_cortex_mx_suspendIRQ(void)
 242:Generated_Source\PSoC5/ErikaOS_1_cortex_mx_ee_cpu.inc **** {
 243:Generated_Source\PSoC5/ErikaOS_1_cortex_mx_ee_cpu.inc **** #ifndef __CCS__
 244:Generated_Source\PSoC5/ErikaOS_1_cortex_mx_ee_cpu.inc **** 	EE_FREG istat;
 245:Generated_Source\PSoC5/ErikaOS_1_cortex_mx_ee_cpu.inc **** #endif
 246:Generated_Source\PSoC5/ErikaOS_1_cortex_mx_ee_cpu.inc **** #ifdef __IAR__
 247:Generated_Source\PSoC5/ErikaOS_1_cortex_mx_ee_cpu.inc **** 	 istat = __get_PRIMASK();
 248:Generated_Source\PSoC5/ErikaOS_1_cortex_mx_ee_cpu.inc **** 	__ASM ("cpsid i");
 249:Generated_Source\PSoC5/ErikaOS_1_cortex_mx_ee_cpu.inc **** #else	/* __IAR__ */
 250:Generated_Source\PSoC5/ErikaOS_1_cortex_mx_ee_cpu.inc **** #ifdef __CCS__
 251:Generated_Source\PSoC5/ErikaOS_1_cortex_mx_ee_cpu.inc **** 	__ASM ("    mrs     r0, primask\n"
 252:Generated_Source\PSoC5/ErikaOS_1_cortex_mx_ee_cpu.inc **** 	       "    cpsid   i\n"
 253:Generated_Source\PSoC5/ErikaOS_1_cortex_mx_ee_cpu.inc **** 	       "    bx      lr\n");
 254:Generated_Source\PSoC5/ErikaOS_1_cortex_mx_ee_cpu.inc **** #else	/* __CCS__ */
 255:Generated_Source\PSoC5/ErikaOS_1_cortex_mx_ee_cpu.inc **** #ifdef __KEIL__
 256:Generated_Source\PSoC5/ErikaOS_1_cortex_mx_ee_cpu.inc **** 	register EE_FREG PRIMASK __ASM("primask");
 257:Generated_Source\PSoC5/ErikaOS_1_cortex_mx_ee_cpu.inc **** 	istat = PRIMASK;
 258:Generated_Source\PSoC5/ErikaOS_1_cortex_mx_ee_cpu.inc **** 	__disable_irq();
 259:Generated_Source\PSoC5/ErikaOS_1_cortex_mx_ee_cpu.inc **** #else	/* __KEIL__ */
 260:Generated_Source\PSoC5/ErikaOS_1_cortex_mx_ee_cpu.inc **** 	__ASM volatile ("mrs %0, primask" : "=r" (istat) );
  43              		.loc 2 260 0
  44              		.syntax unified
  45              	@ 260 "Generated_Source\PSoC5\ErikaOS_1_cortex_mx_ee_cpu.inc" 1
  46 0002 EFF31084 		mrs r4, primask
  47              	@ 0 "" 2
  48              	.LVL1:
 261:Generated_Source\PSoC5/ErikaOS_1_cortex_mx_ee_cpu.inc **** 	__ASM volatile ("cpsid i");
  49              		.loc 2 261 0
  50              	@ 261 "Generated_Source\PSoC5\ErikaOS_1_cortex_mx_ee_cpu.inc" 1
  51 0006 72B6     		cpsid i
  52              	@ 0 "" 2
  53              	.LVL2:
  54              		.thumb
  55              		.syntax unified
  56              	.LBE27:
  57              	.LBE26:
  58              	.LBE25:
  73:Generated_Source\PSoC5/ErikaOS_1_ee_alget.c ****   /* Error Value */
  74:Generated_Source\PSoC5/ErikaOS_1_ee_alget.c ****   register StatusType ev;
  75:Generated_Source\PSoC5/ErikaOS_1_ee_alget.c ****   /* Primitive Lock Procedure */
  76:Generated_Source\PSoC5/ErikaOS_1_ee_alget.c ****   EE_OS_DECLARE_AND_ENTER_CRITICAL_SECTION();
  77:Generated_Source\PSoC5/ErikaOS_1_ee_alget.c **** 
  78:Generated_Source\PSoC5/ErikaOS_1_ee_alget.c ****   EE_ORTI_set_service_in(EE_SERVICETRACE_GETALARM);
  79:Generated_Source\PSoC5/ErikaOS_1_ee_alget.c **** 
  80:Generated_Source\PSoC5/ErikaOS_1_ee_alget.c ****   EE_as_monitoring_the_stack();
ARM GAS  C:\Users\robom\AppData\Local\Temp\cclz0sxz.s 			page 8


  81:Generated_Source\PSoC5/ErikaOS_1_ee_alget.c **** 
  82:Generated_Source\PSoC5/ErikaOS_1_ee_alget.c **** #ifdef EE_SERVICE_PROTECTION__
  83:Generated_Source\PSoC5/ErikaOS_1_ee_alget.c ****   /* [OS093]: If interrupts are disabled/suspended by a Task/OsIsr and the
  84:Generated_Source\PSoC5/ErikaOS_1_ee_alget.c ****       Task/OsIsr calls any OS service (excluding the interrupt services)
  85:Generated_Source\PSoC5/ErikaOS_1_ee_alget.c ****       then the Operating System shall ignore the service AND shall return
  86:Generated_Source\PSoC5/ErikaOS_1_ee_alget.c ****       E_OS_DISABLEDINT if the service returns a StatusType value. */
  87:Generated_Source\PSoC5/ErikaOS_1_ee_alget.c ****   /* [OS088]: If an OS-Application makes a service call from the wrong context
  88:Generated_Source\PSoC5/ErikaOS_1_ee_alget.c ****       AND is currently not inside a Category 1 ISR the Operating System module
  89:Generated_Source\PSoC5/ErikaOS_1_ee_alget.c ****       shall not perform the requested action (the service call shall have no
  90:Generated_Source\PSoC5/ErikaOS_1_ee_alget.c ****       effect), and return E_OS_CALLEVEL (see [12], section 13.1) or the
  91:Generated_Source\PSoC5/ErikaOS_1_ee_alget.c ****       "invalid value" of  the service. (BSW11009, BSW11013) */
  92:Generated_Source\PSoC5/ErikaOS_1_ee_alget.c ****   /* GetAlarm is callable by Task, ISR2, ErrorHook Pre and Post TaskHook */
  93:Generated_Source\PSoC5/ErikaOS_1_ee_alget.c ****   if ( (EE_as_execution_context > ErrorHook_Context) &&
  94:Generated_Source\PSoC5/ErikaOS_1_ee_alget.c ****        (EE_as_execution_context != PreTaskHook_Context) &&
  95:Generated_Source\PSoC5/ErikaOS_1_ee_alget.c ****        (EE_as_execution_context != PostTaskHook_Context) ) {
  96:Generated_Source\PSoC5/ErikaOS_1_ee_alget.c ****     ev = E_OS_CALLEVEL;
  97:Generated_Source\PSoC5/ErikaOS_1_ee_alget.c ****   } else if ( EE_oo_check_disableint_error() ) {
  98:Generated_Source\PSoC5/ErikaOS_1_ee_alget.c ****     ev = E_OS_DISABLEDINT;
  99:Generated_Source\PSoC5/ErikaOS_1_ee_alget.c ****   } else
 100:Generated_Source\PSoC5/ErikaOS_1_ee_alget.c **** #endif /* EE_SERVICE_PROTECTION__ */
 101:Generated_Source\PSoC5/ErikaOS_1_ee_alget.c ****   /* [OS566]: The Operating System API shall check in extended mode all pointer
 102:Generated_Source\PSoC5/ErikaOS_1_ee_alget.c ****       argument for NULL pointer and return OS_E_PARAMETER_POINTER 
 103:Generated_Source\PSoC5/ErikaOS_1_ee_alget.c ****       if such argument is NULL. +
 104:Generated_Source\PSoC5/ErikaOS_1_ee_alget.c ****       MISRA dictate NULL check for pointers always. */
 105:Generated_Source\PSoC5/ErikaOS_1_ee_alget.c ****   if ( Tick == NULL ) {
  59              		.loc 1 105 0
  60 0008 19B3     		cbz	r1, .L5
 106:Generated_Source\PSoC5/ErikaOS_1_ee_alget.c ****     ev = E_OS_PARAM_POINTER;
 107:Generated_Source\PSoC5/ErikaOS_1_ee_alget.c ****   } else
 108:Generated_Source\PSoC5/ErikaOS_1_ee_alget.c **** #if (defined(EE_AS_OSAPPLICATIONS__)) && (defined(EE_SERVICE_PROTECTION__)) \
 109:Generated_Source\PSoC5/ErikaOS_1_ee_alget.c ****   && (defined(__EE_MEMORY_PROTECTION__))
 110:Generated_Source\PSoC5/ErikaOS_1_ee_alget.c ****     /* [SWS_Os_00051]: If an invalid address (address is not writable by this
 111:Generated_Source\PSoC5/ErikaOS_1_ee_alget.c ****         OS-Application) is passed as an out-parameter to an Operating System
 112:Generated_Source\PSoC5/ErikaOS_1_ee_alget.c ****         service, the Operating System module shall return the status code
 113:Generated_Source\PSoC5/ErikaOS_1_ee_alget.c ****         E_OS_ILLEGAL_ADDRESS. (SRS_Os_11009, SRS_Os_11013) */
 114:Generated_Source\PSoC5/ErikaOS_1_ee_alget.c ****   if ( !OSMEMORY_IS_WRITEABLE(EE_hal_get_app_mem_access(EE_as_active_app,
 115:Generated_Source\PSoC5/ErikaOS_1_ee_alget.c ****     Tick, sizeof(*Tick))) )
 116:Generated_Source\PSoC5/ErikaOS_1_ee_alget.c ****   {
 117:Generated_Source\PSoC5/ErikaOS_1_ee_alget.c ****     ev = E_OS_ILLEGAL_ADDRESS;
 118:Generated_Source\PSoC5/ErikaOS_1_ee_alget.c ****   } else
 119:Generated_Source\PSoC5/ErikaOS_1_ee_alget.c **** #endif /* EE_AS_OSAPPLICATIONS__ && __EE_MEMORY_PROTECTION__ &&
 120:Generated_Source\PSoC5/ErikaOS_1_ee_alget.c ****   EE_SERVICE_PROTECTION__ */
 121:Generated_Source\PSoC5/ErikaOS_1_ee_alget.c **** 
 122:Generated_Source\PSoC5/ErikaOS_1_ee_alget.c **** #ifdef EE_AS_RPC__
 123:Generated_Source\PSoC5/ErikaOS_1_ee_alget.c ****   if ( EE_AS_ID_REMOTE(AlarmID) )
 124:Generated_Source\PSoC5/ErikaOS_1_ee_alget.c ****   {
 125:Generated_Source\PSoC5/ErikaOS_1_ee_alget.c ****     EE_os_param as_tick;
 126:Generated_Source\PSoC5/ErikaOS_1_ee_alget.c ****     EE_os_param unmarked_alarm_id;
 127:Generated_Source\PSoC5/ErikaOS_1_ee_alget.c ****     unmarked_alarm_id.value_param = EE_AS_UNMARK_REMOTE_ID(AlarmID);
 128:Generated_Source\PSoC5/ErikaOS_1_ee_alget.c ****     as_tick.tick_ref = Tick;
 129:Generated_Source\PSoC5/ErikaOS_1_ee_alget.c **** 
 130:Generated_Source\PSoC5/ErikaOS_1_ee_alget.c ****     /* forward the request to another CPU in synchronous way */
 131:Generated_Source\PSoC5/ErikaOS_1_ee_alget.c ****     ev = EE_as_rpc(OSServiceId_GetAlarm, unmarked_alarm_id,
 132:Generated_Source\PSoC5/ErikaOS_1_ee_alget.c ****       as_tick, EE_OS_INVALID_PARAM);
 133:Generated_Source\PSoC5/ErikaOS_1_ee_alget.c ****   } else {
 134:Generated_Source\PSoC5/ErikaOS_1_ee_alget.c **** #endif /* EE_AS_RPC__ */
 135:Generated_Source\PSoC5/ErikaOS_1_ee_alget.c **** 
ARM GAS  C:\Users\robom\AppData\Local\Temp\cclz0sxz.s 			page 9


 136:Generated_Source\PSoC5/ErikaOS_1_ee_alget.c **** /* If local alarm are not defined cut everything else */
 137:Generated_Source\PSoC5/ErikaOS_1_ee_alget.c **** #if (defined(EE_MAX_ALARM)) && (EE_MAX_ALARM > 0U)
 138:Generated_Source\PSoC5/ErikaOS_1_ee_alget.c **** 
 139:Generated_Source\PSoC5/ErikaOS_1_ee_alget.c **** #if (defined(EE_AS_OSAPPLICATIONS__)) && (defined(EE_SERVICE_PROTECTION__))
 140:Generated_Source\PSoC5/ErikaOS_1_ee_alget.c ****     if ( AlarmID >= EE_MAX_ALARM ) {
 141:Generated_Source\PSoC5/ErikaOS_1_ee_alget.c ****       ev = E_OS_ID;
 142:Generated_Source\PSoC5/ErikaOS_1_ee_alget.c ****     } else if ( EE_ALARM_ACCESS_ERR(AlarmID, EE_as_active_app) ) {
 143:Generated_Source\PSoC5/ErikaOS_1_ee_alget.c ****       ev = E_OS_ACCESS;
 144:Generated_Source\PSoC5/ErikaOS_1_ee_alget.c ****     } else
 145:Generated_Source\PSoC5/ErikaOS_1_ee_alget.c **** #elif defined(__OO_EXTENDED_STATUS__)
 146:Generated_Source\PSoC5/ErikaOS_1_ee_alget.c ****     if ( AlarmID >= EE_MAX_ALARM ) {
  61              		.loc 1 146 0
  62 000a 0228     		cmp	r0, #2
  63 000c 23D8     		bhi	.L6
 147:Generated_Source\PSoC5/ErikaOS_1_ee_alget.c ****       ev = E_OS_ID;
 148:Generated_Source\PSoC5/ErikaOS_1_ee_alget.c ****     } else
 149:Generated_Source\PSoC5/ErikaOS_1_ee_alget.c **** #endif /* EE_AS_OSAPPLICATIONS__ || E_SERVICE_PROTECTION__ ||
 150:Generated_Source\PSoC5/ErikaOS_1_ee_alget.c **** __OO_EXTENDED_STATUS__ */
 151:Generated_Source\PSoC5/ErikaOS_1_ee_alget.c ****     if ( EE_oo_counter_object_RAM[AlarmID].used == EE_FALSE ) {
  64              		.loc 1 151 0
  65 000e 0301     		lsls	r3, r0, #4
  66 0010 174A     		ldr	r2, .L9
  67 0012 D358     		ldr	r3, [r2, r3]
  68 0014 0BB3     		cbz	r3, .L7
  69              	.LBB28:
 152:Generated_Source\PSoC5/ErikaOS_1_ee_alget.c ****       ev = E_OS_NOFUNC;
 153:Generated_Source\PSoC5/ErikaOS_1_ee_alget.c ****     } else {
 154:Generated_Source\PSoC5/ErikaOS_1_ee_alget.c ****       register CounterObjectType  current;
 155:Generated_Source\PSoC5/ErikaOS_1_ee_alget.c ****       /* to compute the relative value in ticks, we have to follow the counter
 156:Generated_Source\PSoC5/ErikaOS_1_ee_alget.c ****          delay chain */
 157:Generated_Source\PSoC5/ErikaOS_1_ee_alget.c ****       current = EE_counter_RAM[EE_oo_counter_object_ROM[AlarmID].c].first;
  70              		.loc 1 157 0
  71 0016 00EB4002 		add	r2, r0, r0, lsl #1
  72 001a 9300     		lsls	r3, r2, #2
  73 001c 154A     		ldr	r2, .L9+4
  74 001e D258     		ldr	r2, [r2, r3]
  75 0020 154B     		ldr	r3, .L9+8
  76 0022 03EBC203 		add	r3, r3, r2, lsl #3
  77 0026 5B68     		ldr	r3, [r3, #4]
  78              	.LVL3:
 158:Generated_Source\PSoC5/ErikaOS_1_ee_alget.c **** 
 159:Generated_Source\PSoC5/ErikaOS_1_ee_alget.c ****       /* Added 1 because alarm list is a "zero as next tick" list
 160:Generated_Source\PSoC5/ErikaOS_1_ee_alget.c ****          (so zero count one) */
 161:Generated_Source\PSoC5/ErikaOS_1_ee_alget.c ****       *Tick = EE_oo_counter_object_RAM[current].delta + 1U;
  79              		.loc 1 161 0
  80 0028 114A     		ldr	r2, .L9
  81 002a 02EB0312 		add	r2, r2, r3, lsl #4
  82 002e 9268     		ldr	r2, [r2, #8]
  83 0030 0132     		adds	r2, r2, #1
  84 0032 0A60     		str	r2, [r1]
 162:Generated_Source\PSoC5/ErikaOS_1_ee_alget.c **** 
 163:Generated_Source\PSoC5/ErikaOS_1_ee_alget.c ****       while ( current != AlarmID ) {
  85              		.loc 1 163 0
  86 0034 09E0     		b	.L3
  87              	.L4:
 164:Generated_Source\PSoC5/ErikaOS_1_ee_alget.c ****         current = EE_oo_counter_object_RAM[current].next;
  88              		.loc 1 164 0
ARM GAS  C:\Users\robom\AppData\Local\Temp\cclz0sxz.s 			page 10


  89 0036 0E4A     		ldr	r2, .L9
  90 0038 02EB0313 		add	r3, r2, r3, lsl #4
  91              	.LVL4:
  92 003c DB68     		ldr	r3, [r3, #12]
  93              	.LVL5:
 165:Generated_Source\PSoC5/ErikaOS_1_ee_alget.c ****         *Tick += EE_oo_counter_object_RAM[current].delta;
  94              		.loc 1 165 0
  95 003e 02EB0312 		add	r2, r2, r3, lsl #4
  96 0042 9268     		ldr	r2, [r2, #8]
  97 0044 0D68     		ldr	r5, [r1]
  98 0046 2A44     		add	r2, r2, r5
  99 0048 0A60     		str	r2, [r1]
 100              	.L3:
 163:Generated_Source\PSoC5/ErikaOS_1_ee_alget.c ****         current = EE_oo_counter_object_RAM[current].next;
 101              		.loc 1 163 0
 102 004a 8342     		cmp	r3, r0
 103 004c F3D1     		bne	.L4
 166:Generated_Source\PSoC5/ErikaOS_1_ee_alget.c ****       }
 167:Generated_Source\PSoC5/ErikaOS_1_ee_alget.c **** 
 168:Generated_Source\PSoC5/ErikaOS_1_ee_alget.c ****       ev = E_OK;
 104              		.loc 1 168 0
 105 004e 0025     		movs	r5, #0
 106 0050 04E0     		b	.L2
 107              	.LVL6:
 108              	.L5:
 109              	.LBE28:
 106:Generated_Source\PSoC5/ErikaOS_1_ee_alget.c ****   } else
 110              		.loc 1 106 0
 111 0052 0E25     		movs	r5, #14
 112 0054 02E0     		b	.L2
 113              	.L6:
 147:Generated_Source\PSoC5/ErikaOS_1_ee_alget.c ****     } else
 114              		.loc 1 147 0
 115 0056 0325     		movs	r5, #3
 116 0058 00E0     		b	.L2
 117              	.L7:
 152:Generated_Source\PSoC5/ErikaOS_1_ee_alget.c ****     } else {
 118              		.loc 1 152 0
 119 005a 0525     		movs	r5, #5
 120              	.L2:
 121              	.LVL7:
 169:Generated_Source\PSoC5/ErikaOS_1_ee_alget.c ****     }
 170:Generated_Source\PSoC5/ErikaOS_1_ee_alget.c **** #else /* EE_MAX_ALARM > 0U */
 171:Generated_Source\PSoC5/ErikaOS_1_ee_alget.c ****     {
 172:Generated_Source\PSoC5/ErikaOS_1_ee_alget.c ****       ev = E_OS_ID;
 173:Generated_Source\PSoC5/ErikaOS_1_ee_alget.c ****     }
 174:Generated_Source\PSoC5/ErikaOS_1_ee_alget.c **** #endif /* EE_MAX_ALARM > 0U */
 175:Generated_Source\PSoC5/ErikaOS_1_ee_alget.c **** 
 176:Generated_Source\PSoC5/ErikaOS_1_ee_alget.c **** #ifdef EE_AS_RPC__
 177:Generated_Source\PSoC5/ErikaOS_1_ee_alget.c ****   }
 178:Generated_Source\PSoC5/ErikaOS_1_ee_alget.c **** #endif /* EE_AS_RPC__ */
 179:Generated_Source\PSoC5/ErikaOS_1_ee_alget.c **** 
 180:Generated_Source\PSoC5/ErikaOS_1_ee_alget.c ****   if ( ev != E_OK ) {
 181:Generated_Source\PSoC5/ErikaOS_1_ee_alget.c ****     EE_ORTI_set_lasterror(ev);
 182:Generated_Source\PSoC5/ErikaOS_1_ee_alget.c ****     EE_oo_notify_error_GetAlarm(AlarmID, Tick, ev);
 183:Generated_Source\PSoC5/ErikaOS_1_ee_alget.c ****   }
 184:Generated_Source\PSoC5/ErikaOS_1_ee_alget.c **** 
ARM GAS  C:\Users\robom\AppData\Local\Temp\cclz0sxz.s 			page 11


 185:Generated_Source\PSoC5/ErikaOS_1_ee_alget.c ****   EE_ORTI_set_service_out(EE_SERVICETRACE_GETALARM);
 186:Generated_Source\PSoC5/ErikaOS_1_ee_alget.c **** 
 187:Generated_Source\PSoC5/ErikaOS_1_ee_alget.c **** #if (__OO_configUSE_TRACE_FACILITY == 1)
 188:Generated_Source\PSoC5/ErikaOS_1_ee_alget.c ****     traceALARM_GET_ALARM(AlarmID, *Tick)
 122              		.loc 1 188 0
 123 005c 0A68     		ldr	r2, [r1]
 124 005e 00F10A01 		add	r1, r0, #10
 125              	.LVL8:
 126 0062 A320     		movs	r0, #163
 127              	.LVL9:
 128 0064 FFF7FEFF 		bl	prvTraceStoreEvent2
 129              	.LVL10:
 130              	.LBB29:
 131              	.LBB30:
 132              	.LBB31:
 232:Generated_Source\PSoC5/ErikaOS_1_cortex_mx_ee_cpu.inc **** #endif	/* !__KEIL__ */
 133              		.loc 2 232 0
 134              		.syntax unified
 135              	@ 232 "Generated_Source\PSoC5\ErikaOS_1_cortex_mx_ee_cpu.inc" 1
 136 0068 84F31088 		msr primask, r4
 137              	@ 0 "" 2
 138              	.LVL11:
 139              		.thumb
 140              		.syntax unified
 141              	.LBE31:
 142              	.LBE30:
 143              	.LBE29:
 189:Generated_Source\PSoC5/ErikaOS_1_ee_alget.c **** #endif 
 190:Generated_Source\PSoC5/ErikaOS_1_ee_alget.c **** 
 191:Generated_Source\PSoC5/ErikaOS_1_ee_alget.c ****   EE_OS_EXIT_CRITICAL_SECTION();
 192:Generated_Source\PSoC5/ErikaOS_1_ee_alget.c **** 
 193:Generated_Source\PSoC5/ErikaOS_1_ee_alget.c ****   return ev;
 194:Generated_Source\PSoC5/ErikaOS_1_ee_alget.c **** }
 144              		.loc 1 194 0
 145 006c 2846     		mov	r0, r5
 146 006e 38BD     		pop	{r3, r4, r5, pc}
 147              	.LVL12:
 148              	.L10:
 149              		.align	2
 150              	.L9:
 151 0070 00000000 		.word	EE_oo_counter_object_RAM
 152 0074 00000000 		.word	EE_oo_counter_object_ROM
 153 0078 00000000 		.word	EE_counter_RAM
 154              		.cfi_endproc
 155              	.LFE139:
 156              		.size	EE_oo_GetAlarm, .-EE_oo_GetAlarm
 157              		.text
 158              	.Letext0:
 159              		.file 3 "c:\\program files (x86)\\cypress\\psoc creator\\4.4\\psoc creator\\import\\gnu\\arm\\5.4.
 160              		.file 4 "Generated_Source\\PSoC5\\ErikaOS_1_common_ee_types.inc"
 161              		.file 5 "Generated_Source\\PSoC5\\ErikaOS_1_ee_oo_common.inc"
 162              		.file 6 "c:\\program files (x86)\\cypress\\psoc creator\\4.4\\psoc creator\\import\\gnu\\arm\\5.4.
 163              		.file 7 "Generated_Source\\PSoC5\\ErikaOS_1_cortex_mx_ee_internal.inc"
 164              		.file 8 "Generated_Source\\PSoC5\\ErikaOS_1_common_ee_primitives.inc"
 165              		.file 9 "Generated_Source\\PSoC5\\ErikaOS_1_cortex_mx_ee_context.inc"
 166              		.file 10 "Generated_Source\\PSoC5\\ErikaOS_1_ee_oo_intfunc.inc"
 167              		.file 11 "Generated_Source\\PSoC5/core_cm3.h"
ARM GAS  C:\Users\robom\AppData\Local\Temp\cclz0sxz.s 			page 12


 168              		.file 12 "Generated_Source\\PSoC5\\ErikaOS_1_ee_oo_internal.inc"
 169              		.file 13 "Generated_Source\\PSoC5\\ErikaOS_1_ee_as_internal.inc"