ARM GAS  C:\Users\robom\AppData\Local\Temp\ccAs7Q3f.s 			page 1


   1              		.syntax unified
   2              		.cpu cortex-m3
   3              		.fpu softvfp
   4              		.eabi_attribute 20, 1
   5              		.eabi_attribute 21, 1
   6              		.eabi_attribute 23, 3
   7              		.eabi_attribute 24, 1
   8              		.eabi_attribute 25, 1
   9              		.eabi_attribute 26, 1
  10              		.eabi_attribute 30, 1
  11              		.eabi_attribute 34, 1
  12              		.eabi_attribute 18, 4
  13              		.thumb
  14              		.syntax unified
  15              		.file	"game.c"
  16              		.text
  17              	.Ltext0:
  18              		.cfi_sections	.debug_frame
  19              		.section	.text.start,"ax",%progbits
  20              		.align	2
  21              		.global	start
  22              		.thumb
  23              		.thumb_func
  24              		.type	start, %function
  25              	start:
  26              	.LFB111:
  27              		.file 1 "game.c"
   1:game.c        **** /* ========================================
   2:game.c        ****  *
   3:game.c        ****  * Copyright YOUR COMPANY, THE YEAR
   4:game.c        ****  * All Rights Reserved
   5:game.c        ****  * UNPUBLISHED, LICENSED SOFTWARE.
   6:game.c        ****  *
   7:game.c        ****  * CONFIDENTIAL AND PROPRIETARY INFORMATION
   8:game.c        ****  * WHICH IS THE PROPERTY OF your company.
   9:game.c        ****  *
  10:game.c        ****  * ========================================
  11:game.c        **** */
  12:game.c        **** 
  13:game.c        **** #include "game.h"
  14:game.c        **** 
  15:game.c        **** /* Helper functions for each state of the state machine */
  16:game.c        **** RC_t start(EventMaskType ev, uint8_t *SSDnum, uint8_t *randTime)
  17:game.c        **** {
  28              		.loc 1 17 0
  29              		.cfi_startproc
  30              		@ args = 0, pretend = 0, frame = 0
  31              		@ frame_needed = 0, uses_anonymous_args = 0
  32              	.LVL0:
  33 0000 70B5     		push	{r4, r5, r6, lr}
  34              		.cfi_def_cfa_offset 16
  35              		.cfi_offset 4, -16
  36              		.cfi_offset 5, -12
  37              		.cfi_offset 6, -8
  38              		.cfi_offset 14, -4
  39 0002 0E46     		mov	r6, r1
  40 0004 1546     		mov	r5, r2
ARM GAS  C:\Users\robom\AppData\Local\Temp\ccAs7Q3f.s 			page 2


  18:game.c        ****     if(((ev & ev_button) && (BUTTON_2_Read() == 1)) || ((ev & ev_button) && (BUTTON_1_Read() == 1))
  41              		.loc 1 18 0
  42 0006 10F00104 		ands	r4, r0, #1
  43 000a 03D0     		beq	.L2
  44              		.loc 1 18 0 is_stmt 0 discriminator 1
  45 000c FFF7FEFF 		bl	BUTTON_2_Read
  46              	.LVL1:
  47 0010 0128     		cmp	r0, #1
  48 0012 04D0     		beq	.L3
  49              	.L2:
  50              		.loc 1 18 0 discriminator 3
  51 0014 2CB3     		cbz	r4, .L4
  52              		.loc 1 18 0 discriminator 4
  53 0016 FFF7FEFF 		bl	BUTTON_1_Read
  54              	.LVL2:
  55 001a 0128     		cmp	r0, #1
  56 001c 21D1     		bne	.L4
  57              	.L3:
  19:game.c        **** 	{
  20:game.c        ****        *SSDnum = (rand() % 2) + 1; //ssd value
  58              		.loc 1 20 0 is_stmt 1
  59 001e FFF7FEFF 		bl	rand
  60              	.LVL3:
  61 0022 124B     		ldr	r3, .L7
  62 0024 1840     		ands	r0, r0, r3
  63 0026 03D5     		bpl	.L5
  64 0028 0138     		subs	r0, r0, #1
  65 002a 60F00100 		orn	r0, r0, #1
  66 002e 0130     		adds	r0, r0, #1
  67              	.L5:
  68 0030 0130     		adds	r0, r0, #1
  69 0032 3070     		strb	r0, [r6]
  21:game.c        **** 	   *randTime = (rand() % 3 + 1) * 1000; //random wait time value
  70              		.loc 1 21 0
  71 0034 FFF7FEFF 		bl	rand
  72              	.LVL4:
  73 0038 0D4B     		ldr	r3, .L7+4
  74 003a 83FB0023 		smull	r2, r3, r3, r0
  75 003e A3EBE073 		sub	r3, r3, r0, asr #31
  76 0042 03EB4303 		add	r3, r3, r3, lsl #1
  77 0046 C31A     		subs	r3, r0, r3
  78 0048 0133     		adds	r3, r3, #1
  79 004a A3EB8303 		sub	r3, r3, r3, lsl #2
  80 004e DA00     		lsls	r2, r3, #3
  81 0050 2A70     		strb	r2, [r5]
  22:game.c        **** 	   CancelAlarm(alrm_randTime);
  82              		.loc 1 22 0
  83 0052 0020     		movs	r0, #0
  84 0054 FFF7FEFF 		bl	EE_oo_CancelAlarm
  85              	.LVL5:
  23:game.c        **** 	   SetRelAlarm(alrm_randTime,*randTime,0); // 2 seconds for test purposes
  86              		.loc 1 23 0
  87 0058 0022     		movs	r2, #0
  88 005a 2978     		ldrb	r1, [r5]	@ zero_extendqisi2
  89 005c 1046     		mov	r0, r2
  90 005e FFF7FEFF 		bl	EE_oo_SetRelAlarm
  91              	.LVL6:
ARM GAS  C:\Users\robom\AppData\Local\Temp\ccAs7Q3f.s 			page 3


  92              	.L4:
  24:game.c        **** 	}
  25:game.c        **** 	state = STATE_DISPLAYSSD;
  93              		.loc 1 25 0
  94 0062 0122     		movs	r2, #1
  95 0064 034B     		ldr	r3, .L7+8
  96 0066 1A70     		strb	r2, [r3]
  26:game.c        ****                 
  27:game.c        ****     return RC_SUCCESS;
  28:game.c        **** }
  97              		.loc 1 28 0
  98 0068 0020     		movs	r0, #0
  99 006a 70BD     		pop	{r4, r5, r6, pc}
 100              	.LVL7:
 101              	.L8:
 102              		.align	2
 103              	.L7:
 104 006c 01000080 		.word	-2147483647
 105 0070 56555555 		.word	1431655766
 106 0074 00000000 		.word	state
 107              		.cfi_endproc
 108              	.LFE111:
 109              		.size	start, .-start
 110              		.section	.text.displayssd,"ax",%progbits
 111              		.align	2
 112              		.global	displayssd
 113              		.thumb
 114              		.thumb_func
 115              		.type	displayssd, %function
 116              	displayssd:
 117              	.LFB112:
  29:game.c        **** 
  30:game.c        **** RC_t displayssd(EventMaskType ev, uint8_t *SSDnum)
  31:game.c        **** {
 118              		.loc 1 31 0
 119              		.cfi_startproc
 120              		@ args = 0, pretend = 0, frame = 0
 121              		@ frame_needed = 0, uses_anonymous_args = 0
 122              	.LVL8:
  32:game.c        ****     if(ev & ev_randTime)
 123              		.loc 1 32 0
 124 0000 10F0040F 		tst	r0, #4
 125 0004 20D0     		beq	.L14
  31:game.c        ****     if(ev & ev_randTime)
 126              		.loc 1 31 0
 127 0006 08B5     		push	{r3, lr}
 128              		.cfi_def_cfa_offset 8
 129              		.cfi_offset 3, -8
 130              		.cfi_offset 14, -4
  33:game.c        **** 	{
  34:game.c        **** 		if((uint8_t)SSDnum == 1)
 131              		.loc 1 34 0
 132 0008 C9B2     		uxtb	r1, r1
 133              	.LVL9:
 134 000a 0129     		cmp	r1, #1
 135 000c 07D1     		bne	.L11
  35:game.c        **** 		{
ARM GAS  C:\Users\robom\AppData\Local\Temp\ccAs7Q3f.s 			page 4


  36:game.c        **** 			SEVEN_Set(SEVEN_0,1);
 136              		.loc 1 36 0
 137 000e 0020     		movs	r0, #0
 138              	.LVL10:
 139 0010 FFF7FEFF 		bl	SEVEN_Set
 140              	.LVL11:
  37:game.c        **** 			SEVEN_Set(SEVEN_1,1);
 141              		.loc 1 37 0
 142 0014 0121     		movs	r1, #1
 143 0016 0846     		mov	r0, r1
 144 0018 FFF7FEFF 		bl	SEVEN_Set
 145              	.LVL12:
 146 001c 07E0     		b	.L12
 147              	.LVL13:
 148              	.L11:
  38:game.c        **** 		}
  39:game.c        **** 		else
  40:game.c        **** 		{
  41:game.c        **** 			SEVEN_Set(SEVEN_0,2);
 149              		.loc 1 41 0
 150 001e 0221     		movs	r1, #2
 151 0020 0020     		movs	r0, #0
 152              	.LVL14:
 153 0022 FFF7FEFF 		bl	SEVEN_Set
 154              	.LVL15:
  42:game.c        **** 			SEVEN_Set(SEVEN_1,2);
 155              		.loc 1 42 0
 156 0026 0221     		movs	r1, #2
 157 0028 0120     		movs	r0, #1
 158 002a FFF7FEFF 		bl	SEVEN_Set
 159              	.LVL16:
 160              	.L12:
  43:game.c        **** 		}
  44:game.c        ****         CancelAlarm(alrm_measureTime);
 161              		.loc 1 44 0
 162 002e 0220     		movs	r0, #2
 163 0030 FFF7FEFF 		bl	EE_oo_CancelAlarm
 164              	.LVL17:
  45:game.c        ****         SetRelAlarm(alrm_measureTime,1,1);
 165              		.loc 1 45 0
 166 0034 0122     		movs	r2, #1
 167 0036 1146     		mov	r1, r2
 168 0038 0220     		movs	r0, #2
 169 003a FFF7FEFF 		bl	EE_oo_SetRelAlarm
 170              	.LVL18:
  46:game.c        ****         state = STATE_BUTTONPRESS;
 171              		.loc 1 46 0
 172 003e 0222     		movs	r2, #2
 173 0040 024B     		ldr	r3, .L15
 174 0042 1A70     		strb	r2, [r3]
  47:game.c        **** 	}
  48:game.c        ****     return RC_SUCCESS;
  49:game.c        **** }
 175              		.loc 1 49 0
 176 0044 0020     		movs	r0, #0
 177 0046 08BD     		pop	{r3, pc}
 178              	.LVL19:
ARM GAS  C:\Users\robom\AppData\Local\Temp\ccAs7Q3f.s 			page 5


 179              	.L14:
 180              		.cfi_def_cfa_offset 0
 181              		.cfi_restore 3
 182              		.cfi_restore 14
 183 0048 0020     		movs	r0, #0
 184              	.LVL20:
 185 004a 7047     		bx	lr
 186              	.L16:
 187              		.align	2
 188              	.L15:
 189 004c 00000000 		.word	state
 190              		.cfi_endproc
 191              	.LFE112:
 192              		.size	displayssd, .-displayssd
 193              		.section	.text.startMessage,"ax",%progbits
 194              		.align	2
 195              		.global	startMessage
 196              		.thumb
 197              		.thumb_func
 198              		.type	startMessage, %function
 199              	startMessage:
 200              	.LFB115:
  50:game.c        **** 
  51:game.c        **** RC_t buttonpress(EventMaskType ev, uint8_t *SSDnum)
  52:game.c        **** {
  53:game.c        ****     CancelAlarm(alrm_measureTime);
  54:game.c        **** 	if(ev & ev_button)
  55:game.c        **** 	{
  56:game.c        ****         // set timeout alarm for 1 second if no buttons are pressed
  57:game.c        ****         CancelAlarm(alrm_1000ms);
  58:game.c        ****         SetRelAlarm(alrm_1000ms,1000,0);
  59:game.c        ****         
  60:game.c        **** 		if((uint8_t)SSDnum == 1) //if ssd is number 1, user must press the right button
  61:game.c        **** 		{
  62:game.c        **** 			if((ev & ev_button) && (BUTTON_1_Read() == 1))
  63:game.c        **** 			{
  64:game.c        ****                 correctMessage();
  65:game.c        ****             }
  66:game.c        ****             else
  67:game.c        ****             {
  68:game.c        ****                 incorrectMessage();
  69:game.c        ****             }
  70:game.c        **** 		}
  71:game.c        ****         else //if ssd is number 2, user must press the left button
  72:game.c        ****         {
  73:game.c        ****             if((ev & ev_button) && (BUTTON_1_Read() == 1))
  74:game.c        ****             {
  75:game.c        ****                 incorrectMessage();
  76:game.c        ****             }
  77:game.c        ****             else
  78:game.c        ****             {
  79:game.c        ****                 correctMessage();
  80:game.c        ****             }
  81:game.c        ****         }
  82:game.c        ****         //clear the displays
  83:game.c        ****         SEVEN_Clear(SEVEN_0);
  84:game.c        ****         SEVEN_Clear(SEVEN_1); 
ARM GAS  C:\Users\robom\AppData\Local\Temp\ccAs7Q3f.s 			page 6


  85:game.c        **** 
  86:game.c        ****         state = STATE_START;
  87:game.c        **** 	}
  88:game.c        ****     if(GetAlarm(alrm_1000ms,(unsigned int*)1000))
  89:game.c        ****     {
  90:game.c        ****         state = STATE_TOOSLOW;
  91:game.c        ****     }  
  92:game.c        ****     
  93:game.c        ****     return RC_SUCCESS;
  94:game.c        **** }
  95:game.c        **** 
  96:game.c        **** RC_t tooslow(EventMaskType ev)
  97:game.c        **** {
  98:game.c        ****     if(ev & ev_timeout)
  99:game.c        ****     {
 100:game.c        ****         CancelAlarm(alrm_1000ms);
 101:game.c        **** 
 102:game.c        **** 		//clear the displays
 103:game.c        **** 		SEVEN_Clear(SEVEN_0);
 104:game.c        **** 		SEVEN_Clear(SEVEN_1);
 105:game.c        ****         
 106:game.c        ****         tooslowMessage();
 107:game.c        ****     }
 108:game.c        ****     state = STATE_START;
 109:game.c        ****     
 110:game.c        ****     return RC_SUCCESS;
 111:game.c        **** }
 112:game.c        **** 
 113:game.c        **** /* Message Functions to display to UART */
 114:game.c        **** 
 115:game.c        **** void startMessage()
 116:game.c        **** {
 201              		.loc 1 116 0
 202              		.cfi_startproc
 203              		@ args = 0, pretend = 0, frame = 0
 204              		@ frame_needed = 0, uses_anonymous_args = 0
 205 0000 08B5     		push	{r3, lr}
 206              		.cfi_def_cfa_offset 8
 207              		.cfi_offset 3, -8
 208              		.cfi_offset 14, -4
 117:game.c        ****     UART_LOG_PutString("Press the left button if a 2 is displayed or press the right button if a 1 
 209              		.loc 1 117 0
 210 0002 0248     		ldr	r0, .L19
 211 0004 FFF7FEFF 		bl	UART_LOG_PutString
 212              	.LVL21:
 213 0008 08BD     		pop	{r3, pc}
 214              	.L20:
 215 000a 00BF     		.align	2
 216              	.L19:
 217 000c 00000000 		.word	.LC0
 218              		.cfi_endproc
 219              	.LFE115:
 220              		.size	startMessage, .-startMessage
 221              		.section	.text.correctMessage,"ax",%progbits
 222              		.align	2
 223              		.global	correctMessage
 224              		.thumb
ARM GAS  C:\Users\robom\AppData\Local\Temp\ccAs7Q3f.s 			page 7


 225              		.thumb_func
 226              		.type	correctMessage, %function
 227              	correctMessage:
 228              	.LFB116:
 118:game.c        **** }
 119:game.c        **** 
 120:game.c        **** void correctMessage()
 121:game.c        **** {
 229              		.loc 1 121 0
 230              		.cfi_startproc
 231              		@ args = 0, pretend = 0, frame = 0
 232              		@ frame_needed = 0, uses_anonymous_args = 0
 233 0000 08B5     		push	{r3, lr}
 234              		.cfi_def_cfa_offset 8
 235              		.cfi_offset 3, -8
 236              		.cfi_offset 14, -4
 122:game.c        ****     UART_LOG_PutString("correct button pressed\n");
 237              		.loc 1 122 0
 238 0002 0548     		ldr	r0, .L23
 239 0004 FFF7FEFF 		bl	UART_LOG_PutString
 240              	.LVL22:
 123:game.c        ****     UART_LOG_PutString("Press any button to go to the next round\n");
 241              		.loc 1 123 0
 242 0008 0448     		ldr	r0, .L23+4
 243 000a FFF7FEFF 		bl	UART_LOG_PutString
 244              	.LVL23:
 124:game.c        ****     UART_LOG_PutString("=======================================================\n");
 245              		.loc 1 124 0
 246 000e 0448     		ldr	r0, .L23+8
 247 0010 FFF7FEFF 		bl	UART_LOG_PutString
 248              	.LVL24:
 249 0014 08BD     		pop	{r3, pc}
 250              	.L24:
 251 0016 00BF     		.align	2
 252              	.L23:
 253 0018 5C000000 		.word	.LC1
 254 001c 74000000 		.word	.LC2
 255 0020 A0000000 		.word	.LC3
 256              		.cfi_endproc
 257              	.LFE116:
 258              		.size	correctMessage, .-correctMessage
 259              		.section	.text.incorrectMessage,"ax",%progbits
 260              		.align	2
 261              		.global	incorrectMessage
 262              		.thumb
 263              		.thumb_func
 264              		.type	incorrectMessage, %function
 265              	incorrectMessage:
 266              	.LFB117:
 125:game.c        **** }
 126:game.c        **** 
 127:game.c        **** void incorrectMessage()
 128:game.c        **** {
 267              		.loc 1 128 0
 268              		.cfi_startproc
 269              		@ args = 0, pretend = 0, frame = 0
 270              		@ frame_needed = 0, uses_anonymous_args = 0
ARM GAS  C:\Users\robom\AppData\Local\Temp\ccAs7Q3f.s 			page 8


 271 0000 08B5     		push	{r3, lr}
 272              		.cfi_def_cfa_offset 8
 273              		.cfi_offset 3, -8
 274              		.cfi_offset 14, -4
 129:game.c        ****     UART_LOG_PutString("Incorrect button pressed\n");
 275              		.loc 1 129 0
 276 0002 0548     		ldr	r0, .L27
 277 0004 FFF7FEFF 		bl	UART_LOG_PutString
 278              	.LVL25:
 130:game.c        ****     UART_LOG_PutString("Press any button to go to the next round\n");
 279              		.loc 1 130 0
 280 0008 0448     		ldr	r0, .L27+4
 281 000a FFF7FEFF 		bl	UART_LOG_PutString
 282              	.LVL26:
 131:game.c        ****     UART_LOG_PutString("=======================================================\n");
 283              		.loc 1 131 0
 284 000e 0448     		ldr	r0, .L27+8
 285 0010 FFF7FEFF 		bl	UART_LOG_PutString
 286              	.LVL27:
 287 0014 08BD     		pop	{r3, pc}
 288              	.L28:
 289 0016 00BF     		.align	2
 290              	.L27:
 291 0018 DC000000 		.word	.LC4
 292 001c 74000000 		.word	.LC2
 293 0020 A0000000 		.word	.LC3
 294              		.cfi_endproc
 295              	.LFE117:
 296              		.size	incorrectMessage, .-incorrectMessage
 297              		.section	.text.buttonpress,"ax",%progbits
 298              		.align	2
 299              		.global	buttonpress
 300              		.thumb
 301              		.thumb_func
 302              		.type	buttonpress, %function
 303              	buttonpress:
 304              	.LFB113:
  52:game.c        ****     CancelAlarm(alrm_measureTime);
 305              		.loc 1 52 0
 306              		.cfi_startproc
 307              		@ args = 0, pretend = 0, frame = 0
 308              		@ frame_needed = 0, uses_anonymous_args = 0
 309              	.LVL28:
 310 0000 38B5     		push	{r3, r4, r5, lr}
 311              		.cfi_def_cfa_offset 16
 312              		.cfi_offset 3, -16
 313              		.cfi_offset 4, -12
 314              		.cfi_offset 5, -8
 315              		.cfi_offset 14, -4
 316 0002 0446     		mov	r4, r0
 317 0004 0D46     		mov	r5, r1
  53:game.c        **** 	if(ev & ev_button)
 318              		.loc 1 53 0
 319 0006 0220     		movs	r0, #2
 320              	.LVL29:
 321 0008 FFF7FEFF 		bl	EE_oo_CancelAlarm
 322              	.LVL30:
ARM GAS  C:\Users\robom\AppData\Local\Temp\ccAs7Q3f.s 			page 9


  54:game.c        **** 	{
 323              		.loc 1 54 0
 324 000c 14F00104 		ands	r4, r4, #1
 325              	.LVL31:
 326 0010 29D0     		beq	.L30
  57:game.c        ****         SetRelAlarm(alrm_1000ms,1000,0);
 327              		.loc 1 57 0
 328 0012 0120     		movs	r0, #1
 329 0014 FFF7FEFF 		bl	EE_oo_CancelAlarm
 330              	.LVL32:
  58:game.c        ****         
 331              		.loc 1 58 0
 332 0018 0022     		movs	r2, #0
 333 001a 4FF47A71 		mov	r1, #1000
 334 001e 0120     		movs	r0, #1
 335 0020 FFF7FEFF 		bl	EE_oo_SetRelAlarm
 336              	.LVL33:
  60:game.c        **** 		{
 337              		.loc 1 60 0
 338 0024 EDB2     		uxtb	r5, r5
 339              	.LVL34:
 340 0026 012D     		cmp	r5, #1
 341 0028 0AD1     		bne	.L31
  62:game.c        **** 			{
 342              		.loc 1 62 0
 343 002a 34B1     		cbz	r4, .L32
  62:game.c        **** 			{
 344              		.loc 1 62 0 is_stmt 0 discriminator 1
 345 002c FFF7FEFF 		bl	BUTTON_1_Read
 346              	.LVL35:
 347 0030 0128     		cmp	r0, #1
 348 0032 02D1     		bne	.L32
  64:game.c        ****             }
 349              		.loc 1 64 0 is_stmt 1
 350 0034 FFF7FEFF 		bl	correctMessage
 351              	.LVL36:
 352 0038 0CE0     		b	.L33
 353              	.L32:
  68:game.c        ****             }
 354              		.loc 1 68 0
 355 003a FFF7FEFF 		bl	incorrectMessage
 356              	.LVL37:
 357 003e 09E0     		b	.L33
 358              	.L31:
  73:game.c        ****             {
 359              		.loc 1 73 0
 360 0040 34B1     		cbz	r4, .L34
  73:game.c        ****             {
 361              		.loc 1 73 0 is_stmt 0 discriminator 1
 362 0042 FFF7FEFF 		bl	BUTTON_1_Read
 363              	.LVL38:
 364 0046 0128     		cmp	r0, #1
 365 0048 02D1     		bne	.L34
  75:game.c        ****             }
 366              		.loc 1 75 0 is_stmt 1
 367 004a FFF7FEFF 		bl	incorrectMessage
 368              	.LVL39:
ARM GAS  C:\Users\robom\AppData\Local\Temp\ccAs7Q3f.s 			page 10


 369 004e 01E0     		b	.L33
 370              	.L34:
  79:game.c        ****             }
 371              		.loc 1 79 0
 372 0050 FFF7FEFF 		bl	correctMessage
 373              	.LVL40:
 374              	.L33:
  83:game.c        ****         SEVEN_Clear(SEVEN_1); 
 375              		.loc 1 83 0
 376 0054 0020     		movs	r0, #0
 377 0056 FFF7FEFF 		bl	SEVEN_Clear
 378              	.LVL41:
  84:game.c        **** 
 379              		.loc 1 84 0
 380 005a 0120     		movs	r0, #1
 381 005c FFF7FEFF 		bl	SEVEN_Clear
 382              	.LVL42:
  86:game.c        **** 	}
 383              		.loc 1 86 0
 384 0060 0022     		movs	r2, #0
 385 0062 064B     		ldr	r3, .L37
 386 0064 1A70     		strb	r2, [r3]
 387              	.L30:
  88:game.c        ****     {
 388              		.loc 1 88 0
 389 0066 4FF47A71 		mov	r1, #1000
 390 006a 0120     		movs	r0, #1
 391 006c FFF7FEFF 		bl	EE_oo_GetAlarm
 392              	.LVL43:
 393 0070 10B1     		cbz	r0, .L35
  90:game.c        ****     }  
 394              		.loc 1 90 0
 395 0072 0322     		movs	r2, #3
 396 0074 014B     		ldr	r3, .L37
 397 0076 1A70     		strb	r2, [r3]
 398              	.L35:
  94:game.c        **** 
 399              		.loc 1 94 0
 400 0078 0020     		movs	r0, #0
 401 007a 38BD     		pop	{r3, r4, r5, pc}
 402              	.L38:
 403              		.align	2
 404              	.L37:
 405 007c 00000000 		.word	state
 406              		.cfi_endproc
 407              	.LFE113:
 408              		.size	buttonpress, .-buttonpress
 409              		.section	.text.tooslowMessage,"ax",%progbits
 410              		.align	2
 411              		.global	tooslowMessage
 412              		.thumb
 413              		.thumb_func
 414              		.type	tooslowMessage, %function
 415              	tooslowMessage:
 416              	.LFB118:
 132:game.c        **** }
 133:game.c        **** 
ARM GAS  C:\Users\robom\AppData\Local\Temp\ccAs7Q3f.s 			page 11


 134:game.c        **** void tooslowMessage()
 135:game.c        **** {
 417              		.loc 1 135 0
 418              		.cfi_startproc
 419              		@ args = 0, pretend = 0, frame = 0
 420              		@ frame_needed = 0, uses_anonymous_args = 0
 421 0000 08B5     		push	{r3, lr}
 422              		.cfi_def_cfa_offset 8
 423              		.cfi_offset 3, -8
 424              		.cfi_offset 14, -4
 136:game.c        ****     UART_LOG_PutString("TIMEOUT!\n");
 425              		.loc 1 136 0
 426 0002 0548     		ldr	r0, .L41
 427 0004 FFF7FEFF 		bl	UART_LOG_PutString
 428              	.LVL44:
 137:game.c        ****     UART_LOG_PutString("Press any button to go to the next round\n");
 429              		.loc 1 137 0
 430 0008 0448     		ldr	r0, .L41+4
 431 000a FFF7FEFF 		bl	UART_LOG_PutString
 432              	.LVL45:
 138:game.c        ****     UART_LOG_PutString("=======================================================\n");
 433              		.loc 1 138 0
 434 000e 0448     		ldr	r0, .L41+8
 435 0010 FFF7FEFF 		bl	UART_LOG_PutString
 436              	.LVL46:
 437 0014 08BD     		pop	{r3, pc}
 438              	.L42:
 439 0016 00BF     		.align	2
 440              	.L41:
 441 0018 F8000000 		.word	.LC5
 442 001c 74000000 		.word	.LC2
 443 0020 A0000000 		.word	.LC3
 444              		.cfi_endproc
 445              	.LFE118:
 446              		.size	tooslowMessage, .-tooslowMessage
 447              		.section	.text.tooslow,"ax",%progbits
 448              		.align	2
 449              		.global	tooslow
 450              		.thumb
 451              		.thumb_func
 452              		.type	tooslow, %function
 453              	tooslow:
 454              	.LFB114:
  97:game.c        ****     if(ev & ev_timeout)
 455              		.loc 1 97 0
 456              		.cfi_startproc
 457              		@ args = 0, pretend = 0, frame = 0
 458              		@ frame_needed = 0, uses_anonymous_args = 0
 459              	.LVL47:
 460 0000 08B5     		push	{r3, lr}
 461              		.cfi_def_cfa_offset 8
 462              		.cfi_offset 3, -8
 463              		.cfi_offset 14, -4
  98:game.c        ****     {
 464              		.loc 1 98 0
 465 0002 10F0020F 		tst	r0, #2
 466 0006 0AD0     		beq	.L44
ARM GAS  C:\Users\robom\AppData\Local\Temp\ccAs7Q3f.s 			page 12


 100:game.c        **** 
 467              		.loc 1 100 0
 468 0008 0120     		movs	r0, #1
 469              	.LVL48:
 470 000a FFF7FEFF 		bl	EE_oo_CancelAlarm
 471              	.LVL49:
 103:game.c        **** 		SEVEN_Clear(SEVEN_1);
 472              		.loc 1 103 0
 473 000e 0020     		movs	r0, #0
 474 0010 FFF7FEFF 		bl	SEVEN_Clear
 475              	.LVL50:
 104:game.c        ****         
 476              		.loc 1 104 0
 477 0014 0120     		movs	r0, #1
 478 0016 FFF7FEFF 		bl	SEVEN_Clear
 479              	.LVL51:
 106:game.c        ****     }
 480              		.loc 1 106 0
 481 001a FFF7FEFF 		bl	tooslowMessage
 482              	.LVL52:
 483              	.L44:
 108:game.c        ****     
 484              		.loc 1 108 0
 485 001e 0020     		movs	r0, #0
 486 0020 014B     		ldr	r3, .L46
 487 0022 1870     		strb	r0, [r3]
 111:game.c        **** 
 488              		.loc 1 111 0
 489 0024 08BD     		pop	{r3, pc}
 490              	.L47:
 491 0026 00BF     		.align	2
 492              	.L46:
 493 0028 00000000 		.word	state
 494              		.cfi_endproc
 495              	.LFE114:
 496              		.size	tooslow, .-tooslow
 497              		.section	.text.finalMessage,"ax",%progbits
 498              		.align	2
 499              		.global	finalMessage
 500              		.thumb
 501              		.thumb_func
 502              		.type	finalMessage, %function
 503              	finalMessage:
 504              	.LFB119:
 139:game.c        **** }
 140:game.c        **** 
 141:game.c        **** void finalMessage()
 142:game.c        **** {
 505              		.loc 1 142 0
 506              		.cfi_startproc
 507              		@ args = 0, pretend = 0, frame = 0
 508              		@ frame_needed = 0, uses_anonymous_args = 0
 509              		@ link register save eliminated.
 510 0000 7047     		bx	lr
 511              		.cfi_endproc
 512              	.LFE119:
 513              		.size	finalMessage, .-finalMessage
ARM GAS  C:\Users\robom\AppData\Local\Temp\ccAs7Q3f.s 			page 13


 514 0002 00BF     		.section	.rodata.str1.4,"aMS",%progbits,1
 515              		.align	2
 516              	.LC0:
 517 0000 50726573 		.ascii	"Press the left button if a 2 is displayed or press "
 517      73207468 
 517      65206C65 
 517      66742062 
 517      7574746F 
 518 0033 74686520 		.ascii	"the right button if a 1 is displayed\012\000"
 518      72696768 
 518      74206275 
 518      74746F6E 
 518      20696620 
 519 0059 000000   		.space	3
 520              	.LC1:
 521 005c 636F7272 		.ascii	"correct button pressed\012\000"
 521      65637420 
 521      62757474 
 521      6F6E2070 
 521      72657373 
 522              	.LC2:
 523 0074 50726573 		.ascii	"Press any button to go to the next round\012\000"
 523      7320616E 
 523      79206275 
 523      74746F6E 
 523      20746F20 
 524 009e 0000     		.space	2
 525              	.LC3:
 526 00a0 3D3D3D3D 		.ascii	"==================================================="
 526      3D3D3D3D 
 526      3D3D3D3D 
 526      3D3D3D3D 
 526      3D3D3D3D 
 527 00d3 3D3D3D3D 		.ascii	"====\012\000"
 527      0A00
 528 00d9 000000   		.space	3
 529              	.LC4:
 530 00dc 496E636F 		.ascii	"Incorrect button pressed\012\000"
 530      72726563 
 530      74206275 
 530      74746F6E 
 530      20707265 
 531 00f6 0000     		.space	2
 532              	.LC5:
 533 00f8 54494D45 		.ascii	"TIMEOUT!\012\000"
 533      4F555421 
 533      0A00
 534              		.text
 535              	.Letext0:
 536              		.file 2 ".\\source\\bsw/global.h"
 537              		.file 3 ".\\source\\bsw\\LabBoard/seven.h"
 538              		.file 4 "c:\\program files (x86)\\cypress\\psoc creator\\4.4\\psoc creator\\import\\gnu\\arm\\5.4.
 539              		.file 5 "c:\\program files (x86)\\cypress\\psoc creator\\4.4\\psoc creator\\import\\gnu\\arm\\5.4.
 540              		.file 6 "Generated_Source\\PSoC5/ErikaOS_1_common_ee_types.inc"
 541              		.file 7 "Generated_Source\\PSoC5/ErikaOS_1_cortex_mx_ee_cpu.inc"
 542              		.file 8 "Generated_Source\\PSoC5/ErikaOS_1_ee_oo_common.inc"
 543              		.file 9 "game.h"
ARM GAS  C:\Users\robom\AppData\Local\Temp\ccAs7Q3f.s 			page 14


 544              		.file 10 "Generated_Source\\PSoC5/ErikaOS_1_ee_oo_intfunc.inc"
 545              		.file 11 "Generated_Source\\PSoC5/ErikaOS_1_cortex_mx_ee_context.inc"
 546              		.file 12 "Generated_Source\\PSoC5/ErikaOS_1_common_ee_primitives.inc"
 547              		.file 13 "Generated_Source\\PSoC5/core_cm3.h"
 548              		.file 14 "Generated_Source\\PSoC5/BUTTON_2.h"
 549              		.file 15 "Generated_Source\\PSoC5/BUTTON_1.h"
 550              		.file 16 "c:\\program files (x86)\\cypress\\psoc creator\\4.4\\psoc creator\\import\\gnu\\arm\\5.4
 551              		.file 17 "Generated_Source\\PSoC5/ErikaOS_1_ee_oo_kernel.inc"
 552              		.file 18 "Generated_Source\\PSoC5/UART_LOG.h"