ARM GAS  C:\Users\robom\AppData\Local\Temp\cckcVs4S.s 			page 1


   1              		.syntax unified
   2              		.cpu cortex-m3
   3              		.fpu softvfp
   4              		.eabi_attribute 20, 1
   5              		.eabi_attribute 21, 1
   6              		.eabi_attribute 23, 3
   7              		.eabi_attribute 24, 1
   8              		.eabi_attribute 25, 1
   9              		.eabi_attribute 26, 1
  10              		.eabi_attribute 30, 1
  11              		.eabi_attribute 34, 1
  12              		.eabi_attribute 18, 4
  13              		.thumb
  14              		.syntax unified
  15              		.file	"main.c"
  16              		.text
  17              	.Ltext0:
  18              		.cfi_sections	.debug_frame
  19              		.section	.text.ISR2_systick_handler,"ax",%progbits
  20              		.align	2
  21              		.global	ISR2_systick_handler
  22              		.thumb
  23              		.thumb_func
  24              		.type	ISR2_systick_handler, %function
  25              	ISR2_systick_handler:
  26              	.LFB112:
  27              		.file 1 "source\\asw\\main.c"
   1:source\asw/main.c **** /**
   2:source\asw/main.c **** * \file main
   3:source\asw/main.c **** * \author Peter Fromm
   4:source\asw/main.c **** * \date 5.12.2019
   5:source\asw/main.c **** *
   6:source\asw/main.c **** * \brief Demonstrator for critical regions
   7:source\asw/main.c **** *
   8:source\asw/main.c **** */
   9:source\asw/main.c **** 
  10:source\asw/main.c **** 
  11:source\asw/main.c **** #include "global.h"
  12:source\asw/main.c **** #include "project.h"
  13:source\asw/main.c **** 
  14:source\asw/main.c **** #include "seven.h"
  15:source\asw/main.c **** #include "led.h"
  16:source\asw/main.c **** 
  17:source\asw/main.c **** #include "time.h"
  18:source\asw/main.c **** #include "stdlib.h"
  19:source\asw/main.c **** #include "stdio.h"  
  20:source\asw/main.c **** 
  21:source\asw/main.c ****     
  22:source\asw/main.c **** enum eSTATES
  23:source\asw/main.c **** {
  24:source\asw/main.c ****     STATE_START,
  25:source\asw/main.c ****     STATE_DISPLAYSSD,
  26:source\asw/main.c ****     STATE_BUTTONPRESS,
  27:source\asw/main.c ****     STATE_TOOSLOW
  28:source\asw/main.c **** };
  29:source\asw/main.c **** 
  30:source\asw/main.c **** typedef enum eSTATES STATES_t;    
ARM GAS  C:\Users\robom\AppData\Local\Temp\cckcVs4S.s 			page 2


  31:source\asw/main.c ****     
  32:source\asw/main.c **** STATES_t state;    
  33:source\asw/main.c **** boolean_t button; // TRUE = left button, FALSE = right button
  34:source\asw/main.c **** static uint8_t timeScore = 0; //keep track of the time;
  35:source\asw/main.c **** static uint8_t roundNo = 0;
  36:source\asw/main.c **** EventMaskType ev = 0;
  37:source\asw/main.c **** int SSDnum;
  38:source\asw/main.c **** int randTime;
  39:source\asw/main.c **** 
  40:source\asw/main.c **** /* State Functions */
  41:source\asw/main.c **** RC_t start();
  42:source\asw/main.c **** RC_t displayssd();
  43:source\asw/main.c **** RC_t buttonpress();
  44:source\asw/main.c **** RC_t tooslow();
  45:source\asw/main.c **** 
  46:source\asw/main.c **** /* Message Functions */
  47:source\asw/main.c **** void startMessage();
  48:source\asw/main.c **** void correctMessage();
  49:source\asw/main.c **** void incorrectMessage();
  50:source\asw/main.c **** void tooslowMessage();
  51:source\asw/main.c **** void finalMessage();
  52:source\asw/main.c **** 
  53:source\asw/main.c **** ////////////////////////////////////
  54:source\asw/main.c **** 
  55:source\asw/main.c **** 
  56:source\asw/main.c **** //ISR which will increment the systick counter every ms
  57:source\asw/main.c **** ISR(systick_handler)
  58:source\asw/main.c **** {
  28              		.loc 1 58 0
  29              		.cfi_startproc
  30              		@ args = 0, pretend = 0, frame = 0
  31              		@ frame_needed = 0, uses_anonymous_args = 0
  32 0000 08B5     		push	{r3, lr}
  33              		.cfi_def_cfa_offset 8
  34              		.cfi_offset 3, -8
  35              		.cfi_offset 14, -4
  59:source\asw/main.c ****     CounterTick(cnt_systick);
  36              		.loc 1 59 0
  37 0002 0020     		movs	r0, #0
  38 0004 FFF7FEFF 		bl	EE_oo_IncrementCounter
  39              	.LVL0:
  40 0008 08BD     		pop	{r3, pc}
  41              		.cfi_endproc
  42              	.LFE112:
  43              		.size	ISR2_systick_handler, .-ISR2_systick_handler
  44 000a 00BF     		.section	.text.systick_handler,"ax",%progbits
  45              		.align	2
  46              		.global	systick_handler
  47              		.thumb
  48              		.thumb_func
  49              		.type	systick_handler, %function
  50              	systick_handler:
  51              	.LFB111:
  57:source\asw/main.c **** {
  52              		.loc 1 57 0
  53              		.cfi_startproc
  54              		@ Stack Align: May be called with mis-aligned SP.
ARM GAS  C:\Users\robom\AppData\Local\Temp\cckcVs4S.s 			page 3


  55              		@ args = 0, pretend = 0, frame = 0
  56              		@ frame_needed = 0, uses_anonymous_args = 0
  57 0000 6846     		mov	r0, sp
  58              		.cfi_register 13, 0
  59 0002 20F00701 		bic	r1, r0, #7
  60 0006 8D46     		mov	sp, r1
  61 0008 19B5     		push	{r0, r3, r4, lr}
  62              		.cfi_def_cfa_offset 16
  63              		.cfi_offset 13, -16
  64              		.cfi_offset 3, -12
  65              		.cfi_offset 4, -8
  66              		.cfi_offset 14, -4
  67              	.LVL1:
  68              	.LBB80:
  69              	.LBB81:
  70              		.file 2 "Generated_Source\\PSoC5/ErikaOS_1_cortex_mx_ee_cpu.inc"
   1:Generated_Source\PSoC5/ErikaOS_1_cortex_mx_ee_cpu.inc **** /* ###*B*###
   2:Generated_Source\PSoC5/ErikaOS_1_cortex_mx_ee_cpu.inc ****  * ERIKA Enterprise - a tiny RTOS for small microcontrollers
   3:Generated_Source\PSoC5/ErikaOS_1_cortex_mx_ee_cpu.inc ****  *
   4:Generated_Source\PSoC5/ErikaOS_1_cortex_mx_ee_cpu.inc ****  * Copyright (C) 2002-2011  Evidence Srl
   5:Generated_Source\PSoC5/ErikaOS_1_cortex_mx_ee_cpu.inc ****  *
   6:Generated_Source\PSoC5/ErikaOS_1_cortex_mx_ee_cpu.inc ****  * This file is part of ERIKA Enterprise.
   7:Generated_Source\PSoC5/ErikaOS_1_cortex_mx_ee_cpu.inc ****  *
   8:Generated_Source\PSoC5/ErikaOS_1_cortex_mx_ee_cpu.inc ****  * ERIKA Enterprise is free software; you can redistribute it
   9:Generated_Source\PSoC5/ErikaOS_1_cortex_mx_ee_cpu.inc ****  * and/or modify it under the terms of the GNU General Public License
  10:Generated_Source\PSoC5/ErikaOS_1_cortex_mx_ee_cpu.inc ****  * version 2 as published by the Free Software Foundation, 
  11:Generated_Source\PSoC5/ErikaOS_1_cortex_mx_ee_cpu.inc ****  * (with a special exception described below).
  12:Generated_Source\PSoC5/ErikaOS_1_cortex_mx_ee_cpu.inc ****  *
  13:Generated_Source\PSoC5/ErikaOS_1_cortex_mx_ee_cpu.inc ****  * Linking this code statically or dynamically with other modules is
  14:Generated_Source\PSoC5/ErikaOS_1_cortex_mx_ee_cpu.inc ****  * making a combined work based on this code.  Thus, the terms and
  15:Generated_Source\PSoC5/ErikaOS_1_cortex_mx_ee_cpu.inc ****  * conditions of the GNU General Public License cover the whole
  16:Generated_Source\PSoC5/ErikaOS_1_cortex_mx_ee_cpu.inc ****  * combination.
  17:Generated_Source\PSoC5/ErikaOS_1_cortex_mx_ee_cpu.inc ****  *
  18:Generated_Source\PSoC5/ErikaOS_1_cortex_mx_ee_cpu.inc ****  * As a special exception, the copyright holders of this library give you
  19:Generated_Source\PSoC5/ErikaOS_1_cortex_mx_ee_cpu.inc ****  * permission to link this code with independent modules to produce an
  20:Generated_Source\PSoC5/ErikaOS_1_cortex_mx_ee_cpu.inc ****  * executable, regardless of the license terms of these independent
  21:Generated_Source\PSoC5/ErikaOS_1_cortex_mx_ee_cpu.inc ****  * modules, and to copy and distribute the resulting executable under
  22:Generated_Source\PSoC5/ErikaOS_1_cortex_mx_ee_cpu.inc ****  * terms of your choice, provided that you also meet, for each linked
  23:Generated_Source\PSoC5/ErikaOS_1_cortex_mx_ee_cpu.inc ****  * independent module, the terms and conditions of the license of that
  24:Generated_Source\PSoC5/ErikaOS_1_cortex_mx_ee_cpu.inc ****  * module.  An independent module is a module which is not derived from
  25:Generated_Source\PSoC5/ErikaOS_1_cortex_mx_ee_cpu.inc ****  * or based on this library.  If you modify this code, you may extend
  26:Generated_Source\PSoC5/ErikaOS_1_cortex_mx_ee_cpu.inc ****  * this exception to your version of the code, but you are not
  27:Generated_Source\PSoC5/ErikaOS_1_cortex_mx_ee_cpu.inc ****  * obligated to do so.  If you do not wish to do so, delete this
  28:Generated_Source\PSoC5/ErikaOS_1_cortex_mx_ee_cpu.inc ****  * exception statement from your version.
  29:Generated_Source\PSoC5/ErikaOS_1_cortex_mx_ee_cpu.inc ****  *
  30:Generated_Source\PSoC5/ErikaOS_1_cortex_mx_ee_cpu.inc ****  * ERIKA Enterprise is distributed in the hope that it will be
  31:Generated_Source\PSoC5/ErikaOS_1_cortex_mx_ee_cpu.inc ****  * useful, but WITHOUT ANY WARRANTY; without even the implied warranty
  32:Generated_Source\PSoC5/ErikaOS_1_cortex_mx_ee_cpu.inc ****  * of MERCHANTABILITY or FITNESS FOR A PARTICULAR PURPOSE.  See the
  33:Generated_Source\PSoC5/ErikaOS_1_cortex_mx_ee_cpu.inc ****  * GNU General Public License version 2 for more details.
  34:Generated_Source\PSoC5/ErikaOS_1_cortex_mx_ee_cpu.inc ****  *
  35:Generated_Source\PSoC5/ErikaOS_1_cortex_mx_ee_cpu.inc ****  * You should have received a copy of the GNU General Public License
  36:Generated_Source\PSoC5/ErikaOS_1_cortex_mx_ee_cpu.inc ****  * version 2 along with ERIKA Enterprise; if not, write to the
  37:Generated_Source\PSoC5/ErikaOS_1_cortex_mx_ee_cpu.inc ****  * Free Software Foundation, Inc., 51 Franklin Street, Fifth Floor,
  38:Generated_Source\PSoC5/ErikaOS_1_cortex_mx_ee_cpu.inc ****  * Boston, MA 02110-1301 USA.
  39:Generated_Source\PSoC5/ErikaOS_1_cortex_mx_ee_cpu.inc ****  * ###*E*### */
  40:Generated_Source\PSoC5/ErikaOS_1_cortex_mx_ee_cpu.inc **** 
  41:Generated_Source\PSoC5/ErikaOS_1_cortex_mx_ee_cpu.inc **** /** 
ARM GAS  C:\Users\robom\AppData\Local\Temp\cckcVs4S.s 			page 4


  42:Generated_Source\PSoC5/ErikaOS_1_cortex_mx_ee_cpu.inc **** 	@file ee_cpu.h
  43:Generated_Source\PSoC5/ErikaOS_1_cortex_mx_ee_cpu.inc **** 	@brief CPU-dependent part of HAL. Derived from pkg/cpu/pic30/inc/ee_cpu.h
  44:Generated_Source\PSoC5/ErikaOS_1_cortex_mx_ee_cpu.inc **** 	@author Gianluca Franchino
  45:Generated_Source\PSoC5/ErikaOS_1_cortex_mx_ee_cpu.inc **** 	@author Giuseppe Serano
  46:Generated_Source\PSoC5/ErikaOS_1_cortex_mx_ee_cpu.inc **** 	@date 2011
  47:Generated_Source\PSoC5/ErikaOS_1_cortex_mx_ee_cpu.inc **** */ 
  48:Generated_Source\PSoC5/ErikaOS_1_cortex_mx_ee_cpu.inc ****     
  49:Generated_Source\PSoC5/ErikaOS_1_cortex_mx_ee_cpu.inc **** /*
  50:Generated_Source\PSoC5/ErikaOS_1_cortex_mx_ee_cpu.inc ****  * PSoC Port and API Generation
  51:Generated_Source\PSoC5/ErikaOS_1_cortex_mx_ee_cpu.inc ****  * Carlos Fernando Meier Martinez
  52:Generated_Source\PSoC5/ErikaOS_1_cortex_mx_ee_cpu.inc ****  * Hochschule Darmstadt, Germany. 2017.
  53:Generated_Source\PSoC5/ErikaOS_1_cortex_mx_ee_cpu.inc ****  */
  54:Generated_Source\PSoC5/ErikaOS_1_cortex_mx_ee_cpu.inc **** 
  55:Generated_Source\PSoC5/ErikaOS_1_cortex_mx_ee_cpu.inc **** #ifndef __INCLUDE_CORTEX_MX_EE_CPU_H__
  56:Generated_Source\PSoC5/ErikaOS_1_cortex_mx_ee_cpu.inc **** #define __INCLUDE_CORTEX_MX_EE_CPU_H__
  57:Generated_Source\PSoC5/ErikaOS_1_cortex_mx_ee_cpu.inc **** 
  58:Generated_Source\PSoC5/ErikaOS_1_cortex_mx_ee_cpu.inc **** #include "ErikaOS_1_eecfg.inc"
  59:Generated_Source\PSoC5/ErikaOS_1_cortex_mx_ee_cpu.inc **** 
  60:Generated_Source\PSoC5/ErikaOS_1_cortex_mx_ee_cpu.inc **** 
  61:Generated_Source\PSoC5/ErikaOS_1_cortex_mx_ee_cpu.inc **** #ifdef __GNU__
  62:Generated_Source\PSoC5/ErikaOS_1_cortex_mx_ee_cpu.inc **** #include "ErikaOS_1_common_ee_compiler_gcc.inc"
  63:Generated_Source\PSoC5/ErikaOS_1_cortex_mx_ee_cpu.inc **** #endif
  64:Generated_Source\PSoC5/ErikaOS_1_cortex_mx_ee_cpu.inc **** 
  65:Generated_Source\PSoC5/ErikaOS_1_cortex_mx_ee_cpu.inc **** /* Initial stack offset (in words): Used in multistack. */
  66:Generated_Source\PSoC5/ErikaOS_1_cortex_mx_ee_cpu.inc **** #ifndef CORTEX_MX_INIT_TOS_OFFSET
  67:Generated_Source\PSoC5/ErikaOS_1_cortex_mx_ee_cpu.inc **** #define CORTEX_MX_INIT_TOS_OFFSET 10
  68:Generated_Source\PSoC5/ErikaOS_1_cortex_mx_ee_cpu.inc **** #endif
  69:Generated_Source\PSoC5/ErikaOS_1_cortex_mx_ee_cpu.inc **** 
  70:Generated_Source\PSoC5/ErikaOS_1_cortex_mx_ee_cpu.inc **** /*************************************************************************
  71:Generated_Source\PSoC5/ErikaOS_1_cortex_mx_ee_cpu.inc ****  HAL Types and structures
  72:Generated_Source\PSoC5/ErikaOS_1_cortex_mx_ee_cpu.inc ****  *************************************************************************/
  73:Generated_Source\PSoC5/ErikaOS_1_cortex_mx_ee_cpu.inc **** 
  74:Generated_Source\PSoC5/ErikaOS_1_cortex_mx_ee_cpu.inc **** /* Primitive data types */
  75:Generated_Source\PSoC5/ErikaOS_1_cortex_mx_ee_cpu.inc **** #include "ErikaOS_1_common_ee_types.inc"
  76:Generated_Source\PSoC5/ErikaOS_1_cortex_mx_ee_cpu.inc **** 
  77:Generated_Source\PSoC5/ErikaOS_1_cortex_mx_ee_cpu.inc **** typedef EE_UINT32 EE_UREG;
  78:Generated_Source\PSoC5/ErikaOS_1_cortex_mx_ee_cpu.inc **** typedef EE_INT32  EE_SREG;
  79:Generated_Source\PSoC5/ErikaOS_1_cortex_mx_ee_cpu.inc **** typedef EE_UINT32 EE_FREG;
  80:Generated_Source\PSoC5/ErikaOS_1_cortex_mx_ee_cpu.inc **** #define EE_UREG_SIZE 4
  81:Generated_Source\PSoC5/ErikaOS_1_cortex_mx_ee_cpu.inc **** 
  82:Generated_Source\PSoC5/ErikaOS_1_cortex_mx_ee_cpu.inc **** /* boolean type */
  83:Generated_Source\PSoC5/ErikaOS_1_cortex_mx_ee_cpu.inc **** #ifndef EE_TYPEBOOL
  84:Generated_Source\PSoC5/ErikaOS_1_cortex_mx_ee_cpu.inc **** typedef EE_UREG EE_TYPEBOOL;
  85:Generated_Source\PSoC5/ErikaOS_1_cortex_mx_ee_cpu.inc **** #endif
  86:Generated_Source\PSoC5/ErikaOS_1_cortex_mx_ee_cpu.inc **** 
  87:Generated_Source\PSoC5/ErikaOS_1_cortex_mx_ee_cpu.inc **** /* boolean true define */
  88:Generated_Source\PSoC5/ErikaOS_1_cortex_mx_ee_cpu.inc **** #ifndef EE_TRUE
  89:Generated_Source\PSoC5/ErikaOS_1_cortex_mx_ee_cpu.inc **** #define EE_TRUE ((EE_TYPEBOOL)1U)
  90:Generated_Source\PSoC5/ErikaOS_1_cortex_mx_ee_cpu.inc **** #endif
  91:Generated_Source\PSoC5/ErikaOS_1_cortex_mx_ee_cpu.inc **** 
  92:Generated_Source\PSoC5/ErikaOS_1_cortex_mx_ee_cpu.inc **** /* boolean false define */
  93:Generated_Source\PSoC5/ErikaOS_1_cortex_mx_ee_cpu.inc **** #ifndef EE_FALSE
  94:Generated_Source\PSoC5/ErikaOS_1_cortex_mx_ee_cpu.inc **** #define EE_FALSE ((EE_TYPEBOOL)0U)
  95:Generated_Source\PSoC5/ErikaOS_1_cortex_mx_ee_cpu.inc **** #endif
  96:Generated_Source\PSoC5/ErikaOS_1_cortex_mx_ee_cpu.inc **** 
  97:Generated_Source\PSoC5/ErikaOS_1_cortex_mx_ee_cpu.inc **** #define	EE_HWREG_PTR		volatile EE_UREG *
  98:Generated_Source\PSoC5/ErikaOS_1_cortex_mx_ee_cpu.inc **** #define	EE_HWREG_ADDR(x)	((EE_HWREG_PTR)(x))
ARM GAS  C:\Users\robom\AppData\Local\Temp\cckcVs4S.s 			page 5


  99:Generated_Source\PSoC5/ErikaOS_1_cortex_mx_ee_cpu.inc **** #define	EE_HWREG(x)		(*EE_HWREG_ADDR(x))
 100:Generated_Source\PSoC5/ErikaOS_1_cortex_mx_ee_cpu.inc **** 
 101:Generated_Source\PSoC5/ErikaOS_1_cortex_mx_ee_cpu.inc **** #ifdef __GNU__
 102:Generated_Source\PSoC5/ErikaOS_1_cortex_mx_ee_cpu.inc **** 
 103:Generated_Source\PSoC5/ErikaOS_1_cortex_mx_ee_cpu.inc **** /* Get current SP */
 104:Generated_Source\PSoC5/ErikaOS_1_cortex_mx_ee_cpu.inc **** __INLINE__ EE_UINT32  __current_sp(void)
 105:Generated_Source\PSoC5/ErikaOS_1_cortex_mx_ee_cpu.inc **** {
 106:Generated_Source\PSoC5/ErikaOS_1_cortex_mx_ee_cpu.inc **** EE_UINT32 temp;
 107:Generated_Source\PSoC5/ErikaOS_1_cortex_mx_ee_cpu.inc **** __ASM ("mov %0, sp" : "=r" (temp) : );
 108:Generated_Source\PSoC5/ErikaOS_1_cortex_mx_ee_cpu.inc **** return temp;
 109:Generated_Source\PSoC5/ErikaOS_1_cortex_mx_ee_cpu.inc **** }
 110:Generated_Source\PSoC5/ErikaOS_1_cortex_mx_ee_cpu.inc **** 
 111:Generated_Source\PSoC5/ErikaOS_1_cortex_mx_ee_cpu.inc **** /* Set a breakpoint */
 112:Generated_Source\PSoC5/ErikaOS_1_cortex_mx_ee_cpu.inc **** #define __breakpoint(value)	__ASM ("bkpt "#value)
 113:Generated_Source\PSoC5/ErikaOS_1_cortex_mx_ee_cpu.inc **** 
 114:Generated_Source\PSoC5/ErikaOS_1_cortex_mx_ee_cpu.inc **** #endif
 115:Generated_Source\PSoC5/ErikaOS_1_cortex_mx_ee_cpu.inc **** 
 116:Generated_Source\PSoC5/ErikaOS_1_cortex_mx_ee_cpu.inc **** /* ISR Priority representation type */
 117:Generated_Source\PSoC5/ErikaOS_1_cortex_mx_ee_cpu.inc **** typedef EE_UREG EE_TYPEISR2PRIO;
 118:Generated_Source\PSoC5/ErikaOS_1_cortex_mx_ee_cpu.inc **** 
 119:Generated_Source\PSoC5/ErikaOS_1_cortex_mx_ee_cpu.inc **** /* Thread IDs */
 120:Generated_Source\PSoC5/ErikaOS_1_cortex_mx_ee_cpu.inc **** typedef EE_INT32 EE_TID;
 121:Generated_Source\PSoC5/ErikaOS_1_cortex_mx_ee_cpu.inc **** 
 122:Generated_Source\PSoC5/ErikaOS_1_cortex_mx_ee_cpu.inc **** /* Thread IDs - unsigned version*/
 123:Generated_Source\PSoC5/ErikaOS_1_cortex_mx_ee_cpu.inc **** typedef EE_UINT32 EE_UTID;
 124:Generated_Source\PSoC5/ErikaOS_1_cortex_mx_ee_cpu.inc **** 
 125:Generated_Source\PSoC5/ErikaOS_1_cortex_mx_ee_cpu.inc **** /* Used by the common layer to decide whether to start a new thread */
 126:Generated_Source\PSoC5/ErikaOS_1_cortex_mx_ee_cpu.inc **** #define TID_IS_STACKED_MARK 0x80000000
 127:Generated_Source\PSoC5/ErikaOS_1_cortex_mx_ee_cpu.inc **** 
 128:Generated_Source\PSoC5/ErikaOS_1_cortex_mx_ee_cpu.inc **** /* EE_TYPEIRQ is currently unused */
 129:Generated_Source\PSoC5/ErikaOS_1_cortex_mx_ee_cpu.inc **** 
 130:Generated_Source\PSoC5/ErikaOS_1_cortex_mx_ee_cpu.inc **** /* XXX: define EE_TIME? */
 131:Generated_Source\PSoC5/ErikaOS_1_cortex_mx_ee_cpu.inc **** 
 132:Generated_Source\PSoC5/ErikaOS_1_cortex_mx_ee_cpu.inc **** /* Use the "standard" implementation */
 133:Generated_Source\PSoC5/ErikaOS_1_cortex_mx_ee_cpu.inc **** #include "ErikaOS_1_common_ee_hal_structs.inc"
 134:Generated_Source\PSoC5/ErikaOS_1_cortex_mx_ee_cpu.inc **** 
 135:Generated_Source\PSoC5/ErikaOS_1_cortex_mx_ee_cpu.inc **** /******************************************************************************
 136:Generated_Source\PSoC5/ErikaOS_1_cortex_mx_ee_cpu.inc ****  Application dependent data types
 137:Generated_Source\PSoC5/ErikaOS_1_cortex_mx_ee_cpu.inc ****  ******************************************************************************/
 138:Generated_Source\PSoC5/ErikaOS_1_cortex_mx_ee_cpu.inc **** 
 139:Generated_Source\PSoC5/ErikaOS_1_cortex_mx_ee_cpu.inc **** #ifdef	__HAS_TYPES_H__
 140:Generated_Source\PSoC5/ErikaOS_1_cortex_mx_ee_cpu.inc **** #include	"types.h"
 141:Generated_Source\PSoC5/ErikaOS_1_cortex_mx_ee_cpu.inc **** #endif
 142:Generated_Source\PSoC5/ErikaOS_1_cortex_mx_ee_cpu.inc **** 
 143:Generated_Source\PSoC5/ErikaOS_1_cortex_mx_ee_cpu.inc **** /******************************************************************************
 144:Generated_Source\PSoC5/ErikaOS_1_cortex_mx_ee_cpu.inc ****  CPU Peripherals
 145:Generated_Source\PSoC5/ErikaOS_1_cortex_mx_ee_cpu.inc ****  ******************************************************************************/
 146:Generated_Source\PSoC5/ErikaOS_1_cortex_mx_ee_cpu.inc **** 
 147:Generated_Source\PSoC5/ErikaOS_1_cortex_mx_ee_cpu.inc **** #ifdef __CORTEX_MX__
 148:Generated_Source\PSoC5/ErikaOS_1_cortex_mx_ee_cpu.inc **** #include "ErikaOS_1_cortex_mx_ee_nvic.inc"
 149:Generated_Source\PSoC5/ErikaOS_1_cortex_mx_ee_cpu.inc **** #include "ErikaOS_1_cortex_mx_ee_systick.inc"
 150:Generated_Source\PSoC5/ErikaOS_1_cortex_mx_ee_cpu.inc **** #endif
 151:Generated_Source\PSoC5/ErikaOS_1_cortex_mx_ee_cpu.inc **** 
 152:Generated_Source\PSoC5/ErikaOS_1_cortex_mx_ee_cpu.inc **** /******************************************************************************
 153:Generated_Source\PSoC5/ErikaOS_1_cortex_mx_ee_cpu.inc ****  HAL Variables
 154:Generated_Source\PSoC5/ErikaOS_1_cortex_mx_ee_cpu.inc ****  ******************************************************************************/
 155:Generated_Source\PSoC5/ErikaOS_1_cortex_mx_ee_cpu.inc **** 
ARM GAS  C:\Users\robom\AppData\Local\Temp\cckcVs4S.s 			page 6


 156:Generated_Source\PSoC5/ErikaOS_1_cortex_mx_ee_cpu.inc **** #ifdef __MULTI__
 157:Generated_Source\PSoC5/ErikaOS_1_cortex_mx_ee_cpu.inc **** 
 158:Generated_Source\PSoC5/ErikaOS_1_cortex_mx_ee_cpu.inc **** /* Top-of-stack of each private stack */
 159:Generated_Source\PSoC5/ErikaOS_1_cortex_mx_ee_cpu.inc **** extern struct EE_TOS EE_cortex_mx_system_tos[];
 160:Generated_Source\PSoC5/ErikaOS_1_cortex_mx_ee_cpu.inc **** //#define	EE_std_system_tos EE_cortex_mx_system_tos
 161:Generated_Source\PSoC5/ErikaOS_1_cortex_mx_ee_cpu.inc **** 
 162:Generated_Source\PSoC5/ErikaOS_1_cortex_mx_ee_cpu.inc **** /* Index of the current stack */
 163:Generated_Source\PSoC5/ErikaOS_1_cortex_mx_ee_cpu.inc **** extern EE_UREG EE_cortex_mx_active_tos;
 164:Generated_Source\PSoC5/ErikaOS_1_cortex_mx_ee_cpu.inc **** #define	EE_hal_active_tos EE_cortex_mx_active_tos
 165:Generated_Source\PSoC5/ErikaOS_1_cortex_mx_ee_cpu.inc **** 
 166:Generated_Source\PSoC5/ErikaOS_1_cortex_mx_ee_cpu.inc **** /*extern	EE_UREG EE_pic30_thread_tos[];
 167:Generated_Source\PSoC5/ErikaOS_1_cortex_mx_ee_cpu.inc **** #define	EE_std_thread_tos EE_pic30_thread_tos */
 168:Generated_Source\PSoC5/ErikaOS_1_cortex_mx_ee_cpu.inc **** #endif /* __MULTI__ */
 169:Generated_Source\PSoC5/ErikaOS_1_cortex_mx_ee_cpu.inc **** 
 170:Generated_Source\PSoC5/ErikaOS_1_cortex_mx_ee_cpu.inc **** /*********************************************************************
 171:Generated_Source\PSoC5/ErikaOS_1_cortex_mx_ee_cpu.inc ****  Cortex M0 interrupt disabling/enabling
 172:Generated_Source\PSoC5/ErikaOS_1_cortex_mx_ee_cpu.inc ****  *********************************************************************/
 173:Generated_Source\PSoC5/ErikaOS_1_cortex_mx_ee_cpu.inc **** 
 174:Generated_Source\PSoC5/ErikaOS_1_cortex_mx_ee_cpu.inc **** /* Used to check the value returned by EE_cortex_mx_disableIRQ */
 175:Generated_Source\PSoC5/ErikaOS_1_cortex_mx_ee_cpu.inc **** #define EE_cortex_mx_are_IRQs_enabled(ie) ((ie) ^ 1)
 176:Generated_Source\PSoC5/ErikaOS_1_cortex_mx_ee_cpu.inc **** 
 177:Generated_Source\PSoC5/ErikaOS_1_cortex_mx_ee_cpu.inc **** /**
 178:Generated_Source\PSoC5/ErikaOS_1_cortex_mx_ee_cpu.inc ****  * Enable interrupts
 179:Generated_Source\PSoC5/ErikaOS_1_cortex_mx_ee_cpu.inc ****  */
 180:Generated_Source\PSoC5/ErikaOS_1_cortex_mx_ee_cpu.inc **** __INLINE__ void  EE_cortex_mx_enableIRQ(void)
 181:Generated_Source\PSoC5/ErikaOS_1_cortex_mx_ee_cpu.inc **** {
 182:Generated_Source\PSoC5/ErikaOS_1_cortex_mx_ee_cpu.inc **** #ifdef __IAR__
 183:Generated_Source\PSoC5/ErikaOS_1_cortex_mx_ee_cpu.inc **** 	__ASM ("cpsie i");
 184:Generated_Source\PSoC5/ErikaOS_1_cortex_mx_ee_cpu.inc **** #else	/* __IAR__ */
 185:Generated_Source\PSoC5/ErikaOS_1_cortex_mx_ee_cpu.inc **** #ifdef __CCS__
 186:Generated_Source\PSoC5/ErikaOS_1_cortex_mx_ee_cpu.inc **** 	__ASM ("    cpsie    i\n");
 187:Generated_Source\PSoC5/ErikaOS_1_cortex_mx_ee_cpu.inc **** #else	/* __CCS__ */
 188:Generated_Source\PSoC5/ErikaOS_1_cortex_mx_ee_cpu.inc **** #ifdef __KEIL__
 189:Generated_Source\PSoC5/ErikaOS_1_cortex_mx_ee_cpu.inc **** 	__enable_irq();
 190:Generated_Source\PSoC5/ErikaOS_1_cortex_mx_ee_cpu.inc **** #else	/* __KEIL__ */
 191:Generated_Source\PSoC5/ErikaOS_1_cortex_mx_ee_cpu.inc **** 	__ASM volatile("cpsie i");
 192:Generated_Source\PSoC5/ErikaOS_1_cortex_mx_ee_cpu.inc **** #endif	/* !__KEIL__ */
 193:Generated_Source\PSoC5/ErikaOS_1_cortex_mx_ee_cpu.inc **** #endif	/* !__CCS__ */
 194:Generated_Source\PSoC5/ErikaOS_1_cortex_mx_ee_cpu.inc **** #endif	/* !__IAR__ */
 195:Generated_Source\PSoC5/ErikaOS_1_cortex_mx_ee_cpu.inc **** }
 196:Generated_Source\PSoC5/ErikaOS_1_cortex_mx_ee_cpu.inc **** 
 197:Generated_Source\PSoC5/ErikaOS_1_cortex_mx_ee_cpu.inc **** /**
 198:Generated_Source\PSoC5/ErikaOS_1_cortex_mx_ee_cpu.inc ****  * Disable interrupts
 199:Generated_Source\PSoC5/ErikaOS_1_cortex_mx_ee_cpu.inc ****  */
 200:Generated_Source\PSoC5/ErikaOS_1_cortex_mx_ee_cpu.inc **** __INLINE__ void  EE_cortex_mx_disableIRQ(void)
 201:Generated_Source\PSoC5/ErikaOS_1_cortex_mx_ee_cpu.inc **** {
 202:Generated_Source\PSoC5/ErikaOS_1_cortex_mx_ee_cpu.inc **** #ifdef __IAR__
 203:Generated_Source\PSoC5/ErikaOS_1_cortex_mx_ee_cpu.inc **** 	__ASM ("cpsid i");
 204:Generated_Source\PSoC5/ErikaOS_1_cortex_mx_ee_cpu.inc **** #else	/* __IAR__ */
 205:Generated_Source\PSoC5/ErikaOS_1_cortex_mx_ee_cpu.inc **** #ifdef __CCS__
 206:Generated_Source\PSoC5/ErikaOS_1_cortex_mx_ee_cpu.inc **** 	__ASM ("    cpsid    i\n");
 207:Generated_Source\PSoC5/ErikaOS_1_cortex_mx_ee_cpu.inc **** #else	/* __CCS__ */
 208:Generated_Source\PSoC5/ErikaOS_1_cortex_mx_ee_cpu.inc **** #ifdef __KEIL__
 209:Generated_Source\PSoC5/ErikaOS_1_cortex_mx_ee_cpu.inc **** 	__disable_irq();
 210:Generated_Source\PSoC5/ErikaOS_1_cortex_mx_ee_cpu.inc **** #else	/* __KEIL__ */
 211:Generated_Source\PSoC5/ErikaOS_1_cortex_mx_ee_cpu.inc **** 	__ASM volatile("cpsid i");
  71              		.loc 2 211 0
ARM GAS  C:\Users\robom\AppData\Local\Temp\cckcVs4S.s 			page 7


  72              		.syntax unified
  73              	@ 211 "Generated_Source\PSoC5/ErikaOS_1_cortex_mx_ee_cpu.inc" 1
  74 000a 72B6     		cpsid i
  75              	@ 0 "" 2
  76              		.thumb
  77              		.syntax unified
  78              	.LBE81:
  79              	.LBE80:
  80              	.LBB82:
  81              	.LBB83:
 212:Generated_Source\PSoC5/ErikaOS_1_cortex_mx_ee_cpu.inc **** #endif	/* !__KEIL__ */
 213:Generated_Source\PSoC5/ErikaOS_1_cortex_mx_ee_cpu.inc **** #endif	/* !__CCS__ */
 214:Generated_Source\PSoC5/ErikaOS_1_cortex_mx_ee_cpu.inc **** #endif	/* !__IAR__ */
 215:Generated_Source\PSoC5/ErikaOS_1_cortex_mx_ee_cpu.inc **** }
 216:Generated_Source\PSoC5/ErikaOS_1_cortex_mx_ee_cpu.inc **** 
 217:Generated_Source\PSoC5/ErikaOS_1_cortex_mx_ee_cpu.inc **** /**
 218:Generated_Source\PSoC5/ErikaOS_1_cortex_mx_ee_cpu.inc ****  * Resume interrupts
 219:Generated_Source\PSoC5/ErikaOS_1_cortex_mx_ee_cpu.inc ****  */
 220:Generated_Source\PSoC5/ErikaOS_1_cortex_mx_ee_cpu.inc **** __INLINE__ void  EE_cortex_mx_resumeIRQ(EE_FREG f)
 221:Generated_Source\PSoC5/ErikaOS_1_cortex_mx_ee_cpu.inc **** {
 222:Generated_Source\PSoC5/ErikaOS_1_cortex_mx_ee_cpu.inc **** #ifdef __IAR__
 223:Generated_Source\PSoC5/ErikaOS_1_cortex_mx_ee_cpu.inc **** 	__set_PRIMASK(f);
 224:Generated_Source\PSoC5/ErikaOS_1_cortex_mx_ee_cpu.inc **** #else	/* __IAR__ */
 225:Generated_Source\PSoC5/ErikaOS_1_cortex_mx_ee_cpu.inc **** #ifdef __CCS__
 226:Generated_Source\PSoC5/ErikaOS_1_cortex_mx_ee_cpu.inc **** 	__ASM ("    msr    primask, r0\n");
 227:Generated_Source\PSoC5/ErikaOS_1_cortex_mx_ee_cpu.inc **** #else	/* __CCS__ */
 228:Generated_Source\PSoC5/ErikaOS_1_cortex_mx_ee_cpu.inc **** #ifdef __KEIL__
 229:Generated_Source\PSoC5/ErikaOS_1_cortex_mx_ee_cpu.inc **** 	register EE_FREG PRIMASK __ASM("primask");
 230:Generated_Source\PSoC5/ErikaOS_1_cortex_mx_ee_cpu.inc **** 	PRIMASK = f;
 231:Generated_Source\PSoC5/ErikaOS_1_cortex_mx_ee_cpu.inc **** #else	/* __KEIL__ */
 232:Generated_Source\PSoC5/ErikaOS_1_cortex_mx_ee_cpu.inc **** 	__ASM volatile("msr primask, %0" :: "r" (f));
 233:Generated_Source\PSoC5/ErikaOS_1_cortex_mx_ee_cpu.inc **** #endif	/* !__KEIL__ */
 234:Generated_Source\PSoC5/ErikaOS_1_cortex_mx_ee_cpu.inc **** #endif	/* !__CCS__ */
 235:Generated_Source\PSoC5/ErikaOS_1_cortex_mx_ee_cpu.inc **** #endif	/* !__IAR__ */
 236:Generated_Source\PSoC5/ErikaOS_1_cortex_mx_ee_cpu.inc **** }
 237:Generated_Source\PSoC5/ErikaOS_1_cortex_mx_ee_cpu.inc **** 
 238:Generated_Source\PSoC5/ErikaOS_1_cortex_mx_ee_cpu.inc **** /**
 239:Generated_Source\PSoC5/ErikaOS_1_cortex_mx_ee_cpu.inc ****  * Suspend interrupts
 240:Generated_Source\PSoC5/ErikaOS_1_cortex_mx_ee_cpu.inc ****  */
 241:Generated_Source\PSoC5/ErikaOS_1_cortex_mx_ee_cpu.inc **** __INLINE__ EE_FREG  EE_cortex_mx_suspendIRQ(void)
 242:Generated_Source\PSoC5/ErikaOS_1_cortex_mx_ee_cpu.inc **** {
 243:Generated_Source\PSoC5/ErikaOS_1_cortex_mx_ee_cpu.inc **** #ifndef __CCS__
 244:Generated_Source\PSoC5/ErikaOS_1_cortex_mx_ee_cpu.inc **** 	EE_FREG istat;
 245:Generated_Source\PSoC5/ErikaOS_1_cortex_mx_ee_cpu.inc **** #endif
 246:Generated_Source\PSoC5/ErikaOS_1_cortex_mx_ee_cpu.inc **** #ifdef __IAR__
 247:Generated_Source\PSoC5/ErikaOS_1_cortex_mx_ee_cpu.inc **** 	 istat = __get_PRIMASK();
 248:Generated_Source\PSoC5/ErikaOS_1_cortex_mx_ee_cpu.inc **** 	__ASM ("cpsid i");
 249:Generated_Source\PSoC5/ErikaOS_1_cortex_mx_ee_cpu.inc **** #else	/* __IAR__ */
 250:Generated_Source\PSoC5/ErikaOS_1_cortex_mx_ee_cpu.inc **** #ifdef __CCS__
 251:Generated_Source\PSoC5/ErikaOS_1_cortex_mx_ee_cpu.inc **** 	__ASM ("    mrs     r0, primask\n"
 252:Generated_Source\PSoC5/ErikaOS_1_cortex_mx_ee_cpu.inc **** 	       "    cpsid   i\n"
 253:Generated_Source\PSoC5/ErikaOS_1_cortex_mx_ee_cpu.inc **** 	       "    bx      lr\n");
 254:Generated_Source\PSoC5/ErikaOS_1_cortex_mx_ee_cpu.inc **** #else	/* __CCS__ */
 255:Generated_Source\PSoC5/ErikaOS_1_cortex_mx_ee_cpu.inc **** #ifdef __KEIL__
 256:Generated_Source\PSoC5/ErikaOS_1_cortex_mx_ee_cpu.inc **** 	register EE_FREG PRIMASK __ASM("primask");
 257:Generated_Source\PSoC5/ErikaOS_1_cortex_mx_ee_cpu.inc **** 	istat = PRIMASK;
 258:Generated_Source\PSoC5/ErikaOS_1_cortex_mx_ee_cpu.inc **** 	__disable_irq();
ARM GAS  C:\Users\robom\AppData\Local\Temp\cckcVs4S.s 			page 8


 259:Generated_Source\PSoC5/ErikaOS_1_cortex_mx_ee_cpu.inc **** #else	/* __KEIL__ */
 260:Generated_Source\PSoC5/ErikaOS_1_cortex_mx_ee_cpu.inc **** 	__ASM volatile ("mrs %0, primask" : "=r" (istat) );
 261:Generated_Source\PSoC5/ErikaOS_1_cortex_mx_ee_cpu.inc **** 	__ASM volatile ("cpsid i");
 262:Generated_Source\PSoC5/ErikaOS_1_cortex_mx_ee_cpu.inc **** #endif	/* !__KEIL__ */
 263:Generated_Source\PSoC5/ErikaOS_1_cortex_mx_ee_cpu.inc **** #endif	/* !__CCS__ */
 264:Generated_Source\PSoC5/ErikaOS_1_cortex_mx_ee_cpu.inc **** #endif	/* !__IAR__ */
 265:Generated_Source\PSoC5/ErikaOS_1_cortex_mx_ee_cpu.inc **** #ifdef __CCS__
 266:Generated_Source\PSoC5/ErikaOS_1_cortex_mx_ee_cpu.inc **** 	return 0;
 267:Generated_Source\PSoC5/ErikaOS_1_cortex_mx_ee_cpu.inc **** #else
 268:Generated_Source\PSoC5/ErikaOS_1_cortex_mx_ee_cpu.inc **** 	return istat;
 269:Generated_Source\PSoC5/ErikaOS_1_cortex_mx_ee_cpu.inc **** #endif
 270:Generated_Source\PSoC5/ErikaOS_1_cortex_mx_ee_cpu.inc **** }
 271:Generated_Source\PSoC5/ErikaOS_1_cortex_mx_ee_cpu.inc **** 
 272:Generated_Source\PSoC5/ErikaOS_1_cortex_mx_ee_cpu.inc **** /**
 273:Generated_Source\PSoC5/ErikaOS_1_cortex_mx_ee_cpu.inc ****  * Return true (not 0) if IRQs are enabled, 0 (false) if IRQ are disabled.
 274:Generated_Source\PSoC5/ErikaOS_1_cortex_mx_ee_cpu.inc ****  */
 275:Generated_Source\PSoC5/ErikaOS_1_cortex_mx_ee_cpu.inc **** __INLINE__ EE_UINT32  EE_cortex_mx_get_IRQ_enabled(void)
 276:Generated_Source\PSoC5/ErikaOS_1_cortex_mx_ee_cpu.inc **** {
 277:Generated_Source\PSoC5/ErikaOS_1_cortex_mx_ee_cpu.inc **** #ifndef __CCS__
 278:Generated_Source\PSoC5/ErikaOS_1_cortex_mx_ee_cpu.inc **** 	EE_UREG ie;
 279:Generated_Source\PSoC5/ErikaOS_1_cortex_mx_ee_cpu.inc **** #endif
 280:Generated_Source\PSoC5/ErikaOS_1_cortex_mx_ee_cpu.inc **** #ifdef __IAR__
 281:Generated_Source\PSoC5/ErikaOS_1_cortex_mx_ee_cpu.inc **** 	ie = __get_PRIMASK();
 282:Generated_Source\PSoC5/ErikaOS_1_cortex_mx_ee_cpu.inc **** #else	/* __IAR__ */
 283:Generated_Source\PSoC5/ErikaOS_1_cortex_mx_ee_cpu.inc **** #ifdef __CCS__
 284:Generated_Source\PSoC5/ErikaOS_1_cortex_mx_ee_cpu.inc **** 	__ASM ("    MRS     r0, PRIMASK\n"
 285:Generated_Source\PSoC5/ErikaOS_1_cortex_mx_ee_cpu.inc **** 	       "    EOR     r0, #1\n"
 286:Generated_Source\PSoC5/ErikaOS_1_cortex_mx_ee_cpu.inc **** 	       "    bx      lr\n");
 287:Generated_Source\PSoC5/ErikaOS_1_cortex_mx_ee_cpu.inc **** #else	/* __CCS__ */
 288:Generated_Source\PSoC5/ErikaOS_1_cortex_mx_ee_cpu.inc **** #ifdef __KEIL__
 289:Generated_Source\PSoC5/ErikaOS_1_cortex_mx_ee_cpu.inc **** 	register EE_FREG PRIMASK __ASM("primask");
 290:Generated_Source\PSoC5/ErikaOS_1_cortex_mx_ee_cpu.inc **** 	ie = PRIMASK;
 291:Generated_Source\PSoC5/ErikaOS_1_cortex_mx_ee_cpu.inc **** #else	/* __KEIL__ */
 292:Generated_Source\PSoC5/ErikaOS_1_cortex_mx_ee_cpu.inc **** 	__ASM volatile ("MRS %0, primask" : "=r" (ie) );
 293:Generated_Source\PSoC5/ErikaOS_1_cortex_mx_ee_cpu.inc **** #endif	/* !__KEIL__ */
 294:Generated_Source\PSoC5/ErikaOS_1_cortex_mx_ee_cpu.inc **** #endif	/* !__CCS__ */
 295:Generated_Source\PSoC5/ErikaOS_1_cortex_mx_ee_cpu.inc **** #endif	/* !__IAR__ */
 296:Generated_Source\PSoC5/ErikaOS_1_cortex_mx_ee_cpu.inc **** #ifdef __CCS__
 297:Generated_Source\PSoC5/ErikaOS_1_cortex_mx_ee_cpu.inc **** 	return 0;
 298:Generated_Source\PSoC5/ErikaOS_1_cortex_mx_ee_cpu.inc **** #else
 299:Generated_Source\PSoC5/ErikaOS_1_cortex_mx_ee_cpu.inc **** 	return EE_cortex_mx_are_IRQs_enabled(ie);
 300:Generated_Source\PSoC5/ErikaOS_1_cortex_mx_ee_cpu.inc **** #endif
 301:Generated_Source\PSoC5/ErikaOS_1_cortex_mx_ee_cpu.inc **** }
 302:Generated_Source\PSoC5/ErikaOS_1_cortex_mx_ee_cpu.inc **** 
 303:Generated_Source\PSoC5/ErikaOS_1_cortex_mx_ee_cpu.inc **** __INLINE__ EE_TYPEISR2PRIO  EE_cortex_mx_get_int_prio(void)
 304:Generated_Source\PSoC5/ErikaOS_1_cortex_mx_ee_cpu.inc **** {
 305:Generated_Source\PSoC5/ErikaOS_1_cortex_mx_ee_cpu.inc **** #ifdef __CORTEX_M4__
 306:Generated_Source\PSoC5/ErikaOS_1_cortex_mx_ee_cpu.inc **** 
 307:Generated_Source\PSoC5/ErikaOS_1_cortex_mx_ee_cpu.inc **** #ifndef __CCS__
 308:Generated_Source\PSoC5/ErikaOS_1_cortex_mx_ee_cpu.inc **** 	register EE_UREG prio;
 309:Generated_Source\PSoC5/ErikaOS_1_cortex_mx_ee_cpu.inc **** #ifdef	__KEIL__
 310:Generated_Source\PSoC5/ErikaOS_1_cortex_mx_ee_cpu.inc **** 	register EE_FREG BASEPRI __ASM("basepri");
 311:Generated_Source\PSoC5/ErikaOS_1_cortex_mx_ee_cpu.inc **** #endif
 312:Generated_Source\PSoC5/ErikaOS_1_cortex_mx_ee_cpu.inc **** 
 313:Generated_Source\PSoC5/ErikaOS_1_cortex_mx_ee_cpu.inc **** #endif
 314:Generated_Source\PSoC5/ErikaOS_1_cortex_mx_ee_cpu.inc **** 
 315:Generated_Source\PSoC5/ErikaOS_1_cortex_mx_ee_cpu.inc **** #ifdef __CCS__
ARM GAS  C:\Users\robom\AppData\Local\Temp\cckcVs4S.s 			page 9


 316:Generated_Source\PSoC5/ErikaOS_1_cortex_mx_ee_cpu.inc **** 	/* NVIC_INT_PRI_S = 5 */
 317:Generated_Source\PSoC5/ErikaOS_1_cortex_mx_ee_cpu.inc **** 	__ASM ("    MRS     R0, BASEPRI\n"
 318:Generated_Source\PSoC5/ErikaOS_1_cortex_mx_ee_cpu.inc **** 	       "    ASR     R0, #5\n"
 319:Generated_Source\PSoC5/ErikaOS_1_cortex_mx_ee_cpu.inc **** 	       "    BLX     LR\n");
 320:Generated_Source\PSoC5/ErikaOS_1_cortex_mx_ee_cpu.inc **** #else	/* __CCS__ */
 321:Generated_Source\PSoC5/ErikaOS_1_cortex_mx_ee_cpu.inc **** #ifdef __KEIL__
 322:Generated_Source\PSoC5/ErikaOS_1_cortex_mx_ee_cpu.inc **** 	prio = BASEPRI;
 323:Generated_Source\PSoC5/ErikaOS_1_cortex_mx_ee_cpu.inc **** #else	/* __KEIL__ */
 324:Generated_Source\PSoC5/ErikaOS_1_cortex_mx_ee_cpu.inc **** #ifdef __GNU__
 325:Generated_Source\PSoC5/ErikaOS_1_cortex_mx_ee_cpu.inc **** 	__ASM volatile("MRS %0, BASEPRI" : "=r" (prio) :: );
  82              		.loc 2 325 0
  83              		.syntax unified
  84              	@ 325 "Generated_Source\PSoC5/ErikaOS_1_cortex_mx_ee_cpu.inc" 1
  85 000c EFF31184 		MRS r4, BASEPRI
  86              	@ 0 "" 2
  87              	.LVL2:
  88              		.thumb
  89              		.syntax unified
  90              	.LBE83:
  91              	.LBE82:
  92              	.LBB84:
  93              	.LBB85:
 326:Generated_Source\PSoC5/ErikaOS_1_cortex_mx_ee_cpu.inc **** #else
 327:Generated_Source\PSoC5/ErikaOS_1_cortex_mx_ee_cpu.inc **** 	__ASM volatile("MRS %0, BASEPRI" :: "=r" (prio));
 328:Generated_Source\PSoC5/ErikaOS_1_cortex_mx_ee_cpu.inc **** #endif	/* !__GNU__ */
 329:Generated_Source\PSoC5/ErikaOS_1_cortex_mx_ee_cpu.inc **** #endif	/* !__KEIL__ */
 330:Generated_Source\PSoC5/ErikaOS_1_cortex_mx_ee_cpu.inc **** #endif	/* !__CCS__ */
 331:Generated_Source\PSoC5/ErikaOS_1_cortex_mx_ee_cpu.inc **** 
 332:Generated_Source\PSoC5/ErikaOS_1_cortex_mx_ee_cpu.inc **** #ifdef __CCS__
 333:Generated_Source\PSoC5/ErikaOS_1_cortex_mx_ee_cpu.inc **** 	return 0;
 334:Generated_Source\PSoC5/ErikaOS_1_cortex_mx_ee_cpu.inc **** #else
 335:Generated_Source\PSoC5/ErikaOS_1_cortex_mx_ee_cpu.inc **** 	return prio >> NVIC_INT_PRI_S;
 336:Generated_Source\PSoC5/ErikaOS_1_cortex_mx_ee_cpu.inc **** #endif
 337:Generated_Source\PSoC5/ErikaOS_1_cortex_mx_ee_cpu.inc **** 
 338:Generated_Source\PSoC5/ErikaOS_1_cortex_mx_ee_cpu.inc **** #else	/* __CORTEX_M4__ */
 339:Generated_Source\PSoC5/ErikaOS_1_cortex_mx_ee_cpu.inc **** 	return 0;
 340:Generated_Source\PSoC5/ErikaOS_1_cortex_mx_ee_cpu.inc **** #endif	/* !__CORTEX_M4__ */
 341:Generated_Source\PSoC5/ErikaOS_1_cortex_mx_ee_cpu.inc **** }
 342:Generated_Source\PSoC5/ErikaOS_1_cortex_mx_ee_cpu.inc **** 
 343:Generated_Source\PSoC5/ErikaOS_1_cortex_mx_ee_cpu.inc **** __INLINE__ void  EE_cortex_mx_set_int_prio(
 344:Generated_Source\PSoC5/ErikaOS_1_cortex_mx_ee_cpu.inc ****   EE_TYPEISR2PRIO prio
 345:Generated_Source\PSoC5/ErikaOS_1_cortex_mx_ee_cpu.inc **** )
 346:Generated_Source\PSoC5/ErikaOS_1_cortex_mx_ee_cpu.inc **** {
 347:Generated_Source\PSoC5/ErikaOS_1_cortex_mx_ee_cpu.inc **** #ifdef __CORTEX_M4__
 348:Generated_Source\PSoC5/ErikaOS_1_cortex_mx_ee_cpu.inc **** #ifdef __CCS__
 349:Generated_Source\PSoC5/ErikaOS_1_cortex_mx_ee_cpu.inc **** 	/* NVIC_INT_PRI_S = 5 */
 350:Generated_Source\PSoC5/ErikaOS_1_cortex_mx_ee_cpu.inc **** 	__ASM ("    LSL    R0, #5\n"
 351:Generated_Source\PSoC5/ErikaOS_1_cortex_mx_ee_cpu.inc **** 	       "    MSR    BASEPRI, R0\n");
 352:Generated_Source\PSoC5/ErikaOS_1_cortex_mx_ee_cpu.inc **** #else	/* __CCS__ */
 353:Generated_Source\PSoC5/ErikaOS_1_cortex_mx_ee_cpu.inc **** #ifdef __KEIL__
 354:Generated_Source\PSoC5/ErikaOS_1_cortex_mx_ee_cpu.inc **** 	register EE_FREG BASEPRI __ASM("basepri");
 355:Generated_Source\PSoC5/ErikaOS_1_cortex_mx_ee_cpu.inc **** 	BASEPRI = (prio << NVIC_INT_PRI_S);
 356:Generated_Source\PSoC5/ErikaOS_1_cortex_mx_ee_cpu.inc **** #else	/* __KEIL__ */
 357:Generated_Source\PSoC5/ErikaOS_1_cortex_mx_ee_cpu.inc **** #ifdef __GNU__
 358:Generated_Source\PSoC5/ErikaOS_1_cortex_mx_ee_cpu.inc **** 	__ASM volatile("MSR BASEPRI, %0" :: "r" (prio << NVIC_INT_PRI_S) : );
 359:Generated_Source\PSoC5/ErikaOS_1_cortex_mx_ee_cpu.inc **** #else
 360:Generated_Source\PSoC5/ErikaOS_1_cortex_mx_ee_cpu.inc **** 	__ASM volatile("MSR BASEPRI, %0" :: "r" (prio << NVIC_INT_PRI_S));
ARM GAS  C:\Users\robom\AppData\Local\Temp\cckcVs4S.s 			page 10


 361:Generated_Source\PSoC5/ErikaOS_1_cortex_mx_ee_cpu.inc **** #endif	/* !__GNU__ */
 362:Generated_Source\PSoC5/ErikaOS_1_cortex_mx_ee_cpu.inc **** #endif	/* !__KEIL__ */
 363:Generated_Source\PSoC5/ErikaOS_1_cortex_mx_ee_cpu.inc **** #endif	/* !__CCS__ */
 364:Generated_Source\PSoC5/ErikaOS_1_cortex_mx_ee_cpu.inc **** #endif	/* __CORTEX_M4__ */
 365:Generated_Source\PSoC5/ErikaOS_1_cortex_mx_ee_cpu.inc **** }
 366:Generated_Source\PSoC5/ErikaOS_1_cortex_mx_ee_cpu.inc **** 
 367:Generated_Source\PSoC5/ErikaOS_1_cortex_mx_ee_cpu.inc **** __INLINE__ EE_TYPEISR2PRIO  EE_cortex_mx_get_isr_prio(
 368:Generated_Source\PSoC5/ErikaOS_1_cortex_mx_ee_cpu.inc ****   void
 369:Generated_Source\PSoC5/ErikaOS_1_cortex_mx_ee_cpu.inc **** )
 370:Generated_Source\PSoC5/ErikaOS_1_cortex_mx_ee_cpu.inc **** {
 371:Generated_Source\PSoC5/ErikaOS_1_cortex_mx_ee_cpu.inc **** #ifdef __CORTEX_M4__
 372:Generated_Source\PSoC5/ErikaOS_1_cortex_mx_ee_cpu.inc ****   register EE_UREG vectact = NVIC_INT_CTRL_R & NVIC_INT_CTRL_VEC_ACT_M;
  94              		.loc 2 372 0
  95 0010 1E4B     		ldr	r3, .L9
  96 0012 1B68     		ldr	r3, [r3]
  97 0014 DBB2     		uxtb	r3, r3
  98              	.LVL3:
 373:Generated_Source\PSoC5/ErikaOS_1_cortex_mx_ee_cpu.inc ****   register EE_TYPEISR2PRIO prio = 0;
 374:Generated_Source\PSoC5/ErikaOS_1_cortex_mx_ee_cpu.inc **** 
 375:Generated_Source\PSoC5/ErikaOS_1_cortex_mx_ee_cpu.inc ****   if (vectact > EE_CORTEX_MX_SYSTICK_EXC_NUM) {
  99              		.loc 2 375 0
 100 0016 0F2B     		cmp	r3, #15
 101 0018 10D9     		bls	.L4
 376:Generated_Source\PSoC5/ErikaOS_1_cortex_mx_ee_cpu.inc ****     vectact -= EE_CORTEX_MX_SYSTICK_EXC_NUM + 1;
 102              		.loc 2 376 0
 103 001a 103B     		subs	r3, r3, #16
 104              	.LVL4:
 377:Generated_Source\PSoC5/ErikaOS_1_cortex_mx_ee_cpu.inc ****     prio = NVIC_GET_PRI(vectact);
 105              		.loc 2 377 0
 106 001c 23F00302 		bic	r2, r3, #3
 107 0020 02F16042 		add	r2, r2, #-536870912
 108 0024 02F56442 		add	r2, r2, #58368
 109 0028 1168     		ldr	r1, [r2]
 110 002a DB00     		lsls	r3, r3, #3
 111              	.LVL5:
 112 002c 03F01803 		and	r3, r3, #24
 113 0030 E022     		movs	r2, #224
 114 0032 9A40     		lsls	r2, r2, r3
 115 0034 0A40     		ands	r2, r2, r1
 116 0036 22FA03F3 		lsr	r3, r2, r3
 117              	.LVL6:
 118 003a 06E0     		b	.L5
 119              	.LVL7:
 120              	.L4:
 378:Generated_Source\PSoC5/ErikaOS_1_cortex_mx_ee_cpu.inc ****   }
 379:Generated_Source\PSoC5/ErikaOS_1_cortex_mx_ee_cpu.inc **** #ifdef	__USE_SYSTICK__
 380:Generated_Source\PSoC5/ErikaOS_1_cortex_mx_ee_cpu.inc ****   else if (vectact == EE_CORTEX_MX_SYSTICK_EXC_NUM) {
 121              		.loc 2 380 0
 122 003c 0F2B     		cmp	r3, #15
 123 003e 03D1     		bne	.L8
 381:Generated_Source\PSoC5/ErikaOS_1_cortex_mx_ee_cpu.inc ****     prio = NVIC_SYS_PRI3_R >> NVIC_SYS_PRI3_TICK_S;
 124              		.loc 2 381 0
 125 0040 134B     		ldr	r3, .L9+4
 126              	.LVL8:
 127 0042 1B68     		ldr	r3, [r3]
 128 0044 1B0E     		lsrs	r3, r3, #24
 129              	.LVL9:
ARM GAS  C:\Users\robom\AppData\Local\Temp\cckcVs4S.s 			page 11


 130 0046 00E0     		b	.L5
 131              	.LVL10:
 132              	.L8:
 373:Generated_Source\PSoC5/ErikaOS_1_cortex_mx_ee_cpu.inc **** 
 133              		.loc 2 373 0
 134 0048 0023     		movs	r3, #0
 135              	.LVL11:
 136              	.L5:
 137              	.LBE85:
 138              	.LBE84:
 139              	.LBB86:
 140              	.LBB87:
 358:Generated_Source\PSoC5/ErikaOS_1_cortex_mx_ee_cpu.inc **** #else
 141              		.loc 2 358 0
 142              		.syntax unified
 143              	@ 358 "Generated_Source\PSoC5/ErikaOS_1_cortex_mx_ee_cpu.inc" 1
 144 004a 83F31188 		MSR BASEPRI, r3
 145              	@ 0 "" 2
 146              		.thumb
 147              		.syntax unified
 148              	.LBE87:
 149              	.LBE86:
 150              	.LBB88:
 151              	.LBB89:
 152              		.file 3 "Generated_Source\\PSoC5/ErikaOS_1_common_ee_irqstub.inc"
   1:Generated_Source\PSoC5/ErikaOS_1_common_ee_irqstub.inc **** /* ###*B*###
   2:Generated_Source\PSoC5/ErikaOS_1_common_ee_irqstub.inc ****  * ERIKA Enterprise - a tiny RTOS for small microcontrollers
   3:Generated_Source\PSoC5/ErikaOS_1_common_ee_irqstub.inc ****  *
   4:Generated_Source\PSoC5/ErikaOS_1_common_ee_irqstub.inc ****  * Copyright (C) 2002-2010  Evidence Srl
   5:Generated_Source\PSoC5/ErikaOS_1_common_ee_irqstub.inc ****  *
   6:Generated_Source\PSoC5/ErikaOS_1_common_ee_irqstub.inc ****  * This file is part of ERIKA Enterprise.
   7:Generated_Source\PSoC5/ErikaOS_1_common_ee_irqstub.inc ****  *
   8:Generated_Source\PSoC5/ErikaOS_1_common_ee_irqstub.inc ****  * ERIKA Enterprise is free software; you can redistribute it
   9:Generated_Source\PSoC5/ErikaOS_1_common_ee_irqstub.inc ****  * and/or modify it under the terms of the GNU General Public License
  10:Generated_Source\PSoC5/ErikaOS_1_common_ee_irqstub.inc ****  * version 2 as published by the Free Software Foundation,
  11:Generated_Source\PSoC5/ErikaOS_1_common_ee_irqstub.inc ****  * (with a special exception described below).
  12:Generated_Source\PSoC5/ErikaOS_1_common_ee_irqstub.inc ****  *
  13:Generated_Source\PSoC5/ErikaOS_1_common_ee_irqstub.inc ****  * Linking this code statically or dynamically with other modules is
  14:Generated_Source\PSoC5/ErikaOS_1_common_ee_irqstub.inc ****  * making a combined work based on this code.  Thus, the terms and
  15:Generated_Source\PSoC5/ErikaOS_1_common_ee_irqstub.inc ****  * conditions of the GNU General Public License cover the whole
  16:Generated_Source\PSoC5/ErikaOS_1_common_ee_irqstub.inc ****  * combination.
  17:Generated_Source\PSoC5/ErikaOS_1_common_ee_irqstub.inc ****  *
  18:Generated_Source\PSoC5/ErikaOS_1_common_ee_irqstub.inc ****  * As a special exception, the copyright holders of this library give you
  19:Generated_Source\PSoC5/ErikaOS_1_common_ee_irqstub.inc ****  * permission to link this code with independent modules to produce an
  20:Generated_Source\PSoC5/ErikaOS_1_common_ee_irqstub.inc ****  * executable, regardless of the license terms of these independent
  21:Generated_Source\PSoC5/ErikaOS_1_common_ee_irqstub.inc ****  * modules, and to copy and distribute the resulting executable under
  22:Generated_Source\PSoC5/ErikaOS_1_common_ee_irqstub.inc ****  * terms of your choice, provided that you also meet, for each linked
  23:Generated_Source\PSoC5/ErikaOS_1_common_ee_irqstub.inc ****  * independent module, the terms and conditions of the license of that
  24:Generated_Source\PSoC5/ErikaOS_1_common_ee_irqstub.inc ****  * module.  An independent module is a module which is not derived from
  25:Generated_Source\PSoC5/ErikaOS_1_common_ee_irqstub.inc ****  * or based on this library.  If you modify this code, you may extend
  26:Generated_Source\PSoC5/ErikaOS_1_common_ee_irqstub.inc ****  * this exception to your version of the code, but you are not
  27:Generated_Source\PSoC5/ErikaOS_1_common_ee_irqstub.inc ****  * obligated to do so.  If you do not wish to do so, delete this
  28:Generated_Source\PSoC5/ErikaOS_1_common_ee_irqstub.inc ****  * exception statement from your version.
  29:Generated_Source\PSoC5/ErikaOS_1_common_ee_irqstub.inc ****  *
  30:Generated_Source\PSoC5/ErikaOS_1_common_ee_irqstub.inc ****  * ERIKA Enterprise is distributed in the hope that it will be
  31:Generated_Source\PSoC5/ErikaOS_1_common_ee_irqstub.inc ****  * useful, but WITHOUT ANY WARRANTY; without even the implied warranty
  32:Generated_Source\PSoC5/ErikaOS_1_common_ee_irqstub.inc ****  * of MERCHANTABILITY or FITNESS FOR A PARTICULAR PURPOSE.  See the
ARM GAS  C:\Users\robom\AppData\Local\Temp\cckcVs4S.s 			page 12


  33:Generated_Source\PSoC5/ErikaOS_1_common_ee_irqstub.inc ****  * GNU General Public License version 2 for more details.
  34:Generated_Source\PSoC5/ErikaOS_1_common_ee_irqstub.inc ****  *
  35:Generated_Source\PSoC5/ErikaOS_1_common_ee_irqstub.inc ****  * You should have received a copy of the GNU General Public License
  36:Generated_Source\PSoC5/ErikaOS_1_common_ee_irqstub.inc ****  * version 2 along with ERIKA Enterprise; if not, write to the
  37:Generated_Source\PSoC5/ErikaOS_1_common_ee_irqstub.inc ****  * Free Software Foundation, Inc., 51 Franklin Street, Fifth Floor,
  38:Generated_Source\PSoC5/ErikaOS_1_common_ee_irqstub.inc ****  * Boston, MA 02110-1301 USA.
  39:Generated_Source\PSoC5/ErikaOS_1_common_ee_irqstub.inc ****  * ###*E*### */
  40:Generated_Source\PSoC5/ErikaOS_1_common_ee_irqstub.inc **** 
  41:Generated_Source\PSoC5/ErikaOS_1_common_ee_irqstub.inc **** /*
  42:Generated_Source\PSoC5/ErikaOS_1_common_ee_irqstub.inc ****  * Some IRQ-related stuff.
  43:Generated_Source\PSoC5/ErikaOS_1_common_ee_irqstub.inc ****  * Author: 2009-2010,  Bernardo  Dal Seno
  44:Generated_Source\PSoC5/ErikaOS_1_common_ee_irqstub.inc ****  */
  45:Generated_Source\PSoC5/ErikaOS_1_common_ee_irqstub.inc **** 
  46:Generated_Source\PSoC5/ErikaOS_1_common_ee_irqstub.inc **** /*
  47:Generated_Source\PSoC5/ErikaOS_1_common_ee_irqstub.inc ****  * PSoC Port and API Generation
  48:Generated_Source\PSoC5/ErikaOS_1_common_ee_irqstub.inc ****  * Carlos Fernando Meier Martinez
  49:Generated_Source\PSoC5/ErikaOS_1_common_ee_irqstub.inc ****  * Hochschule Darmstadt, Germany. 2017.
  50:Generated_Source\PSoC5/ErikaOS_1_common_ee_irqstub.inc ****  */
  51:Generated_Source\PSoC5/ErikaOS_1_common_ee_irqstub.inc **** 
  52:Generated_Source\PSoC5/ErikaOS_1_common_ee_irqstub.inc **** /*******************************************************************************
  53:Generated_Source\PSoC5/ErikaOS_1_common_ee_irqstub.inc ****  *                        !!!WARNING!!!
  54:Generated_Source\PSoC5/ErikaOS_1_common_ee_irqstub.inc ****  * This header depends on "cpu/common/inc/ee_context.inc" or your own
  55:Generated_Source\PSoC5/ErikaOS_1_common_ee_irqstub.inc ****  * implementation of the same. You should include it file before including this
  56:Generated_Source\PSoC5/ErikaOS_1_common_ee_irqstub.inc ****  * file
  57:Generated_Source\PSoC5/ErikaOS_1_common_ee_irqstub.inc ****  ******************************************************************************/
  58:Generated_Source\PSoC5/ErikaOS_1_common_ee_irqstub.inc **** 
  59:Generated_Source\PSoC5/ErikaOS_1_common_ee_irqstub.inc **** #ifndef PKG_CPU_COMMON_INC_EE_IRQSTUB_H
  60:Generated_Source\PSoC5/ErikaOS_1_common_ee_irqstub.inc **** #define PKG_CPU_COMMON_INC_EE_IRQSTUB_H
  61:Generated_Source\PSoC5/ErikaOS_1_common_ee_irqstub.inc **** 
  62:Generated_Source\PSoC5/ErikaOS_1_common_ee_irqstub.inc **** /* this bring EE_IRQ_nesting_level definition */
  63:Generated_Source\PSoC5/ErikaOS_1_common_ee_irqstub.inc **** #include "ErikaOS_1_common_ee_primitives.inc"
  64:Generated_Source\PSoC5/ErikaOS_1_common_ee_irqstub.inc **** 
  65:Generated_Source\PSoC5/ErikaOS_1_common_ee_irqstub.inc **** /* True if we are inside an interrupt-serving routine */
  66:Generated_Source\PSoC5/ErikaOS_1_common_ee_irqstub.inc **** __INLINE__ EE_TYPEBOOL  EE_is_inside_ISR_call( void )
  67:Generated_Source\PSoC5/ErikaOS_1_common_ee_irqstub.inc **** {
  68:Generated_Source\PSoC5/ErikaOS_1_common_ee_irqstub.inc ****   return (EE_IRQ_nesting_level > 0U);
  69:Generated_Source\PSoC5/ErikaOS_1_common_ee_irqstub.inc **** }
  70:Generated_Source\PSoC5/ErikaOS_1_common_ee_irqstub.inc **** 
  71:Generated_Source\PSoC5/ErikaOS_1_common_ee_irqstub.inc **** 
  72:Generated_Source\PSoC5/ErikaOS_1_common_ee_irqstub.inc **** /* EE_decrement_IRQ_nesting_level() and EE_increment_IRQ_nesting_level() are
  73:Generated_Source\PSoC5/ErikaOS_1_common_ee_irqstub.inc ****  * used to keep track of the current IRQ nesting level.
  74:Generated_Source\PSoC5/ErikaOS_1_common_ee_irqstub.inc ****  * EE_std_enableIRQ_nested() and EE_std_disableIRQ_nested() are used to control
  75:Generated_Source\PSoC5/ErikaOS_1_common_ee_irqstub.inc ****  * when IRQ nesting is enabled.
  76:Generated_Source\PSoC5/ErikaOS_1_common_ee_irqstub.inc ****  */
  77:Generated_Source\PSoC5/ErikaOS_1_common_ee_irqstub.inc **** #if defined(__AS_SC4__)
  78:Generated_Source\PSoC5/ErikaOS_1_common_ee_irqstub.inc **** /* For SC4 the nesting level is updated inside the prestub and postub */
  79:Generated_Source\PSoC5/ErikaOS_1_common_ee_irqstub.inc **** __INLINE__ void  EE_decrement_IRQ_nesting_level(void) {}
  80:Generated_Source\PSoC5/ErikaOS_1_common_ee_irqstub.inc **** __INLINE__ void  EE_increment_IRQ_nesting_level(void) {}
  81:Generated_Source\PSoC5/ErikaOS_1_common_ee_irqstub.inc **** __INLINE__ void  EE_std_enableIRQ_nested(void) {}
  82:Generated_Source\PSoC5/ErikaOS_1_common_ee_irqstub.inc **** __INLINE__ void  EE_std_disableIRQ_nested(void) {}
  83:Generated_Source\PSoC5/ErikaOS_1_common_ee_irqstub.inc **** #elif defined(__ALLOW_NESTED_IRQ__)
  84:Generated_Source\PSoC5/ErikaOS_1_common_ee_irqstub.inc **** __INLINE__ void  EE_decrement_IRQ_nesting_level(void) { --EE_IRQ_nesting_level; }
  85:Generated_Source\PSoC5/ErikaOS_1_common_ee_irqstub.inc **** __INLINE__ void  EE_increment_IRQ_nesting_level(void) { ++EE_IRQ_nesting_level; }
 153              		.loc 3 85 0
 154 004e 114A     		ldr	r2, .L9+8
 155 0050 1368     		ldr	r3, [r2]
 156 0052 0133     		adds	r3, r3, #1
ARM GAS  C:\Users\robom\AppData\Local\Temp\cckcVs4S.s 			page 13


 157 0054 1360     		str	r3, [r2]
 158              	.LBE89:
 159              	.LBE88:
  57:source\asw/main.c **** {
 160              		.loc 1 57 0
 161 0056 012B     		cmp	r3, #1
 162 0058 01D1     		bne	.L6
  57:source\asw/main.c **** {
 163              		.loc 1 57 0 is_stmt 0 discriminator 1
 164 005a FFF7FEFF 		bl	EE_cortex_mx_change_IRQ_stack
 165              	.LVL12:
 166              	.L6:
 167              	.LBB90:
 168              	.LBB91:
 191:Generated_Source\PSoC5/ErikaOS_1_cortex_mx_ee_cpu.inc **** #endif	/* !__KEIL__ */
 169              		.loc 2 191 0 is_stmt 1 discriminator 3
 170              		.syntax unified
 171              	@ 191 "Generated_Source\PSoC5/ErikaOS_1_cortex_mx_ee_cpu.inc" 1
 172 005e 62B6     		cpsie i
 173              	@ 0 "" 2
 174              		.thumb
 175              		.syntax unified
 176              	.LBE91:
 177              	.LBE90:
  57:source\asw/main.c **** {
 178              		.loc 1 57 0 discriminator 3
 179 0060 FFF7FEFF 		bl	ISR2_systick_handler
 180              	.LVL13:
 181              	.LBB92:
 182              	.LBB93:
 211:Generated_Source\PSoC5/ErikaOS_1_cortex_mx_ee_cpu.inc **** #endif	/* !__KEIL__ */
 183              		.loc 2 211 0 discriminator 3
 184              		.syntax unified
 185              	@ 211 "Generated_Source\PSoC5/ErikaOS_1_cortex_mx_ee_cpu.inc" 1
 186 0064 72B6     		cpsid i
 187              	@ 0 "" 2
 188              	.LVL14:
 189              		.thumb
 190              		.syntax unified
 191              	.LBE93:
 192              	.LBE92:
 193              	.LBB94:
 194              	.LBB95:
 358:Generated_Source\PSoC5/ErikaOS_1_cortex_mx_ee_cpu.inc **** #else
 195              		.loc 2 358 0 discriminator 3
 196              		.syntax unified
 197              	@ 358 "Generated_Source\PSoC5/ErikaOS_1_cortex_mx_ee_cpu.inc" 1
 198 0066 84F31188 		MSR BASEPRI, r4
 199              	@ 0 "" 2
 200              	.LVL15:
 201              		.thumb
 202              		.syntax unified
 203              	.LBE95:
 204              	.LBE94:
 205              	.LBB96:
 206              	.LBB97:
  86:Generated_Source\PSoC5/ErikaOS_1_common_ee_irqstub.inc **** /*  EE_std_enableIRQ_nested() and EE_std_disableIRQ_nested() must be defined in
ARM GAS  C:\Users\robom\AppData\Local\Temp\cckcVs4S.s 			page 14


  87:Generated_Source\PSoC5/ErikaOS_1_common_ee_irqstub.inc ****  *  the platform-dependent part, as they dependend on the particular way
  88:Generated_Source\PSoC5/ErikaOS_1_common_ee_irqstub.inc ****  *  interrupts are handled by the CPU. */
  89:Generated_Source\PSoC5/ErikaOS_1_common_ee_irqstub.inc **** #else
  90:Generated_Source\PSoC5/ErikaOS_1_common_ee_irqstub.inc **** __INLINE__ void  EE_decrement_IRQ_nesting_level(void) { EE_IRQ_nesting_level = 0U; }
  91:Generated_Source\PSoC5/ErikaOS_1_common_ee_irqstub.inc **** __INLINE__ void  EE_increment_IRQ_nesting_level(void) { EE_IRQ_nesting_level = 1U; }
  92:Generated_Source\PSoC5/ErikaOS_1_common_ee_irqstub.inc **** __INLINE__ void  EE_std_enableIRQ_nested(void) {}
  93:Generated_Source\PSoC5/ErikaOS_1_common_ee_irqstub.inc **** __INLINE__ void  EE_std_disableIRQ_nested(void) {}
  94:Generated_Source\PSoC5/ErikaOS_1_common_ee_irqstub.inc **** #endif
  95:Generated_Source\PSoC5/ErikaOS_1_common_ee_irqstub.inc **** 
  96:Generated_Source\PSoC5/ErikaOS_1_common_ee_irqstub.inc **** #if (defined(__OO_BCC1__)) || (defined(__OO_BCC2__)) || (defined(__OO_ECC1__)) \
  97:Generated_Source\PSoC5/ErikaOS_1_common_ee_irqstub.inc ****   || (defined(__OO_ECC2__)) || (defined(__AS_SC4__))
  98:Generated_Source\PSoC5/ErikaOS_1_common_ee_irqstub.inc **** /* Function to be called at the end of a function service interrupt, to execute
  99:Generated_Source\PSoC5/ErikaOS_1_common_ee_irqstub.inc ****    clean-up specifiend in Autosar standard */
 100:Generated_Source\PSoC5/ErikaOS_1_common_ee_irqstub.inc **** __INLINE__ void  EE_std_end_IRQ_post_stub(void)
 101:Generated_Source\PSoC5/ErikaOS_1_common_ee_irqstub.inc **** {
 102:Generated_Source\PSoC5/ErikaOS_1_common_ee_irqstub.inc ****   EE_IRQ_end_post_stub();
 207              		.loc 3 102 0 discriminator 3
 208 006a FFF7FEFF 		bl	EE_IRQ_end_post_stub
 209              	.LVL16:
 210              	.LBE97:
 211              	.LBE96:
 212              	.LBB98:
 213              	.LBB99:
  84:Generated_Source\PSoC5/ErikaOS_1_common_ee_irqstub.inc **** __INLINE__ void  EE_increment_IRQ_nesting_level(void) { ++EE_IRQ_nesting_level; }
 214              		.loc 3 84 0 discriminator 3
 215 006e 094A     		ldr	r2, .L9+8
 216 0070 1368     		ldr	r3, [r2]
 217 0072 013B     		subs	r3, r3, #1
 218 0074 1360     		str	r3, [r2]
 219              	.LBE99:
 220              	.LBE98:
  57:source\asw/main.c **** {
 221              		.loc 1 57 0 discriminator 3
 222 0076 1BB9     		cbnz	r3, .L7
  57:source\asw/main.c **** {
 223              		.loc 1 57 0 is_stmt 0 discriminator 4
 224 0078 FFF7FEFF 		bl	EE_cortex_mx_change_IRQ_stack_back
 225              	.LVL17:
 226              	.LBB100:
 227              	.LBB101:
 228              		.file 4 "Generated_Source\\PSoC5/ErikaOS_1_cortex_mx_ee_irq_cng_cont.inc"
   1:Generated_Source\PSoC5/ErikaOS_1_cortex_mx_ee_irq_cng_cont.inc **** /* ###*B*###
   2:Generated_Source\PSoC5/ErikaOS_1_cortex_mx_ee_irq_cng_cont.inc ****  * ERIKA Enterprise - a tiny RTOS for small microcontrollers
   3:Generated_Source\PSoC5/ErikaOS_1_cortex_mx_ee_irq_cng_cont.inc ****  *
   4:Generated_Source\PSoC5/ErikaOS_1_cortex_mx_ee_irq_cng_cont.inc ****  * Copyright (C) 2002-2011  Evidence Srl
   5:Generated_Source\PSoC5/ErikaOS_1_cortex_mx_ee_irq_cng_cont.inc ****  *
   6:Generated_Source\PSoC5/ErikaOS_1_cortex_mx_ee_irq_cng_cont.inc ****  * This file is part of ERIKA Enterprise.
   7:Generated_Source\PSoC5/ErikaOS_1_cortex_mx_ee_irq_cng_cont.inc ****  *
   8:Generated_Source\PSoC5/ErikaOS_1_cortex_mx_ee_irq_cng_cont.inc ****  * ERIKA Enterprise is free software; you can redistribute it
   9:Generated_Source\PSoC5/ErikaOS_1_cortex_mx_ee_irq_cng_cont.inc ****  * and/or modify it under the terms of the GNU General Public License
  10:Generated_Source\PSoC5/ErikaOS_1_cortex_mx_ee_irq_cng_cont.inc ****  * version 2 as published by the Free Software Foundation, 
  11:Generated_Source\PSoC5/ErikaOS_1_cortex_mx_ee_irq_cng_cont.inc ****  * (with a special exception described below).
  12:Generated_Source\PSoC5/ErikaOS_1_cortex_mx_ee_irq_cng_cont.inc ****  *
  13:Generated_Source\PSoC5/ErikaOS_1_cortex_mx_ee_irq_cng_cont.inc ****  * Linking this code statically or dynamically with other modules is
  14:Generated_Source\PSoC5/ErikaOS_1_cortex_mx_ee_irq_cng_cont.inc ****  * making a combined work based on this code.  Thus, the terms and
  15:Generated_Source\PSoC5/ErikaOS_1_cortex_mx_ee_irq_cng_cont.inc ****  * conditions of the GNU General Public License cover the whole
  16:Generated_Source\PSoC5/ErikaOS_1_cortex_mx_ee_irq_cng_cont.inc ****  * combination.
ARM GAS  C:\Users\robom\AppData\Local\Temp\cckcVs4S.s 			page 15


  17:Generated_Source\PSoC5/ErikaOS_1_cortex_mx_ee_irq_cng_cont.inc ****  *
  18:Generated_Source\PSoC5/ErikaOS_1_cortex_mx_ee_irq_cng_cont.inc ****  * As a special exception, the copyright holders of this library give you
  19:Generated_Source\PSoC5/ErikaOS_1_cortex_mx_ee_irq_cng_cont.inc ****  * permission to link this code with independent modules to produce an
  20:Generated_Source\PSoC5/ErikaOS_1_cortex_mx_ee_irq_cng_cont.inc ****  * executable, regardless of the license terms of these independent
  21:Generated_Source\PSoC5/ErikaOS_1_cortex_mx_ee_irq_cng_cont.inc ****  * modules, and to copy and distribute the resulting executable under
  22:Generated_Source\PSoC5/ErikaOS_1_cortex_mx_ee_irq_cng_cont.inc ****  * terms of your choice, provided that you also meet, for each linked
  23:Generated_Source\PSoC5/ErikaOS_1_cortex_mx_ee_irq_cng_cont.inc ****  * independent module, the terms and conditions of the license of that
  24:Generated_Source\PSoC5/ErikaOS_1_cortex_mx_ee_irq_cng_cont.inc ****  * module.  An independent module is a module which is not derived from
  25:Generated_Source\PSoC5/ErikaOS_1_cortex_mx_ee_irq_cng_cont.inc ****  * or based on this library.  If you modify this code, you may extend
  26:Generated_Source\PSoC5/ErikaOS_1_cortex_mx_ee_irq_cng_cont.inc ****  * this exception to your version of the code, but you are not
  27:Generated_Source\PSoC5/ErikaOS_1_cortex_mx_ee_irq_cng_cont.inc ****  * obligated to do so.  If you do not wish to do so, delete this
  28:Generated_Source\PSoC5/ErikaOS_1_cortex_mx_ee_irq_cng_cont.inc ****  * exception statement from your version.
  29:Generated_Source\PSoC5/ErikaOS_1_cortex_mx_ee_irq_cng_cont.inc ****  *
  30:Generated_Source\PSoC5/ErikaOS_1_cortex_mx_ee_irq_cng_cont.inc ****  * ERIKA Enterprise is distributed in the hope that it will be
  31:Generated_Source\PSoC5/ErikaOS_1_cortex_mx_ee_irq_cng_cont.inc ****  * useful, but WITHOUT ANY WARRANTY; without even the implied warranty
  32:Generated_Source\PSoC5/ErikaOS_1_cortex_mx_ee_irq_cng_cont.inc ****  * of MERCHANTABILITY or FITNESS FOR A PARTICULAR PURPOSE.  See the
  33:Generated_Source\PSoC5/ErikaOS_1_cortex_mx_ee_irq_cng_cont.inc ****  * GNU General Public License version 2 for more details.
  34:Generated_Source\PSoC5/ErikaOS_1_cortex_mx_ee_irq_cng_cont.inc ****  *
  35:Generated_Source\PSoC5/ErikaOS_1_cortex_mx_ee_irq_cng_cont.inc ****  * You should have received a copy of the GNU General Public License
  36:Generated_Source\PSoC5/ErikaOS_1_cortex_mx_ee_irq_cng_cont.inc ****  * version 2 along with ERIKA Enterprise; if not, write to the
  37:Generated_Source\PSoC5/ErikaOS_1_cortex_mx_ee_irq_cng_cont.inc ****  * Free Software Foundation, Inc., 51 Franklin Street, Fifth Floor,
  38:Generated_Source\PSoC5/ErikaOS_1_cortex_mx_ee_irq_cng_cont.inc ****  * Boston, MA 02110-1301 USA.
  39:Generated_Source\PSoC5/ErikaOS_1_cortex_mx_ee_irq_cng_cont.inc ****  * ###*E*### */
  40:Generated_Source\PSoC5/ErikaOS_1_cortex_mx_ee_irq_cng_cont.inc **** 
  41:Generated_Source\PSoC5/ErikaOS_1_cortex_mx_ee_irq_cng_cont.inc ****  /** 
  42:Generated_Source\PSoC5/ErikaOS_1_cortex_mx_ee_irq_cng_cont.inc **** 	
  43:Generated_Source\PSoC5/ErikaOS_1_cortex_mx_ee_irq_cng_cont.inc **** 	@file	ee_irq_cng_cont.h
  44:Generated_Source\PSoC5/ErikaOS_1_cortex_mx_ee_irq_cng_cont.inc **** 	@brief	Function active the context change interrupt
  45:Generated_Source\PSoC5/ErikaOS_1_cortex_mx_ee_irq_cng_cont.inc **** 	@author	Gianluca Franchino
  46:Generated_Source\PSoC5/ErikaOS_1_cortex_mx_ee_irq_cng_cont.inc **** 	@author	Giuseppe Serano
  47:Generated_Source\PSoC5/ErikaOS_1_cortex_mx_ee_irq_cng_cont.inc **** 	@date	2012
  48:Generated_Source\PSoC5/ErikaOS_1_cortex_mx_ee_irq_cng_cont.inc **** */ 
  49:Generated_Source\PSoC5/ErikaOS_1_cortex_mx_ee_irq_cng_cont.inc ****     
  50:Generated_Source\PSoC5/ErikaOS_1_cortex_mx_ee_irq_cng_cont.inc **** /*
  51:Generated_Source\PSoC5/ErikaOS_1_cortex_mx_ee_irq_cng_cont.inc ****  * PSoC Port and API Generation
  52:Generated_Source\PSoC5/ErikaOS_1_cortex_mx_ee_irq_cng_cont.inc ****  * Carlos Fernando Meier Martinez
  53:Generated_Source\PSoC5/ErikaOS_1_cortex_mx_ee_irq_cng_cont.inc ****  * Hochschule Darmstadt, Germany. 2017.
  54:Generated_Source\PSoC5/ErikaOS_1_cortex_mx_ee_irq_cng_cont.inc ****  */
  55:Generated_Source\PSoC5/ErikaOS_1_cortex_mx_ee_irq_cng_cont.inc **** 
  56:Generated_Source\PSoC5/ErikaOS_1_cortex_mx_ee_irq_cng_cont.inc **** #ifndef __INCLUDE_CORTEX_MX_IRQ_CNG_CONTEXT_H__
  57:Generated_Source\PSoC5/ErikaOS_1_cortex_mx_ee_irq_cng_cont.inc **** #define __INCLUDE_CORTEX_MX_IRQ_CNG_CONTEXT_H__
  58:Generated_Source\PSoC5/ErikaOS_1_cortex_mx_ee_irq_cng_cont.inc **** 
  59:Generated_Source\PSoC5/ErikaOS_1_cortex_mx_ee_irq_cng_cont.inc **** #ifdef __GNU__
  60:Generated_Source\PSoC5/ErikaOS_1_cortex_mx_ee_irq_cng_cont.inc **** #include "ErikaOS_1_common_ee_compiler_gcc.inc"
  61:Generated_Source\PSoC5/ErikaOS_1_cortex_mx_ee_irq_cng_cont.inc **** #endif
  62:Generated_Source\PSoC5/ErikaOS_1_cortex_mx_ee_irq_cng_cont.inc **** 
  63:Generated_Source\PSoC5/ErikaOS_1_cortex_mx_ee_irq_cng_cont.inc **** /* Implemented in ee_<compiler>_change_context_isr.s */
  64:Generated_Source\PSoC5/ErikaOS_1_cortex_mx_ee_irq_cng_cont.inc **** extern void EE_switch_context(void);
  65:Generated_Source\PSoC5/ErikaOS_1_cortex_mx_ee_irq_cng_cont.inc **** 
  66:Generated_Source\PSoC5/ErikaOS_1_cortex_mx_ee_irq_cng_cont.inc **** __INLINE__ void  EE_cortex_mx_IRQ_active_change_context(void)
  67:Generated_Source\PSoC5/ErikaOS_1_cortex_mx_ee_irq_cng_cont.inc **** {
  68:Generated_Source\PSoC5/ErikaOS_1_cortex_mx_ee_irq_cng_cont.inc **** 	EE_switch_context();
 229              		.loc 4 68 0 is_stmt 1 discriminator 4
 230 007c FFF7FEFF 		bl	EE_switch_context
 231              	.LVL18:
 232              	.L7:
 233              	.LBE101:
ARM GAS  C:\Users\robom\AppData\Local\Temp\cckcVs4S.s 			page 16


 234              	.LBE100:
 235              	.LBB102:
 236              	.LBB103:
 191:Generated_Source\PSoC5/ErikaOS_1_cortex_mx_ee_cpu.inc **** #endif	/* !__KEIL__ */
 237              		.loc 2 191 0 discriminator 6
 238              		.syntax unified
 239              	@ 191 "Generated_Source\PSoC5/ErikaOS_1_cortex_mx_ee_cpu.inc" 1
 240 0080 62B6     		cpsie i
 241              	@ 0 "" 2
 242              		.thumb
 243              		.syntax unified
 244              	.LBE103:
 245              	.LBE102:
  57:source\asw/main.c **** {
 246              		.loc 1 57 0 discriminator 6
 247 0082 BDE81940 		pop	{r0, r3, r4, lr}
 248              		.cfi_restore 14
 249              		.cfi_restore 4
 250              		.cfi_restore 3
 251              		.cfi_restore 0
 252              		.cfi_def_cfa_offset 0
 253 0086 8546     		mov	sp, r0
 254 0088 7047     		bx	lr
 255              	.L10:
 256 008a 00BF     		.align	2
 257              	.L9:
 258 008c 04ED00E0 		.word	-536810236
 259 0090 20ED00E0 		.word	-536810208
 260 0094 00000000 		.word	EE_IRQ_nesting_level
 261              		.cfi_endproc
 262              	.LFE111:
 263              		.size	systick_handler, .-systick_handler
 264              		.section	.text.main,"ax",%progbits
 265              		.align	2
 266              		.global	main
 267              		.thumb
 268              		.thumb_func
 269              		.type	main, %function
 270              	main:
 271              	.LFB113:
  60:source\asw/main.c **** }
  61:source\asw/main.c **** 
  62:source\asw/main.c **** 
  63:source\asw/main.c **** int main()
  64:source\asw/main.c **** {
 272              		.loc 1 64 0
 273              		.cfi_startproc
 274              		@ Volatile: function does not return.
 275              		@ args = 0, pretend = 0, frame = 0
 276              		@ frame_needed = 0, uses_anonymous_args = 0
 277 0000 08B5     		push	{r3, lr}
 278              		.cfi_def_cfa_offset 8
 279              		.cfi_offset 3, -8
 280              		.cfi_offset 14, -4
  65:source\asw/main.c ****     CyGlobalIntEnable; /* Enable global interrupts. */
 281              		.loc 1 65 0
 282              		.syntax unified
ARM GAS  C:\Users\robom\AppData\Local\Temp\cckcVs4S.s 			page 17


 283              	@ 65 "source\asw\main.c" 1
 284 0002 62B6     		CPSIE   i
 285              	@ 0 "" 2
 286              	.LVL19:
 287              		.thumb
 288              		.syntax unified
 289              	.LBB104:
 290              	.LBB105:
 291              		.file 5 "Generated_Source\\PSoC5/ErikaOS_1_cortex_mx_ee_systick.inc"
   1:Generated_Source\PSoC5/ErikaOS_1_cortex_mx_ee_systick.inc **** /* ###*B*###
   2:Generated_Source\PSoC5/ErikaOS_1_cortex_mx_ee_systick.inc ****  * ERIKA Enterprise - a tiny RTOS for small microcontrollers
   3:Generated_Source\PSoC5/ErikaOS_1_cortex_mx_ee_systick.inc ****  *
   4:Generated_Source\PSoC5/ErikaOS_1_cortex_mx_ee_systick.inc ****  * Copyright (C) 2002-2012  Evidence Srl
   5:Generated_Source\PSoC5/ErikaOS_1_cortex_mx_ee_systick.inc ****  *
   6:Generated_Source\PSoC5/ErikaOS_1_cortex_mx_ee_systick.inc ****  * This file is part of ERIKA Enterprise.
   7:Generated_Source\PSoC5/ErikaOS_1_cortex_mx_ee_systick.inc ****  *
   8:Generated_Source\PSoC5/ErikaOS_1_cortex_mx_ee_systick.inc ****  * ERIKA Enterprise is free software; you can redistribute it
   9:Generated_Source\PSoC5/ErikaOS_1_cortex_mx_ee_systick.inc ****  * and/or modify it under the terms of the GNU General Public License
  10:Generated_Source\PSoC5/ErikaOS_1_cortex_mx_ee_systick.inc ****  * version 2 as published by the Free Software Foundation,
  11:Generated_Source\PSoC5/ErikaOS_1_cortex_mx_ee_systick.inc ****  * (with a special exception described below).
  12:Generated_Source\PSoC5/ErikaOS_1_cortex_mx_ee_systick.inc ****  *
  13:Generated_Source\PSoC5/ErikaOS_1_cortex_mx_ee_systick.inc ****  * Linking this code statically or dynamically with other modules is
  14:Generated_Source\PSoC5/ErikaOS_1_cortex_mx_ee_systick.inc ****  * making a combined work based on this code.  Thus, the terms and
  15:Generated_Source\PSoC5/ErikaOS_1_cortex_mx_ee_systick.inc ****  * conditions of the GNU General Public License cover the whole
  16:Generated_Source\PSoC5/ErikaOS_1_cortex_mx_ee_systick.inc ****  * combination.
  17:Generated_Source\PSoC5/ErikaOS_1_cortex_mx_ee_systick.inc ****  *
  18:Generated_Source\PSoC5/ErikaOS_1_cortex_mx_ee_systick.inc ****  * As a special exception, the copyright holders of this library give you
  19:Generated_Source\PSoC5/ErikaOS_1_cortex_mx_ee_systick.inc ****  * permission to link this code with independent modules to produce an
  20:Generated_Source\PSoC5/ErikaOS_1_cortex_mx_ee_systick.inc ****  * executable, regardless of the license terms of these independent
  21:Generated_Source\PSoC5/ErikaOS_1_cortex_mx_ee_systick.inc ****  * modules, and to copy and distribute the resulting executable under
  22:Generated_Source\PSoC5/ErikaOS_1_cortex_mx_ee_systick.inc ****  * terms of your choice, provided that you also meet, for each linked
  23:Generated_Source\PSoC5/ErikaOS_1_cortex_mx_ee_systick.inc ****  * independent module, the terms and conditions of the license of that
  24:Generated_Source\PSoC5/ErikaOS_1_cortex_mx_ee_systick.inc ****  * module.  An independent module is a module which is not derived from
  25:Generated_Source\PSoC5/ErikaOS_1_cortex_mx_ee_systick.inc ****  * or based on this library.  If you modify this code, you may extend
  26:Generated_Source\PSoC5/ErikaOS_1_cortex_mx_ee_systick.inc ****  * this exception to your version of the code, but you are not
  27:Generated_Source\PSoC5/ErikaOS_1_cortex_mx_ee_systick.inc ****  * obligated to do so.  If you do not wish to do so, delete this
  28:Generated_Source\PSoC5/ErikaOS_1_cortex_mx_ee_systick.inc ****  * exception statement from your version.
  29:Generated_Source\PSoC5/ErikaOS_1_cortex_mx_ee_systick.inc ****  *
  30:Generated_Source\PSoC5/ErikaOS_1_cortex_mx_ee_systick.inc ****  * ERIKA Enterprise is distributed in the hope that it will be
  31:Generated_Source\PSoC5/ErikaOS_1_cortex_mx_ee_systick.inc ****  * useful, but WITHOUT ANY WARRANTY; without even the implied warranty
  32:Generated_Source\PSoC5/ErikaOS_1_cortex_mx_ee_systick.inc ****  * of MERCHANTABILITY or FITNESS FOR A PARTICULAR PURPOSE.  See the
  33:Generated_Source\PSoC5/ErikaOS_1_cortex_mx_ee_systick.inc ****  * GNU General Public License version 2 for more details.
  34:Generated_Source\PSoC5/ErikaOS_1_cortex_mx_ee_systick.inc ****  *
  35:Generated_Source\PSoC5/ErikaOS_1_cortex_mx_ee_systick.inc ****  * You should have received a copy of the GNU General Public License
  36:Generated_Source\PSoC5/ErikaOS_1_cortex_mx_ee_systick.inc ****  * version 2 along with ERIKA Enterprise; if not, write to the
  37:Generated_Source\PSoC5/ErikaOS_1_cortex_mx_ee_systick.inc ****  * Free Software Foundation, Inc., 51 Franklin Street, Fifth Floor,
  38:Generated_Source\PSoC5/ErikaOS_1_cortex_mx_ee_systick.inc ****  * Boston, MA 02110-1301 USA.
  39:Generated_Source\PSoC5/ErikaOS_1_cortex_mx_ee_systick.inc ****  * ###*E*### */
  40:Generated_Source\PSoC5/ErikaOS_1_cortex_mx_ee_systick.inc **** 
  41:Generated_Source\PSoC5/ErikaOS_1_cortex_mx_ee_systick.inc **** /**
  42:Generated_Source\PSoC5/ErikaOS_1_cortex_mx_ee_systick.inc ****     @file	ee_systick.h
  43:Generated_Source\PSoC5/ErikaOS_1_cortex_mx_ee_systick.inc ****     @brief	SysTick system timer driver header file.
  44:Generated_Source\PSoC5/ErikaOS_1_cortex_mx_ee_systick.inc ****     @author	Giuseppe Serano
  45:Generated_Source\PSoC5/ErikaOS_1_cortex_mx_ee_systick.inc ****     @date	2012
  46:Generated_Source\PSoC5/ErikaOS_1_cortex_mx_ee_systick.inc **** 
  47:Generated_Source\PSoC5/ErikaOS_1_cortex_mx_ee_systick.inc **** **/
  48:Generated_Source\PSoC5/ErikaOS_1_cortex_mx_ee_systick.inc **** 
ARM GAS  C:\Users\robom\AppData\Local\Temp\cckcVs4S.s 			page 18


  49:Generated_Source\PSoC5/ErikaOS_1_cortex_mx_ee_systick.inc **** /*
  50:Generated_Source\PSoC5/ErikaOS_1_cortex_mx_ee_systick.inc ****  * PSoC Port and API Generation
  51:Generated_Source\PSoC5/ErikaOS_1_cortex_mx_ee_systick.inc ****  * Carlos Fernando Meier Martinez
  52:Generated_Source\PSoC5/ErikaOS_1_cortex_mx_ee_systick.inc ****  * Hochschule Darmstadt, Germany. 2017.
  53:Generated_Source\PSoC5/ErikaOS_1_cortex_mx_ee_systick.inc ****  */
  54:Generated_Source\PSoC5/ErikaOS_1_cortex_mx_ee_systick.inc **** 
  55:Generated_Source\PSoC5/ErikaOS_1_cortex_mx_ee_systick.inc **** #ifndef	__INCLUDE_CORTEX_MX_SYSTICK_H__
  56:Generated_Source\PSoC5/ErikaOS_1_cortex_mx_ee_systick.inc **** #define	__INCLUDE_CORTEX_MX_SYSTICK_H__
  57:Generated_Source\PSoC5/ErikaOS_1_cortex_mx_ee_systick.inc **** 
  58:Generated_Source\PSoC5/ErikaOS_1_cortex_mx_ee_systick.inc **** #ifdef	__USE_SYSTICK__
  59:Generated_Source\PSoC5/ErikaOS_1_cortex_mx_ee_systick.inc **** 
  60:Generated_Source\PSoC5/ErikaOS_1_cortex_mx_ee_systick.inc **** /** error value. No errors happened **/
  61:Generated_Source\PSoC5/ErikaOS_1_cortex_mx_ee_systick.inc **** #define	EE_SYSTICK_NO_ERRORS	0
  62:Generated_Source\PSoC5/ErikaOS_1_cortex_mx_ee_systick.inc **** /** error value. Wrong funtion arguments values **/
  63:Generated_Source\PSoC5/ErikaOS_1_cortex_mx_ee_systick.inc **** #define	EE_SYSTICK_ERR_BAD_ARGS	1
  64:Generated_Source\PSoC5/ErikaOS_1_cortex_mx_ee_systick.inc **** 
  65:Generated_Source\PSoC5/ErikaOS_1_cortex_mx_ee_systick.inc **** /**
  66:Generated_Source\PSoC5/ErikaOS_1_cortex_mx_ee_systick.inc ****     @brief Start SysTick.
  67:Generated_Source\PSoC5/ErikaOS_1_cortex_mx_ee_systick.inc **** 
  68:Generated_Source\PSoC5/ErikaOS_1_cortex_mx_ee_systick.inc ****     This will start the SysTick counter.  If an ISR has been defined, it is
  69:Generated_Source\PSoC5/ErikaOS_1_cortex_mx_ee_systick.inc ****     called when the SysTick counter rolls over.
  70:Generated_Source\PSoC5/ErikaOS_1_cortex_mx_ee_systick.inc **** 
  71:Generated_Source\PSoC5/ErikaOS_1_cortex_mx_ee_systick.inc ****     @note Calling this function will cause the SysTick counter to (re)commence
  72:Generated_Source\PSoC5/ErikaOS_1_cortex_mx_ee_systick.inc ****     counting from its current value.  The counter is not automatically reloaded
  73:Generated_Source\PSoC5/ErikaOS_1_cortex_mx_ee_systick.inc ****     with the period as specified in a previous call to EE_systick_set_period().
  74:Generated_Source\PSoC5/ErikaOS_1_cortex_mx_ee_systick.inc ****     If an immediate reload is required, the \b NVIC_ST_CURRENT register must be
  75:Generated_Source\PSoC5/ErikaOS_1_cortex_mx_ee_systick.inc ****     written to force this.  Any write to this register clears the SysTick
  76:Generated_Source\PSoC5/ErikaOS_1_cortex_mx_ee_systick.inc ****     counter to 0 and will cause a reload with the supplied period on the next
  77:Generated_Source\PSoC5/ErikaOS_1_cortex_mx_ee_systick.inc ****     clock.
  78:Generated_Source\PSoC5/ErikaOS_1_cortex_mx_ee_systick.inc ****  */
  79:Generated_Source\PSoC5/ErikaOS_1_cortex_mx_ee_systick.inc **** __INLINE__ void  EE_systick_start(void)
  80:Generated_Source\PSoC5/ErikaOS_1_cortex_mx_ee_systick.inc **** {
  81:Generated_Source\PSoC5/ErikaOS_1_cortex_mx_ee_systick.inc ****   NVIC_ST_CTRL_R |= NVIC_ST_CTRL_CLK_SRC | NVIC_ST_CTRL_ENABLE;
  82:Generated_Source\PSoC5/ErikaOS_1_cortex_mx_ee_systick.inc **** }
  83:Generated_Source\PSoC5/ErikaOS_1_cortex_mx_ee_systick.inc **** 
  84:Generated_Source\PSoC5/ErikaOS_1_cortex_mx_ee_systick.inc **** /**
  85:Generated_Source\PSoC5/ErikaOS_1_cortex_mx_ee_systick.inc ****     @brief Stop SysTick.
  86:Generated_Source\PSoC5/ErikaOS_1_cortex_mx_ee_systick.inc **** 
  87:Generated_Source\PSoC5/ErikaOS_1_cortex_mx_ee_systick.inc ****     This will stop the SysTick counter.  If an ISR has been defined, it will
  88:Generated_Source\PSoC5/ErikaOS_1_cortex_mx_ee_systick.inc ****     no longer be called until SysTick is restarted.
  89:Generated_Source\PSoC5/ErikaOS_1_cortex_mx_ee_systick.inc **** */
  90:Generated_Source\PSoC5/ErikaOS_1_cortex_mx_ee_systick.inc **** __INLINE__ void  EE_systick_stop(void)
  91:Generated_Source\PSoC5/ErikaOS_1_cortex_mx_ee_systick.inc **** {
  92:Generated_Source\PSoC5/ErikaOS_1_cortex_mx_ee_systick.inc ****   NVIC_ST_CTRL_R &= ~(NVIC_ST_CTRL_ENABLE);
  93:Generated_Source\PSoC5/ErikaOS_1_cortex_mx_ee_systick.inc **** }
  94:Generated_Source\PSoC5/ErikaOS_1_cortex_mx_ee_systick.inc **** 
  95:Generated_Source\PSoC5/ErikaOS_1_cortex_mx_ee_systick.inc **** /**
  96:Generated_Source\PSoC5/ErikaOS_1_cortex_mx_ee_systick.inc ****     @brief Enables the SysTick interrupt.
  97:Generated_Source\PSoC5/ErikaOS_1_cortex_mx_ee_systick.inc **** 
  98:Generated_Source\PSoC5/ErikaOS_1_cortex_mx_ee_systick.inc ****     This function will enable the SysTick interrupt, allowing it to be
  99:Generated_Source\PSoC5/ErikaOS_1_cortex_mx_ee_systick.inc ****     reflected to the processor.
 100:Generated_Source\PSoC5/ErikaOS_1_cortex_mx_ee_systick.inc **** 
 101:Generated_Source\PSoC5/ErikaOS_1_cortex_mx_ee_systick.inc ****     @note The SysTick ISR does not need to clear the SysTick interrupt source as
 102:Generated_Source\PSoC5/ErikaOS_1_cortex_mx_ee_systick.inc ****     this is done automatically by NVIC when the interrupt ISR is called.
 103:Generated_Source\PSoC5/ErikaOS_1_cortex_mx_ee_systick.inc ****  */
 104:Generated_Source\PSoC5/ErikaOS_1_cortex_mx_ee_systick.inc **** __INLINE__ void  EE_systick_enable_int()
 105:Generated_Source\PSoC5/ErikaOS_1_cortex_mx_ee_systick.inc **** {
ARM GAS  C:\Users\robom\AppData\Local\Temp\cckcVs4S.s 			page 19


 106:Generated_Source\PSoC5/ErikaOS_1_cortex_mx_ee_systick.inc ****   NVIC_ST_CTRL_R |= NVIC_ST_CTRL_INTEN;
 107:Generated_Source\PSoC5/ErikaOS_1_cortex_mx_ee_systick.inc **** }
 108:Generated_Source\PSoC5/ErikaOS_1_cortex_mx_ee_systick.inc **** 
 109:Generated_Source\PSoC5/ErikaOS_1_cortex_mx_ee_systick.inc **** /**
 110:Generated_Source\PSoC5/ErikaOS_1_cortex_mx_ee_systick.inc ****     @brief Disables the SysTick interrupt.
 111:Generated_Source\PSoC5/ErikaOS_1_cortex_mx_ee_systick.inc **** 
 112:Generated_Source\PSoC5/ErikaOS_1_cortex_mx_ee_systick.inc ****     This function will disable the SysTick interrupt, preventing it from being
 113:Generated_Source\PSoC5/ErikaOS_1_cortex_mx_ee_systick.inc ****     reflected to the processor.
 114:Generated_Source\PSoC5/ErikaOS_1_cortex_mx_ee_systick.inc ****  */
 115:Generated_Source\PSoC5/ErikaOS_1_cortex_mx_ee_systick.inc **** __INLINE__ void  EE_systick_disable_int()
 116:Generated_Source\PSoC5/ErikaOS_1_cortex_mx_ee_systick.inc **** {
 117:Generated_Source\PSoC5/ErikaOS_1_cortex_mx_ee_systick.inc ****   NVIC_ST_CTRL_R &= ~(NVIC_ST_CTRL_INTEN);
 118:Generated_Source\PSoC5/ErikaOS_1_cortex_mx_ee_systick.inc **** }
 119:Generated_Source\PSoC5/ErikaOS_1_cortex_mx_ee_systick.inc **** 
 120:Generated_Source\PSoC5/ErikaOS_1_cortex_mx_ee_systick.inc **** /**
 121:Generated_Source\PSoC5/ErikaOS_1_cortex_mx_ee_systick.inc ****     @brief Sets the period of the SysTick counter.
 122:Generated_Source\PSoC5/ErikaOS_1_cortex_mx_ee_systick.inc **** 
 123:Generated_Source\PSoC5/ErikaOS_1_cortex_mx_ee_systick.inc ****     @param period is the number of clock ticks in each period of the SysTick
 124:Generated_Source\PSoC5/ErikaOS_1_cortex_mx_ee_systick.inc ****     counter; must be between 1 and 16,777,216, inclusive. If the \e period is
 125:Generated_Source\PSoC5/ErikaOS_1_cortex_mx_ee_systick.inc ****     out of range the function returns \b EE_SYSTICK_ERR_BAD_ARGS, else it will
 126:Generated_Source\PSoC5/ErikaOS_1_cortex_mx_ee_systick.inc ****     returns \b EE_SYSTICK_NO_ERRORS.
 127:Generated_Source\PSoC5/ErikaOS_1_cortex_mx_ee_systick.inc **** 
 128:Generated_Source\PSoC5/ErikaOS_1_cortex_mx_ee_systick.inc ****     This function sets the rate at which the SysTick counter wraps; this
 129:Generated_Source\PSoC5/ErikaOS_1_cortex_mx_ee_systick.inc ****     equates to the number of processor clocks between interrupts.
 130:Generated_Source\PSoC5/ErikaOS_1_cortex_mx_ee_systick.inc **** 
 131:Generated_Source\PSoC5/ErikaOS_1_cortex_mx_ee_systick.inc ****     @note Calling this function does not cause the SysTick counter to reload
 132:Generated_Source\PSoC5/ErikaOS_1_cortex_mx_ee_systick.inc ****     immediately.  If an immediate reload is required, the \b NVIC_ST_CURRENT
 133:Generated_Source\PSoC5/ErikaOS_1_cortex_mx_ee_systick.inc ****     register must be written.  Any write to this register clears the SysTick
 134:Generated_Source\PSoC5/ErikaOS_1_cortex_mx_ee_systick.inc ****     counter to 0 and will cause a reload with the \e period supplied here on
 135:Generated_Source\PSoC5/ErikaOS_1_cortex_mx_ee_systick.inc ****     the next clock after the SysTick is enabled.
 136:Generated_Source\PSoC5/ErikaOS_1_cortex_mx_ee_systick.inc ****  */
 137:Generated_Source\PSoC5/ErikaOS_1_cortex_mx_ee_systick.inc **** __INLINE__ EE_UREG  EE_systick_set_period(EE_UREG period)
 138:Generated_Source\PSoC5/ErikaOS_1_cortex_mx_ee_systick.inc **** {
 139:Generated_Source\PSoC5/ErikaOS_1_cortex_mx_ee_systick.inc ****   if ((period == NVIC_ST_RELOAD_S) || (period > NVIC_ST_RELOAD_M))
 140:Generated_Source\PSoC5/ErikaOS_1_cortex_mx_ee_systick.inc ****     return EE_SYSTICK_ERR_BAD_ARGS;
 141:Generated_Source\PSoC5/ErikaOS_1_cortex_mx_ee_systick.inc **** 
 142:Generated_Source\PSoC5/ErikaOS_1_cortex_mx_ee_systick.inc ****   NVIC_ST_RELOAD_R = period - 1;
 292              		.loc 5 142 0
 293 0004 054A     		ldr	r2, .L14
 294 0006 064B     		ldr	r3, .L14+4
 295 0008 1A60     		str	r2, [r3]
 296              	.LVL20:
 297              	.LBE105:
 298              	.LBE104:
 299              	.LBB106:
 300              	.LBB107:
 106:Generated_Source\PSoC5/ErikaOS_1_cortex_mx_ee_systick.inc **** }
 301              		.loc 5 106 0
 302 000a 064A     		ldr	r2, .L14+8
 303 000c 1368     		ldr	r3, [r2]
 304 000e 43F00203 		orr	r3, r3, #2
 305 0012 1360     		str	r3, [r2]
 306              	.L12:
 307              	.LBE107:
 308              	.LBE106:
  66:source\asw/main.c ****    
  67:source\asw/main.c ****     //Set systick period to 1 ms. Enable the INT and start it.
ARM GAS  C:\Users\robom\AppData\Local\Temp\cckcVs4S.s 			page 20


  68:source\asw/main.c **** 	EE_systick_set_period(MILLISECONDS_TO_TICKS(1, BCLK__BUS_CLK__HZ));
  69:source\asw/main.c **** 	EE_systick_enable_int();
  70:source\asw/main.c ****    
  71:source\asw/main.c ****     // Start Operating System
  72:source\asw/main.c ****     for(;;)	    
  73:source\asw/main.c ****     	StartOS(OSDEFAULTAPPMODE);
 309              		.loc 1 73 0 discriminator 1
 310 0014 0020     		movs	r0, #0
 311 0016 FFF7FEFF 		bl	EE_oo_StartOS
 312              	.LVL21:
 313 001a FBE7     		b	.L12
 314              	.L15:
 315              		.align	2
 316              	.L14:
 317 001c 3F190100 		.word	71999
 318 0020 14E000E0 		.word	-536813548
 319 0024 10E000E0 		.word	-536813552
 320              		.cfi_endproc
 321              	.LFE113:
 322              		.size	main, .-main
 323              		.section	.text.unhandledException,"ax",%progbits
 324              		.align	2
 325              		.global	unhandledException
 326              		.thumb
 327              		.thumb_func
 328              		.type	unhandledException, %function
 329              	unhandledException:
 330              	.LFB114:
  74:source\asw/main.c **** }
  75:source\asw/main.c **** 
  76:source\asw/main.c **** void unhandledException()
  77:source\asw/main.c **** {
 331              		.loc 1 77 0
 332              		.cfi_startproc
 333              		@ Volatile: function does not return.
 334              		@ args = 0, pretend = 0, frame = 0
 335              		@ frame_needed = 0, uses_anonymous_args = 0
 336 0000 08B5     		push	{r3, lr}
 337              		.cfi_def_cfa_offset 8
 338              		.cfi_offset 3, -8
 339              		.cfi_offset 14, -4
  78:source\asw/main.c ****     //Ooops, something terrible happened....check the call stack to see how we got here...
  79:source\asw/main.c ****     __asm("bkpt");
 340              		.loc 1 79 0
 341              		.syntax unified
 342              	@ 79 "source\asw\main.c" 1
 343 0002 00BE     		bkpt
 344              	@ 0 "" 2
  80:source\asw/main.c ****     ShutdownOS(0);
 345              		.loc 1 80 0
 346              		.thumb
 347              		.syntax unified
 348 0004 0020     		movs	r0, #0
 349 0006 FFF7FEFF 		bl	EE_oo_ShutdownOS
 350              	.LVL22:
 351              	.L17:
 352 000a FEE7     		b	.L17
ARM GAS  C:\Users\robom\AppData\Local\Temp\cckcVs4S.s 			page 21


 353              		.cfi_endproc
 354              	.LFE114:
 355              		.size	unhandledException, .-unhandledException
 356              		.section	.text.Functsk_init,"ax",%progbits
 357              		.align	2
 358              		.global	Functsk_init
 359              		.thumb
 360              		.thumb_func
 361              		.type	Functsk_init, %function
 362              	Functsk_init:
 363              	.LFB115:
  81:source\asw/main.c ****     while(1)
  82:source\asw/main.c ****     {
  83:source\asw/main.c ****     }
  84:source\asw/main.c **** }
  85:source\asw/main.c **** 
  86:source\asw/main.c **** /********************************************************************************
  87:source\asw/main.c ****  * Task Definitions
  88:source\asw/main.c ****  ********************************************************************************/
  89:source\asw/main.c **** 
  90:source\asw/main.c **** /** TASK tsk_init
  91:source\asw/main.c ****  * initializes the UART, LEDs, JOYSTICK, Seven Segment Display and TFT
  92:source\asw/main.c ****  * it also activates the extended tasks and displays a
  93:source\asw/main.c ****  * welcome message to the user through UART
  94:source\asw/main.c ****  * this task is automatically started when the OS is started in the main function
  95:source\asw/main.c ****  */
  96:source\asw/main.c **** TASK(tsk_init)
  97:source\asw/main.c **** {
 364              		.loc 1 97 0
 365              		.cfi_startproc
 366              		@ args = 0, pretend = 0, frame = 0
 367              		@ frame_needed = 0, uses_anonymous_args = 0
 368 0000 08B5     		push	{r3, lr}
 369              		.cfi_def_cfa_offset 8
 370              		.cfi_offset 3, -8
 371              		.cfi_offset 14, -4
  98:source\asw/main.c ****     //Init MCAL Drivers (uncomment accordinly)
  99:source\asw/main.c ****     
 100:source\asw/main.c ****     UART_LOG_Start();
 372              		.loc 1 100 0
 373 0002 FFF7FEFF 		bl	UART_LOG_Start
 374              	.LVL23:
 101:source\asw/main.c ****     LED_Init();
 375              		.loc 1 101 0
 376 0006 FFF7FEFF 		bl	LED_Init
 377              	.LVL24:
 102:source\asw/main.c ****     SEVEN_Init();
 378              		.loc 1 102 0
 379 000a FFF7FEFF 		bl	SEVEN_Init
 380              	.LVL25:
 103:source\asw/main.c **** 
 104:source\asw/main.c ****     //Reconfigure ISRs with OS parameters.
 105:source\asw/main.c ****     //This line MUST be called after the hardware driver initialisation!
 106:source\asw/main.c ****     EE_system_init();
 381              		.loc 1 106 0
 382 000e FFF7FEFF 		bl	EE_system_init
 383              	.LVL26:
ARM GAS  C:\Users\robom\AppData\Local\Temp\cckcVs4S.s 			page 22


 384              	.LBB108:
 385              	.LBB109:
  81:Generated_Source\PSoC5/ErikaOS_1_cortex_mx_ee_systick.inc **** }
 386              		.loc 5 81 0
 387 0012 084A     		ldr	r2, .L21
 388 0014 1368     		ldr	r3, [r2]
 389 0016 43F00503 		orr	r3, r3, #5
 390 001a 1360     		str	r3, [r2]
 391              	.LBE109:
 392              	.LBE108:
 107:source\asw/main.c ****     
 108:source\asw/main.c ****     //Start SysTick
 109:source\asw/main.c **** 	//Must be done here, because otherwise the isr vector is not overwritten yet
 110:source\asw/main.c ****     EE_systick_start();  
 111:source\asw/main.c **** 	
 112:source\asw/main.c ****     //Activate extended tasks
 113:source\asw/main.c ****     ActivateTask(tsk_logic);
 393              		.loc 1 113 0
 394 001c 0220     		movs	r0, #2
 395 001e FFF7FEFF 		bl	EE_oo_ActivateTask
 396              	.LVL27:
 114:source\asw/main.c ****     ActivateTask(tsk_background);
 397              		.loc 1 114 0
 398 0022 0120     		movs	r0, #1
 399 0024 FFF7FEFF 		bl	EE_oo_ActivateTask
 400              	.LVL28:
 115:source\asw/main.c ****     
 116:source\asw/main.c ****     UART_LOG_PutString("WELCOME TO THE REACTION GAME!\n");
 401              		.loc 1 116 0
 402 0028 0348     		ldr	r0, .L21+4
 403 002a FFF7FEFF 		bl	UART_LOG_PutString
 404              	.LVL29:
 117:source\asw/main.c ****     
 118:source\asw/main.c ****     TerminateTask();
 405              		.loc 1 118 0
 406 002e FFF7FEFF 		bl	EE_oo_TerminateTask
 407              	.LVL30:
 408 0032 08BD     		pop	{r3, pc}
 409              	.L22:
 410              		.align	2
 411              	.L21:
 412 0034 10E000E0 		.word	-536813552
 413 0038 00000000 		.word	.LC0
 414              		.cfi_endproc
 415              	.LFE115:
 416              		.size	Functsk_init, .-Functsk_init
 417              		.section	.text.Functsk_background,"ax",%progbits
 418              		.align	2
 419              		.global	Functsk_background
 420              		.thumb
 421              		.thumb_func
 422              		.type	Functsk_background, %function
 423              	Functsk_background:
 424              	.LFB116:
 119:source\asw/main.c **** }
 120:source\asw/main.c **** 
 121:source\asw/main.c **** /** TASK tsk_background
ARM GAS  C:\Users\robom\AppData\Local\Temp\cckcVs4S.s 			page 23


 122:source\asw/main.c ****  * low priority task with a nop command
 123:source\asw/main.c ****  */
 124:source\asw/main.c **** TASK(tsk_background)
 125:source\asw/main.c **** {
 425              		.loc 1 125 0
 426              		.cfi_startproc
 427              		@ Volatile: function does not return.
 428              		@ args = 0, pretend = 0, frame = 0
 429              		@ frame_needed = 0, uses_anonymous_args = 0
 430              		@ link register save eliminated.
 431              	.L24:
 126:source\asw/main.c ****     while(1)
 127:source\asw/main.c ****     {
 128:source\asw/main.c ****         __asm("nop");
 432              		.loc 1 128 0 discriminator 1
 433              		.syntax unified
 434              	@ 128 "source\asw\main.c" 1
 435 0000 00BF     		nop
 436              	@ 0 "" 2
 437              		.thumb
 438              		.syntax unified
 439 0002 FDE7     		b	.L24
 440              		.cfi_endproc
 441              	.LFE116:
 442              		.size	Functsk_background, .-Functsk_background
 443              		.section	.text.Functsk_timer,"ax",%progbits
 444              		.align	2
 445              		.global	Functsk_timer
 446              		.thumb
 447              		.thumb_func
 448              		.type	Functsk_timer, %function
 449              	Functsk_timer:
 450              	.LFB118:
 129:source\asw/main.c ****     }
 130:source\asw/main.c ****     
 131:source\asw/main.c ****     TerminateTask();
 132:source\asw/main.c **** }
 133:source\asw/main.c **** 
 134:source\asw/main.c **** TASK(tsk_logic)
 135:source\asw/main.c **** {
 136:source\asw/main.c **** 
 137:source\asw/main.c ****     while(1)
 138:source\asw/main.c ****     {
 139:source\asw/main.c ****         
 140:source\asw/main.c ****         WaitEvent(ev_button | ev_randTime | ev_timeout);
 141:source\asw/main.c ****         GetEvent(tsk_logic, &ev);
 142:source\asw/main.c ****         ClearEvent(ev);
 143:source\asw/main.c ****         
 144:source\asw/main.c ****          
 145:source\asw/main.c ****         if(roundNo > 10)
 146:source\asw/main.c ****         {
 147:source\asw/main.c ****             SEVEN_Clear(SEVEN_0);
 148:source\asw/main.c ****             SEVEN_Clear(SEVEN_1);
 149:source\asw/main.c ****             finalMessage();
 150:source\asw/main.c ****             return;
 151:source\asw/main.c ****         }
 152:source\asw/main.c ****         
ARM GAS  C:\Users\robom\AppData\Local\Temp\cckcVs4S.s 			page 24


 153:source\asw/main.c ****         switch(state)
 154:source\asw/main.c ****         {
 155:source\asw/main.c ****             case STATE_START:
 156:source\asw/main.c ****             UART_LOG_PutString("state 1\n");
 157:source\asw/main.c ****                 start();
 158:source\asw/main.c ****             break;
 159:source\asw/main.c ****             
 160:source\asw/main.c ****             case STATE_DISPLAYSSD:
 161:source\asw/main.c ****             UART_LOG_PutString("state 2\n");
 162:source\asw/main.c ****                 displayssd();
 163:source\asw/main.c ****             break;
 164:source\asw/main.c ****                 
 165:source\asw/main.c ****             case STATE_BUTTONPRESS:
 166:source\asw/main.c ****             UART_LOG_PutString("state 3\n");
 167:source\asw/main.c ****                 buttonpress();
 168:source\asw/main.c ****                 roundNo++;
 169:source\asw/main.c ****             break;
 170:source\asw/main.c ****             
 171:source\asw/main.c ****             case STATE_TOOSLOW:
 172:source\asw/main.c ****             UART_LOG_PutString("state 4\n");
 173:source\asw/main.c ****                 tooslow();
 174:source\asw/main.c ****                 roundNo++;
 175:source\asw/main.c ****                 UART_LOG_PutString("state 4aaaaaaa\n");
 176:source\asw/main.c ****             break;
 177:source\asw/main.c ****                  
 178:source\asw/main.c ****             default:
 179:source\asw/main.c ****             break;
 180:source\asw/main.c ****         }
 181:source\asw/main.c ****     }
 182:source\asw/main.c ****     TerminateTask();
 183:source\asw/main.c **** }
 184:source\asw/main.c **** 
 185:source\asw/main.c **** /** TASK tsk_timer
 186:source\asw/main.c ****  * Cyclic task being activated every 1ms until the user presses a button
 187:source\asw/main.c ****  * the task increases the value of the global reaction time variable
 188:source\asw/main.c ****  * once the user presses a button the total time (time of button press - time of SSD activation) it
 189:source\asw/main.c ****  */
 190:source\asw/main.c **** TASK(tsk_timer)
 191:source\asw/main.c **** {
 451              		.loc 1 191 0
 452              		.cfi_startproc
 453              		@ args = 0, pretend = 0, frame = 0
 454              		@ frame_needed = 0, uses_anonymous_args = 0
 455              		@ link register save eliminated.
 192:source\asw/main.c ****    timeScore++;
 456              		.loc 1 192 0
 457 0000 024A     		ldr	r2, .L26
 458 0002 1378     		ldrb	r3, [r2]	@ zero_extendqisi2
 459 0004 0133     		adds	r3, r3, #1
 460 0006 1370     		strb	r3, [r2]
 461 0008 7047     		bx	lr
 462              	.L27:
 463 000a 00BF     		.align	2
 464              	.L26:
 465 000c 00000000 		.word	.LANCHOR0
 466              		.cfi_endproc
 467              	.LFE118:
ARM GAS  C:\Users\robom\AppData\Local\Temp\cckcVs4S.s 			page 25


 468              		.size	Functsk_timer, .-Functsk_timer
 469              		.section	.text.ISR2_isr_Button,"ax",%progbits
 470              		.align	2
 471              		.global	ISR2_isr_Button
 472              		.thumb
 473              		.thumb_func
 474              		.type	ISR2_isr_Button, %function
 475              	ISR2_isr_Button:
 476              	.LFB120:
 193:source\asw/main.c **** }
 194:source\asw/main.c **** 
 195:source\asw/main.c **** /********************************************************************************
 196:source\asw/main.c ****  * ISR Definitions
 197:source\asw/main.c ****  ********************************************************************************/
 198:source\asw/main.c **** 
 199:source\asw/main.c **** ISR2(isr_Button)
 200:source\asw/main.c **** {
 477              		.loc 1 200 0
 478              		.cfi_startproc
 479              		@ args = 0, pretend = 0, frame = 0
 480              		@ frame_needed = 0, uses_anonymous_args = 0
 481 0000 08B5     		push	{r3, lr}
 482              		.cfi_def_cfa_offset 8
 483              		.cfi_offset 3, -8
 484              		.cfi_offset 14, -4
 201:source\asw/main.c ****     if(BUTTON_1_Read() == 1) // button 1 (left) on PSoC
 485              		.loc 1 201 0
 486 0002 FFF7FEFF 		bl	BUTTON_1_Read
 487              	.LVL31:
 488 0006 0128     		cmp	r0, #1
 489 0008 06D1     		bne	.L29
 202:source\asw/main.c ****     {
 203:source\asw/main.c ****         SetEvent(tsk_logic,ev_button);
 490              		.loc 1 203 0
 491 000a 0121     		movs	r1, #1
 492 000c 0220     		movs	r0, #2
 493 000e FFF7FEFF 		bl	EE_oo_SetEvent
 494              	.LVL32:
 204:source\asw/main.c ****         button = TRUE; //set flag to left
 495              		.loc 1 204 0
 496 0012 0122     		movs	r2, #1
 497 0014 064B     		ldr	r3, .L32
 498 0016 1A70     		strb	r2, [r3]
 499              	.L29:
 205:source\asw/main.c ****     }
 206:source\asw/main.c ****     
 207:source\asw/main.c ****     if(BUTTON_2_Read() == 1) // button 2 (right) on PSoC
 500              		.loc 1 207 0
 501 0018 FFF7FEFF 		bl	BUTTON_2_Read
 502              	.LVL33:
 503 001c 0128     		cmp	r0, #1
 504 001e 06D1     		bne	.L28
 208:source\asw/main.c ****     {
 209:source\asw/main.c ****         SetEvent(tsk_logic,ev_button);
 505              		.loc 1 209 0
 506 0020 0121     		movs	r1, #1
 507 0022 0220     		movs	r0, #2
ARM GAS  C:\Users\robom\AppData\Local\Temp\cckcVs4S.s 			page 26


 508 0024 FFF7FEFF 		bl	EE_oo_SetEvent
 509              	.LVL34:
 210:source\asw/main.c ****         button = FALSE; //set flag to right
 510              		.loc 1 210 0
 511 0028 0022     		movs	r2, #0
 512 002a 014B     		ldr	r3, .L32
 513 002c 1A70     		strb	r2, [r3]
 514              	.L28:
 515 002e 08BD     		pop	{r3, pc}
 516              	.L33:
 517              		.align	2
 518              	.L32:
 519 0030 00000000 		.word	button
 520              		.cfi_endproc
 521              	.LFE120:
 522              		.size	ISR2_isr_Button, .-ISR2_isr_Button
 523              		.section	.text.isr_Button,"ax",%progbits
 524              		.align	2
 525              		.global	isr_Button
 526              		.thumb
 527              		.thumb_func
 528              		.type	isr_Button, %function
 529              	isr_Button:
 530              	.LFB119:
 199:source\asw/main.c **** {
 531              		.loc 1 199 0
 532              		.cfi_startproc
 533              		@ Stack Align: May be called with mis-aligned SP.
 534              		@ args = 0, pretend = 0, frame = 0
 535              		@ frame_needed = 0, uses_anonymous_args = 0
 536 0000 6846     		mov	r0, sp
 537              		.cfi_register 13, 0
 538 0002 20F00701 		bic	r1, r0, #7
 539 0006 8D46     		mov	sp, r1
 540 0008 19B5     		push	{r0, r3, r4, lr}
 541              		.cfi_def_cfa_offset 16
 542              		.cfi_offset 13, -16
 543              		.cfi_offset 3, -12
 544              		.cfi_offset 4, -8
 545              		.cfi_offset 14, -4
 546              	.LVL35:
 547              	.LBB134:
 548              	.LBB135:
 211:Generated_Source\PSoC5/ErikaOS_1_cortex_mx_ee_cpu.inc **** #endif	/* !__KEIL__ */
 549              		.loc 2 211 0
 550              		.syntax unified
 551              	@ 211 "Generated_Source\PSoC5/ErikaOS_1_cortex_mx_ee_cpu.inc" 1
 552 000a 72B6     		cpsid i
 553              	@ 0 "" 2
 554              		.thumb
 555              		.syntax unified
 556              	.LBE135:
 557              	.LBE134:
 558              	.LBB136:
 559              	.LBB137:
 325:Generated_Source\PSoC5/ErikaOS_1_cortex_mx_ee_cpu.inc **** #else
 560              		.loc 2 325 0
ARM GAS  C:\Users\robom\AppData\Local\Temp\cckcVs4S.s 			page 27


 561              		.syntax unified
 562              	@ 325 "Generated_Source\PSoC5/ErikaOS_1_cortex_mx_ee_cpu.inc" 1
 563 000c EFF31184 		MRS r4, BASEPRI
 564              	@ 0 "" 2
 565              	.LVL36:
 566              		.thumb
 567              		.syntax unified
 568              	.LBE137:
 569              	.LBE136:
 570              	.LBB138:
 571              	.LBB139:
 372:Generated_Source\PSoC5/ErikaOS_1_cortex_mx_ee_cpu.inc ****   register EE_TYPEISR2PRIO prio = 0;
 572              		.loc 2 372 0
 573 0010 1E4B     		ldr	r3, .L40
 574 0012 1B68     		ldr	r3, [r3]
 575 0014 DBB2     		uxtb	r3, r3
 576              	.LVL37:
 375:Generated_Source\PSoC5/ErikaOS_1_cortex_mx_ee_cpu.inc ****     vectact -= EE_CORTEX_MX_SYSTICK_EXC_NUM + 1;
 577              		.loc 2 375 0
 578 0016 0F2B     		cmp	r3, #15
 579 0018 10D9     		bls	.L35
 376:Generated_Source\PSoC5/ErikaOS_1_cortex_mx_ee_cpu.inc ****     prio = NVIC_GET_PRI(vectact);
 580              		.loc 2 376 0
 581 001a 103B     		subs	r3, r3, #16
 582              	.LVL38:
 377:Generated_Source\PSoC5/ErikaOS_1_cortex_mx_ee_cpu.inc ****   }
 583              		.loc 2 377 0
 584 001c 23F00302 		bic	r2, r3, #3
 585 0020 02F16042 		add	r2, r2, #-536870912
 586 0024 02F56442 		add	r2, r2, #58368
 587 0028 1168     		ldr	r1, [r2]
 588 002a DB00     		lsls	r3, r3, #3
 589              	.LVL39:
 590 002c 03F01803 		and	r3, r3, #24
 591 0030 E022     		movs	r2, #224
 592 0032 9A40     		lsls	r2, r2, r3
 593 0034 0A40     		ands	r2, r2, r1
 594 0036 22FA03F3 		lsr	r3, r2, r3
 595              	.LVL40:
 596 003a 06E0     		b	.L36
 597              	.LVL41:
 598              	.L35:
 380:Generated_Source\PSoC5/ErikaOS_1_cortex_mx_ee_cpu.inc ****     prio = NVIC_SYS_PRI3_R >> NVIC_SYS_PRI3_TICK_S;
 599              		.loc 2 380 0
 600 003c 0F2B     		cmp	r3, #15
 601 003e 03D1     		bne	.L39
 602              		.loc 2 381 0
 603 0040 134B     		ldr	r3, .L40+4
 604              	.LVL42:
 605 0042 1B68     		ldr	r3, [r3]
 606 0044 1B0E     		lsrs	r3, r3, #24
 607              	.LVL43:
 608 0046 00E0     		b	.L36
 609              	.LVL44:
 610              	.L39:
 373:Generated_Source\PSoC5/ErikaOS_1_cortex_mx_ee_cpu.inc **** 
 611              		.loc 2 373 0
ARM GAS  C:\Users\robom\AppData\Local\Temp\cckcVs4S.s 			page 28


 612 0048 0023     		movs	r3, #0
 613              	.LVL45:
 614              	.L36:
 615              	.LBE139:
 616              	.LBE138:
 617              	.LBB140:
 618              	.LBB141:
 358:Generated_Source\PSoC5/ErikaOS_1_cortex_mx_ee_cpu.inc **** #else
 619              		.loc 2 358 0
 620              		.syntax unified
 621              	@ 358 "Generated_Source\PSoC5/ErikaOS_1_cortex_mx_ee_cpu.inc" 1
 622 004a 83F31188 		MSR BASEPRI, r3
 623              	@ 0 "" 2
 624              		.thumb
 625              		.syntax unified
 626              	.LBE141:
 627              	.LBE140:
 628              	.LBB142:
 629              	.LBB143:
  85:Generated_Source\PSoC5/ErikaOS_1_common_ee_irqstub.inc **** /*  EE_std_enableIRQ_nested() and EE_std_disableIRQ_nested() must be defined in
 630              		.loc 3 85 0
 631 004e 114A     		ldr	r2, .L40+8
 632 0050 1368     		ldr	r3, [r2]
 633 0052 0133     		adds	r3, r3, #1
 634 0054 1360     		str	r3, [r2]
 635              	.LBE143:
 636              	.LBE142:
 199:source\asw/main.c **** {
 637              		.loc 1 199 0
 638 0056 012B     		cmp	r3, #1
 639 0058 01D1     		bne	.L37
 199:source\asw/main.c **** {
 640              		.loc 1 199 0 is_stmt 0 discriminator 1
 641 005a FFF7FEFF 		bl	EE_cortex_mx_change_IRQ_stack
 642              	.LVL46:
 643              	.L37:
 644              	.LBB144:
 645              	.LBB145:
 191:Generated_Source\PSoC5/ErikaOS_1_cortex_mx_ee_cpu.inc **** #endif	/* !__KEIL__ */
 646              		.loc 2 191 0 is_stmt 1 discriminator 3
 647              		.syntax unified
 648              	@ 191 "Generated_Source\PSoC5/ErikaOS_1_cortex_mx_ee_cpu.inc" 1
 649 005e 62B6     		cpsie i
 650              	@ 0 "" 2
 651              		.thumb
 652              		.syntax unified
 653              	.LBE145:
 654              	.LBE144:
 199:source\asw/main.c **** {
 655              		.loc 1 199 0 discriminator 3
 656 0060 FFF7FEFF 		bl	ISR2_isr_Button
 657              	.LVL47:
 658              	.LBB146:
 659              	.LBB147:
 211:Generated_Source\PSoC5/ErikaOS_1_cortex_mx_ee_cpu.inc **** #endif	/* !__KEIL__ */
 660              		.loc 2 211 0 discriminator 3
 661              		.syntax unified
ARM GAS  C:\Users\robom\AppData\Local\Temp\cckcVs4S.s 			page 29


 662              	@ 211 "Generated_Source\PSoC5/ErikaOS_1_cortex_mx_ee_cpu.inc" 1
 663 0064 72B6     		cpsid i
 664              	@ 0 "" 2
 665              	.LVL48:
 666              		.thumb
 667              		.syntax unified
 668              	.LBE147:
 669              	.LBE146:
 670              	.LBB148:
 671              	.LBB149:
 358:Generated_Source\PSoC5/ErikaOS_1_cortex_mx_ee_cpu.inc **** #else
 672              		.loc 2 358 0 discriminator 3
 673              		.syntax unified
 674              	@ 358 "Generated_Source\PSoC5/ErikaOS_1_cortex_mx_ee_cpu.inc" 1
 675 0066 84F31188 		MSR BASEPRI, r4
 676              	@ 0 "" 2
 677              	.LVL49:
 678              		.thumb
 679              		.syntax unified
 680              	.LBE149:
 681              	.LBE148:
 682              	.LBB150:
 683              	.LBB151:
 684              		.loc 3 102 0 discriminator 3
 685 006a FFF7FEFF 		bl	EE_IRQ_end_post_stub
 686              	.LVL50:
 687              	.LBE151:
 688              	.LBE150:
 689              	.LBB152:
 690              	.LBB153:
  84:Generated_Source\PSoC5/ErikaOS_1_common_ee_irqstub.inc **** __INLINE__ void  EE_increment_IRQ_nesting_level(void) { ++EE_IRQ_nesting_level; }
 691              		.loc 3 84 0 discriminator 3
 692 006e 094A     		ldr	r2, .L40+8
 693 0070 1368     		ldr	r3, [r2]
 694 0072 013B     		subs	r3, r3, #1
 695 0074 1360     		str	r3, [r2]
 696              	.LBE153:
 697              	.LBE152:
 199:source\asw/main.c **** {
 698              		.loc 1 199 0 discriminator 3
 699 0076 1BB9     		cbnz	r3, .L38
 199:source\asw/main.c **** {
 700              		.loc 1 199 0 is_stmt 0 discriminator 4
 701 0078 FFF7FEFF 		bl	EE_cortex_mx_change_IRQ_stack_back
 702              	.LVL51:
 703              	.LBB154:
 704              	.LBB155:
 705              		.loc 4 68 0 is_stmt 1 discriminator 4
 706 007c FFF7FEFF 		bl	EE_switch_context
 707              	.LVL52:
 708              	.L38:
 709              	.LBE155:
 710              	.LBE154:
 711              	.LBB156:
 712              	.LBB157:
 191:Generated_Source\PSoC5/ErikaOS_1_cortex_mx_ee_cpu.inc **** #endif	/* !__KEIL__ */
 713              		.loc 2 191 0 discriminator 6
ARM GAS  C:\Users\robom\AppData\Local\Temp\cckcVs4S.s 			page 30


 714              		.syntax unified
 715              	@ 191 "Generated_Source\PSoC5/ErikaOS_1_cortex_mx_ee_cpu.inc" 1
 716 0080 62B6     		cpsie i
 717              	@ 0 "" 2
 718              		.thumb
 719              		.syntax unified
 720              	.LBE157:
 721              	.LBE156:
 199:source\asw/main.c **** {
 722              		.loc 1 199 0 discriminator 6
 723 0082 BDE81940 		pop	{r0, r3, r4, lr}
 724              		.cfi_restore 14
 725              		.cfi_restore 4
 726              		.cfi_restore 3
 727              		.cfi_restore 0
 728              		.cfi_def_cfa_offset 0
 729 0086 8546     		mov	sp, r0
 730 0088 7047     		bx	lr
 731              	.L41:
 732 008a 00BF     		.align	2
 733              	.L40:
 734 008c 04ED00E0 		.word	-536810236
 735 0090 20ED00E0 		.word	-536810208
 736 0094 00000000 		.word	EE_IRQ_nesting_level
 737              		.cfi_endproc
 738              	.LFE119:
 739              		.size	isr_Button, .-isr_Button
 740              		.section	.text.start,"ax",%progbits
 741              		.align	2
 742              		.global	start
 743              		.thumb
 744              		.thumb_func
 745              		.type	start, %function
 746              	start:
 747              	.LFB121:
 211:source\asw/main.c ****     }
 212:source\asw/main.c **** }
 213:source\asw/main.c **** 
 214:source\asw/main.c **** RC_t start()
 215:source\asw/main.c **** {
 748              		.loc 1 215 0
 749              		.cfi_startproc
 750              		@ args = 0, pretend = 0, frame = 0
 751              		@ frame_needed = 0, uses_anonymous_args = 0
 752 0000 10B5     		push	{r4, lr}
 753              		.cfi_def_cfa_offset 8
 754              		.cfi_offset 4, -8
 755              		.cfi_offset 14, -4
 216:source\asw/main.c ****     UART_LOG_PutString("Press the left button if a 1 is shown or press the right button if a 2 is s
 756              		.loc 1 216 0
 757 0002 1F48     		ldr	r0, .L48
 758 0004 FFF7FEFF 		bl	UART_LOG_PutString
 759              	.LVL53:
 217:source\asw/main.c ****     if(((ev & ev_button) && (BUTTON_2_Read() == 1)) || ((ev & ev_button) && (BUTTON_1_Read() == 1))
 760              		.loc 1 217 0
 761 0008 1E4B     		ldr	r3, .L48+4
 762 000a 5B68     		ldr	r3, [r3, #4]
ARM GAS  C:\Users\robom\AppData\Local\Temp\cckcVs4S.s 			page 31


 763 000c 13F0010F 		tst	r3, #1
 764 0010 03D0     		beq	.L43
 765              		.loc 1 217 0 is_stmt 0 discriminator 1
 766 0012 FFF7FEFF 		bl	BUTTON_2_Read
 767              	.LVL54:
 768 0016 0128     		cmp	r0, #1
 769 0018 08D0     		beq	.L44
 770              	.L43:
 771              		.loc 1 217 0 discriminator 3
 772 001a 1A4B     		ldr	r3, .L48+4
 773 001c 5B68     		ldr	r3, [r3, #4]
 774 001e 13F0010F 		tst	r3, #1
 775 0022 27D0     		beq	.L45
 776              		.loc 1 217 0 discriminator 4
 777 0024 FFF7FEFF 		bl	BUTTON_1_Read
 778              	.LVL55:
 779 0028 0128     		cmp	r0, #1
 780 002a 23D1     		bne	.L45
 781              	.L44:
 218:source\asw/main.c **** 	{
 219:source\asw/main.c ****        SSDnum = (rand() % 2) + 1; //ssd value
 782              		.loc 1 219 0 is_stmt 1
 783 002c FFF7FEFF 		bl	rand
 784              	.LVL56:
 785 0030 154B     		ldr	r3, .L48+8
 786 0032 1840     		ands	r0, r0, r3
 787 0034 03D5     		bpl	.L46
 788 0036 0138     		subs	r0, r0, #1
 789 0038 60F00100 		orn	r0, r0, #1
 790 003c 0130     		adds	r0, r0, #1
 791              	.L46:
 792 003e 0130     		adds	r0, r0, #1
 793 0040 124B     		ldr	r3, .L48+12
 794 0042 1860     		str	r0, [r3]
 220:source\asw/main.c **** 	   randTime = (rand() % 3 + 1) * 1000; //random wait time value
 795              		.loc 1 220 0
 796 0044 FFF7FEFF 		bl	rand
 797              	.LVL57:
 798 0048 114B     		ldr	r3, .L48+16
 799 004a 83FB0023 		smull	r2, r3, r3, r0
 800 004e A3EBE073 		sub	r3, r3, r0, asr #31
 801 0052 03EB4303 		add	r3, r3, r3, lsl #1
 802 0056 C31A     		subs	r3, r0, r3
 803 0058 4FF47A72 		mov	r2, #1000
 804 005c 03FB0222 		mla	r2, r3, r2, r2
 805 0060 0C4C     		ldr	r4, .L48+20
 806 0062 2260     		str	r2, [r4]
 221:source\asw/main.c **** 	   CancelAlarm(alrm_randTime);
 807              		.loc 1 221 0
 808 0064 0020     		movs	r0, #0
 809 0066 FFF7FEFF 		bl	EE_oo_CancelAlarm
 810              	.LVL58:
 222:source\asw/main.c **** 	   SetRelAlarm(alrm_randTime,randTime,0); // 2 seconds for test purposes
 811              		.loc 1 222 0
 812 006a 0022     		movs	r2, #0
 813 006c 2168     		ldr	r1, [r4]
 814 006e 1046     		mov	r0, r2
ARM GAS  C:\Users\robom\AppData\Local\Temp\cckcVs4S.s 			page 32


 815 0070 FFF7FEFF 		bl	EE_oo_SetRelAlarm
 816              	.LVL59:
 817              	.L45:
 223:source\asw/main.c **** 	}
 224:source\asw/main.c **** 	state = STATE_DISPLAYSSD;
 818              		.loc 1 224 0
 819 0074 0122     		movs	r2, #1
 820 0076 084B     		ldr	r3, .L48+24
 821 0078 1A70     		strb	r2, [r3]
 225:source\asw/main.c ****                 
 226:source\asw/main.c ****     return RC_SUCCESS;
 227:source\asw/main.c **** }
 822              		.loc 1 227 0
 823 007a 0020     		movs	r0, #0
 824 007c 10BD     		pop	{r4, pc}
 825              	.L49:
 826 007e 00BF     		.align	2
 827              	.L48:
 828 0080 20000000 		.word	.LC1
 829 0084 00000000 		.word	.LANCHOR0
 830 0088 01000080 		.word	-2147483647
 831 008c 00000000 		.word	SSDnum
 832 0090 56555555 		.word	1431655766
 833 0094 00000000 		.word	randTime
 834 0098 00000000 		.word	state
 835              		.cfi_endproc
 836              	.LFE121:
 837              		.size	start, .-start
 838              		.section	.text.displayssd,"ax",%progbits
 839              		.align	2
 840              		.global	displayssd
 841              		.thumb
 842              		.thumb_func
 843              		.type	displayssd, %function
 844              	displayssd:
 845              	.LFB122:
 228:source\asw/main.c **** 
 229:source\asw/main.c **** RC_t displayssd()
 230:source\asw/main.c **** {
 846              		.loc 1 230 0
 847              		.cfi_startproc
 848              		@ args = 0, pretend = 0, frame = 0
 849              		@ frame_needed = 0, uses_anonymous_args = 0
 850 0000 08B5     		push	{r3, lr}
 851              		.cfi_def_cfa_offset 8
 852              		.cfi_offset 3, -8
 853              		.cfi_offset 14, -4
 231:source\asw/main.c ****     if(ev & ev_randTime)
 854              		.loc 1 231 0
 855 0002 134B     		ldr	r3, .L55
 856 0004 5B68     		ldr	r3, [r3, #4]
 857 0006 13F0040F 		tst	r3, #4
 858 000a 1FD0     		beq	.L51
 232:source\asw/main.c **** 	{
 233:source\asw/main.c **** 		if((uint8_t)SSDnum == 1)
 859              		.loc 1 233 0
 860 000c 114B     		ldr	r3, .L55+4
ARM GAS  C:\Users\robom\AppData\Local\Temp\cckcVs4S.s 			page 33


 861 000e 1B78     		ldrb	r3, [r3]	@ zero_extendqisi2
 862 0010 012B     		cmp	r3, #1
 863 0012 08D1     		bne	.L52
 234:source\asw/main.c **** 		{
 235:source\asw/main.c **** 			SEVEN_Set(SEVEN_0,1);
 864              		.loc 1 235 0
 865 0014 0121     		movs	r1, #1
 866 0016 0020     		movs	r0, #0
 867 0018 FFF7FEFF 		bl	SEVEN_Set
 868              	.LVL60:
 236:source\asw/main.c **** 			SEVEN_Set(SEVEN_1,1);
 869              		.loc 1 236 0
 870 001c 0121     		movs	r1, #1
 871 001e 0846     		mov	r0, r1
 872 0020 FFF7FEFF 		bl	SEVEN_Set
 873              	.LVL61:
 874 0024 07E0     		b	.L53
 875              	.L52:
 237:source\asw/main.c **** 		}
 238:source\asw/main.c **** 		else
 239:source\asw/main.c **** 		{
 240:source\asw/main.c **** 			SEVEN_Set(SEVEN_0,2);
 876              		.loc 1 240 0
 877 0026 0221     		movs	r1, #2
 878 0028 0020     		movs	r0, #0
 879 002a FFF7FEFF 		bl	SEVEN_Set
 880              	.LVL62:
 241:source\asw/main.c **** 			SEVEN_Set(SEVEN_1,2);
 881              		.loc 1 241 0
 882 002e 0221     		movs	r1, #2
 883 0030 0120     		movs	r0, #1
 884 0032 FFF7FEFF 		bl	SEVEN_Set
 885              	.LVL63:
 886              	.L53:
 242:source\asw/main.c **** 		}
 243:source\asw/main.c ****         CancelAlarm(alrm_measureTime);
 887              		.loc 1 243 0
 888 0036 0220     		movs	r0, #2
 889 0038 FFF7FEFF 		bl	EE_oo_CancelAlarm
 890              	.LVL64:
 244:source\asw/main.c ****         SetRelAlarm(alrm_measureTime,1,1);
 891              		.loc 1 244 0
 892 003c 0122     		movs	r2, #1
 893 003e 1146     		mov	r1, r2
 894 0040 0220     		movs	r0, #2
 895 0042 FFF7FEFF 		bl	EE_oo_SetRelAlarm
 896              	.LVL65:
 245:source\asw/main.c ****         state = STATE_BUTTONPRESS;
 897              		.loc 1 245 0
 898 0046 0222     		movs	r2, #2
 899 0048 034B     		ldr	r3, .L55+8
 900 004a 1A70     		strb	r2, [r3]
 901              	.L51:
 246:source\asw/main.c **** 	}
 247:source\asw/main.c ****     return RC_SUCCESS;
 248:source\asw/main.c **** }
 902              		.loc 1 248 0
ARM GAS  C:\Users\robom\AppData\Local\Temp\cckcVs4S.s 			page 34


 903 004c 0020     		movs	r0, #0
 904 004e 08BD     		pop	{r3, pc}
 905              	.L56:
 906              		.align	2
 907              	.L55:
 908 0050 00000000 		.word	.LANCHOR0
 909 0054 00000000 		.word	SSDnum
 910 0058 00000000 		.word	state
 911              		.cfi_endproc
 912              	.LFE122:
 913              		.size	displayssd, .-displayssd
 914              		.section	.text.correctMessage,"ax",%progbits
 915              		.align	2
 916              		.global	correctMessage
 917              		.thumb
 918              		.thumb_func
 919              		.type	correctMessage, %function
 920              	correctMessage:
 921              	.LFB125:
 249:source\asw/main.c **** 
 250:source\asw/main.c **** RC_t buttonpress()
 251:source\asw/main.c **** {
 252:source\asw/main.c ****     CancelAlarm(alrm_measureTime);
 253:source\asw/main.c **** 	if(ev & ev_button)
 254:source\asw/main.c **** 	{
 255:source\asw/main.c ****         CancelAlarm(alrm_1000ms);
 256:source\asw/main.c ****         SetRelAlarm(alrm_1000ms,1000,1);
 257:source\asw/main.c **** 		if((uint8_t)SSDnum == 1) //if ssd is number 1, user must press the right button
 258:source\asw/main.c **** 		{
 259:source\asw/main.c **** 			if((ev & ev_button) && (BUTTON_1_Read() == 1))
 260:source\asw/main.c **** 			{
 261:source\asw/main.c ****                 correctMessage();
 262:source\asw/main.c ****             }
 263:source\asw/main.c ****             else
 264:source\asw/main.c ****             {
 265:source\asw/main.c ****                 incorrectMessage();
 266:source\asw/main.c ****             }
 267:source\asw/main.c **** 		}
 268:source\asw/main.c ****         else //if ssd is number 2, user must press the left button
 269:source\asw/main.c ****         {
 270:source\asw/main.c ****             if((ev & ev_button) && (BUTTON_1_Read() == 1))
 271:source\asw/main.c ****             {
 272:source\asw/main.c ****                 incorrectMessage();
 273:source\asw/main.c ****             }
 274:source\asw/main.c ****             else
 275:source\asw/main.c ****             {
 276:source\asw/main.c ****                 correctMessage();
 277:source\asw/main.c ****             }
 278:source\asw/main.c ****         }
 279:source\asw/main.c **** 	}
 280:source\asw/main.c ****     if(GetAlarm(alrm_1000ms,(unsigned int*)1000))
 281:source\asw/main.c ****     {
 282:source\asw/main.c ****         SetEvent(tsk_logic,ev_timeout);
 283:source\asw/main.c ****         state = STATE_TOOSLOW;
 284:source\asw/main.c ****         
 285:source\asw/main.c ****     }
 286:source\asw/main.c ****     else
ARM GAS  C:\Users\robom\AppData\Local\Temp\cckcVs4S.s 			page 35


 287:source\asw/main.c ****     {
 288:source\asw/main.c ****         state = STATE_START;
 289:source\asw/main.c ****     }
 290:source\asw/main.c ****     //clear the displays
 291:source\asw/main.c ****     SEVEN_Clear(SEVEN_0);
 292:source\asw/main.c ****     SEVEN_Clear(SEVEN_1); 
 293:source\asw/main.c ****     return RC_SUCCESS;
 294:source\asw/main.c **** }
 295:source\asw/main.c **** 
 296:source\asw/main.c **** RC_t tooslow()
 297:source\asw/main.c **** {
 298:source\asw/main.c ****     if(ev & ev_timeout)
 299:source\asw/main.c ****     {
 300:source\asw/main.c ****         CancelAlarm(alrm_1000ms);
 301:source\asw/main.c ****         tooslowMessage();
 302:source\asw/main.c **** 		//clear the displays
 303:source\asw/main.c **** 		SEVEN_Clear(SEVEN_0);
 304:source\asw/main.c **** 		SEVEN_Clear(SEVEN_1);
 305:source\asw/main.c ****         
 306:source\asw/main.c ****     }
 307:source\asw/main.c ****     state = STATE_START;
 308:source\asw/main.c ****     
 309:source\asw/main.c ****     return RC_SUCCESS;
 310:source\asw/main.c **** }
 311:source\asw/main.c **** 
 312:source\asw/main.c **** /* Message Functions to display to UART */
 313:source\asw/main.c **** 
 314:source\asw/main.c **** 
 315:source\asw/main.c **** void correctMessage()
 316:source\asw/main.c **** {
 922              		.loc 1 316 0
 923              		.cfi_startproc
 924              		@ args = 0, pretend = 0, frame = 0
 925              		@ frame_needed = 0, uses_anonymous_args = 0
 926 0000 08B5     		push	{r3, lr}
 927              		.cfi_def_cfa_offset 8
 928              		.cfi_offset 3, -8
 929              		.cfi_offset 14, -4
 317:source\asw/main.c ****     UART_LOG_PutString("correct button pressed\n");
 930              		.loc 1 317 0
 931 0002 0548     		ldr	r0, .L59
 932 0004 FFF7FEFF 		bl	UART_LOG_PutString
 933              	.LVL66:
 318:source\asw/main.c ****     UART_LOG_PutString("Press any button to go to the next round\n");
 934              		.loc 1 318 0
 935 0008 0448     		ldr	r0, .L59+4
 936 000a FFF7FEFF 		bl	UART_LOG_PutString
 937              	.LVL67:
 319:source\asw/main.c ****     UART_LOG_PutString("=======================================================\n");
 938              		.loc 1 319 0
 939 000e 0448     		ldr	r0, .L59+8
 940 0010 FFF7FEFF 		bl	UART_LOG_PutString
 941              	.LVL68:
 942 0014 08BD     		pop	{r3, pc}
 943              	.L60:
 944 0016 00BF     		.align	2
 945              	.L59:
ARM GAS  C:\Users\robom\AppData\Local\Temp\cckcVs4S.s 			page 36


 946 0018 74000000 		.word	.LC2
 947 001c 8C000000 		.word	.LC3
 948 0020 B8000000 		.word	.LC4
 949              		.cfi_endproc
 950              	.LFE125:
 951              		.size	correctMessage, .-correctMessage
 952              		.section	.text.incorrectMessage,"ax",%progbits
 953              		.align	2
 954              		.global	incorrectMessage
 955              		.thumb
 956              		.thumb_func
 957              		.type	incorrectMessage, %function
 958              	incorrectMessage:
 959              	.LFB126:
 320:source\asw/main.c **** }
 321:source\asw/main.c **** 
 322:source\asw/main.c **** void incorrectMessage()
 323:source\asw/main.c **** {
 960              		.loc 1 323 0
 961              		.cfi_startproc
 962              		@ args = 0, pretend = 0, frame = 0
 963              		@ frame_needed = 0, uses_anonymous_args = 0
 964 0000 08B5     		push	{r3, lr}
 965              		.cfi_def_cfa_offset 8
 966              		.cfi_offset 3, -8
 967              		.cfi_offset 14, -4
 324:source\asw/main.c ****     UART_LOG_PutString("Incorrect button pressed\n");
 968              		.loc 1 324 0
 969 0002 0548     		ldr	r0, .L63
 970 0004 FFF7FEFF 		bl	UART_LOG_PutString
 971              	.LVL69:
 325:source\asw/main.c ****     UART_LOG_PutString("Press any button to go to the next round\n");
 972              		.loc 1 325 0
 973 0008 0448     		ldr	r0, .L63+4
 974 000a FFF7FEFF 		bl	UART_LOG_PutString
 975              	.LVL70:
 326:source\asw/main.c ****     UART_LOG_PutString("=======================================================\n");
 976              		.loc 1 326 0
 977 000e 0448     		ldr	r0, .L63+8
 978 0010 FFF7FEFF 		bl	UART_LOG_PutString
 979              	.LVL71:
 980 0014 08BD     		pop	{r3, pc}
 981              	.L64:
 982 0016 00BF     		.align	2
 983              	.L63:
 984 0018 F4000000 		.word	.LC5
 985 001c 8C000000 		.word	.LC3
 986 0020 B8000000 		.word	.LC4
 987              		.cfi_endproc
 988              	.LFE126:
 989              		.size	incorrectMessage, .-incorrectMessage
 990              		.section	.text.buttonpress,"ax",%progbits
 991              		.align	2
 992              		.global	buttonpress
 993              		.thumb
 994              		.thumb_func
 995              		.type	buttonpress, %function
ARM GAS  C:\Users\robom\AppData\Local\Temp\cckcVs4S.s 			page 37


 996              	buttonpress:
 997              	.LFB123:
 251:source\asw/main.c ****     CancelAlarm(alrm_measureTime);
 998              		.loc 1 251 0
 999              		.cfi_startproc
 1000              		@ args = 0, pretend = 0, frame = 0
 1001              		@ frame_needed = 0, uses_anonymous_args = 0
 1002 0000 08B5     		push	{r3, lr}
 1003              		.cfi_def_cfa_offset 8
 1004              		.cfi_offset 3, -8
 1005              		.cfi_offset 14, -4
 252:source\asw/main.c **** 	if(ev & ev_button)
 1006              		.loc 1 252 0
 1007 0002 0220     		movs	r0, #2
 1008 0004 FFF7FEFF 		bl	EE_oo_CancelAlarm
 1009              	.LVL72:
 253:source\asw/main.c **** 	{
 1010              		.loc 1 253 0
 1011 0008 234B     		ldr	r3, .L73
 1012 000a 5B68     		ldr	r3, [r3, #4]
 1013 000c 13F0010F 		tst	r3, #1
 1014 0010 29D0     		beq	.L66
 255:source\asw/main.c ****         SetRelAlarm(alrm_1000ms,1000,1);
 1015              		.loc 1 255 0
 1016 0012 0120     		movs	r0, #1
 1017 0014 FFF7FEFF 		bl	EE_oo_CancelAlarm
 1018              	.LVL73:
 256:source\asw/main.c **** 		if((uint8_t)SSDnum == 1) //if ssd is number 1, user must press the right button
 1019              		.loc 1 256 0
 1020 0018 0122     		movs	r2, #1
 1021 001a 4FF47A71 		mov	r1, #1000
 1022 001e 1046     		mov	r0, r2
 1023 0020 FFF7FEFF 		bl	EE_oo_SetRelAlarm
 1024              	.LVL74:
 257:source\asw/main.c **** 		{
 1025              		.loc 1 257 0
 1026 0024 1D4B     		ldr	r3, .L73+4
 1027 0026 1B78     		ldrb	r3, [r3]	@ zero_extendqisi2
 1028 0028 012B     		cmp	r3, #1
 1029 002a 0ED1     		bne	.L67
 259:source\asw/main.c **** 			{
 1030              		.loc 1 259 0
 1031 002c 1A4B     		ldr	r3, .L73
 1032 002e 5B68     		ldr	r3, [r3, #4]
 1033 0030 13F0010F 		tst	r3, #1
 1034 0034 06D0     		beq	.L68
 259:source\asw/main.c **** 			{
 1035              		.loc 1 259 0 is_stmt 0 discriminator 1
 1036 0036 FFF7FEFF 		bl	BUTTON_1_Read
 1037              	.LVL75:
 1038 003a 0128     		cmp	r0, #1
 1039 003c 02D1     		bne	.L68
 261:source\asw/main.c ****             }
 1040              		.loc 1 261 0 is_stmt 1
 1041 003e FFF7FEFF 		bl	correctMessage
 1042              	.LVL76:
 1043 0042 10E0     		b	.L66
ARM GAS  C:\Users\robom\AppData\Local\Temp\cckcVs4S.s 			page 38


 1044              	.L68:
 265:source\asw/main.c ****             }
 1045              		.loc 1 265 0
 1046 0044 FFF7FEFF 		bl	incorrectMessage
 1047              	.LVL77:
 1048 0048 0DE0     		b	.L66
 1049              	.L67:
 270:source\asw/main.c ****             {
 1050              		.loc 1 270 0
 1051 004a 134B     		ldr	r3, .L73
 1052 004c 5B68     		ldr	r3, [r3, #4]
 1053 004e 13F0010F 		tst	r3, #1
 1054 0052 06D0     		beq	.L69
 270:source\asw/main.c ****             {
 1055              		.loc 1 270 0 is_stmt 0 discriminator 1
 1056 0054 FFF7FEFF 		bl	BUTTON_1_Read
 1057              	.LVL78:
 1058 0058 0128     		cmp	r0, #1
 1059 005a 02D1     		bne	.L69
 272:source\asw/main.c ****             }
 1060              		.loc 1 272 0 is_stmt 1
 1061 005c FFF7FEFF 		bl	incorrectMessage
 1062              	.LVL79:
 1063 0060 01E0     		b	.L66
 1064              	.L69:
 276:source\asw/main.c ****             }
 1065              		.loc 1 276 0
 1066 0062 FFF7FEFF 		bl	correctMessage
 1067              	.LVL80:
 1068              	.L66:
 280:source\asw/main.c ****     {
 1069              		.loc 1 280 0
 1070 0066 4FF47A71 		mov	r1, #1000
 1071 006a 0120     		movs	r0, #1
 1072 006c FFF7FEFF 		bl	EE_oo_GetAlarm
 1073              	.LVL81:
 1074 0070 38B1     		cbz	r0, .L70
 282:source\asw/main.c ****         state = STATE_TOOSLOW;
 1075              		.loc 1 282 0
 1076 0072 0221     		movs	r1, #2
 1077 0074 0846     		mov	r0, r1
 1078 0076 FFF7FEFF 		bl	EE_oo_SetEvent
 1079              	.LVL82:
 283:source\asw/main.c ****         
 1080              		.loc 1 283 0
 1081 007a 0322     		movs	r2, #3
 1082 007c 084B     		ldr	r3, .L73+8
 1083 007e 1A70     		strb	r2, [r3]
 1084 0080 02E0     		b	.L71
 1085              	.L70:
 288:source\asw/main.c ****     }
 1086              		.loc 1 288 0
 1087 0082 0022     		movs	r2, #0
 1088 0084 064B     		ldr	r3, .L73+8
 1089 0086 1A70     		strb	r2, [r3]
 1090              	.L71:
 291:source\asw/main.c ****     SEVEN_Clear(SEVEN_1); 
ARM GAS  C:\Users\robom\AppData\Local\Temp\cckcVs4S.s 			page 39


 1091              		.loc 1 291 0
 1092 0088 0020     		movs	r0, #0
 1093 008a FFF7FEFF 		bl	SEVEN_Clear
 1094              	.LVL83:
 292:source\asw/main.c ****     return RC_SUCCESS;
 1095              		.loc 1 292 0
 1096 008e 0120     		movs	r0, #1
 1097 0090 FFF7FEFF 		bl	SEVEN_Clear
 1098              	.LVL84:
 294:source\asw/main.c **** 
 1099              		.loc 1 294 0
 1100 0094 0020     		movs	r0, #0
 1101 0096 08BD     		pop	{r3, pc}
 1102              	.L74:
 1103              		.align	2
 1104              	.L73:
 1105 0098 00000000 		.word	.LANCHOR0
 1106 009c 00000000 		.word	SSDnum
 1107 00a0 00000000 		.word	state
 1108              		.cfi_endproc
 1109              	.LFE123:
 1110              		.size	buttonpress, .-buttonpress
 1111              		.section	.text.tooslowMessage,"ax",%progbits
 1112              		.align	2
 1113              		.global	tooslowMessage
 1114              		.thumb
 1115              		.thumb_func
 1116              		.type	tooslowMessage, %function
 1117              	tooslowMessage:
 1118              	.LFB127:
 327:source\asw/main.c **** }
 328:source\asw/main.c **** 
 329:source\asw/main.c **** void tooslowMessage()
 330:source\asw/main.c **** {
 1119              		.loc 1 330 0
 1120              		.cfi_startproc
 1121              		@ args = 0, pretend = 0, frame = 0
 1122              		@ frame_needed = 0, uses_anonymous_args = 0
 1123 0000 08B5     		push	{r3, lr}
 1124              		.cfi_def_cfa_offset 8
 1125              		.cfi_offset 3, -8
 1126              		.cfi_offset 14, -4
 331:source\asw/main.c ****     UART_LOG_PutString("TIMEOUT!\n");
 1127              		.loc 1 331 0
 1128 0002 0548     		ldr	r0, .L77
 1129 0004 FFF7FEFF 		bl	UART_LOG_PutString
 1130              	.LVL85:
 332:source\asw/main.c ****     UART_LOG_PutString("Press any button to go to the next round\n");
 1131              		.loc 1 332 0
 1132 0008 0448     		ldr	r0, .L77+4
 1133 000a FFF7FEFF 		bl	UART_LOG_PutString
 1134              	.LVL86:
 333:source\asw/main.c ****     UART_LOG_PutString("=======================================================\n");
 1135              		.loc 1 333 0
 1136 000e 0448     		ldr	r0, .L77+8
 1137 0010 FFF7FEFF 		bl	UART_LOG_PutString
 1138              	.LVL87:
ARM GAS  C:\Users\robom\AppData\Local\Temp\cckcVs4S.s 			page 40


 1139 0014 08BD     		pop	{r3, pc}
 1140              	.L78:
 1141 0016 00BF     		.align	2
 1142              	.L77:
 1143 0018 10010000 		.word	.LC6
 1144 001c 8C000000 		.word	.LC3
 1145 0020 B8000000 		.word	.LC4
 1146              		.cfi_endproc
 1147              	.LFE127:
 1148              		.size	tooslowMessage, .-tooslowMessage
 1149              		.section	.text.tooslow,"ax",%progbits
 1150              		.align	2
 1151              		.global	tooslow
 1152              		.thumb
 1153              		.thumb_func
 1154              		.type	tooslow, %function
 1155              	tooslow:
 1156              	.LFB124:
 297:source\asw/main.c ****     if(ev & ev_timeout)
 1157              		.loc 1 297 0
 1158              		.cfi_startproc
 1159              		@ args = 0, pretend = 0, frame = 0
 1160              		@ frame_needed = 0, uses_anonymous_args = 0
 1161 0000 08B5     		push	{r3, lr}
 1162              		.cfi_def_cfa_offset 8
 1163              		.cfi_offset 3, -8
 1164              		.cfi_offset 14, -4
 298:source\asw/main.c ****     {
 1165              		.loc 1 298 0
 1166 0002 0A4B     		ldr	r3, .L82
 1167 0004 5B68     		ldr	r3, [r3, #4]
 1168 0006 13F0020F 		tst	r3, #2
 1169 000a 0AD0     		beq	.L80
 300:source\asw/main.c ****         tooslowMessage();
 1170              		.loc 1 300 0
 1171 000c 0120     		movs	r0, #1
 1172 000e FFF7FEFF 		bl	EE_oo_CancelAlarm
 1173              	.LVL88:
 301:source\asw/main.c **** 		//clear the displays
 1174              		.loc 1 301 0
 1175 0012 FFF7FEFF 		bl	tooslowMessage
 1176              	.LVL89:
 303:source\asw/main.c **** 		SEVEN_Clear(SEVEN_1);
 1177              		.loc 1 303 0
 1178 0016 0020     		movs	r0, #0
 1179 0018 FFF7FEFF 		bl	SEVEN_Clear
 1180              	.LVL90:
 304:source\asw/main.c ****         
 1181              		.loc 1 304 0
 1182 001c 0120     		movs	r0, #1
 1183 001e FFF7FEFF 		bl	SEVEN_Clear
 1184              	.LVL91:
 1185              	.L80:
 307:source\asw/main.c ****     
 1186              		.loc 1 307 0
 1187 0022 0020     		movs	r0, #0
 1188 0024 024B     		ldr	r3, .L82+4
ARM GAS  C:\Users\robom\AppData\Local\Temp\cckcVs4S.s 			page 41


 1189 0026 1870     		strb	r0, [r3]
 310:source\asw/main.c **** 
 1190              		.loc 1 310 0
 1191 0028 08BD     		pop	{r3, pc}
 1192              	.L83:
 1193 002a 00BF     		.align	2
 1194              	.L82:
 1195 002c 00000000 		.word	.LANCHOR0
 1196 0030 00000000 		.word	state
 1197              		.cfi_endproc
 1198              	.LFE124:
 1199              		.size	tooslow, .-tooslow
 1200              		.section	.text.finalMessage,"ax",%progbits
 1201              		.align	2
 1202              		.global	finalMessage
 1203              		.thumb
 1204              		.thumb_func
 1205              		.type	finalMessage, %function
 1206              	finalMessage:
 1207              	.LFB128:
 334:source\asw/main.c **** }
 335:source\asw/main.c **** 
 336:source\asw/main.c **** void finalMessage()
 337:source\asw/main.c **** {
 1208              		.loc 1 337 0
 1209              		.cfi_startproc
 1210              		@ args = 0, pretend = 0, frame = 0
 1211              		@ frame_needed = 0, uses_anonymous_args = 0
 1212 0000 08B5     		push	{r3, lr}
 1213              		.cfi_def_cfa_offset 8
 1214              		.cfi_offset 3, -8
 1215              		.cfi_offset 14, -4
 338:source\asw/main.c ****     UART_LOG_PutString("END of the game");
 1216              		.loc 1 338 0
 1217 0002 0348     		ldr	r0, .L86
 1218 0004 FFF7FEFF 		bl	UART_LOG_PutString
 1219              	.LVL92:
 339:source\asw/main.c ****     LED_Toggle(LED_ALL);
 1220              		.loc 1 339 0
 1221 0008 0320     		movs	r0, #3
 1222 000a FFF7FEFF 		bl	LED_Toggle
 1223              	.LVL93:
 1224 000e 08BD     		pop	{r3, pc}
 1225              	.L87:
 1226              		.align	2
 1227              	.L86:
 1228 0010 1C010000 		.word	.LC7
 1229              		.cfi_endproc
 1230              	.LFE128:
 1231              		.size	finalMessage, .-finalMessage
 1232              		.section	.text.Functsk_logic,"ax",%progbits
 1233              		.align	2
 1234              		.global	Functsk_logic
 1235              		.thumb
 1236              		.thumb_func
 1237              		.type	Functsk_logic, %function
 1238              	Functsk_logic:
ARM GAS  C:\Users\robom\AppData\Local\Temp\cckcVs4S.s 			page 42


 1239              	.LFB117:
 135:source\asw/main.c **** 
 1240              		.loc 1 135 0
 1241              		.cfi_startproc
 1242              		@ args = 0, pretend = 0, frame = 0
 1243              		@ frame_needed = 0, uses_anonymous_args = 0
 1244 0000 10B5     		push	{r4, lr}
 1245              		.cfi_def_cfa_offset 8
 1246              		.cfi_offset 4, -8
 1247              		.cfi_offset 14, -4
 1248              	.L90:
 140:source\asw/main.c ****         GetEvent(tsk_logic, &ev);
 1249              		.loc 1 140 0
 1250 0002 0720     		movs	r0, #7
 1251 0004 FFF7FEFF 		bl	EE_oo_WaitEvent
 1252              	.LVL94:
 141:source\asw/main.c ****         ClearEvent(ev);
 1253              		.loc 1 141 0
 1254 0008 1F4C     		ldr	r4, .L100
 1255 000a 211D     		adds	r1, r4, #4
 1256 000c 0220     		movs	r0, #2
 1257 000e FFF7FEFF 		bl	EE_oo_GetEvent
 1258              	.LVL95:
 142:source\asw/main.c ****         
 1259              		.loc 1 142 0
 1260 0012 6068     		ldr	r0, [r4, #4]
 1261 0014 FFF7FEFF 		bl	EE_oo_ClearEvent
 1262              	.LVL96:
 145:source\asw/main.c ****         {
 1263              		.loc 1 145 0
 1264 0018 237A     		ldrb	r3, [r4, #8]	@ zero_extendqisi2
 1265 001a 0A2B     		cmp	r3, #10
 1266 001c 08D9     		bls	.L91
 147:source\asw/main.c ****             SEVEN_Clear(SEVEN_1);
 1267              		.loc 1 147 0
 1268 001e 0020     		movs	r0, #0
 1269 0020 FFF7FEFF 		bl	SEVEN_Clear
 1270              	.LVL97:
 148:source\asw/main.c ****             finalMessage();
 1271              		.loc 1 148 0
 1272 0024 0120     		movs	r0, #1
 1273 0026 FFF7FEFF 		bl	SEVEN_Clear
 1274              	.LVL98:
 149:source\asw/main.c ****             return;
 1275              		.loc 1 149 0
 1276 002a FFF7FEFF 		bl	finalMessage
 1277              	.LVL99:
 1278 002e 10BD     		pop	{r4, pc}
 1279              	.L91:
 153:source\asw/main.c ****         {
 1280              		.loc 1 153 0
 1281 0030 164B     		ldr	r3, .L100+4
 1282 0032 1B78     		ldrb	r3, [r3]	@ zero_extendqisi2
 1283 0034 032B     		cmp	r3, #3
 1284 0036 E4D8     		bhi	.L90
 1285 0038 DFE803F0 		tbb	[pc, r3]
 1286              	.L93:
ARM GAS  C:\Users\robom\AppData\Local\Temp\cckcVs4S.s 			page 43


 1287 003c 02       		.byte	(.L92-.L93)/2
 1288 003d 08       		.byte	(.L94-.L93)/2
 1289 003e 0E       		.byte	(.L95-.L93)/2
 1290 003f 18       		.byte	(.L96-.L93)/2
 1291              		.p2align 1
 1292              	.L92:
 156:source\asw/main.c ****                 start();
 1293              		.loc 1 156 0
 1294 0040 1348     		ldr	r0, .L100+8
 1295 0042 FFF7FEFF 		bl	UART_LOG_PutString
 1296              	.LVL100:
 157:source\asw/main.c ****             break;
 1297              		.loc 1 157 0
 1298 0046 FFF7FEFF 		bl	start
 1299              	.LVL101:
 158:source\asw/main.c ****             
 1300              		.loc 1 158 0
 1301 004a DAE7     		b	.L90
 1302              	.L94:
 161:source\asw/main.c ****                 displayssd();
 1303              		.loc 1 161 0
 1304 004c 1148     		ldr	r0, .L100+12
 1305 004e FFF7FEFF 		bl	UART_LOG_PutString
 1306              	.LVL102:
 162:source\asw/main.c ****             break;
 1307              		.loc 1 162 0
 1308 0052 FFF7FEFF 		bl	displayssd
 1309              	.LVL103:
 163:source\asw/main.c ****                 
 1310              		.loc 1 163 0
 1311 0056 D4E7     		b	.L90
 1312              	.L95:
 166:source\asw/main.c ****                 buttonpress();
 1313              		.loc 1 166 0
 1314 0058 0F48     		ldr	r0, .L100+16
 1315 005a FFF7FEFF 		bl	UART_LOG_PutString
 1316              	.LVL104:
 167:source\asw/main.c ****                 roundNo++;
 1317              		.loc 1 167 0
 1318 005e FFF7FEFF 		bl	buttonpress
 1319              	.LVL105:
 168:source\asw/main.c ****             break;
 1320              		.loc 1 168 0
 1321 0062 094A     		ldr	r2, .L100
 1322 0064 137A     		ldrb	r3, [r2, #8]	@ zero_extendqisi2
 1323 0066 0133     		adds	r3, r3, #1
 1324 0068 1372     		strb	r3, [r2, #8]
 169:source\asw/main.c ****             
 1325              		.loc 1 169 0
 1326 006a CAE7     		b	.L90
 1327              	.L96:
 172:source\asw/main.c ****                 tooslow();
 1328              		.loc 1 172 0
 1329 006c 0B48     		ldr	r0, .L100+20
 1330 006e FFF7FEFF 		bl	UART_LOG_PutString
 1331              	.LVL106:
 173:source\asw/main.c ****                 roundNo++;
ARM GAS  C:\Users\robom\AppData\Local\Temp\cckcVs4S.s 			page 44


 1332              		.loc 1 173 0
 1333 0072 FFF7FEFF 		bl	tooslow
 1334              	.LVL107:
 174:source\asw/main.c ****                 UART_LOG_PutString("state 4aaaaaaa\n");
 1335              		.loc 1 174 0
 1336 0076 044A     		ldr	r2, .L100
 1337 0078 137A     		ldrb	r3, [r2, #8]	@ zero_extendqisi2
 1338 007a 0133     		adds	r3, r3, #1
 1339 007c 1372     		strb	r3, [r2, #8]
 175:source\asw/main.c ****             break;
 1340              		.loc 1 175 0
 1341 007e 0848     		ldr	r0, .L100+24
 1342 0080 FFF7FEFF 		bl	UART_LOG_PutString
 1343              	.LVL108:
 176:source\asw/main.c ****                  
 1344              		.loc 1 176 0
 1345 0084 BDE7     		b	.L90
 1346              	.L101:
 1347 0086 00BF     		.align	2
 1348              	.L100:
 1349 0088 00000000 		.word	.LANCHOR0
 1350 008c 00000000 		.word	state
 1351 0090 2C010000 		.word	.LC8
 1352 0094 38010000 		.word	.LC9
 1353 0098 44010000 		.word	.LC10
 1354 009c 50010000 		.word	.LC11
 1355 00a0 5C010000 		.word	.LC12
 1356              		.cfi_endproc
 1357              	.LFE117:
 1358              		.size	Functsk_logic, .-Functsk_logic
 1359              		.comm	randTime,4,4
 1360              		.comm	SSDnum,4,4
 1361              		.global	ev
 1362              		.comm	button,1,1
 1363              		.comm	state,1,1
 1364              		.section	.rodata.str1.4,"aMS",%progbits,1
 1365              		.align	2
 1366              	.LC0:
 1367 0000 57454C43 		.ascii	"WELCOME TO THE REACTION GAME!\012\000"
 1367      4F4D4520 
 1367      544F2054 
 1367      48452052 
 1367      45414354 
 1368 001f 00       		.space	1
 1369              	.LC1:
 1370 0020 50726573 		.ascii	"Press the left button if a 1 is shown or press the "
 1370      73207468 
 1370      65206C65 
 1370      66742062 
 1370      7574746F 
 1371 0053 72696768 		.ascii	"right button if a 2 is shown\012\000"
 1371      74206275 
 1371      74746F6E 
 1371      20696620 
 1371      61203220 
 1372 0071 000000   		.space	3
 1373              	.LC2:
ARM GAS  C:\Users\robom\AppData\Local\Temp\cckcVs4S.s 			page 45


 1374 0074 636F7272 		.ascii	"correct button pressed\012\000"
 1374      65637420 
 1374      62757474 
 1374      6F6E2070 
 1374      72657373 
 1375              	.LC3:
 1376 008c 50726573 		.ascii	"Press any button to go to the next round\012\000"
 1376      7320616E 
 1376      79206275 
 1376      74746F6E 
 1376      20746F20 
 1377 00b6 0000     		.space	2
 1378              	.LC4:
 1379 00b8 3D3D3D3D 		.ascii	"==================================================="
 1379      3D3D3D3D 
 1379      3D3D3D3D 
 1379      3D3D3D3D 
 1379      3D3D3D3D 
 1380 00eb 3D3D3D3D 		.ascii	"====\012\000"
 1380      0A00
 1381 00f1 000000   		.space	3
 1382              	.LC5:
 1383 00f4 496E636F 		.ascii	"Incorrect button pressed\012\000"
 1383      72726563 
 1383      74206275 
 1383      74746F6E 
 1383      20707265 
 1384 010e 0000     		.space	2
 1385              	.LC6:
 1386 0110 54494D45 		.ascii	"TIMEOUT!\012\000"
 1386      4F555421 
 1386      0A00
 1387 011a 0000     		.space	2
 1388              	.LC7:
 1389 011c 454E4420 		.ascii	"END of the game\000"
 1389      6F662074 
 1389      68652067 
 1389      616D6500 
 1390              	.LC8:
 1391 012c 73746174 		.ascii	"state 1\012\000"
 1391      6520310A 
 1391      00
 1392 0135 000000   		.space	3
 1393              	.LC9:
 1394 0138 73746174 		.ascii	"state 2\012\000"
 1394      6520320A 
 1394      00
 1395 0141 000000   		.space	3
 1396              	.LC10:
 1397 0144 73746174 		.ascii	"state 3\012\000"
 1397      6520330A 
 1397      00
 1398 014d 000000   		.space	3
 1399              	.LC11:
 1400 0150 73746174 		.ascii	"state 4\012\000"
 1400      6520340A 
 1400      00
ARM GAS  C:\Users\robom\AppData\Local\Temp\cckcVs4S.s 			page 46


 1401 0159 000000   		.space	3
 1402              	.LC12:
 1403 015c 73746174 		.ascii	"state 4aaaaaaa\012\000"
 1403      65203461 
 1403      61616161 
 1403      61610A00 
 1404              		.bss
 1405              		.align	2
 1406              		.set	.LANCHOR0,. + 0
 1407              		.type	timeScore, %object
 1408              		.size	timeScore, 1
 1409              	timeScore:
 1410 0000 00       		.space	1
 1411 0001 000000   		.space	3
 1412              		.type	ev, %object
 1413              		.size	ev, 4
 1414              	ev:
 1415 0004 00000000 		.space	4
 1416              		.type	roundNo, %object
 1417              		.size	roundNo, 1
 1418              	roundNo:
 1419 0008 00       		.space	1
 1420              		.text
 1421              	.Letext0:
 1422              		.file 6 ".\\source\\bsw/global.h"
 1423              		.file 7 "c:\\program files (x86)\\cypress\\psoc creator\\4.4\\psoc creator\\import\\gnu\\arm\\5.4.
 1424              		.file 8 "c:\\program files (x86)\\cypress\\psoc creator\\4.4\\psoc creator\\import\\gnu\\arm\\5.4.
 1425              		.file 9 "Generated_Source\\PSoC5/ErikaOS_1_common_ee_types.inc"
 1426              		.file 10 "Generated_Source\\PSoC5/ErikaOS_1_ee_oo_common.inc"
 1427              		.file 11 ".\\source\\bsw\\LabBoard/seven.h"
 1428              		.file 12 ".\\source\\bsw\\LabBoard/led.h"
 1429              		.file 13 "Generated_Source\\PSoC5/ErikaOS_1_ee_oo_intfunc.inc"
 1430              		.file 14 "Generated_Source\\PSoC5/ErikaOS_1_cortex_mx_ee_context.inc"
 1431              		.file 15 "Generated_Source\\PSoC5/ErikaOS_1_common_ee_primitives.inc"
 1432              		.file 16 "Generated_Source\\PSoC5/core_cm3.h"
 1433              		.file 17 "Generated_Source\\PSoC5/ErikaOS_1_ee_oo_kernel.inc"
 1434              		.file 18 "Generated_Source\\PSoC5/ErikaOS_1_ee_oo_irq.inc"
 1435              		.file 19 "Generated_Source\\PSoC5/ErikaOS_1_cortex_mx_ee_irq.inc"
 1436              		.file 20 "Generated_Source\\PSoC5/UART_LOG.h"
 1437              		.file 21 "Generated_Source\\PSoC5/BUTTON_1.h"
 1438              		.file 22 "Generated_Source\\PSoC5/BUTTON_2.h"
 1439              		.file 23 "c:\\program files (x86)\\cypress\\psoc creator\\4.4\\psoc creator\\import\\gnu\\arm\\5.4