ARM GAS  C:\Users\robom\AppData\Local\Temp\ccqs2S2W.s 			page 1


   1              		.syntax unified
   2              		.cpu cortex-m3
   3              		.fpu softvfp
   4              		.eabi_attribute 20, 1
   5              		.eabi_attribute 21, 1
   6              		.eabi_attribute 23, 3
   7              		.eabi_attribute 24, 1
   8              		.eabi_attribute 25, 1
   9              		.eabi_attribute 26, 1
  10              		.eabi_attribute 30, 1
  11              		.eabi_attribute 34, 1
  12              		.eabi_attribute 18, 4
  13              		.thumb
  14              		.syntax unified
  15              		.file	"trcStreamingRecorder.c"
  16              		.text
  17              	.Ltext0:
  18              		.cfi_sections	.debug_frame
  19              		.section	.text.prvGetTimestamp32,"ax",%progbits
  20              		.align	2
  21              		.thumb
  22              		.thumb_func
  23              		.type	prvGetTimestamp32, %function
  24              	prvGetTimestamp32:
  25              	.LFB148:
  26              		.file 1 "source\\bsw\\TraceRecorder\\trcStreamingRecorder.c"
   1:source\bsw\TraceRecorder/trcStreamingRecorder.c **** /*******************************************************************************
   2:source\bsw\TraceRecorder/trcStreamingRecorder.c ****  * Trace Recorder Library for Tracealyzer v4.1.0
   3:source\bsw\TraceRecorder/trcStreamingRecorder.c ****  * Percepio AB, www.percepio.com
   4:source\bsw\TraceRecorder/trcStreamingRecorder.c ****  *
   5:source\bsw\TraceRecorder/trcStreamingRecorder.c ****  * trcStreamingRecorder.c
   6:source\bsw\TraceRecorder/trcStreamingRecorder.c ****  *
   7:source\bsw\TraceRecorder/trcStreamingRecorder.c ****  * The generic core of the trace recorder's streaming mode.
   8:source\bsw\TraceRecorder/trcStreamingRecorder.c ****  *
   9:source\bsw\TraceRecorder/trcStreamingRecorder.c ****  * Terms of Use
  10:source\bsw\TraceRecorder/trcStreamingRecorder.c ****  * This file is part of the trace recorder library (RECORDER), which is the 
  11:source\bsw\TraceRecorder/trcStreamingRecorder.c ****  * intellectual property of Percepio AB (PERCEPIO) and provided under a
  12:source\bsw\TraceRecorder/trcStreamingRecorder.c ****  * license as follows.
  13:source\bsw\TraceRecorder/trcStreamingRecorder.c ****  * The RECORDER may be used free of charge for the purpose of recording data
  14:source\bsw\TraceRecorder/trcStreamingRecorder.c ****  * intended for analysis in PERCEPIO products. It may not be used or modified
  15:source\bsw\TraceRecorder/trcStreamingRecorder.c ****  * for other purposes without explicit permission from PERCEPIO.
  16:source\bsw\TraceRecorder/trcStreamingRecorder.c ****  * You may distribute the RECORDER in its original source code form, assuming
  17:source\bsw\TraceRecorder/trcStreamingRecorder.c ****  * this text (terms of use, disclaimer, copyright notice) is unchanged. You are
  18:source\bsw\TraceRecorder/trcStreamingRecorder.c ****  * allowed to distribute the RECORDER with minor modifications intended for
  19:source\bsw\TraceRecorder/trcStreamingRecorder.c ****  * configuration or porting of the RECORDER, e.g., to allow using it on a 
  20:source\bsw\TraceRecorder/trcStreamingRecorder.c ****  * specific processor, processor family or with a specific communication
  21:source\bsw\TraceRecorder/trcStreamingRecorder.c ****  * interface. Any such modifications should be documented directly below
  22:source\bsw\TraceRecorder/trcStreamingRecorder.c ****  * this comment block.  
  23:source\bsw\TraceRecorder/trcStreamingRecorder.c ****  *
  24:source\bsw\TraceRecorder/trcStreamingRecorder.c ****  * Disclaimer
  25:source\bsw\TraceRecorder/trcStreamingRecorder.c ****  * The RECORDER is being delivered to you AS IS and PERCEPIO makes no warranty
  26:source\bsw\TraceRecorder/trcStreamingRecorder.c ****  * as to its use or performance. PERCEPIO does not and cannot warrant the 
  27:source\bsw\TraceRecorder/trcStreamingRecorder.c ****  * performance or results you may obtain by using the RECORDER or documentation.
  28:source\bsw\TraceRecorder/trcStreamingRecorder.c ****  * PERCEPIO make no warranties, express or implied, as to noninfringement of
  29:source\bsw\TraceRecorder/trcStreamingRecorder.c ****  * third party rights, merchantability, or fitness for any particular purpose.
  30:source\bsw\TraceRecorder/trcStreamingRecorder.c ****  * In no event will PERCEPIO, its technology partners, or distributors be liable
  31:source\bsw\TraceRecorder/trcStreamingRecorder.c ****  * to you for any consequential, incidental or special damages, including any
ARM GAS  C:\Users\robom\AppData\Local\Temp\ccqs2S2W.s 			page 2


  32:source\bsw\TraceRecorder/trcStreamingRecorder.c ****  * lost profits or lost savings, even if a representative of PERCEPIO has been
  33:source\bsw\TraceRecorder/trcStreamingRecorder.c ****  * advised of the possibility of such damages, or for any claim by any third
  34:source\bsw\TraceRecorder/trcStreamingRecorder.c ****  * party. Some jurisdictions do not allow the exclusion or limitation of
  35:source\bsw\TraceRecorder/trcStreamingRecorder.c ****  * incidental, consequential or special damages, or the exclusion of implied
  36:source\bsw\TraceRecorder/trcStreamingRecorder.c ****  * warranties or limitations on how long an implied warranty may last, so the
  37:source\bsw\TraceRecorder/trcStreamingRecorder.c ****  * above limitations may not apply to you.
  38:source\bsw\TraceRecorder/trcStreamingRecorder.c ****  *
  39:source\bsw\TraceRecorder/trcStreamingRecorder.c ****  * Tabs are used for indent in this file (1 tab = 4 spaces)
  40:source\bsw\TraceRecorder/trcStreamingRecorder.c ****  *
  41:source\bsw\TraceRecorder/trcStreamingRecorder.c ****  * Copyright Percepio AB, 2018.
  42:source\bsw\TraceRecorder/trcStreamingRecorder.c ****  * www.percepio.com
  43:source\bsw\TraceRecorder/trcStreamingRecorder.c ****  ******************************************************************************/
  44:source\bsw\TraceRecorder/trcStreamingRecorder.c **** 
  45:source\bsw\TraceRecorder/trcStreamingRecorder.c **** #include "trcRecorder.h"
  46:source\bsw\TraceRecorder/trcStreamingRecorder.c **** 
  47:source\bsw\TraceRecorder/trcStreamingRecorder.c **** 
  48:source\bsw\TraceRecorder/trcStreamingRecorder.c **** #if (TRC_CFG_RECORDER_MODE == TRC_RECORDER_MODE_STREAMING)
  49:source\bsw\TraceRecorder/trcStreamingRecorder.c **** 
  50:source\bsw\TraceRecorder/trcStreamingRecorder.c **** #if (TRC_USE_TRACEALYZER_RECORDER == 1)
  51:source\bsw\TraceRecorder/trcStreamingRecorder.c **** 
  52:source\bsw\TraceRecorder/trcStreamingRecorder.c **** typedef struct{
  53:source\bsw\TraceRecorder/trcStreamingRecorder.c **** 	uint16_t EventID;
  54:source\bsw\TraceRecorder/trcStreamingRecorder.c **** 	uint16_t EventCount;
  55:source\bsw\TraceRecorder/trcStreamingRecorder.c **** 	uint32_t TS;
  56:source\bsw\TraceRecorder/trcStreamingRecorder.c **** } BaseEvent;
  57:source\bsw\TraceRecorder/trcStreamingRecorder.c **** 
  58:source\bsw\TraceRecorder/trcStreamingRecorder.c **** typedef struct{
  59:source\bsw\TraceRecorder/trcStreamingRecorder.c ****   BaseEvent base;
  60:source\bsw\TraceRecorder/trcStreamingRecorder.c ****   uint32_t param1;
  61:source\bsw\TraceRecorder/trcStreamingRecorder.c **** } EventWithParam_1;
  62:source\bsw\TraceRecorder/trcStreamingRecorder.c **** 
  63:source\bsw\TraceRecorder/trcStreamingRecorder.c **** typedef struct{
  64:source\bsw\TraceRecorder/trcStreamingRecorder.c ****   BaseEvent base;
  65:source\bsw\TraceRecorder/trcStreamingRecorder.c ****   uint32_t param1;
  66:source\bsw\TraceRecorder/trcStreamingRecorder.c ****   uint32_t param2;
  67:source\bsw\TraceRecorder/trcStreamingRecorder.c **** } EventWithParam_2;
  68:source\bsw\TraceRecorder/trcStreamingRecorder.c **** 
  69:source\bsw\TraceRecorder/trcStreamingRecorder.c **** typedef struct{
  70:source\bsw\TraceRecorder/trcStreamingRecorder.c ****   BaseEvent base;
  71:source\bsw\TraceRecorder/trcStreamingRecorder.c ****   uint32_t param1;
  72:source\bsw\TraceRecorder/trcStreamingRecorder.c ****   uint32_t param2;
  73:source\bsw\TraceRecorder/trcStreamingRecorder.c ****   uint32_t param3;
  74:source\bsw\TraceRecorder/trcStreamingRecorder.c **** } EventWithParam_3;
  75:source\bsw\TraceRecorder/trcStreamingRecorder.c **** 
  76:source\bsw\TraceRecorder/trcStreamingRecorder.c **** /* Used in event functions with variable number of parameters. */
  77:source\bsw\TraceRecorder/trcStreamingRecorder.c **** typedef struct
  78:source\bsw\TraceRecorder/trcStreamingRecorder.c **** {
  79:source\bsw\TraceRecorder/trcStreamingRecorder.c ****   BaseEvent base;
  80:source\bsw\TraceRecorder/trcStreamingRecorder.c ****   uint32_t data[15]; /* maximum payload size */
  81:source\bsw\TraceRecorder/trcStreamingRecorder.c **** } largestEventType;
  82:source\bsw\TraceRecorder/trcStreamingRecorder.c **** 
  83:source\bsw\TraceRecorder/trcStreamingRecorder.c **** typedef struct{
  84:source\bsw\TraceRecorder/trcStreamingRecorder.c ****   uint32_t psf;
  85:source\bsw\TraceRecorder/trcStreamingRecorder.c ****   uint16_t version;
  86:source\bsw\TraceRecorder/trcStreamingRecorder.c ****   uint16_t platform;
  87:source\bsw\TraceRecorder/trcStreamingRecorder.c ****   uint32_t options;
  88:source\bsw\TraceRecorder/trcStreamingRecorder.c ****   uint16_t symbolSize;
ARM GAS  C:\Users\robom\AppData\Local\Temp\ccqs2S2W.s 			page 3


  89:source\bsw\TraceRecorder/trcStreamingRecorder.c ****   uint16_t symbolCount;
  90:source\bsw\TraceRecorder/trcStreamingRecorder.c ****   uint16_t objectDataSize;
  91:source\bsw\TraceRecorder/trcStreamingRecorder.c ****   uint16_t objectDataCount;
  92:source\bsw\TraceRecorder/trcStreamingRecorder.c **** } PSFHeaderInfo;
  93:source\bsw\TraceRecorder/trcStreamingRecorder.c **** 
  94:source\bsw\TraceRecorder/trcStreamingRecorder.c **** 
  95:source\bsw\TraceRecorder/trcStreamingRecorder.c **** /* The size of each slot in the Symbol Table */
  96:source\bsw\TraceRecorder/trcStreamingRecorder.c **** #define SYMBOL_TABLE_SLOT_SIZE (sizeof(uint32_t) + (((TRC_CFG_SYMBOL_MAX_LENGTH)+(sizeof(uint32_t)-
  97:source\bsw\TraceRecorder/trcStreamingRecorder.c **** 
  98:source\bsw\TraceRecorder/trcStreamingRecorder.c **** #define OBJECT_DATA_SLOT_SIZE (sizeof(uint32_t) + sizeof(uint32_t))
  99:source\bsw\TraceRecorder/trcStreamingRecorder.c **** 
 100:source\bsw\TraceRecorder/trcStreamingRecorder.c **** /* The total size of the Symbol Table */
 101:source\bsw\TraceRecorder/trcStreamingRecorder.c **** #define SYMBOL_TABLE_BUFFER_SIZE ((TRC_CFG_SYMBOL_TABLE_SLOTS) * SYMBOL_TABLE_SLOT_SIZE)
 102:source\bsw\TraceRecorder/trcStreamingRecorder.c **** 
 103:source\bsw\TraceRecorder/trcStreamingRecorder.c **** /* The total size of the Object Data Table */
 104:source\bsw\TraceRecorder/trcStreamingRecorder.c **** #define OBJECT_DATA_TABLE_BUFFER_SIZE ((TRC_CFG_OBJECT_DATA_SLOTS) * OBJECT_DATA_SLOT_SIZE)
 105:source\bsw\TraceRecorder/trcStreamingRecorder.c **** 
 106:source\bsw\TraceRecorder/trcStreamingRecorder.c **** /* The Symbol Table type - just a byte array */
 107:source\bsw\TraceRecorder/trcStreamingRecorder.c **** typedef struct{
 108:source\bsw\TraceRecorder/trcStreamingRecorder.c ****   union
 109:source\bsw\TraceRecorder/trcStreamingRecorder.c ****   {
 110:source\bsw\TraceRecorder/trcStreamingRecorder.c ****     uint32_t pSymbolTableBufferUINT32[SYMBOL_TABLE_BUFFER_SIZE / sizeof(uint32_t)];
 111:source\bsw\TraceRecorder/trcStreamingRecorder.c ****     uint8_t pSymbolTableBufferUINT8[SYMBOL_TABLE_BUFFER_SIZE];
 112:source\bsw\TraceRecorder/trcStreamingRecorder.c ****   } SymbolTableBuffer;
 113:source\bsw\TraceRecorder/trcStreamingRecorder.c **** } SymbolTable;
 114:source\bsw\TraceRecorder/trcStreamingRecorder.c **** 
 115:source\bsw\TraceRecorder/trcStreamingRecorder.c **** /* The Object Data Table type - just a byte array */
 116:source\bsw\TraceRecorder/trcStreamingRecorder.c **** typedef struct{
 117:source\bsw\TraceRecorder/trcStreamingRecorder.c ****   union
 118:source\bsw\TraceRecorder/trcStreamingRecorder.c ****   {
 119:source\bsw\TraceRecorder/trcStreamingRecorder.c ****     uint32_t pObjectDataTableBufferUINT32[OBJECT_DATA_TABLE_BUFFER_SIZE / sizeof(uint32_t)];
 120:source\bsw\TraceRecorder/trcStreamingRecorder.c ****     uint8_t pObjectDataTableBufferUINT8[OBJECT_DATA_TABLE_BUFFER_SIZE];
 121:source\bsw\TraceRecorder/trcStreamingRecorder.c ****   } ObjectDataTableBuffer;
 122:source\bsw\TraceRecorder/trcStreamingRecorder.c **** } ObjectDataTable;
 123:source\bsw\TraceRecorder/trcStreamingRecorder.c **** 
 124:source\bsw\TraceRecorder/trcStreamingRecorder.c **** typedef struct{
 125:source\bsw\TraceRecorder/trcStreamingRecorder.c **** 	uint16_t Status;  /* 16 bit to avoid implicit padding (warnings) */
 126:source\bsw\TraceRecorder/trcStreamingRecorder.c **** 	uint16_t BytesRemaining;
 127:source\bsw\TraceRecorder/trcStreamingRecorder.c **** 	char* WritePointer;
 128:source\bsw\TraceRecorder/trcStreamingRecorder.c **** } PageType;
 129:source\bsw\TraceRecorder/trcStreamingRecorder.c **** 
 130:source\bsw\TraceRecorder/trcStreamingRecorder.c **** /* Code used for "task address" when no task has started. (NULL = idle task) */
 131:source\bsw\TraceRecorder/trcStreamingRecorder.c **** #define HANDLE_NO_TASK 2
 132:source\bsw\TraceRecorder/trcStreamingRecorder.c **** 
 133:source\bsw\TraceRecorder/trcStreamingRecorder.c **** #define PAGE_STATUS_FREE 0
 134:source\bsw\TraceRecorder/trcStreamingRecorder.c **** #define PAGE_STATUS_WRITE 1
 135:source\bsw\TraceRecorder/trcStreamingRecorder.c **** #define PAGE_STATUS_READ 2
 136:source\bsw\TraceRecorder/trcStreamingRecorder.c **** 
 137:source\bsw\TraceRecorder/trcStreamingRecorder.c **** #define PSF_ASSERT(_assert, _err) if (! (_assert)){ prvTraceError(_err); return; }
 138:source\bsw\TraceRecorder/trcStreamingRecorder.c **** 
 139:source\bsw\TraceRecorder/trcStreamingRecorder.c **** /* Part of the PSF format - encodes the number of 32-bit params in an event */
 140:source\bsw\TraceRecorder/trcStreamingRecorder.c **** #define PARAM_COUNT(n) ((n & 0xF) << 12)
 141:source\bsw\TraceRecorder/trcStreamingRecorder.c **** 
 142:source\bsw\TraceRecorder/trcStreamingRecorder.c **** /* The Symbol Table instance - keeps names of tasks and other named objects. */
 143:source\bsw\TraceRecorder/trcStreamingRecorder.c **** static SymbolTable symbolTable = { { { 0 } } };
 144:source\bsw\TraceRecorder/trcStreamingRecorder.c **** 
 145:source\bsw\TraceRecorder/trcStreamingRecorder.c **** /* This points to the first unused entry in the symbol table. */
ARM GAS  C:\Users\robom\AppData\Local\Temp\ccqs2S2W.s 			page 4


 146:source\bsw\TraceRecorder/trcStreamingRecorder.c **** static uint32_t firstFreeSymbolTableIndex = 0;
 147:source\bsw\TraceRecorder/trcStreamingRecorder.c **** 
 148:source\bsw\TraceRecorder/trcStreamingRecorder.c **** /* The Object Data Table instance - keeps initial priorities of tasks. */
 149:source\bsw\TraceRecorder/trcStreamingRecorder.c **** static ObjectDataTable objectDataTable = { { { 0 } } };
 150:source\bsw\TraceRecorder/trcStreamingRecorder.c **** 
 151:source\bsw\TraceRecorder/trcStreamingRecorder.c **** /* This points to the first unused entry in the object data table. */
 152:source\bsw\TraceRecorder/trcStreamingRecorder.c **** static uint32_t firstFreeObjectDataTableIndex = 0;
 153:source\bsw\TraceRecorder/trcStreamingRecorder.c **** 
 154:source\bsw\TraceRecorder/trcStreamingRecorder.c **** /* Keeps track of ISR nesting */
 155:source\bsw\TraceRecorder/trcStreamingRecorder.c **** static uint32_t ISR_stack[TRC_CFG_MAX_ISR_NESTING];
 156:source\bsw\TraceRecorder/trcStreamingRecorder.c **** 
 157:source\bsw\TraceRecorder/trcStreamingRecorder.c **** /* Keeps track of ISR nesting */
 158:source\bsw\TraceRecorder/trcStreamingRecorder.c **** static int8_t ISR_stack_index = -1;
 159:source\bsw\TraceRecorder/trcStreamingRecorder.c **** 
 160:source\bsw\TraceRecorder/trcStreamingRecorder.c **** /* Any error that occurred in the recorder (also creates User Event) */
 161:source\bsw\TraceRecorder/trcStreamingRecorder.c **** static int errorCode = 0;
 162:source\bsw\TraceRecorder/trcStreamingRecorder.c **** 
 163:source\bsw\TraceRecorder/trcStreamingRecorder.c **** /* Counts the number of trace sessions (not yet used) */
 164:source\bsw\TraceRecorder/trcStreamingRecorder.c **** static uint32_t SessionCounter = 0u;
 165:source\bsw\TraceRecorder/trcStreamingRecorder.c **** 
 166:source\bsw\TraceRecorder/trcStreamingRecorder.c **** /* Master switch for recording (0 => Disabled, 1 => Enabled) */
 167:source\bsw\TraceRecorder/trcStreamingRecorder.c **** uint32_t RecorderEnabled = 0u;
 168:source\bsw\TraceRecorder/trcStreamingRecorder.c **** 
 169:source\bsw\TraceRecorder/trcStreamingRecorder.c **** /* Used to determine endian of data (big/little) */
 170:source\bsw\TraceRecorder/trcStreamingRecorder.c **** static uint32_t PSFEndianessIdentifier = 0x50534600;
 171:source\bsw\TraceRecorder/trcStreamingRecorder.c **** 
 172:source\bsw\TraceRecorder/trcStreamingRecorder.c **** /* Used to interpret the data format */
 173:source\bsw\TraceRecorder/trcStreamingRecorder.c **** static uint16_t FormatVersion = 0x0004;
 174:source\bsw\TraceRecorder/trcStreamingRecorder.c **** 
 175:source\bsw\TraceRecorder/trcStreamingRecorder.c **** /* The number of events stored. Used as event sequence number. */
 176:source\bsw\TraceRecorder/trcStreamingRecorder.c **** static uint32_t eventCounter = 0;
 177:source\bsw\TraceRecorder/trcStreamingRecorder.c **** 
 178:source\bsw\TraceRecorder/trcStreamingRecorder.c **** /* The user event channel for recorder warnings, defined in trcKernelPort.c */
 179:source\bsw\TraceRecorder/trcStreamingRecorder.c **** extern char* trcWarningChannel;
 180:source\bsw\TraceRecorder/trcStreamingRecorder.c **** 
 181:source\bsw\TraceRecorder/trcStreamingRecorder.c **** /* Remembers if an earlier ISR in a sequence of adjacent ISRs has triggered a task switch.
 182:source\bsw\TraceRecorder/trcStreamingRecorder.c **** In that case, vTraceStoreISREnd does not store a return to the previously executing task. */
 183:source\bsw\TraceRecorder/trcStreamingRecorder.c **** int32_t isPendingContextSwitch = 0;
 184:source\bsw\TraceRecorder/trcStreamingRecorder.c **** 
 185:source\bsw\TraceRecorder/trcStreamingRecorder.c **** uint32_t uiTraceTickCount = 0;
 186:source\bsw\TraceRecorder/trcStreamingRecorder.c **** uint32_t timestampFrequency = 0;
 187:source\bsw\TraceRecorder/trcStreamingRecorder.c **** uint32_t DroppedEventCounter = 0;
 188:source\bsw\TraceRecorder/trcStreamingRecorder.c **** uint32_t TotalBytesRemaining_LowWaterMark = (TRC_CFG_PAGED_EVENT_BUFFER_PAGE_COUNT) * (TRC_CFG_PAGE
 189:source\bsw\TraceRecorder/trcStreamingRecorder.c **** uint32_t TotalBytesRemaining = (TRC_CFG_PAGED_EVENT_BUFFER_PAGE_COUNT) * (TRC_CFG_PAGED_EVENT_BUFFE
 190:source\bsw\TraceRecorder/trcStreamingRecorder.c **** 
 191:source\bsw\TraceRecorder/trcStreamingRecorder.c **** PageType PageInfo[TRC_CFG_PAGED_EVENT_BUFFER_PAGE_COUNT];
 192:source\bsw\TraceRecorder/trcStreamingRecorder.c **** 
 193:source\bsw\TraceRecorder/trcStreamingRecorder.c **** char* EventBuffer = NULL;
 194:source\bsw\TraceRecorder/trcStreamingRecorder.c **** 
 195:source\bsw\TraceRecorder/trcStreamingRecorder.c **** /*******************************************************************************
 196:source\bsw\TraceRecorder/trcStreamingRecorder.c ****  * NoRoomForSymbol
 197:source\bsw\TraceRecorder/trcStreamingRecorder.c ****  *
 198:source\bsw\TraceRecorder/trcStreamingRecorder.c ****  * Incremented on prvTraceSaveSymbol if no room for saving the symbol name. This
 199:source\bsw\TraceRecorder/trcStreamingRecorder.c ****  * is used for storing the names of:
 200:source\bsw\TraceRecorder/trcStreamingRecorder.c ****  * - Tasks
 201:source\bsw\TraceRecorder/trcStreamingRecorder.c ****  * - Named ISRs (xTraceSetISRProperties)
 202:source\bsw\TraceRecorder/trcStreamingRecorder.c ****  * - Named kernel objects (vTraceStoreKernelObjectName)
ARM GAS  C:\Users\robom\AppData\Local\Temp\ccqs2S2W.s 			page 5


 203:source\bsw\TraceRecorder/trcStreamingRecorder.c ****  * - User event channels (xTraceRegisterString)
 204:source\bsw\TraceRecorder/trcStreamingRecorder.c ****  *
 205:source\bsw\TraceRecorder/trcStreamingRecorder.c ****  * This variable should be zero. If not, it shows the number of missing slots so
 206:source\bsw\TraceRecorder/trcStreamingRecorder.c ****  * far. In that case, increment SYMBOL_TABLE_SLOTS with (at least) this value.
 207:source\bsw\TraceRecorder/trcStreamingRecorder.c ****  ******************************************************************************/
 208:source\bsw\TraceRecorder/trcStreamingRecorder.c **** volatile uint32_t NoRoomForSymbol = 0;
 209:source\bsw\TraceRecorder/trcStreamingRecorder.c **** 
 210:source\bsw\TraceRecorder/trcStreamingRecorder.c **** /*******************************************************************************
 211:source\bsw\TraceRecorder/trcStreamingRecorder.c ****  * NoRoomForObjectData
 212:source\bsw\TraceRecorder/trcStreamingRecorder.c ****  *
 213:source\bsw\TraceRecorder/trcStreamingRecorder.c ****  * Incremented on prvTraceSaveObjectData if no room for saving the object data,
 214:source\bsw\TraceRecorder/trcStreamingRecorder.c ****  * i.e., the base priorities of tasks. There must be one slot for each task.
 215:source\bsw\TraceRecorder/trcStreamingRecorder.c ****  * If not, this variable will show the difference.
 216:source\bsw\TraceRecorder/trcStreamingRecorder.c ****  *
 217:source\bsw\TraceRecorder/trcStreamingRecorder.c ****  * This variable should be zero. If not, it shows the number of missing slots so
 218:source\bsw\TraceRecorder/trcStreamingRecorder.c ****  * far. In that case, increment OBJECT_DATA_SLOTS with (at least) this value.
 219:source\bsw\TraceRecorder/trcStreamingRecorder.c ****  ******************************************************************************/
 220:source\bsw\TraceRecorder/trcStreamingRecorder.c **** volatile uint32_t NoRoomForObjectData = 0;
 221:source\bsw\TraceRecorder/trcStreamingRecorder.c **** 
 222:source\bsw\TraceRecorder/trcStreamingRecorder.c **** /*******************************************************************************
 223:source\bsw\TraceRecorder/trcStreamingRecorder.c ****  * LongestSymbolName
 224:source\bsw\TraceRecorder/trcStreamingRecorder.c ****  *
 225:source\bsw\TraceRecorder/trcStreamingRecorder.c ****  * Updated in prvTraceSaveSymbol. Should not exceed TRC_CFG_SYMBOL_MAX_LENGTH, 
 226:source\bsw\TraceRecorder/trcStreamingRecorder.c ****  * otherwise symbol names will be truncated. In that case, set 
 227:source\bsw\TraceRecorder/trcStreamingRecorder.c ****  * TRC_CFG_SYMBOL_MAX_LENGTH to (at least) this value.
 228:source\bsw\TraceRecorder/trcStreamingRecorder.c ****  ******************************************************************************/
 229:source\bsw\TraceRecorder/trcStreamingRecorder.c **** volatile uint32_t LongestSymbolName = 0;
 230:source\bsw\TraceRecorder/trcStreamingRecorder.c **** 
 231:source\bsw\TraceRecorder/trcStreamingRecorder.c **** /*******************************************************************************
 232:source\bsw\TraceRecorder/trcStreamingRecorder.c ****  * MaxBytesTruncated
 233:source\bsw\TraceRecorder/trcStreamingRecorder.c ****  *
 234:source\bsw\TraceRecorder/trcStreamingRecorder.c ****  * Set in prvTraceStoreStringEvent if the total data payload exceeds 60 bytes,
 235:source\bsw\TraceRecorder/trcStreamingRecorder.c ****  * including data arguments and the string. For user events, that is 52 bytes
 236:source\bsw\TraceRecorder/trcStreamingRecorder.c ****  * for string and data arguments. In that is exceeded, the event is  truncated
 237:source\bsw\TraceRecorder/trcStreamingRecorder.c ****  * (usually only the string, unless more than 15 parameters) and this variable
 238:source\bsw\TraceRecorder/trcStreamingRecorder.c ****  * holds the maximum number of truncated bytes, from any event.
 239:source\bsw\TraceRecorder/trcStreamingRecorder.c ****  ******************************************************************************/
 240:source\bsw\TraceRecorder/trcStreamingRecorder.c **** volatile uint32_t MaxBytesTruncated = 0;
 241:source\bsw\TraceRecorder/trcStreamingRecorder.c **** 
 242:source\bsw\TraceRecorder/trcStreamingRecorder.c **** uint16_t CurrentFilterMask = 0xFFFF;
 243:source\bsw\TraceRecorder/trcStreamingRecorder.c **** 
 244:source\bsw\TraceRecorder/trcStreamingRecorder.c **** uint16_t CurrentFilterGroup = FilterGroup0;
 245:source\bsw\TraceRecorder/trcStreamingRecorder.c **** 
 246:source\bsw\TraceRecorder/trcStreamingRecorder.c **** /* Internal common function for storing string events */
 247:source\bsw\TraceRecorder/trcStreamingRecorder.c **** static void prvTraceStoreStringEventHelper(	int nArgs,
 248:source\bsw\TraceRecorder/trcStreamingRecorder.c **** 										uint16_t eventID,
 249:source\bsw\TraceRecorder/trcStreamingRecorder.c **** 										traceString userEvtChannel,
 250:source\bsw\TraceRecorder/trcStreamingRecorder.c **** 										int len,
 251:source\bsw\TraceRecorder/trcStreamingRecorder.c **** 										const char* str,
 252:source\bsw\TraceRecorder/trcStreamingRecorder.c **** 										va_list* vl);
 253:source\bsw\TraceRecorder/trcStreamingRecorder.c **** 
 254:source\bsw\TraceRecorder/trcStreamingRecorder.c **** /* Not static to avoid warnings from SysGCC/PPC */ 
 255:source\bsw\TraceRecorder/trcStreamingRecorder.c **** void prvTraceStoreSimpleStringEventHelper(traceString userEvtChannel,
 256:source\bsw\TraceRecorder/trcStreamingRecorder.c **** 												const char* str);
 257:source\bsw\TraceRecorder/trcStreamingRecorder.c **** 
 258:source\bsw\TraceRecorder/trcStreamingRecorder.c **** 										
 259:source\bsw\TraceRecorder/trcStreamingRecorder.c **** /* Stores the header information on Start */
ARM GAS  C:\Users\robom\AppData\Local\Temp\ccqs2S2W.s 			page 6


 260:source\bsw\TraceRecorder/trcStreamingRecorder.c **** static void prvTraceStoreHeader(void);
 261:source\bsw\TraceRecorder/trcStreamingRecorder.c **** 
 262:source\bsw\TraceRecorder/trcStreamingRecorder.c **** /* Stores the symbol table on Start */
 263:source\bsw\TraceRecorder/trcStreamingRecorder.c **** static void prvTraceStoreSymbolTable(void);
 264:source\bsw\TraceRecorder/trcStreamingRecorder.c **** 
 265:source\bsw\TraceRecorder/trcStreamingRecorder.c **** /* Stores the object table on Start */
 266:source\bsw\TraceRecorder/trcStreamingRecorder.c **** static void prvTraceStoreObjectDataTable(void);
 267:source\bsw\TraceRecorder/trcStreamingRecorder.c **** 
 268:source\bsw\TraceRecorder/trcStreamingRecorder.c **** /* Store the Timestamp Config on Start */
 269:source\bsw\TraceRecorder/trcStreamingRecorder.c **** static void prvTraceStoreTSConfig(void);
 270:source\bsw\TraceRecorder/trcStreamingRecorder.c **** 
 271:source\bsw\TraceRecorder/trcStreamingRecorder.c **** /* Store the current warnings */
 272:source\bsw\TraceRecorder/trcStreamingRecorder.c **** static void prvTraceStoreWarnings(void);
 273:source\bsw\TraceRecorder/trcStreamingRecorder.c **** 
 274:source\bsw\TraceRecorder/trcStreamingRecorder.c **** /* Internal function for starting/stopping the recorder. */
 275:source\bsw\TraceRecorder/trcStreamingRecorder.c **** static void prvSetRecorderEnabled(uint32_t isEnabled);
 276:source\bsw\TraceRecorder/trcStreamingRecorder.c **** 
 277:source\bsw\TraceRecorder/trcStreamingRecorder.c **** /* Mark the page read as complete. */
 278:source\bsw\TraceRecorder/trcStreamingRecorder.c **** static void prvPageReadComplete(int pageIndex);
 279:source\bsw\TraceRecorder/trcStreamingRecorder.c **** 
 280:source\bsw\TraceRecorder/trcStreamingRecorder.c **** /* Retrieve a buffer page to write to. */
 281:source\bsw\TraceRecorder/trcStreamingRecorder.c **** static int prvAllocateBufferPage(int prevPage);
 282:source\bsw\TraceRecorder/trcStreamingRecorder.c **** 
 283:source\bsw\TraceRecorder/trcStreamingRecorder.c **** /* Get the current buffer page index (return value) and the number 
 284:source\bsw\TraceRecorder/trcStreamingRecorder.c **** of valid bytes in the buffer page (bytesUsed). */
 285:source\bsw\TraceRecorder/trcStreamingRecorder.c **** static int prvGetBufferPage(int32_t* bytesUsed);
 286:source\bsw\TraceRecorder/trcStreamingRecorder.c **** 
 287:source\bsw\TraceRecorder/trcStreamingRecorder.c **** /* Performs timestamping using definitions in trcHardwarePort.h */
 288:source\bsw\TraceRecorder/trcStreamingRecorder.c **** static uint32_t prvGetTimestamp32(void);
 289:source\bsw\TraceRecorder/trcStreamingRecorder.c **** 
 290:source\bsw\TraceRecorder/trcStreamingRecorder.c **** /* Signal an error. */
 291:source\bsw\TraceRecorder/trcStreamingRecorder.c **** void prvTraceError(int errCode);
 292:source\bsw\TraceRecorder/trcStreamingRecorder.c **** 
 293:source\bsw\TraceRecorder/trcStreamingRecorder.c **** /* Signal an warning (does not stop the recorder). */
 294:source\bsw\TraceRecorder/trcStreamingRecorder.c **** void prvTraceWarning(int errCode);
 295:source\bsw\TraceRecorder/trcStreamingRecorder.c **** 
 296:source\bsw\TraceRecorder/trcStreamingRecorder.c **** /******************************************************************************
 297:source\bsw\TraceRecorder/trcStreamingRecorder.c ****  * vTraceInstanceFinishedNow
 298:source\bsw\TraceRecorder/trcStreamingRecorder.c ****  *
 299:source\bsw\TraceRecorder/trcStreamingRecorder.c ****  * Creates an event that ends the current task instance at this very instant.
 300:source\bsw\TraceRecorder/trcStreamingRecorder.c ****  * This makes the viewer to splits the current fragment at this point and begin
 301:source\bsw\TraceRecorder/trcStreamingRecorder.c ****  * a new actor instance, even if no task-switch has occurred.
 302:source\bsw\TraceRecorder/trcStreamingRecorder.c ****  *****************************************************************************/
 303:source\bsw\TraceRecorder/trcStreamingRecorder.c **** void vTraceInstanceFinishedNow(void)
 304:source\bsw\TraceRecorder/trcStreamingRecorder.c **** {
 305:source\bsw\TraceRecorder/trcStreamingRecorder.c **** 	prvTraceStoreEvent0(PSF_EVENT_IFE_DIRECT);
 306:source\bsw\TraceRecorder/trcStreamingRecorder.c **** }
 307:source\bsw\TraceRecorder/trcStreamingRecorder.c **** 
 308:source\bsw\TraceRecorder/trcStreamingRecorder.c **** /******************************************************************************
 309:source\bsw\TraceRecorder/trcStreamingRecorder.c ****  * vTraceInstanceFinishedNext
 310:source\bsw\TraceRecorder/trcStreamingRecorder.c ****  *
 311:source\bsw\TraceRecorder/trcStreamingRecorder.c ****  * Marks the current "task instance" as finished on the next kernel call.
 312:source\bsw\TraceRecorder/trcStreamingRecorder.c ****  *
 313:source\bsw\TraceRecorder/trcStreamingRecorder.c ****  * If that kernel call is blocking, the instance ends after the blocking event
 314:source\bsw\TraceRecorder/trcStreamingRecorder.c ****  * and the corresponding return event is then the start of the next instance.
 315:source\bsw\TraceRecorder/trcStreamingRecorder.c ****  * If the kernel call is not blocking, the viewer instead splits the current
 316:source\bsw\TraceRecorder/trcStreamingRecorder.c ****  * fragment right before the kernel call, which makes this call the first event
ARM GAS  C:\Users\robom\AppData\Local\Temp\ccqs2S2W.s 			page 7


 317:source\bsw\TraceRecorder/trcStreamingRecorder.c ****  * of the next instance.
 318:source\bsw\TraceRecorder/trcStreamingRecorder.c ****  *****************************************************************************/
 319:source\bsw\TraceRecorder/trcStreamingRecorder.c **** void vTraceInstanceFinishedNext(void)
 320:source\bsw\TraceRecorder/trcStreamingRecorder.c **** {
 321:source\bsw\TraceRecorder/trcStreamingRecorder.c **** 	prvTraceStoreEvent0(PSF_EVENT_IFE_NEXT);
 322:source\bsw\TraceRecorder/trcStreamingRecorder.c **** }
 323:source\bsw\TraceRecorder/trcStreamingRecorder.c **** 
 324:source\bsw\TraceRecorder/trcStreamingRecorder.c **** /*******************************************************************************
 325:source\bsw\TraceRecorder/trcStreamingRecorder.c ****  * vTraceStoreKernelObjectName
 326:source\bsw\TraceRecorder/trcStreamingRecorder.c ****  *
 327:source\bsw\TraceRecorder/trcStreamingRecorder.c ****  * Parameter object: pointer to the Event Group that shall be named
 328:source\bsw\TraceRecorder/trcStreamingRecorder.c ****  * Parameter name: the name to set (const string literal)
 329:source\bsw\TraceRecorder/trcStreamingRecorder.c ****  *
 330:source\bsw\TraceRecorder/trcStreamingRecorder.c ****  * Sets a name for a kernel object for display in Tracealyzer.
 331:source\bsw\TraceRecorder/trcStreamingRecorder.c ****  ******************************************************************************/
 332:source\bsw\TraceRecorder/trcStreamingRecorder.c **** void vTraceStoreKernelObjectName(void* object, const char* name)
 333:source\bsw\TraceRecorder/trcStreamingRecorder.c **** {
 334:source\bsw\TraceRecorder/trcStreamingRecorder.c **** 	/* Always save in symbol table, if the recording has not yet started */
 335:source\bsw\TraceRecorder/trcStreamingRecorder.c **** 	prvTraceSaveSymbol(object, name);
 336:source\bsw\TraceRecorder/trcStreamingRecorder.c **** 
 337:source\bsw\TraceRecorder/trcStreamingRecorder.c **** 	prvTraceStoreStringEvent(1, PSF_EVENT_OBJ_NAME, name, (uint32_t)object);
 338:source\bsw\TraceRecorder/trcStreamingRecorder.c **** }
 339:source\bsw\TraceRecorder/trcStreamingRecorder.c **** 
 340:source\bsw\TraceRecorder/trcStreamingRecorder.c **** 
 341:source\bsw\TraceRecorder/trcStreamingRecorder.c **** /******************************************************************************
 342:source\bsw\TraceRecorder/trcStreamingRecorder.c **** * vTraceSetFrequency
 343:source\bsw\TraceRecorder/trcStreamingRecorder.c **** *
 344:source\bsw\TraceRecorder/trcStreamingRecorder.c **** * Registers the clock rate of the time source for the event timestamping.
 345:source\bsw\TraceRecorder/trcStreamingRecorder.c **** * This is normally not required, but if the default value (TRC_HWTC_FREQ_HZ)
 346:source\bsw\TraceRecorder/trcStreamingRecorder.c **** * should be incorrect for your setup, you can override it using this function.
 347:source\bsw\TraceRecorder/trcStreamingRecorder.c **** *
 348:source\bsw\TraceRecorder/trcStreamingRecorder.c **** * Must be called prior to vTraceEnable, and the time source is assumed to
 349:source\bsw\TraceRecorder/trcStreamingRecorder.c **** * have a fixed clock frequency after the startup.
 350:source\bsw\TraceRecorder/trcStreamingRecorder.c **** *****************************************************************************/
 351:source\bsw\TraceRecorder/trcStreamingRecorder.c **** void vTraceSetFrequency(uint32_t frequency)
 352:source\bsw\TraceRecorder/trcStreamingRecorder.c **** {
 353:source\bsw\TraceRecorder/trcStreamingRecorder.c **** 	timestampFrequency = frequency;
 354:source\bsw\TraceRecorder/trcStreamingRecorder.c **** }
 355:source\bsw\TraceRecorder/trcStreamingRecorder.c **** 
 356:source\bsw\TraceRecorder/trcStreamingRecorder.c **** #if (TRC_CFG_SCHEDULING_ONLY == 0) && (TRC_CFG_INCLUDE_USER_EVENTS == 1)
 357:source\bsw\TraceRecorder/trcStreamingRecorder.c **** 
 358:source\bsw\TraceRecorder/trcStreamingRecorder.c **** /*******************************************************************************
 359:source\bsw\TraceRecorder/trcStreamingRecorder.c **** * xTraceRegisterString
 360:source\bsw\TraceRecorder/trcStreamingRecorder.c **** *
 361:source\bsw\TraceRecorder/trcStreamingRecorder.c **** * Stores a name for a user event channel, returns the handle.
 362:source\bsw\TraceRecorder/trcStreamingRecorder.c **** ******************************************************************************/
 363:source\bsw\TraceRecorder/trcStreamingRecorder.c **** traceString xTraceRegisterString(const char* name)
 364:source\bsw\TraceRecorder/trcStreamingRecorder.c **** {
 365:source\bsw\TraceRecorder/trcStreamingRecorder.c **** 	prvTraceSaveSymbol((const void*)name, name);
 366:source\bsw\TraceRecorder/trcStreamingRecorder.c **** 
 367:source\bsw\TraceRecorder/trcStreamingRecorder.c **** 	/* Always save in symbol table, if the recording has not yet started */
 368:source\bsw\TraceRecorder/trcStreamingRecorder.c **** 	prvTraceStoreStringEvent(1, PSF_EVENT_OBJ_NAME, (const char*)name, (uint32_t)name);
 369:source\bsw\TraceRecorder/trcStreamingRecorder.c **** 
 370:source\bsw\TraceRecorder/trcStreamingRecorder.c **** 	return (traceString)name;
 371:source\bsw\TraceRecorder/trcStreamingRecorder.c **** }
 372:source\bsw\TraceRecorder/trcStreamingRecorder.c **** 
 373:source\bsw\TraceRecorder/trcStreamingRecorder.c **** /******************************************************************************
ARM GAS  C:\Users\robom\AppData\Local\Temp\ccqs2S2W.s 			page 8


 374:source\bsw\TraceRecorder/trcStreamingRecorder.c ****  * vTracePrint
 375:source\bsw\TraceRecorder/trcStreamingRecorder.c ****  *
 376:source\bsw\TraceRecorder/trcStreamingRecorder.c ****  * Generates "User Events", with unformatted text.
 377:source\bsw\TraceRecorder/trcStreamingRecorder.c ****  *
 378:source\bsw\TraceRecorder/trcStreamingRecorder.c ****  * User Events can be used for very efficient application logging, and are shown
 379:source\bsw\TraceRecorder/trcStreamingRecorder.c ****  * as yellow labels in the main trace view.
 380:source\bsw\TraceRecorder/trcStreamingRecorder.c ****  *
 381:source\bsw\TraceRecorder/trcStreamingRecorder.c ****  * You may group User Events into User Event Channels. The yellow User Event 
 382:source\bsw\TraceRecorder/trcStreamingRecorder.c ****  * labels shows the logged string, preceded by the channel  name within 
 383:source\bsw\TraceRecorder/trcStreamingRecorder.c ****  * brackets. For example:
 384:source\bsw\TraceRecorder/trcStreamingRecorder.c ****  *
 385:source\bsw\TraceRecorder/trcStreamingRecorder.c ****  *  "[MyChannel] Hello World!"
 386:source\bsw\TraceRecorder/trcStreamingRecorder.c ****  *
 387:source\bsw\TraceRecorder/trcStreamingRecorder.c ****  * The User Event Channels are shown in the View Filter, which makes it easy to
 388:source\bsw\TraceRecorder/trcStreamingRecorder.c ****  * select what User Events you wish to display. User Event Channels are created
 389:source\bsw\TraceRecorder/trcStreamingRecorder.c ****  * using xTraceRegisterString().
 390:source\bsw\TraceRecorder/trcStreamingRecorder.c ****  *
 391:source\bsw\TraceRecorder/trcStreamingRecorder.c ****  * Example:
 392:source\bsw\TraceRecorder/trcStreamingRecorder.c ****  *
 393:source\bsw\TraceRecorder/trcStreamingRecorder.c ****  *	 traceString chn = xTraceRegisterString("MyChannel");
 394:source\bsw\TraceRecorder/trcStreamingRecorder.c ****  *	 ...
 395:source\bsw\TraceRecorder/trcStreamingRecorder.c ****  *	 vTracePrint(chn, "Hello World!");
 396:source\bsw\TraceRecorder/trcStreamingRecorder.c ****  *
 397:source\bsw\TraceRecorder/trcStreamingRecorder.c ****  ******************************************************************************/
 398:source\bsw\TraceRecorder/trcStreamingRecorder.c **** void vTracePrint(traceString chn, const char* str)
 399:source\bsw\TraceRecorder/trcStreamingRecorder.c **** {
 400:source\bsw\TraceRecorder/trcStreamingRecorder.c **** 	prvTraceStoreSimpleStringEventHelper(chn, str);
 401:source\bsw\TraceRecorder/trcStreamingRecorder.c **** }
 402:source\bsw\TraceRecorder/trcStreamingRecorder.c **** 
 403:source\bsw\TraceRecorder/trcStreamingRecorder.c **** /******************************************************************************
 404:source\bsw\TraceRecorder/trcStreamingRecorder.c ****  * vTracePrintF
 405:source\bsw\TraceRecorder/trcStreamingRecorder.c ****  *
 406:source\bsw\TraceRecorder/trcStreamingRecorder.c ****  * Generates "User Events", with formatted text and data, similar to a "printf".
 407:source\bsw\TraceRecorder/trcStreamingRecorder.c ****  * It is very fast since the actual formatting is done on the host side when the
 408:source\bsw\TraceRecorder/trcStreamingRecorder.c ****  * trace is displayed.
 409:source\bsw\TraceRecorder/trcStreamingRecorder.c ****  *
 410:source\bsw\TraceRecorder/trcStreamingRecorder.c ****  * User Events can be used for very efficient application logging, and are shown
 411:source\bsw\TraceRecorder/trcStreamingRecorder.c ****  * as yellow labels in the main trace view.
 412:source\bsw\TraceRecorder/trcStreamingRecorder.c ****  * An advantage of User Events is that data can be plotted in the "User Event
 413:source\bsw\TraceRecorder/trcStreamingRecorder.c ****  * Signal Plot" view, visualizing any data you log as User Events, discrete
 414:source\bsw\TraceRecorder/trcStreamingRecorder.c ****  * states or control system signals (e.g. system inputs or outputs).
 415:source\bsw\TraceRecorder/trcStreamingRecorder.c ****  *
 416:source\bsw\TraceRecorder/trcStreamingRecorder.c ****  * You may group User Events into User Event Channels. The yellow User Event 
 417:source\bsw\TraceRecorder/trcStreamingRecorder.c ****  * labels show the logged string, preceded by the channel name within brackets.
 418:source\bsw\TraceRecorder/trcStreamingRecorder.c ****  * 
 419:source\bsw\TraceRecorder/trcStreamingRecorder.c ****  * Example:
 420:source\bsw\TraceRecorder/trcStreamingRecorder.c ****  *
 421:source\bsw\TraceRecorder/trcStreamingRecorder.c ****  *  "[MyChannel] Hello World!"
 422:source\bsw\TraceRecorder/trcStreamingRecorder.c ****  *
 423:source\bsw\TraceRecorder/trcStreamingRecorder.c ****  * The User Event Channels are shown in the View Filter, which makes it easy to
 424:source\bsw\TraceRecorder/trcStreamingRecorder.c ****  * select what User Events you wish to display. User Event Channels are created
 425:source\bsw\TraceRecorder/trcStreamingRecorder.c ****  * using xTraceRegisterString().
 426:source\bsw\TraceRecorder/trcStreamingRecorder.c ****  *
 427:source\bsw\TraceRecorder/trcStreamingRecorder.c ****  * Example:
 428:source\bsw\TraceRecorder/trcStreamingRecorder.c ****  *
 429:source\bsw\TraceRecorder/trcStreamingRecorder.c ****  *	 traceString adc_uechannel = xTraceRegisterString("ADC User Events");
 430:source\bsw\TraceRecorder/trcStreamingRecorder.c ****  *	 ...
ARM GAS  C:\Users\robom\AppData\Local\Temp\ccqs2S2W.s 			page 9


 431:source\bsw\TraceRecorder/trcStreamingRecorder.c ****  *	 vTracePrintF(adc_uechannel,
 432:source\bsw\TraceRecorder/trcStreamingRecorder.c ****  *				 "ADC channel %d: %d volts",
 433:source\bsw\TraceRecorder/trcStreamingRecorder.c ****  *				 ch, adc_reading);
 434:source\bsw\TraceRecorder/trcStreamingRecorder.c ****  *
 435:source\bsw\TraceRecorder/trcStreamingRecorder.c ****  * All data arguments are assumed to be 32 bit wide. The following formats are
 436:source\bsw\TraceRecorder/trcStreamingRecorder.c ****  * supported:
 437:source\bsw\TraceRecorder/trcStreamingRecorder.c ****  * %d - signed integer. The following width and padding format is supported: "%05d" -> "-0042" and 
 438:source\bsw\TraceRecorder/trcStreamingRecorder.c ****  * %u - unsigned integer. The following width and padding format is supported: "%05u" -> "00042" an
 439:source\bsw\TraceRecorder/trcStreamingRecorder.c ****  * %X - hexadecimal (uppercase). The following width and padding format is supported: "%04X" -> "00
 440:source\bsw\TraceRecorder/trcStreamingRecorder.c ****  * %x - hexadecimal (lowercase). The following width and padding format is supported: "%04x" -> "00
 441:source\bsw\TraceRecorder/trcStreamingRecorder.c ****  * %s - string (currently, this must be an earlier stored symbol name)
 442:source\bsw\TraceRecorder/trcStreamingRecorder.c ****  *
 443:source\bsw\TraceRecorder/trcStreamingRecorder.c ****  * Up to 15 data arguments are allowed, with a total size of maximum 60 byte
 444:source\bsw\TraceRecorder/trcStreamingRecorder.c ****  * including 8 byte for the base event fields and the format string. So with
 445:source\bsw\TraceRecorder/trcStreamingRecorder.c ****  * one data argument, the maximum string length is 48 chars. If this is exceeded
 446:source\bsw\TraceRecorder/trcStreamingRecorder.c ****  * the string is truncated (4 bytes at a time).
 447:source\bsw\TraceRecorder/trcStreamingRecorder.c ****  *
 448:source\bsw\TraceRecorder/trcStreamingRecorder.c ****  ******************************************************************************/
 449:source\bsw\TraceRecorder/trcStreamingRecorder.c **** void vTracePrintF(traceString chn, const char* fmt, ...)
 450:source\bsw\TraceRecorder/trcStreamingRecorder.c **** {
 451:source\bsw\TraceRecorder/trcStreamingRecorder.c **** 	va_list vl;
 452:source\bsw\TraceRecorder/trcStreamingRecorder.c **** 	int i = 0;
 453:source\bsw\TraceRecorder/trcStreamingRecorder.c **** 
 454:source\bsw\TraceRecorder/trcStreamingRecorder.c **** 	int nArgs = 0;
 455:source\bsw\TraceRecorder/trcStreamingRecorder.c **** 
 456:source\bsw\TraceRecorder/trcStreamingRecorder.c **** 	/* Count the number of arguments in the format string (e.g., %d) */
 457:source\bsw\TraceRecorder/trcStreamingRecorder.c **** 	for (i = 0; (fmt[i] != 0) && (i < 52); i++)
 458:source\bsw\TraceRecorder/trcStreamingRecorder.c **** 	{
 459:source\bsw\TraceRecorder/trcStreamingRecorder.c **** 		if (fmt[i] == '%')
 460:source\bsw\TraceRecorder/trcStreamingRecorder.c **** 		{
 461:source\bsw\TraceRecorder/trcStreamingRecorder.c **** 			if (fmt[i + 1] != 0 && fmt[i + 1] != '%')
 462:source\bsw\TraceRecorder/trcStreamingRecorder.c **** 			{
 463:source\bsw\TraceRecorder/trcStreamingRecorder.c **** 				nArgs++;        /* Found an argument */
 464:source\bsw\TraceRecorder/trcStreamingRecorder.c **** 			}
 465:source\bsw\TraceRecorder/trcStreamingRecorder.c **** 			
 466:source\bsw\TraceRecorder/trcStreamingRecorder.c **** 			i++;      /* Move past format specifier or non-argument '%' */
 467:source\bsw\TraceRecorder/trcStreamingRecorder.c **** 		}
 468:source\bsw\TraceRecorder/trcStreamingRecorder.c **** 	}
 469:source\bsw\TraceRecorder/trcStreamingRecorder.c **** 
 470:source\bsw\TraceRecorder/trcStreamingRecorder.c **** 	va_start(vl, fmt);
 471:source\bsw\TraceRecorder/trcStreamingRecorder.c **** 	
 472:source\bsw\TraceRecorder/trcStreamingRecorder.c **** 	if (chn != NULL)
 473:source\bsw\TraceRecorder/trcStreamingRecorder.c **** 	{
 474:source\bsw\TraceRecorder/trcStreamingRecorder.c **** 		prvTraceStoreStringEventHelper(nArgs, (uint16_t)(PSF_EVENT_USER_EVENT + nArgs + 1), chn, i, fmt, 
 475:source\bsw\TraceRecorder/trcStreamingRecorder.c **** 	}
 476:source\bsw\TraceRecorder/trcStreamingRecorder.c **** 	else
 477:source\bsw\TraceRecorder/trcStreamingRecorder.c **** 	{
 478:source\bsw\TraceRecorder/trcStreamingRecorder.c **** 		prvTraceStoreStringEventHelper(nArgs, (uint16_t)(PSF_EVENT_USER_EVENT + nArgs), chn, i, fmt, &vl)
 479:source\bsw\TraceRecorder/trcStreamingRecorder.c **** 	}
 480:source\bsw\TraceRecorder/trcStreamingRecorder.c **** 	va_end(vl);
 481:source\bsw\TraceRecorder/trcStreamingRecorder.c **** }
 482:source\bsw\TraceRecorder/trcStreamingRecorder.c **** #endif /* (TRC_CFG_SCHEDULING_ONLY == 0) && (TRC_CFG_INCLUDE_USER_EVENTS == 1) */
 483:source\bsw\TraceRecorder/trcStreamingRecorder.c **** 
 484:source\bsw\TraceRecorder/trcStreamingRecorder.c **** /*******************************************************************************
 485:source\bsw\TraceRecorder/trcStreamingRecorder.c ****  * xTraceSetISRProperties
 486:source\bsw\TraceRecorder/trcStreamingRecorder.c ****  *
 487:source\bsw\TraceRecorder/trcStreamingRecorder.c ****  * Stores a name and priority level for an Interrupt Service Routine, to allow
ARM GAS  C:\Users\robom\AppData\Local\Temp\ccqs2S2W.s 			page 10


 488:source\bsw\TraceRecorder/trcStreamingRecorder.c ****  * for better visualization. Returns a traceHandle used by vTraceStoreISRBegin. 
 489:source\bsw\TraceRecorder/trcStreamingRecorder.c ****  *
 490:source\bsw\TraceRecorder/trcStreamingRecorder.c ****  * Example:
 491:source\bsw\TraceRecorder/trcStreamingRecorder.c ****  *	 #define PRIO_ISR_TIMER1 3 // the hardware priority of the interrupt
 492:source\bsw\TraceRecorder/trcStreamingRecorder.c ****  *	 ...
 493:source\bsw\TraceRecorder/trcStreamingRecorder.c ****  *	 traceHandle Timer1Handle = xTraceSetISRProperties("ISRTimer1", PRIO_ISR_TIMER1);
 494:source\bsw\TraceRecorder/trcStreamingRecorder.c ****  *	 ...
 495:source\bsw\TraceRecorder/trcStreamingRecorder.c ****  *	 void ISR_handler()
 496:source\bsw\TraceRecorder/trcStreamingRecorder.c ****  *	 {
 497:source\bsw\TraceRecorder/trcStreamingRecorder.c ****  *		 vTraceStoreISRBegin(Timer1Handle);
 498:source\bsw\TraceRecorder/trcStreamingRecorder.c ****  *		 ...
 499:source\bsw\TraceRecorder/trcStreamingRecorder.c ****  *		 vTraceStoreISREnd(0);
 500:source\bsw\TraceRecorder/trcStreamingRecorder.c ****  *	 }
 501:source\bsw\TraceRecorder/trcStreamingRecorder.c ****  *
 502:source\bsw\TraceRecorder/trcStreamingRecorder.c ****  ******************************************************************************/
 503:source\bsw\TraceRecorder/trcStreamingRecorder.c **** traceHandle xTraceSetISRProperties(const char* name, uint8_t priority)
 504:source\bsw\TraceRecorder/trcStreamingRecorder.c **** {
 505:source\bsw\TraceRecorder/trcStreamingRecorder.c **** 	/* Save object data in object data table */
 506:source\bsw\TraceRecorder/trcStreamingRecorder.c **** 	prvTraceSaveObjectData((const void*)name, priority);
 507:source\bsw\TraceRecorder/trcStreamingRecorder.c ****         
 508:source\bsw\TraceRecorder/trcStreamingRecorder.c **** 	/* Note: "name" is used both as a string argument, and the address as ID */
 509:source\bsw\TraceRecorder/trcStreamingRecorder.c **** 	prvTraceStoreStringEvent(2, PSF_EVENT_DEFINE_ISR, name, name, priority);
 510:source\bsw\TraceRecorder/trcStreamingRecorder.c ****         
 511:source\bsw\TraceRecorder/trcStreamingRecorder.c **** 	/* Always save in symbol table, if the recording has not yet started */
 512:source\bsw\TraceRecorder/trcStreamingRecorder.c **** 	prvTraceSaveSymbol((const void*)name, name);
 513:source\bsw\TraceRecorder/trcStreamingRecorder.c **** 	
 514:source\bsw\TraceRecorder/trcStreamingRecorder.c **** 	return (traceHandle)name;
 515:source\bsw\TraceRecorder/trcStreamingRecorder.c **** }
 516:source\bsw\TraceRecorder/trcStreamingRecorder.c **** 
 517:source\bsw\TraceRecorder/trcStreamingRecorder.c **** /*******************************************************************************
 518:source\bsw\TraceRecorder/trcStreamingRecorder.c ****  * vTraceStoreISRBegin
 519:source\bsw\TraceRecorder/trcStreamingRecorder.c ****  *
 520:source\bsw\TraceRecorder/trcStreamingRecorder.c ****  * Registers the beginning of an Interrupt Service Routine, using a traceHandle
 521:source\bsw\TraceRecorder/trcStreamingRecorder.c ****  * provided by xTraceSetISRProperties.
 522:source\bsw\TraceRecorder/trcStreamingRecorder.c ****  *
 523:source\bsw\TraceRecorder/trcStreamingRecorder.c ****  * Example:
 524:source\bsw\TraceRecorder/trcStreamingRecorder.c ****  *	 #define PRIO_ISR_TIMER1 3 // the hardware priority of the interrupt
 525:source\bsw\TraceRecorder/trcStreamingRecorder.c ****  *	 ...
 526:source\bsw\TraceRecorder/trcStreamingRecorder.c ****  *	 traceHandle Timer1Handle = xTraceSetISRProperties("ISRTimer1", PRIO_ISR_TIMER1);
 527:source\bsw\TraceRecorder/trcStreamingRecorder.c ****  *	 ...
 528:source\bsw\TraceRecorder/trcStreamingRecorder.c ****  *	 void ISR_handler()
 529:source\bsw\TraceRecorder/trcStreamingRecorder.c ****  *	 {
 530:source\bsw\TraceRecorder/trcStreamingRecorder.c ****  *		 vTraceStoreISRBegin(Timer1Handle);
 531:source\bsw\TraceRecorder/trcStreamingRecorder.c ****  *		 ...
 532:source\bsw\TraceRecorder/trcStreamingRecorder.c ****  *		 vTraceStoreISREnd(0);
 533:source\bsw\TraceRecorder/trcStreamingRecorder.c ****  *	 }
 534:source\bsw\TraceRecorder/trcStreamingRecorder.c ****  *
 535:source\bsw\TraceRecorder/trcStreamingRecorder.c ****  ******************************************************************************/
 536:source\bsw\TraceRecorder/trcStreamingRecorder.c **** void vTraceStoreISRBegin(traceHandle handle)
 537:source\bsw\TraceRecorder/trcStreamingRecorder.c **** {
 538:source\bsw\TraceRecorder/trcStreamingRecorder.c **** 	TRACE_ALLOC_CRITICAL_SECTION();
 539:source\bsw\TraceRecorder/trcStreamingRecorder.c **** 
 540:source\bsw\TraceRecorder/trcStreamingRecorder.c **** 	TRACE_ENTER_CRITICAL_SECTION();
 541:source\bsw\TraceRecorder/trcStreamingRecorder.c **** 
 542:source\bsw\TraceRecorder/trcStreamingRecorder.c **** 	/* We are at the start of a possible ISR chain. 
 543:source\bsw\TraceRecorder/trcStreamingRecorder.c **** 	No context switches should have been triggered now. */
 544:source\bsw\TraceRecorder/trcStreamingRecorder.c **** 	if (ISR_stack_index == -1)
ARM GAS  C:\Users\robom\AppData\Local\Temp\ccqs2S2W.s 			page 11


 545:source\bsw\TraceRecorder/trcStreamingRecorder.c **** 		isPendingContextSwitch = 0; 
 546:source\bsw\TraceRecorder/trcStreamingRecorder.c **** 	
 547:source\bsw\TraceRecorder/trcStreamingRecorder.c **** 	if (ISR_stack_index < (TRC_CFG_MAX_ISR_NESTING) - 1)
 548:source\bsw\TraceRecorder/trcStreamingRecorder.c **** 	{
 549:source\bsw\TraceRecorder/trcStreamingRecorder.c **** 		ISR_stack_index++;
 550:source\bsw\TraceRecorder/trcStreamingRecorder.c **** 		ISR_stack[ISR_stack_index] = (uint32_t)handle;
 551:source\bsw\TraceRecorder/trcStreamingRecorder.c **** #if (TRC_CFG_INCLUDE_ISR_TRACING == 1)
 552:source\bsw\TraceRecorder/trcStreamingRecorder.c **** 		prvTraceStoreEvent1(PSF_EVENT_ISR_BEGIN, (uint32_t)handle);
 553:source\bsw\TraceRecorder/trcStreamingRecorder.c **** #endif
 554:source\bsw\TraceRecorder/trcStreamingRecorder.c **** 		TRACE_EXIT_CRITICAL_SECTION();
 555:source\bsw\TraceRecorder/trcStreamingRecorder.c **** 	}
 556:source\bsw\TraceRecorder/trcStreamingRecorder.c **** 	else
 557:source\bsw\TraceRecorder/trcStreamingRecorder.c **** 	{
 558:source\bsw\TraceRecorder/trcStreamingRecorder.c **** 		TRACE_EXIT_CRITICAL_SECTION();
 559:source\bsw\TraceRecorder/trcStreamingRecorder.c **** 		prvTraceError(PSF_ERROR_ISR_NESTING_OVERFLOW);
 560:source\bsw\TraceRecorder/trcStreamingRecorder.c **** 	}
 561:source\bsw\TraceRecorder/trcStreamingRecorder.c **** }
 562:source\bsw\TraceRecorder/trcStreamingRecorder.c **** 
 563:source\bsw\TraceRecorder/trcStreamingRecorder.c **** /*******************************************************************************
 564:source\bsw\TraceRecorder/trcStreamingRecorder.c ****  * vTraceStoreISREnd
 565:source\bsw\TraceRecorder/trcStreamingRecorder.c ****  *
 566:source\bsw\TraceRecorder/trcStreamingRecorder.c ****  * Registers the end of an Interrupt Service Routine.
 567:source\bsw\TraceRecorder/trcStreamingRecorder.c ****  *
 568:source\bsw\TraceRecorder/trcStreamingRecorder.c ****  * The parameter pendingISR indicates if the interrupt has requested a
 569:source\bsw\TraceRecorder/trcStreamingRecorder.c ****  * task-switch (= 1), e.g., by signaling a semaphore. Otherwise (= 0) the 
 570:source\bsw\TraceRecorder/trcStreamingRecorder.c ****  * interrupt is assumed to return to the previous context.
 571:source\bsw\TraceRecorder/trcStreamingRecorder.c ****  *
 572:source\bsw\TraceRecorder/trcStreamingRecorder.c ****  * Example:
 573:source\bsw\TraceRecorder/trcStreamingRecorder.c ****  *	 #define PRIO_OF_ISR_TIMER1 3 // the hardware priority of the interrupt
 574:source\bsw\TraceRecorder/trcStreamingRecorder.c ****  *	 traceHandle traceHandleIsrTimer1 = 0; // The ID set by the recorder
 575:source\bsw\TraceRecorder/trcStreamingRecorder.c ****  *	 ...
 576:source\bsw\TraceRecorder/trcStreamingRecorder.c ****  *	 traceHandleIsrTimer1 = xTraceSetISRProperties("ISRTimer1", PRIO_OF_ISR_TIMER1);
 577:source\bsw\TraceRecorder/trcStreamingRecorder.c ****  *	 ...
 578:source\bsw\TraceRecorder/trcStreamingRecorder.c ****  *	 void ISR_handler()
 579:source\bsw\TraceRecorder/trcStreamingRecorder.c ****  *	 {
 580:source\bsw\TraceRecorder/trcStreamingRecorder.c ****  *		 vTraceStoreISRBegin(traceHandleIsrTimer1);
 581:source\bsw\TraceRecorder/trcStreamingRecorder.c ****  *		 ...
 582:source\bsw\TraceRecorder/trcStreamingRecorder.c ****  *		 vTraceStoreISREnd(0);
 583:source\bsw\TraceRecorder/trcStreamingRecorder.c ****  *	 }
 584:source\bsw\TraceRecorder/trcStreamingRecorder.c ****  *
 585:source\bsw\TraceRecorder/trcStreamingRecorder.c ****  ******************************************************************************/
 586:source\bsw\TraceRecorder/trcStreamingRecorder.c **** void vTraceStoreISREnd(int isTaskSwitchRequired)
 587:source\bsw\TraceRecorder/trcStreamingRecorder.c **** {
 588:source\bsw\TraceRecorder/trcStreamingRecorder.c **** 	TRACE_ALLOC_CRITICAL_SECTION();
 589:source\bsw\TraceRecorder/trcStreamingRecorder.c **** 
 590:source\bsw\TraceRecorder/trcStreamingRecorder.c **** 	TRACE_ENTER_CRITICAL_SECTION();
 591:source\bsw\TraceRecorder/trcStreamingRecorder.c **** 	
 592:source\bsw\TraceRecorder/trcStreamingRecorder.c **** 	(void)ISR_stack;
 593:source\bsw\TraceRecorder/trcStreamingRecorder.c **** 
 594:source\bsw\TraceRecorder/trcStreamingRecorder.c **** 	/* Is there a pending task-switch? (perhaps from an earlier ISR) */
 595:source\bsw\TraceRecorder/trcStreamingRecorder.c **** 	isPendingContextSwitch |= isTaskSwitchRequired;
 596:source\bsw\TraceRecorder/trcStreamingRecorder.c **** 
 597:source\bsw\TraceRecorder/trcStreamingRecorder.c **** 	if (ISR_stack_index > 0)
 598:source\bsw\TraceRecorder/trcStreamingRecorder.c **** 	{
 599:source\bsw\TraceRecorder/trcStreamingRecorder.c **** 		ISR_stack_index--;
 600:source\bsw\TraceRecorder/trcStreamingRecorder.c **** 
 601:source\bsw\TraceRecorder/trcStreamingRecorder.c **** #if (TRC_CFG_INCLUDE_ISR_TRACING == 1)
ARM GAS  C:\Users\robom\AppData\Local\Temp\ccqs2S2W.s 			page 12


 602:source\bsw\TraceRecorder/trcStreamingRecorder.c **** 		/* Store return to interrupted ISR (if nested ISRs)*/
 603:source\bsw\TraceRecorder/trcStreamingRecorder.c **** 		prvTraceStoreEvent1(PSF_EVENT_ISR_RESUME, (uint32_t)ISR_stack[ISR_stack_index]);
 604:source\bsw\TraceRecorder/trcStreamingRecorder.c **** #endif
 605:source\bsw\TraceRecorder/trcStreamingRecorder.c **** 	}
 606:source\bsw\TraceRecorder/trcStreamingRecorder.c **** 	else
 607:source\bsw\TraceRecorder/trcStreamingRecorder.c **** 	{
 608:source\bsw\TraceRecorder/trcStreamingRecorder.c **** 		ISR_stack_index--;
 609:source\bsw\TraceRecorder/trcStreamingRecorder.c **** 		
 610:source\bsw\TraceRecorder/trcStreamingRecorder.c **** 		/* Store return to interrupted task, if no context switch will occur in between. */
 611:source\bsw\TraceRecorder/trcStreamingRecorder.c **** 		if ((isPendingContextSwitch == 0) || (prvTraceIsSchedulerSuspended()))
 612:source\bsw\TraceRecorder/trcStreamingRecorder.c **** 		{
 613:source\bsw\TraceRecorder/trcStreamingRecorder.c **** #if (TRC_CFG_INCLUDE_ISR_TRACING == 1)
 614:source\bsw\TraceRecorder/trcStreamingRecorder.c **** 			prvTraceStoreEvent1(PSF_EVENT_TS_RESUME, (uint32_t)TRACE_GET_CURRENT_TASK());
 615:source\bsw\TraceRecorder/trcStreamingRecorder.c **** #endif
 616:source\bsw\TraceRecorder/trcStreamingRecorder.c **** 		}
 617:source\bsw\TraceRecorder/trcStreamingRecorder.c **** 	}
 618:source\bsw\TraceRecorder/trcStreamingRecorder.c **** 
 619:source\bsw\TraceRecorder/trcStreamingRecorder.c **** 	TRACE_EXIT_CRITICAL_SECTION();
 620:source\bsw\TraceRecorder/trcStreamingRecorder.c **** }
 621:source\bsw\TraceRecorder/trcStreamingRecorder.c **** 
 622:source\bsw\TraceRecorder/trcStreamingRecorder.c **** 
 623:source\bsw\TraceRecorder/trcStreamingRecorder.c **** /*******************************************************************************
 624:source\bsw\TraceRecorder/trcStreamingRecorder.c ****  * xTraceGetLastError
 625:source\bsw\TraceRecorder/trcStreamingRecorder.c ****  *
 626:source\bsw\TraceRecorder/trcStreamingRecorder.c ****  * Returns the last error or warning, as a string, or NULL if none.
 627:source\bsw\TraceRecorder/trcStreamingRecorder.c ****  *****************************************************************************/
 628:source\bsw\TraceRecorder/trcStreamingRecorder.c **** const char* xTraceGetLastError(void)
 629:source\bsw\TraceRecorder/trcStreamingRecorder.c **** {
 630:source\bsw\TraceRecorder/trcStreamingRecorder.c **** 	/* Note: the error messages are short, in order to fit in a User Event.
 631:source\bsw\TraceRecorder/trcStreamingRecorder.c **** 	Instead, the users can read more in the below comments.*/
 632:source\bsw\TraceRecorder/trcStreamingRecorder.c **** 	
 633:source\bsw\TraceRecorder/trcStreamingRecorder.c **** 	switch (errorCode)
 634:source\bsw\TraceRecorder/trcStreamingRecorder.c **** 	{
 635:source\bsw\TraceRecorder/trcStreamingRecorder.c **** 	
 636:source\bsw\TraceRecorder/trcStreamingRecorder.c **** 	case PSF_WARNING_SYMBOL_TABLE_SLOTS:
 637:source\bsw\TraceRecorder/trcStreamingRecorder.c **** 		/* There was not enough symbol table slots for storing symbol names.
 638:source\bsw\TraceRecorder/trcStreamingRecorder.c **** 		The number of missing slots is counted by NoRoomForSymbol. Inspect this
 639:source\bsw\TraceRecorder/trcStreamingRecorder.c **** 		variable and increase TRC_CFG_SYMBOL_TABLE_SLOTS by at least that value. */
 640:source\bsw\TraceRecorder/trcStreamingRecorder.c **** 
 641:source\bsw\TraceRecorder/trcStreamingRecorder.c **** 		return "Exceeded SYMBOL_TABLE_SLOTS (see xTraceGetLastError)";
 642:source\bsw\TraceRecorder/trcStreamingRecorder.c **** 
 643:source\bsw\TraceRecorder/trcStreamingRecorder.c **** 	case PSF_WARNING_SYMBOL_MAX_LENGTH:
 644:source\bsw\TraceRecorder/trcStreamingRecorder.c **** 		/* A symbol name exceeded TRC_CFG_SYMBOL_MAX_LENGTH in length.
 645:source\bsw\TraceRecorder/trcStreamingRecorder.c **** 		Make sure the symbol names are at most TRC_CFG_SYMBOL_MAX_LENGTH,
 646:source\bsw\TraceRecorder/trcStreamingRecorder.c **** 		or inspect LongestSymbolName and increase TRC_CFG_SYMBOL_MAX_LENGTH
 647:source\bsw\TraceRecorder/trcStreamingRecorder.c **** 		to at least this value. */
 648:source\bsw\TraceRecorder/trcStreamingRecorder.c **** 
 649:source\bsw\TraceRecorder/trcStreamingRecorder.c **** 		return "Exceeded SYMBOL_MAX_LENGTH (see xTraceGetLastError)";
 650:source\bsw\TraceRecorder/trcStreamingRecorder.c **** 
 651:source\bsw\TraceRecorder/trcStreamingRecorder.c **** 	case PSF_WARNING_OBJECT_DATA_SLOTS:
 652:source\bsw\TraceRecorder/trcStreamingRecorder.c **** 		/* There was not enough symbol object table slots for storing object
 653:source\bsw\TraceRecorder/trcStreamingRecorder.c **** 		properties, such as task priorites. The number of missing slots is 
 654:source\bsw\TraceRecorder/trcStreamingRecorder.c **** 		counted by NoRoomForObjectData. Inspect this variable and increase 
 655:source\bsw\TraceRecorder/trcStreamingRecorder.c **** 		TRC_CFG_OBJECT_DATA_SLOTS by at least that value. */
 656:source\bsw\TraceRecorder/trcStreamingRecorder.c **** 		
 657:source\bsw\TraceRecorder/trcStreamingRecorder.c **** 		return "Exceeded OBJECT_DATA_SLOTS (see xTraceGetLastError)";
 658:source\bsw\TraceRecorder/trcStreamingRecorder.c **** 
ARM GAS  C:\Users\robom\AppData\Local\Temp\ccqs2S2W.s 			page 13


 659:source\bsw\TraceRecorder/trcStreamingRecorder.c **** 	case PSF_WARNING_STRING_TOO_LONG:
 660:source\bsw\TraceRecorder/trcStreamingRecorder.c **** 		/* Some string argument was longer than the maximum payload size
 661:source\bsw\TraceRecorder/trcStreamingRecorder.c **** 		and has been truncated by "MaxBytesTruncated" bytes.
 662:source\bsw\TraceRecorder/trcStreamingRecorder.c **** 
 663:source\bsw\TraceRecorder/trcStreamingRecorder.c **** 		This may happen for the following functions:
 664:source\bsw\TraceRecorder/trcStreamingRecorder.c **** 		- vTracePrint
 665:source\bsw\TraceRecorder/trcStreamingRecorder.c **** 		- vTracePrintF
 666:source\bsw\TraceRecorder/trcStreamingRecorder.c **** 		- vTraceStoreKernelObjectName
 667:source\bsw\TraceRecorder/trcStreamingRecorder.c **** 		- xTraceRegisterString
 668:source\bsw\TraceRecorder/trcStreamingRecorder.c **** 		- vTraceSetISRProperties
 669:source\bsw\TraceRecorder/trcStreamingRecorder.c **** 
 670:source\bsw\TraceRecorder/trcStreamingRecorder.c **** 		A PSF event may store maximum 60 bytes payload, including data
 671:source\bsw\TraceRecorder/trcStreamingRecorder.c **** 		arguments and string characters. For User Events, also the User
 672:source\bsw\TraceRecorder/trcStreamingRecorder.c **** 		Event Channel (4 bytes) must be squeezed in, if a channel is
 673:source\bsw\TraceRecorder/trcStreamingRecorder.c **** 		specified (can be NULL). */
 674:source\bsw\TraceRecorder/trcStreamingRecorder.c **** 
 675:source\bsw\TraceRecorder/trcStreamingRecorder.c **** 		return "String too long (see xTraceGetLastError)";
 676:source\bsw\TraceRecorder/trcStreamingRecorder.c **** 
 677:source\bsw\TraceRecorder/trcStreamingRecorder.c **** 	case PSF_WARNING_STREAM_PORT_READ:
 678:source\bsw\TraceRecorder/trcStreamingRecorder.c **** 		/* TRC_STREAM_PORT_READ_DATA is expected to return 0 when completed successfully.
 679:source\bsw\TraceRecorder/trcStreamingRecorder.c **** 		This means there is an error in the communication with host/Tracealyzer. */
 680:source\bsw\TraceRecorder/trcStreamingRecorder.c **** 
 681:source\bsw\TraceRecorder/trcStreamingRecorder.c **** 		return "TRC_STREAM_PORT_READ_DATA returned error (!= 0).";
 682:source\bsw\TraceRecorder/trcStreamingRecorder.c **** 
 683:source\bsw\TraceRecorder/trcStreamingRecorder.c **** 	case PSF_WARNING_STREAM_PORT_WRITE:
 684:source\bsw\TraceRecorder/trcStreamingRecorder.c **** 		/* TRC_STREAM_PORT_WRITE_DATA is expected to return 0 when completed successfully.
 685:source\bsw\TraceRecorder/trcStreamingRecorder.c **** 		This means there is an error in the communication with host/Tracealyzer. */
 686:source\bsw\TraceRecorder/trcStreamingRecorder.c **** 
 687:source\bsw\TraceRecorder/trcStreamingRecorder.c **** 		return "TRC_STREAM_PORT_WRITE_DATA returned error (!= 0).";
 688:source\bsw\TraceRecorder/trcStreamingRecorder.c **** 
 689:source\bsw\TraceRecorder/trcStreamingRecorder.c **** 	case PSF_ERROR_EVENT_CODE_TOO_LARGE:
 690:source\bsw\TraceRecorder/trcStreamingRecorder.c **** 		/* The highest allowed event code is 4095, anything higher is an unexpected error. 
 691:source\bsw\TraceRecorder/trcStreamingRecorder.c **** 		Please contact support@percepio.com for assistance.*/
 692:source\bsw\TraceRecorder/trcStreamingRecorder.c **** 		
 693:source\bsw\TraceRecorder/trcStreamingRecorder.c **** 		return "Invalid event code (see xTraceGetLastError)";
 694:source\bsw\TraceRecorder/trcStreamingRecorder.c **** 	
 695:source\bsw\TraceRecorder/trcStreamingRecorder.c **** 	case PSF_ERROR_ISR_NESTING_OVERFLOW:
 696:source\bsw\TraceRecorder/trcStreamingRecorder.c **** 		/* Nesting of ISR trace calls exceeded the limit (TRC_CFG_MAX_ISR_NESTING).
 697:source\bsw\TraceRecorder/trcStreamingRecorder.c **** 		If this is unlikely, make sure that you call vTraceStoreISRExit in the end 
 698:source\bsw\TraceRecorder/trcStreamingRecorder.c **** 		of all ISR handlers. Or increase TRC_CFG_MAX_ISR_NESTING. */
 699:source\bsw\TraceRecorder/trcStreamingRecorder.c **** 
 700:source\bsw\TraceRecorder/trcStreamingRecorder.c **** 		return "Exceeded ISR nesting (see xTraceGetLastError)";
 701:source\bsw\TraceRecorder/trcStreamingRecorder.c **** 
 702:source\bsw\TraceRecorder/trcStreamingRecorder.c **** 	case PSF_ERROR_DWT_NOT_SUPPORTED:
 703:source\bsw\TraceRecorder/trcStreamingRecorder.c **** 		/* On ARM Cortex-M only - failed to initialize DWT Cycle Counter since not supported by this chip
 704:source\bsw\TraceRecorder/trcStreamingRecorder.c **** 		DWT timestamping is selected automatically for ART Cortex-M3, M4 and higher, based on the __CORTE
 705:source\bsw\TraceRecorder/trcStreamingRecorder.c **** 		macro normally set by ARM's CMSIS library, since typically available. You can however select
 706:source\bsw\TraceRecorder/trcStreamingRecorder.c **** 		SysTick timestamping instead by defining adding "#define TRC_CFG_ARM_CM_USE_SYSTICK".*/
 707:source\bsw\TraceRecorder/trcStreamingRecorder.c **** 
 708:source\bsw\TraceRecorder/trcStreamingRecorder.c **** 		return "DWT not supported (see xTraceGetLastError)";
 709:source\bsw\TraceRecorder/trcStreamingRecorder.c **** 
 710:source\bsw\TraceRecorder/trcStreamingRecorder.c **** 	case PSF_ERROR_DWT_CYCCNT_NOT_SUPPORTED:
 711:source\bsw\TraceRecorder/trcStreamingRecorder.c **** 		/* On ARM Cortex-M only - failed to initialize DWT Cycle Counter since not supported by this chip
 712:source\bsw\TraceRecorder/trcStreamingRecorder.c **** 		DWT timestamping is selected automatically for ART Cortex-M3, M4 and higher, based on the __CORTE
 713:source\bsw\TraceRecorder/trcStreamingRecorder.c **** 		macro normally set by ARM's CMSIS library, since typically available. You can however select 
 714:source\bsw\TraceRecorder/trcStreamingRecorder.c **** 		SysTick timestamping instead by defining adding "#define TRC_CFG_ARM_CM_USE_SYSTICK".*/
 715:source\bsw\TraceRecorder/trcStreamingRecorder.c **** 		
ARM GAS  C:\Users\robom\AppData\Local\Temp\ccqs2S2W.s 			page 14


 716:source\bsw\TraceRecorder/trcStreamingRecorder.c **** 		return "DWT_CYCCNT not supported (see xTraceGetLastError)";
 717:source\bsw\TraceRecorder/trcStreamingRecorder.c **** 	
 718:source\bsw\TraceRecorder/trcStreamingRecorder.c **** 	case PSF_ERROR_TZCTRLTASK_NOT_CREATED:
 719:source\bsw\TraceRecorder/trcStreamingRecorder.c **** 		/* vTraceEnable failed creating the trace control task (TzCtrl) - incorrect parameters (priority?
 720:source\bsw\TraceRecorder/trcStreamingRecorder.c **** 		or insufficient heap size? */
 721:source\bsw\TraceRecorder/trcStreamingRecorder.c **** 		return "Could not create TzCtrl (see xTraceGetLastError)";
 722:source\bsw\TraceRecorder/trcStreamingRecorder.c **** 	
 723:source\bsw\TraceRecorder/trcStreamingRecorder.c **** 	}
 724:source\bsw\TraceRecorder/trcStreamingRecorder.c **** 	
 725:source\bsw\TraceRecorder/trcStreamingRecorder.c **** 	return NULL;
 726:source\bsw\TraceRecorder/trcStreamingRecorder.c **** }
 727:source\bsw\TraceRecorder/trcStreamingRecorder.c **** 
 728:source\bsw\TraceRecorder/trcStreamingRecorder.c **** /*******************************************************************************
 729:source\bsw\TraceRecorder/trcStreamingRecorder.c ****  * vTraceClearError
 730:source\bsw\TraceRecorder/trcStreamingRecorder.c ****  *
 731:source\bsw\TraceRecorder/trcStreamingRecorder.c ****  * Clears any errors.
 732:source\bsw\TraceRecorder/trcStreamingRecorder.c ****  *****************************************************************************/
 733:source\bsw\TraceRecorder/trcStreamingRecorder.c **** void vTraceClearError(void)
 734:source\bsw\TraceRecorder/trcStreamingRecorder.c **** {
 735:source\bsw\TraceRecorder/trcStreamingRecorder.c **** 	NoRoomForSymbol = 0;
 736:source\bsw\TraceRecorder/trcStreamingRecorder.c **** 	LongestSymbolName = 0;
 737:source\bsw\TraceRecorder/trcStreamingRecorder.c **** 	NoRoomForObjectData = 0;
 738:source\bsw\TraceRecorder/trcStreamingRecorder.c **** 	MaxBytesTruncated = 0;
 739:source\bsw\TraceRecorder/trcStreamingRecorder.c **** 	errorCode = PSF_ERROR_NONE;
 740:source\bsw\TraceRecorder/trcStreamingRecorder.c **** }
 741:source\bsw\TraceRecorder/trcStreamingRecorder.c **** 
 742:source\bsw\TraceRecorder/trcStreamingRecorder.c **** /*******************************************************************************
 743:source\bsw\TraceRecorder/trcStreamingRecorder.c ****  * vTraceStop
 744:source\bsw\TraceRecorder/trcStreamingRecorder.c ****  *
 745:source\bsw\TraceRecorder/trcStreamingRecorder.c ****  * Stops the tracing.
 746:source\bsw\TraceRecorder/trcStreamingRecorder.c ****  *****************************************************************************/
 747:source\bsw\TraceRecorder/trcStreamingRecorder.c **** void vTraceStop(void)
 748:source\bsw\TraceRecorder/trcStreamingRecorder.c **** {
 749:source\bsw\TraceRecorder/trcStreamingRecorder.c **** 	prvSetRecorderEnabled(0);
 750:source\bsw\TraceRecorder/trcStreamingRecorder.c **** }
 751:source\bsw\TraceRecorder/trcStreamingRecorder.c **** 
 752:source\bsw\TraceRecorder/trcStreamingRecorder.c **** /*******************************************************************************
 753:source\bsw\TraceRecorder/trcStreamingRecorder.c ****  * vTraceSetRecorderDataBuffer
 754:source\bsw\TraceRecorder/trcStreamingRecorder.c ****  *
 755:source\bsw\TraceRecorder/trcStreamingRecorder.c ****  * If custom allocation is used, this function must be called so the recorder
 756:source\bsw\TraceRecorder/trcStreamingRecorder.c ****  * library knows where to save the trace data.
 757:source\bsw\TraceRecorder/trcStreamingRecorder.c ****  ******************************************************************************/
 758:source\bsw\TraceRecorder/trcStreamingRecorder.c **** #if (TRC_CFG_RECORDER_BUFFER_ALLOCATION == TRC_RECORDER_BUFFER_ALLOCATION_CUSTOM)
 759:source\bsw\TraceRecorder/trcStreamingRecorder.c **** 
 760:source\bsw\TraceRecorder/trcStreamingRecorder.c **** extern char* _TzTraceData;
 761:source\bsw\TraceRecorder/trcStreamingRecorder.c **** 
 762:source\bsw\TraceRecorder/trcStreamingRecorder.c **** void vTraceSetRecorderDataBuffer(void* pRecorderData)
 763:source\bsw\TraceRecorder/trcStreamingRecorder.c **** {
 764:source\bsw\TraceRecorder/trcStreamingRecorder.c **** 	_TzTraceData = pRecorderData;
 765:source\bsw\TraceRecorder/trcStreamingRecorder.c **** }
 766:source\bsw\TraceRecorder/trcStreamingRecorder.c **** #endif
 767:source\bsw\TraceRecorder/trcStreamingRecorder.c **** 
 768:source\bsw\TraceRecorder/trcStreamingRecorder.c **** 
 769:source\bsw\TraceRecorder/trcStreamingRecorder.c **** /*******************************************************************************
 770:source\bsw\TraceRecorder/trcStreamingRecorder.c **** * xTraceIsRecordingEnabled
 771:source\bsw\TraceRecorder/trcStreamingRecorder.c **** * Returns true (1) if the recorder is enabled (i.e. is recording), otherwise 0.
 772:source\bsw\TraceRecorder/trcStreamingRecorder.c **** ******************************************************************************/
ARM GAS  C:\Users\robom\AppData\Local\Temp\ccqs2S2W.s 			page 15


 773:source\bsw\TraceRecorder/trcStreamingRecorder.c **** int xTraceIsRecordingEnabled(void)
 774:source\bsw\TraceRecorder/trcStreamingRecorder.c **** {
 775:source\bsw\TraceRecorder/trcStreamingRecorder.c **** 	return (int)RecorderEnabled;
 776:source\bsw\TraceRecorder/trcStreamingRecorder.c **** }
 777:source\bsw\TraceRecorder/trcStreamingRecorder.c **** 
 778:source\bsw\TraceRecorder/trcStreamingRecorder.c **** void vTraceSetFilterMask(uint16_t filterMask)
 779:source\bsw\TraceRecorder/trcStreamingRecorder.c **** {
 780:source\bsw\TraceRecorder/trcStreamingRecorder.c **** 	CurrentFilterMask = filterMask;
 781:source\bsw\TraceRecorder/trcStreamingRecorder.c **** }
 782:source\bsw\TraceRecorder/trcStreamingRecorder.c **** 
 783:source\bsw\TraceRecorder/trcStreamingRecorder.c **** void vTraceSetFilterGroup(uint16_t filterGroup)
 784:source\bsw\TraceRecorder/trcStreamingRecorder.c **** {
 785:source\bsw\TraceRecorder/trcStreamingRecorder.c **** 	CurrentFilterGroup = filterGroup;
 786:source\bsw\TraceRecorder/trcStreamingRecorder.c **** }
 787:source\bsw\TraceRecorder/trcStreamingRecorder.c **** 
 788:source\bsw\TraceRecorder/trcStreamingRecorder.c **** 
 789:source\bsw\TraceRecorder/trcStreamingRecorder.c **** /******************************************************************************/
 790:source\bsw\TraceRecorder/trcStreamingRecorder.c **** /*** INTERNAL FUNCTIONS *******************************************************/
 791:source\bsw\TraceRecorder/trcStreamingRecorder.c **** /******************************************************************************/
 792:source\bsw\TraceRecorder/trcStreamingRecorder.c **** 
 793:source\bsw\TraceRecorder/trcStreamingRecorder.c **** /* Internal function for starting/stopping the recorder. */
 794:source\bsw\TraceRecorder/trcStreamingRecorder.c **** static void prvSetRecorderEnabled(uint32_t isEnabled)
 795:source\bsw\TraceRecorder/trcStreamingRecorder.c **** {
 796:source\bsw\TraceRecorder/trcStreamingRecorder.c ****   	void* currentTask;
 797:source\bsw\TraceRecorder/trcStreamingRecorder.c **** 	
 798:source\bsw\TraceRecorder/trcStreamingRecorder.c **** 	TRACE_ALLOC_CRITICAL_SECTION();
 799:source\bsw\TraceRecorder/trcStreamingRecorder.c **** 	
 800:source\bsw\TraceRecorder/trcStreamingRecorder.c **** 	if (RecorderEnabled == isEnabled)
 801:source\bsw\TraceRecorder/trcStreamingRecorder.c **** 	{
 802:source\bsw\TraceRecorder/trcStreamingRecorder.c **** 		return;
 803:source\bsw\TraceRecorder/trcStreamingRecorder.c **** 	}
 804:source\bsw\TraceRecorder/trcStreamingRecorder.c **** 	
 805:source\bsw\TraceRecorder/trcStreamingRecorder.c **** 	currentTask = TRACE_GET_CURRENT_TASK();
 806:source\bsw\TraceRecorder/trcStreamingRecorder.c **** 
 807:source\bsw\TraceRecorder/trcStreamingRecorder.c **** 	TRACE_ENTER_CRITICAL_SECTION();
 808:source\bsw\TraceRecorder/trcStreamingRecorder.c **** 
 809:source\bsw\TraceRecorder/trcStreamingRecorder.c ****     RecorderEnabled = isEnabled;
 810:source\bsw\TraceRecorder/trcStreamingRecorder.c **** 
 811:source\bsw\TraceRecorder/trcStreamingRecorder.c ****     if (currentTask == NULL)
 812:source\bsw\TraceRecorder/trcStreamingRecorder.c ****     {
 813:source\bsw\TraceRecorder/trcStreamingRecorder.c **** 		currentTask = (void*)HANDLE_NO_TASK;
 814:source\bsw\TraceRecorder/trcStreamingRecorder.c **** 	}
 815:source\bsw\TraceRecorder/trcStreamingRecorder.c **** 
 816:source\bsw\TraceRecorder/trcStreamingRecorder.c **** 	if (RecorderEnabled)
 817:source\bsw\TraceRecorder/trcStreamingRecorder.c **** 	{
 818:source\bsw\TraceRecorder/trcStreamingRecorder.c **** 		TRC_STREAM_PORT_ON_TRACE_BEGIN();
 819:source\bsw\TraceRecorder/trcStreamingRecorder.c **** 
 820:source\bsw\TraceRecorder/trcStreamingRecorder.c **** 		#if (TRC_STREAM_PORT_USE_INTERNAL_BUFFER == 1)
 821:source\bsw\TraceRecorder/trcStreamingRecorder.c **** 		prvPagedEventBufferInit(_TzTraceData);
 822:source\bsw\TraceRecorder/trcStreamingRecorder.c **** 		#endif
 823:source\bsw\TraceRecorder/trcStreamingRecorder.c **** 		
 824:source\bsw\TraceRecorder/trcStreamingRecorder.c ****      	eventCounter = 0;
 825:source\bsw\TraceRecorder/trcStreamingRecorder.c ****         ISR_stack_index = -1;
 826:source\bsw\TraceRecorder/trcStreamingRecorder.c ****         prvTraceStoreHeader();
 827:source\bsw\TraceRecorder/trcStreamingRecorder.c **** 		prvTraceStoreSymbolTable();
 828:source\bsw\TraceRecorder/trcStreamingRecorder.c ****     	prvTraceStoreObjectDataTable();
 829:source\bsw\TraceRecorder/trcStreamingRecorder.c ****         prvTraceStoreEvent3(	PSF_EVENT_TRACE_START,
ARM GAS  C:\Users\robom\AppData\Local\Temp\ccqs2S2W.s 			page 16


 830:source\bsw\TraceRecorder/trcStreamingRecorder.c **** 							(uint32_t)TRACE_GET_OS_TICKS(),
 831:source\bsw\TraceRecorder/trcStreamingRecorder.c **** 							(uint32_t)currentTask,
 832:source\bsw\TraceRecorder/trcStreamingRecorder.c **** 							SessionCounter++);
 833:source\bsw\TraceRecorder/trcStreamingRecorder.c ****         prvTraceStoreTSConfig();
 834:source\bsw\TraceRecorder/trcStreamingRecorder.c **** 		prvTraceStoreWarnings();
 835:source\bsw\TraceRecorder/trcStreamingRecorder.c **** 	}
 836:source\bsw\TraceRecorder/trcStreamingRecorder.c ****     else
 837:source\bsw\TraceRecorder/trcStreamingRecorder.c ****     {
 838:source\bsw\TraceRecorder/trcStreamingRecorder.c **** 		TRC_STREAM_PORT_ON_TRACE_END();
 839:source\bsw\TraceRecorder/trcStreamingRecorder.c ****     }
 840:source\bsw\TraceRecorder/trcStreamingRecorder.c **** 
 841:source\bsw\TraceRecorder/trcStreamingRecorder.c **** 	TRACE_EXIT_CRITICAL_SECTION();
 842:source\bsw\TraceRecorder/trcStreamingRecorder.c **** }
 843:source\bsw\TraceRecorder/trcStreamingRecorder.c **** 
 844:source\bsw\TraceRecorder/trcStreamingRecorder.c **** /* Stores the symbol table on Start */
 845:source\bsw\TraceRecorder/trcStreamingRecorder.c **** static void prvTraceStoreSymbolTable(void)
 846:source\bsw\TraceRecorder/trcStreamingRecorder.c **** {
 847:source\bsw\TraceRecorder/trcStreamingRecorder.c **** 	uint32_t i = 0;
 848:source\bsw\TraceRecorder/trcStreamingRecorder.c **** 	uint32_t j = 0;
 849:source\bsw\TraceRecorder/trcStreamingRecorder.c **** 	TRACE_ALLOC_CRITICAL_SECTION();
 850:source\bsw\TraceRecorder/trcStreamingRecorder.c **** 
 851:source\bsw\TraceRecorder/trcStreamingRecorder.c **** 	TRACE_ENTER_CRITICAL_SECTION();
 852:source\bsw\TraceRecorder/trcStreamingRecorder.c **** 	
 853:source\bsw\TraceRecorder/trcStreamingRecorder.c **** 	if (RecorderEnabled)
 854:source\bsw\TraceRecorder/trcStreamingRecorder.c **** 	{
 855:source\bsw\TraceRecorder/trcStreamingRecorder.c **** 		for (i = 0; i < (sizeof(SymbolTable) / sizeof(uint32_t)); i += (SYMBOL_TABLE_SLOT_SIZE / sizeof(u
 856:source\bsw\TraceRecorder/trcStreamingRecorder.c **** 		{
 857:source\bsw\TraceRecorder/trcStreamingRecorder.c ****             TRC_STREAM_PORT_ALLOCATE_EVENT(uint32_t, data, SYMBOL_TABLE_SLOT_SIZE);
 858:source\bsw\TraceRecorder/trcStreamingRecorder.c ****             if (data != NULL)
 859:source\bsw\TraceRecorder/trcStreamingRecorder.c ****             {
 860:source\bsw\TraceRecorder/trcStreamingRecorder.c ****                 for (j = 0; j < (SYMBOL_TABLE_SLOT_SIZE / sizeof(uint32_t)); j++)
 861:source\bsw\TraceRecorder/trcStreamingRecorder.c ****                 {
 862:source\bsw\TraceRecorder/trcStreamingRecorder.c ****                         data[j] = symbolTable.SymbolTableBuffer.pSymbolTableBufferUINT32[i+j];
 863:source\bsw\TraceRecorder/trcStreamingRecorder.c ****                 }
 864:source\bsw\TraceRecorder/trcStreamingRecorder.c **** 			    TRC_STREAM_PORT_COMMIT_EVENT(data, SYMBOL_TABLE_SLOT_SIZE);
 865:source\bsw\TraceRecorder/trcStreamingRecorder.c **** 			}
 866:source\bsw\TraceRecorder/trcStreamingRecorder.c **** 		}
 867:source\bsw\TraceRecorder/trcStreamingRecorder.c **** 	}
 868:source\bsw\TraceRecorder/trcStreamingRecorder.c **** 	TRACE_EXIT_CRITICAL_SECTION();
 869:source\bsw\TraceRecorder/trcStreamingRecorder.c **** }
 870:source\bsw\TraceRecorder/trcStreamingRecorder.c **** 
 871:source\bsw\TraceRecorder/trcStreamingRecorder.c **** /* Stores the object table on Start */
 872:source\bsw\TraceRecorder/trcStreamingRecorder.c **** static void prvTraceStoreObjectDataTable(void)
 873:source\bsw\TraceRecorder/trcStreamingRecorder.c **** {
 874:source\bsw\TraceRecorder/trcStreamingRecorder.c **** 	uint32_t i = 0;
 875:source\bsw\TraceRecorder/trcStreamingRecorder.c **** 	uint32_t j = 0;
 876:source\bsw\TraceRecorder/trcStreamingRecorder.c **** 	TRACE_ALLOC_CRITICAL_SECTION();
 877:source\bsw\TraceRecorder/trcStreamingRecorder.c **** 
 878:source\bsw\TraceRecorder/trcStreamingRecorder.c **** 	TRACE_ENTER_CRITICAL_SECTION();
 879:source\bsw\TraceRecorder/trcStreamingRecorder.c **** 
 880:source\bsw\TraceRecorder/trcStreamingRecorder.c **** 	if (RecorderEnabled)
 881:source\bsw\TraceRecorder/trcStreamingRecorder.c **** 	{
 882:source\bsw\TraceRecorder/trcStreamingRecorder.c **** 		for (i = 0; i < (sizeof(ObjectDataTable) / sizeof(uint32_t)); i += (OBJECT_DATA_SLOT_SIZE / sizeo
 883:source\bsw\TraceRecorder/trcStreamingRecorder.c ****         {
 884:source\bsw\TraceRecorder/trcStreamingRecorder.c ****             TRC_STREAM_PORT_ALLOCATE_EVENT(uint32_t, data, OBJECT_DATA_SLOT_SIZE);
 885:source\bsw\TraceRecorder/trcStreamingRecorder.c ****             if (data != NULL)
 886:source\bsw\TraceRecorder/trcStreamingRecorder.c ****             {
ARM GAS  C:\Users\robom\AppData\Local\Temp\ccqs2S2W.s 			page 17


 887:source\bsw\TraceRecorder/trcStreamingRecorder.c ****                 for (j = 0; j < (OBJECT_DATA_SLOT_SIZE / sizeof(uint32_t)); j++)
 888:source\bsw\TraceRecorder/trcStreamingRecorder.c ****                 {
 889:source\bsw\TraceRecorder/trcStreamingRecorder.c ****                         data[j] = objectDataTable.ObjectDataTableBuffer.pObjectDataTableBufferUINT3
 890:source\bsw\TraceRecorder/trcStreamingRecorder.c ****                 }
 891:source\bsw\TraceRecorder/trcStreamingRecorder.c ****                 TRC_STREAM_PORT_COMMIT_EVENT(data, OBJECT_DATA_SLOT_SIZE);
 892:source\bsw\TraceRecorder/trcStreamingRecorder.c **** 			}
 893:source\bsw\TraceRecorder/trcStreamingRecorder.c ****         }
 894:source\bsw\TraceRecorder/trcStreamingRecorder.c **** 	}
 895:source\bsw\TraceRecorder/trcStreamingRecorder.c **** 	TRACE_EXIT_CRITICAL_SECTION();
 896:source\bsw\TraceRecorder/trcStreamingRecorder.c **** }
 897:source\bsw\TraceRecorder/trcStreamingRecorder.c **** 
 898:source\bsw\TraceRecorder/trcStreamingRecorder.c **** /* Stores the header information on Start */
 899:source\bsw\TraceRecorder/trcStreamingRecorder.c **** static void prvTraceStoreHeader(void)
 900:source\bsw\TraceRecorder/trcStreamingRecorder.c **** {
 901:source\bsw\TraceRecorder/trcStreamingRecorder.c ****   	TRACE_ALLOC_CRITICAL_SECTION();
 902:source\bsw\TraceRecorder/trcStreamingRecorder.c **** 
 903:source\bsw\TraceRecorder/trcStreamingRecorder.c **** 	TRACE_ENTER_CRITICAL_SECTION();
 904:source\bsw\TraceRecorder/trcStreamingRecorder.c **** 
 905:source\bsw\TraceRecorder/trcStreamingRecorder.c **** 	if (RecorderEnabled)
 906:source\bsw\TraceRecorder/trcStreamingRecorder.c **** 	{
 907:source\bsw\TraceRecorder/trcStreamingRecorder.c **** 	  	TRC_STREAM_PORT_ALLOCATE_EVENT(PSFHeaderInfo, header, sizeof(PSFHeaderInfo));
 908:source\bsw\TraceRecorder/trcStreamingRecorder.c **** 		if (header != NULL)
 909:source\bsw\TraceRecorder/trcStreamingRecorder.c **** 		{
 910:source\bsw\TraceRecorder/trcStreamingRecorder.c **** 			header->psf = PSFEndianessIdentifier;
 911:source\bsw\TraceRecorder/trcStreamingRecorder.c **** 			header->version = FormatVersion;
 912:source\bsw\TraceRecorder/trcStreamingRecorder.c **** 			header->platform = TRACE_KERNEL_VERSION;
 913:source\bsw\TraceRecorder/trcStreamingRecorder.c ****             header->options = 0;
 914:source\bsw\TraceRecorder/trcStreamingRecorder.c ****             /* Lowest bit used for TRC_IRQ_PRIORITY_ORDER */
 915:source\bsw\TraceRecorder/trcStreamingRecorder.c ****             header->options = header->options | (TRC_IRQ_PRIORITY_ORDER << 0);
 916:source\bsw\TraceRecorder/trcStreamingRecorder.c **** 			header->symbolSize = SYMBOL_TABLE_SLOT_SIZE;
 917:source\bsw\TraceRecorder/trcStreamingRecorder.c **** 			header->symbolCount = (TRC_CFG_SYMBOL_TABLE_SLOTS);
 918:source\bsw\TraceRecorder/trcStreamingRecorder.c **** 			header->objectDataSize = 8;
 919:source\bsw\TraceRecorder/trcStreamingRecorder.c **** 			header->objectDataCount = (TRC_CFG_OBJECT_DATA_SLOTS);
 920:source\bsw\TraceRecorder/trcStreamingRecorder.c **** 			TRC_STREAM_PORT_COMMIT_EVENT(header, sizeof(PSFHeaderInfo));
 921:source\bsw\TraceRecorder/trcStreamingRecorder.c **** 		}
 922:source\bsw\TraceRecorder/trcStreamingRecorder.c **** 	}
 923:source\bsw\TraceRecorder/trcStreamingRecorder.c **** 	TRACE_EXIT_CRITICAL_SECTION();
 924:source\bsw\TraceRecorder/trcStreamingRecorder.c **** }
 925:source\bsw\TraceRecorder/trcStreamingRecorder.c **** 
 926:source\bsw\TraceRecorder/trcStreamingRecorder.c **** /* Store the current warnings */
 927:source\bsw\TraceRecorder/trcStreamingRecorder.c **** static void prvTraceStoreWarnings(void)
 928:source\bsw\TraceRecorder/trcStreamingRecorder.c **** {
 929:source\bsw\TraceRecorder/trcStreamingRecorder.c **** 	if (RecorderEnabled)
 930:source\bsw\TraceRecorder/trcStreamingRecorder.c **** 	{
 931:source\bsw\TraceRecorder/trcStreamingRecorder.c **** 		const char* errStr = xTraceGetLastError();
 932:source\bsw\TraceRecorder/trcStreamingRecorder.c **** 
 933:source\bsw\TraceRecorder/trcStreamingRecorder.c **** 		if (errStr != NULL)
 934:source\bsw\TraceRecorder/trcStreamingRecorder.c **** 		{
 935:source\bsw\TraceRecorder/trcStreamingRecorder.c **** 			vTracePrint(trcWarningChannel, errStr);
 936:source\bsw\TraceRecorder/trcStreamingRecorder.c **** 		}
 937:source\bsw\TraceRecorder/trcStreamingRecorder.c **** 	}
 938:source\bsw\TraceRecorder/trcStreamingRecorder.c **** }
 939:source\bsw\TraceRecorder/trcStreamingRecorder.c **** 
 940:source\bsw\TraceRecorder/trcStreamingRecorder.c **** /* Store an event with zero parameters (event ID only) */
 941:source\bsw\TraceRecorder/trcStreamingRecorder.c **** void prvTraceStoreEvent0(uint16_t eventID)
 942:source\bsw\TraceRecorder/trcStreamingRecorder.c **** {
 943:source\bsw\TraceRecorder/trcStreamingRecorder.c ****   	TRACE_ALLOC_CRITICAL_SECTION();
ARM GAS  C:\Users\robom\AppData\Local\Temp\ccqs2S2W.s 			page 18


 944:source\bsw\TraceRecorder/trcStreamingRecorder.c **** 
 945:source\bsw\TraceRecorder/trcStreamingRecorder.c **** 	PSF_ASSERT(eventID < 4096, PSF_ERROR_EVENT_CODE_TOO_LARGE);
 946:source\bsw\TraceRecorder/trcStreamingRecorder.c **** 
 947:source\bsw\TraceRecorder/trcStreamingRecorder.c **** 	TRACE_ENTER_CRITICAL_SECTION();
 948:source\bsw\TraceRecorder/trcStreamingRecorder.c **** 
 949:source\bsw\TraceRecorder/trcStreamingRecorder.c **** 	if (RecorderEnabled)
 950:source\bsw\TraceRecorder/trcStreamingRecorder.c **** 	{
 951:source\bsw\TraceRecorder/trcStreamingRecorder.c **** 		eventCounter++;
 952:source\bsw\TraceRecorder/trcStreamingRecorder.c **** 
 953:source\bsw\TraceRecorder/trcStreamingRecorder.c **** 		{
 954:source\bsw\TraceRecorder/trcStreamingRecorder.c **** 			TRC_STREAM_PORT_ALLOCATE_EVENT(BaseEvent, event, sizeof(BaseEvent));
 955:source\bsw\TraceRecorder/trcStreamingRecorder.c **** 			if (event != NULL)
 956:source\bsw\TraceRecorder/trcStreamingRecorder.c **** 			{
 957:source\bsw\TraceRecorder/trcStreamingRecorder.c **** 				event->EventID = eventID | PARAM_COUNT(0);
 958:source\bsw\TraceRecorder/trcStreamingRecorder.c **** 				event->EventCount = (uint16_t)eventCounter;
 959:source\bsw\TraceRecorder/trcStreamingRecorder.c **** 				event->TS = prvGetTimestamp32();
 960:source\bsw\TraceRecorder/trcStreamingRecorder.c **** 				TRC_STREAM_PORT_COMMIT_EVENT(event, sizeof(BaseEvent));
 961:source\bsw\TraceRecorder/trcStreamingRecorder.c **** 			}
 962:source\bsw\TraceRecorder/trcStreamingRecorder.c **** 		}
 963:source\bsw\TraceRecorder/trcStreamingRecorder.c **** 	}
 964:source\bsw\TraceRecorder/trcStreamingRecorder.c **** 	TRACE_EXIT_CRITICAL_SECTION();
 965:source\bsw\TraceRecorder/trcStreamingRecorder.c **** }
 966:source\bsw\TraceRecorder/trcStreamingRecorder.c **** 
 967:source\bsw\TraceRecorder/trcStreamingRecorder.c **** /* Store an event with one 32-bit parameter (pointer address or an int) */
 968:source\bsw\TraceRecorder/trcStreamingRecorder.c **** void prvTraceStoreEvent1(uint16_t eventID, uint32_t param1)
 969:source\bsw\TraceRecorder/trcStreamingRecorder.c **** {
 970:source\bsw\TraceRecorder/trcStreamingRecorder.c ****   	TRACE_ALLOC_CRITICAL_SECTION();
 971:source\bsw\TraceRecorder/trcStreamingRecorder.c **** 
 972:source\bsw\TraceRecorder/trcStreamingRecorder.c **** 	PSF_ASSERT(eventID < 4096, PSF_ERROR_EVENT_CODE_TOO_LARGE);
 973:source\bsw\TraceRecorder/trcStreamingRecorder.c **** 
 974:source\bsw\TraceRecorder/trcStreamingRecorder.c **** 	TRACE_ENTER_CRITICAL_SECTION();
 975:source\bsw\TraceRecorder/trcStreamingRecorder.c **** 
 976:source\bsw\TraceRecorder/trcStreamingRecorder.c **** 	if (RecorderEnabled)
 977:source\bsw\TraceRecorder/trcStreamingRecorder.c **** 	{
 978:source\bsw\TraceRecorder/trcStreamingRecorder.c **** 		eventCounter++;
 979:source\bsw\TraceRecorder/trcStreamingRecorder.c **** 		
 980:source\bsw\TraceRecorder/trcStreamingRecorder.c **** 		{
 981:source\bsw\TraceRecorder/trcStreamingRecorder.c **** 			TRC_STREAM_PORT_ALLOCATE_EVENT(EventWithParam_1, event, sizeof(EventWithParam_1));
 982:source\bsw\TraceRecorder/trcStreamingRecorder.c **** 			if (event != NULL)
 983:source\bsw\TraceRecorder/trcStreamingRecorder.c **** 			{
 984:source\bsw\TraceRecorder/trcStreamingRecorder.c **** 				event->base.EventID = eventID | PARAM_COUNT(1);
 985:source\bsw\TraceRecorder/trcStreamingRecorder.c **** 				event->base.EventCount = (uint16_t)eventCounter;
 986:source\bsw\TraceRecorder/trcStreamingRecorder.c **** 				event->base.TS = prvGetTimestamp32();
 987:source\bsw\TraceRecorder/trcStreamingRecorder.c **** 				event->param1 = (uint32_t)param1;
 988:source\bsw\TraceRecorder/trcStreamingRecorder.c **** 				TRC_STREAM_PORT_COMMIT_EVENT(event, sizeof(EventWithParam_1));
 989:source\bsw\TraceRecorder/trcStreamingRecorder.c **** 			}
 990:source\bsw\TraceRecorder/trcStreamingRecorder.c **** 		}
 991:source\bsw\TraceRecorder/trcStreamingRecorder.c **** 	}
 992:source\bsw\TraceRecorder/trcStreamingRecorder.c **** 	TRACE_EXIT_CRITICAL_SECTION();
 993:source\bsw\TraceRecorder/trcStreamingRecorder.c **** }
 994:source\bsw\TraceRecorder/trcStreamingRecorder.c **** 
 995:source\bsw\TraceRecorder/trcStreamingRecorder.c **** /* Store an event with two 32-bit parameters */
 996:source\bsw\TraceRecorder/trcStreamingRecorder.c **** void prvTraceStoreEvent2(uint16_t eventID, uint32_t param1, uint32_t param2)
 997:source\bsw\TraceRecorder/trcStreamingRecorder.c **** {
 998:source\bsw\TraceRecorder/trcStreamingRecorder.c ****   	TRACE_ALLOC_CRITICAL_SECTION();
 999:source\bsw\TraceRecorder/trcStreamingRecorder.c **** 
1000:source\bsw\TraceRecorder/trcStreamingRecorder.c **** 	PSF_ASSERT(eventID < 4096, PSF_ERROR_EVENT_CODE_TOO_LARGE);
ARM GAS  C:\Users\robom\AppData\Local\Temp\ccqs2S2W.s 			page 19


1001:source\bsw\TraceRecorder/trcStreamingRecorder.c **** 
1002:source\bsw\TraceRecorder/trcStreamingRecorder.c **** 	TRACE_ENTER_CRITICAL_SECTION();
1003:source\bsw\TraceRecorder/trcStreamingRecorder.c **** 
1004:source\bsw\TraceRecorder/trcStreamingRecorder.c **** 	if (RecorderEnabled)
1005:source\bsw\TraceRecorder/trcStreamingRecorder.c **** 	{
1006:source\bsw\TraceRecorder/trcStreamingRecorder.c **** 		eventCounter++;
1007:source\bsw\TraceRecorder/trcStreamingRecorder.c **** 
1008:source\bsw\TraceRecorder/trcStreamingRecorder.c **** 		{
1009:source\bsw\TraceRecorder/trcStreamingRecorder.c **** 			TRC_STREAM_PORT_ALLOCATE_EVENT(EventWithParam_2, event, sizeof(EventWithParam_2));
1010:source\bsw\TraceRecorder/trcStreamingRecorder.c **** 			if (event != NULL)
1011:source\bsw\TraceRecorder/trcStreamingRecorder.c **** 			{
1012:source\bsw\TraceRecorder/trcStreamingRecorder.c **** 				event->base.EventID = eventID | PARAM_COUNT(2);
1013:source\bsw\TraceRecorder/trcStreamingRecorder.c **** 				event->base.EventCount = (uint16_t)eventCounter;
1014:source\bsw\TraceRecorder/trcStreamingRecorder.c **** 				event->base.TS = prvGetTimestamp32();
1015:source\bsw\TraceRecorder/trcStreamingRecorder.c **** 				event->param1 = (uint32_t)param1;
1016:source\bsw\TraceRecorder/trcStreamingRecorder.c **** 				event->param2 = param2;
1017:source\bsw\TraceRecorder/trcStreamingRecorder.c **** 				TRC_STREAM_PORT_COMMIT_EVENT(event, sizeof(EventWithParam_2));
1018:source\bsw\TraceRecorder/trcStreamingRecorder.c **** 			}
1019:source\bsw\TraceRecorder/trcStreamingRecorder.c **** 		}
1020:source\bsw\TraceRecorder/trcStreamingRecorder.c **** 	}
1021:source\bsw\TraceRecorder/trcStreamingRecorder.c **** 	TRACE_EXIT_CRITICAL_SECTION();
1022:source\bsw\TraceRecorder/trcStreamingRecorder.c **** }
1023:source\bsw\TraceRecorder/trcStreamingRecorder.c **** 
1024:source\bsw\TraceRecorder/trcStreamingRecorder.c **** /* Store an event with three 32-bit parameters */
1025:source\bsw\TraceRecorder/trcStreamingRecorder.c **** void prvTraceStoreEvent3(	uint16_t eventID,
1026:source\bsw\TraceRecorder/trcStreamingRecorder.c **** 						uint32_t param1,
1027:source\bsw\TraceRecorder/trcStreamingRecorder.c **** 						uint32_t param2,
1028:source\bsw\TraceRecorder/trcStreamingRecorder.c **** 						uint32_t param3)
1029:source\bsw\TraceRecorder/trcStreamingRecorder.c **** {
1030:source\bsw\TraceRecorder/trcStreamingRecorder.c ****   	TRACE_ALLOC_CRITICAL_SECTION();
1031:source\bsw\TraceRecorder/trcStreamingRecorder.c **** 
1032:source\bsw\TraceRecorder/trcStreamingRecorder.c **** 	PSF_ASSERT(eventID < 4096, PSF_ERROR_EVENT_CODE_TOO_LARGE);
1033:source\bsw\TraceRecorder/trcStreamingRecorder.c **** 
1034:source\bsw\TraceRecorder/trcStreamingRecorder.c **** 	TRACE_ENTER_CRITICAL_SECTION();
1035:source\bsw\TraceRecorder/trcStreamingRecorder.c **** 
1036:source\bsw\TraceRecorder/trcStreamingRecorder.c **** 	if (RecorderEnabled)
1037:source\bsw\TraceRecorder/trcStreamingRecorder.c **** 	{
1038:source\bsw\TraceRecorder/trcStreamingRecorder.c ****   		eventCounter++;
1039:source\bsw\TraceRecorder/trcStreamingRecorder.c **** 
1040:source\bsw\TraceRecorder/trcStreamingRecorder.c **** 		{
1041:source\bsw\TraceRecorder/trcStreamingRecorder.c **** 			TRC_STREAM_PORT_ALLOCATE_EVENT(EventWithParam_3, event, sizeof(EventWithParam_3));
1042:source\bsw\TraceRecorder/trcStreamingRecorder.c **** 			if (event != NULL)
1043:source\bsw\TraceRecorder/trcStreamingRecorder.c **** 			{
1044:source\bsw\TraceRecorder/trcStreamingRecorder.c **** 				event->base.EventID = eventID | PARAM_COUNT(3);
1045:source\bsw\TraceRecorder/trcStreamingRecorder.c **** 				event->base.EventCount = (uint16_t)eventCounter;
1046:source\bsw\TraceRecorder/trcStreamingRecorder.c **** 				event->base.TS = prvGetTimestamp32();
1047:source\bsw\TraceRecorder/trcStreamingRecorder.c **** 				event->param1 = (uint32_t)param1;
1048:source\bsw\TraceRecorder/trcStreamingRecorder.c **** 				event->param2 = param2;
1049:source\bsw\TraceRecorder/trcStreamingRecorder.c **** 				event->param3 = param3;
1050:source\bsw\TraceRecorder/trcStreamingRecorder.c **** 				TRC_STREAM_PORT_COMMIT_EVENT(event, sizeof(EventWithParam_3));
1051:source\bsw\TraceRecorder/trcStreamingRecorder.c **** 			}
1052:source\bsw\TraceRecorder/trcStreamingRecorder.c **** 		}
1053:source\bsw\TraceRecorder/trcStreamingRecorder.c **** 	}
1054:source\bsw\TraceRecorder/trcStreamingRecorder.c **** 	TRACE_EXIT_CRITICAL_SECTION();
1055:source\bsw\TraceRecorder/trcStreamingRecorder.c **** }
1056:source\bsw\TraceRecorder/trcStreamingRecorder.c **** 
1057:source\bsw\TraceRecorder/trcStreamingRecorder.c **** /* Stores an event with <nParam> 32-bit integer parameters */
ARM GAS  C:\Users\robom\AppData\Local\Temp\ccqs2S2W.s 			page 20


1058:source\bsw\TraceRecorder/trcStreamingRecorder.c **** void prvTraceStoreEvent(int nParam, uint16_t eventID, ...)
1059:source\bsw\TraceRecorder/trcStreamingRecorder.c **** {
1060:source\bsw\TraceRecorder/trcStreamingRecorder.c **** 	va_list vl;
1061:source\bsw\TraceRecorder/trcStreamingRecorder.c **** 	int i;
1062:source\bsw\TraceRecorder/trcStreamingRecorder.c ****     TRACE_ALLOC_CRITICAL_SECTION();
1063:source\bsw\TraceRecorder/trcStreamingRecorder.c **** 
1064:source\bsw\TraceRecorder/trcStreamingRecorder.c **** 	PSF_ASSERT(eventID < 4096, PSF_ERROR_EVENT_CODE_TOO_LARGE);
1065:source\bsw\TraceRecorder/trcStreamingRecorder.c **** 
1066:source\bsw\TraceRecorder/trcStreamingRecorder.c **** 	TRACE_ENTER_CRITICAL_SECTION();
1067:source\bsw\TraceRecorder/trcStreamingRecorder.c **** 
1068:source\bsw\TraceRecorder/trcStreamingRecorder.c **** 	if (RecorderEnabled)
1069:source\bsw\TraceRecorder/trcStreamingRecorder.c **** 	{
1070:source\bsw\TraceRecorder/trcStreamingRecorder.c **** 	  	int eventSize = (int)sizeof(BaseEvent) + nParam * (int)sizeof(uint32_t);
1071:source\bsw\TraceRecorder/trcStreamingRecorder.c **** 
1072:source\bsw\TraceRecorder/trcStreamingRecorder.c **** 		eventCounter++;
1073:source\bsw\TraceRecorder/trcStreamingRecorder.c **** 
1074:source\bsw\TraceRecorder/trcStreamingRecorder.c **** 		{
1075:source\bsw\TraceRecorder/trcStreamingRecorder.c **** 			TRC_STREAM_PORT_ALLOCATE_DYNAMIC_EVENT(largestEventType, event, eventSize);
1076:source\bsw\TraceRecorder/trcStreamingRecorder.c **** 			if (event != NULL)
1077:source\bsw\TraceRecorder/trcStreamingRecorder.c **** 			{
1078:source\bsw\TraceRecorder/trcStreamingRecorder.c **** 				event->base.EventID = eventID | (uint16_t)PARAM_COUNT(nParam);
1079:source\bsw\TraceRecorder/trcStreamingRecorder.c **** 				event->base.EventCount = (uint16_t)eventCounter;
1080:source\bsw\TraceRecorder/trcStreamingRecorder.c **** 				event->base.TS = prvGetTimestamp32();
1081:source\bsw\TraceRecorder/trcStreamingRecorder.c **** 
1082:source\bsw\TraceRecorder/trcStreamingRecorder.c **** 				va_start(vl, eventID);
1083:source\bsw\TraceRecorder/trcStreamingRecorder.c **** 				for (i = 0; i < nParam; i++)
1084:source\bsw\TraceRecorder/trcStreamingRecorder.c **** 				{
1085:source\bsw\TraceRecorder/trcStreamingRecorder.c **** 					uint32_t* tmp = (uint32_t*) &(event->data[i]);
1086:source\bsw\TraceRecorder/trcStreamingRecorder.c **** 					*tmp = va_arg(vl, uint32_t);
1087:source\bsw\TraceRecorder/trcStreamingRecorder.c **** 				}
1088:source\bsw\TraceRecorder/trcStreamingRecorder.c **** 				va_end(vl);
1089:source\bsw\TraceRecorder/trcStreamingRecorder.c **** 
1090:source\bsw\TraceRecorder/trcStreamingRecorder.c **** 				TRC_STREAM_PORT_COMMIT_EVENT(event, (uint32_t)eventSize);
1091:source\bsw\TraceRecorder/trcStreamingRecorder.c **** 			}
1092:source\bsw\TraceRecorder/trcStreamingRecorder.c **** 		}
1093:source\bsw\TraceRecorder/trcStreamingRecorder.c **** 	}
1094:source\bsw\TraceRecorder/trcStreamingRecorder.c **** 	TRACE_EXIT_CRITICAL_SECTION();
1095:source\bsw\TraceRecorder/trcStreamingRecorder.c **** }
1096:source\bsw\TraceRecorder/trcStreamingRecorder.c **** 
1097:source\bsw\TraceRecorder/trcStreamingRecorder.c **** /* Stories an event with a string and <nParam> 32-bit integer parameters */
1098:source\bsw\TraceRecorder/trcStreamingRecorder.c **** void prvTraceStoreStringEvent(int nArgs, uint16_t eventID, const char* str, ...)
1099:source\bsw\TraceRecorder/trcStreamingRecorder.c **** {
1100:source\bsw\TraceRecorder/trcStreamingRecorder.c **** 	int len;
1101:source\bsw\TraceRecorder/trcStreamingRecorder.c ****   	va_list vl;
1102:source\bsw\TraceRecorder/trcStreamingRecorder.c **** 
1103:source\bsw\TraceRecorder/trcStreamingRecorder.c **** 	for (len = 0; (str[len] != 0) && (len < 52); len++); /* empty loop */
1104:source\bsw\TraceRecorder/trcStreamingRecorder.c **** 
1105:source\bsw\TraceRecorder/trcStreamingRecorder.c **** 	va_start(vl, str);
1106:source\bsw\TraceRecorder/trcStreamingRecorder.c **** 	prvTraceStoreStringEventHelper(nArgs, eventID, NULL, len, str, &vl);
1107:source\bsw\TraceRecorder/trcStreamingRecorder.c **** 	va_end(vl);
1108:source\bsw\TraceRecorder/trcStreamingRecorder.c **** }
1109:source\bsw\TraceRecorder/trcStreamingRecorder.c **** 
1110:source\bsw\TraceRecorder/trcStreamingRecorder.c **** /* Internal common function for storing string events */
1111:source\bsw\TraceRecorder/trcStreamingRecorder.c **** static void prvTraceStoreStringEventHelper(int nArgs,
1112:source\bsw\TraceRecorder/trcStreamingRecorder.c **** 										uint16_t eventID,
1113:source\bsw\TraceRecorder/trcStreamingRecorder.c **** 										traceString userEvtChannel,
1114:source\bsw\TraceRecorder/trcStreamingRecorder.c **** 										int len,
ARM GAS  C:\Users\robom\AppData\Local\Temp\ccqs2S2W.s 			page 21


1115:source\bsw\TraceRecorder/trcStreamingRecorder.c **** 										const char* str,
1116:source\bsw\TraceRecorder/trcStreamingRecorder.c **** 										va_list* vl)
1117:source\bsw\TraceRecorder/trcStreamingRecorder.c **** {
1118:source\bsw\TraceRecorder/trcStreamingRecorder.c ****   	int nWords;
1119:source\bsw\TraceRecorder/trcStreamingRecorder.c **** 	int nStrWords;
1120:source\bsw\TraceRecorder/trcStreamingRecorder.c **** 	int i;
1121:source\bsw\TraceRecorder/trcStreamingRecorder.c **** 	int offset = 0;
1122:source\bsw\TraceRecorder/trcStreamingRecorder.c ****   	TRACE_ALLOC_CRITICAL_SECTION();
1123:source\bsw\TraceRecorder/trcStreamingRecorder.c **** 
1124:source\bsw\TraceRecorder/trcStreamingRecorder.c **** 	PSF_ASSERT(eventID < 4096, PSF_ERROR_EVENT_CODE_TOO_LARGE);
1125:source\bsw\TraceRecorder/trcStreamingRecorder.c **** 	
1126:source\bsw\TraceRecorder/trcStreamingRecorder.c **** 	/* The string length in multiples of 32 bit words (+1 for null character) */
1127:source\bsw\TraceRecorder/trcStreamingRecorder.c **** 	nStrWords = (len+1+3)/4;
1128:source\bsw\TraceRecorder/trcStreamingRecorder.c **** 
1129:source\bsw\TraceRecorder/trcStreamingRecorder.c **** 	/* If a user event channel is specified, add in the list */
1130:source\bsw\TraceRecorder/trcStreamingRecorder.c **** 	if (userEvtChannel)
1131:source\bsw\TraceRecorder/trcStreamingRecorder.c **** 		nArgs++;
1132:source\bsw\TraceRecorder/trcStreamingRecorder.c **** 
1133:source\bsw\TraceRecorder/trcStreamingRecorder.c **** 	offset = nArgs * 4;
1134:source\bsw\TraceRecorder/trcStreamingRecorder.c **** 
1135:source\bsw\TraceRecorder/trcStreamingRecorder.c **** 	/* The total number of 32-bit words needed for the whole payload */
1136:source\bsw\TraceRecorder/trcStreamingRecorder.c **** 	nWords = nStrWords + nArgs;
1137:source\bsw\TraceRecorder/trcStreamingRecorder.c **** 
1138:source\bsw\TraceRecorder/trcStreamingRecorder.c **** 	if (nWords > 15) /* if attempting to store more than 60 byte (= max) */
1139:source\bsw\TraceRecorder/trcStreamingRecorder.c **** 	{
1140:source\bsw\TraceRecorder/trcStreamingRecorder.c **** 		/* Truncate event if too large. The	string characters are stored
1141:source\bsw\TraceRecorder/trcStreamingRecorder.c **** 		last, so usually only the string is truncated, unless there a lot
1142:source\bsw\TraceRecorder/trcStreamingRecorder.c **** 		of parameters... */
1143:source\bsw\TraceRecorder/trcStreamingRecorder.c **** 
1144:source\bsw\TraceRecorder/trcStreamingRecorder.c **** 		/* Diagnostics ... */
1145:source\bsw\TraceRecorder/trcStreamingRecorder.c **** 		uint32_t bytesTruncated = (uint32_t)(nWords - 15) * 4;
1146:source\bsw\TraceRecorder/trcStreamingRecorder.c **** 
1147:source\bsw\TraceRecorder/trcStreamingRecorder.c **** 		if (bytesTruncated > MaxBytesTruncated)
1148:source\bsw\TraceRecorder/trcStreamingRecorder.c **** 		{
1149:source\bsw\TraceRecorder/trcStreamingRecorder.c **** 			MaxBytesTruncated = bytesTruncated;
1150:source\bsw\TraceRecorder/trcStreamingRecorder.c **** 		}
1151:source\bsw\TraceRecorder/trcStreamingRecorder.c **** 
1152:source\bsw\TraceRecorder/trcStreamingRecorder.c **** 		nWords = 15;
1153:source\bsw\TraceRecorder/trcStreamingRecorder.c **** 		len = 15 * 4 - offset;
1154:source\bsw\TraceRecorder/trcStreamingRecorder.c **** 	}
1155:source\bsw\TraceRecorder/trcStreamingRecorder.c **** 
1156:source\bsw\TraceRecorder/trcStreamingRecorder.c **** 	TRACE_ENTER_CRITICAL_SECTION();
1157:source\bsw\TraceRecorder/trcStreamingRecorder.c **** 
1158:source\bsw\TraceRecorder/trcStreamingRecorder.c **** 	if (RecorderEnabled)
1159:source\bsw\TraceRecorder/trcStreamingRecorder.c **** 	{
1160:source\bsw\TraceRecorder/trcStreamingRecorder.c **** 		int eventSize = (int)sizeof(BaseEvent) + nWords * (int)sizeof(uint32_t);
1161:source\bsw\TraceRecorder/trcStreamingRecorder.c **** 
1162:source\bsw\TraceRecorder/trcStreamingRecorder.c **** 		eventCounter++;
1163:source\bsw\TraceRecorder/trcStreamingRecorder.c **** 
1164:source\bsw\TraceRecorder/trcStreamingRecorder.c **** 		{
1165:source\bsw\TraceRecorder/trcStreamingRecorder.c **** 			TRC_STREAM_PORT_ALLOCATE_DYNAMIC_EVENT(largestEventType, event, eventSize);
1166:source\bsw\TraceRecorder/trcStreamingRecorder.c **** 			if (event != NULL)
1167:source\bsw\TraceRecorder/trcStreamingRecorder.c **** 			{
1168:source\bsw\TraceRecorder/trcStreamingRecorder.c **** 				uint32_t* data32;
1169:source\bsw\TraceRecorder/trcStreamingRecorder.c **** 				uint8_t* data8;
1170:source\bsw\TraceRecorder/trcStreamingRecorder.c **** 				event->base.EventID = (eventID) | (uint16_t)PARAM_COUNT(nWords);
1171:source\bsw\TraceRecorder/trcStreamingRecorder.c **** 				event->base.EventCount = (uint16_t)eventCounter;
ARM GAS  C:\Users\robom\AppData\Local\Temp\ccqs2S2W.s 			page 22


1172:source\bsw\TraceRecorder/trcStreamingRecorder.c **** 				event->base.TS = prvGetTimestamp32();
1173:source\bsw\TraceRecorder/trcStreamingRecorder.c **** 
1174:source\bsw\TraceRecorder/trcStreamingRecorder.c **** 				/* 32-bit write-pointer for the data argument */
1175:source\bsw\TraceRecorder/trcStreamingRecorder.c **** 				data32 = (uint32_t*) &(event->data[0]);
1176:source\bsw\TraceRecorder/trcStreamingRecorder.c **** 
1177:source\bsw\TraceRecorder/trcStreamingRecorder.c **** 				for (i = 0; i < nArgs; i++)
1178:source\bsw\TraceRecorder/trcStreamingRecorder.c **** 				{
1179:source\bsw\TraceRecorder/trcStreamingRecorder.c **** 					if ((userEvtChannel != NULL) && (i == 0))
1180:source\bsw\TraceRecorder/trcStreamingRecorder.c **** 					{
1181:source\bsw\TraceRecorder/trcStreamingRecorder.c **** 						/* First, add the User Event Channel if not NULL */
1182:source\bsw\TraceRecorder/trcStreamingRecorder.c **** 						data32[i] = (uint32_t)userEvtChannel;
1183:source\bsw\TraceRecorder/trcStreamingRecorder.c **** 					}
1184:source\bsw\TraceRecorder/trcStreamingRecorder.c **** 					else
1185:source\bsw\TraceRecorder/trcStreamingRecorder.c **** 					{
1186:source\bsw\TraceRecorder/trcStreamingRecorder.c **** 						/* Add data arguments... */
1187:source\bsw\TraceRecorder/trcStreamingRecorder.c **** 						data32[i] = va_arg(*vl, uint32_t);
1188:source\bsw\TraceRecorder/trcStreamingRecorder.c **** 					}
1189:source\bsw\TraceRecorder/trcStreamingRecorder.c **** 				}
1190:source\bsw\TraceRecorder/trcStreamingRecorder.c **** 				data8 = (uint8_t*)&(event->data[0]);
1191:source\bsw\TraceRecorder/trcStreamingRecorder.c **** 				for (i = 0; i < len; i++)
1192:source\bsw\TraceRecorder/trcStreamingRecorder.c **** 				{
1193:source\bsw\TraceRecorder/trcStreamingRecorder.c **** 					data8[offset + i] = str[i];
1194:source\bsw\TraceRecorder/trcStreamingRecorder.c **** 				}
1195:source\bsw\TraceRecorder/trcStreamingRecorder.c **** 
1196:source\bsw\TraceRecorder/trcStreamingRecorder.c **** 				if (len < (15 * 4 - offset))
1197:source\bsw\TraceRecorder/trcStreamingRecorder.c **** 					data8[offset + len] = 0;	/* Only truncate if we don't fill up the buffer completely */
1198:source\bsw\TraceRecorder/trcStreamingRecorder.c **** 				TRC_STREAM_PORT_COMMIT_EVENT(event, (uint32_t)eventSize);
1199:source\bsw\TraceRecorder/trcStreamingRecorder.c **** 			}
1200:source\bsw\TraceRecorder/trcStreamingRecorder.c **** 		}
1201:source\bsw\TraceRecorder/trcStreamingRecorder.c **** 	}
1202:source\bsw\TraceRecorder/trcStreamingRecorder.c **** 	
1203:source\bsw\TraceRecorder/trcStreamingRecorder.c **** 	TRACE_EXIT_CRITICAL_SECTION();
1204:source\bsw\TraceRecorder/trcStreamingRecorder.c **** }
1205:source\bsw\TraceRecorder/trcStreamingRecorder.c **** 
1206:source\bsw\TraceRecorder/trcStreamingRecorder.c **** /* Internal common function for storing string events without additional arguments */
1207:source\bsw\TraceRecorder/trcStreamingRecorder.c **** void prvTraceStoreSimpleStringEventHelper(traceString userEvtChannel,
1208:source\bsw\TraceRecorder/trcStreamingRecorder.c **** 													const char* str)
1209:source\bsw\TraceRecorder/trcStreamingRecorder.c **** {
1210:source\bsw\TraceRecorder/trcStreamingRecorder.c **** 	int len;
1211:source\bsw\TraceRecorder/trcStreamingRecorder.c ****   	int nWords;
1212:source\bsw\TraceRecorder/trcStreamingRecorder.c **** 	int nStrWords;
1213:source\bsw\TraceRecorder/trcStreamingRecorder.c **** 	int i;
1214:source\bsw\TraceRecorder/trcStreamingRecorder.c **** 	int nArgs = 0;
1215:source\bsw\TraceRecorder/trcStreamingRecorder.c **** 	int offset = 0;
1216:source\bsw\TraceRecorder/trcStreamingRecorder.c **** 	uint16_t eventID = PSF_EVENT_USER_EVENT;
1217:source\bsw\TraceRecorder/trcStreamingRecorder.c ****   	TRACE_ALLOC_CRITICAL_SECTION();
1218:source\bsw\TraceRecorder/trcStreamingRecorder.c **** 
1219:source\bsw\TraceRecorder/trcStreamingRecorder.c **** 	PSF_ASSERT(eventID < 4096, PSF_ERROR_EVENT_CODE_TOO_LARGE);
1220:source\bsw\TraceRecorder/trcStreamingRecorder.c **** 
1221:source\bsw\TraceRecorder/trcStreamingRecorder.c **** 	for (len = 0; (str[len] != 0) && (len < 52); len++); /* empty loop */
1222:source\bsw\TraceRecorder/trcStreamingRecorder.c **** 	
1223:source\bsw\TraceRecorder/trcStreamingRecorder.c **** 	/* The string length in multiples of 32 bit words (+1 for null character) */
1224:source\bsw\TraceRecorder/trcStreamingRecorder.c **** 	nStrWords = (len+1+3)/4;
1225:source\bsw\TraceRecorder/trcStreamingRecorder.c **** 
1226:source\bsw\TraceRecorder/trcStreamingRecorder.c **** 	/* If a user event channel is specified, add in the list */
1227:source\bsw\TraceRecorder/trcStreamingRecorder.c **** 	if (userEvtChannel)
1228:source\bsw\TraceRecorder/trcStreamingRecorder.c **** 	{
ARM GAS  C:\Users\robom\AppData\Local\Temp\ccqs2S2W.s 			page 23


1229:source\bsw\TraceRecorder/trcStreamingRecorder.c **** 		nArgs++;
1230:source\bsw\TraceRecorder/trcStreamingRecorder.c **** 		eventID++;
1231:source\bsw\TraceRecorder/trcStreamingRecorder.c **** 	}
1232:source\bsw\TraceRecorder/trcStreamingRecorder.c **** 
1233:source\bsw\TraceRecorder/trcStreamingRecorder.c **** 	offset = nArgs * 4;
1234:source\bsw\TraceRecorder/trcStreamingRecorder.c **** 
1235:source\bsw\TraceRecorder/trcStreamingRecorder.c **** 	/* The total number of 32-bit words needed for the whole payload */
1236:source\bsw\TraceRecorder/trcStreamingRecorder.c **** 	nWords = nStrWords + nArgs;
1237:source\bsw\TraceRecorder/trcStreamingRecorder.c **** 
1238:source\bsw\TraceRecorder/trcStreamingRecorder.c **** 	if (nWords > 15) /* if attempting to store more than 60 byte (= max) */
1239:source\bsw\TraceRecorder/trcStreamingRecorder.c **** 	{
1240:source\bsw\TraceRecorder/trcStreamingRecorder.c **** 		/* Truncate event if too large. The	string characters are stored
1241:source\bsw\TraceRecorder/trcStreamingRecorder.c **** 		last, so usually only the string is truncated, unless there a lot
1242:source\bsw\TraceRecorder/trcStreamingRecorder.c **** 		of parameters... */
1243:source\bsw\TraceRecorder/trcStreamingRecorder.c **** 
1244:source\bsw\TraceRecorder/trcStreamingRecorder.c **** 		/* Diagnostics ... */
1245:source\bsw\TraceRecorder/trcStreamingRecorder.c **** 		uint32_t bytesTruncated = (uint32_t)(nWords - 15) * 4;
1246:source\bsw\TraceRecorder/trcStreamingRecorder.c **** 
1247:source\bsw\TraceRecorder/trcStreamingRecorder.c **** 		if (bytesTruncated > MaxBytesTruncated)
1248:source\bsw\TraceRecorder/trcStreamingRecorder.c **** 		{
1249:source\bsw\TraceRecorder/trcStreamingRecorder.c **** 			MaxBytesTruncated = bytesTruncated;
1250:source\bsw\TraceRecorder/trcStreamingRecorder.c **** 		}
1251:source\bsw\TraceRecorder/trcStreamingRecorder.c **** 
1252:source\bsw\TraceRecorder/trcStreamingRecorder.c **** 		nWords = 15;
1253:source\bsw\TraceRecorder/trcStreamingRecorder.c **** 		len = 15 * 4 - offset;
1254:source\bsw\TraceRecorder/trcStreamingRecorder.c **** 	}
1255:source\bsw\TraceRecorder/trcStreamingRecorder.c **** 
1256:source\bsw\TraceRecorder/trcStreamingRecorder.c **** 	TRACE_ENTER_CRITICAL_SECTION();
1257:source\bsw\TraceRecorder/trcStreamingRecorder.c **** 
1258:source\bsw\TraceRecorder/trcStreamingRecorder.c **** 	if (RecorderEnabled)
1259:source\bsw\TraceRecorder/trcStreamingRecorder.c **** 	{
1260:source\bsw\TraceRecorder/trcStreamingRecorder.c **** 		int eventSize = (int)sizeof(BaseEvent) + nWords * (int)sizeof(uint32_t);
1261:source\bsw\TraceRecorder/trcStreamingRecorder.c **** 
1262:source\bsw\TraceRecorder/trcStreamingRecorder.c **** 		eventCounter++;
1263:source\bsw\TraceRecorder/trcStreamingRecorder.c **** 
1264:source\bsw\TraceRecorder/trcStreamingRecorder.c **** 		{
1265:source\bsw\TraceRecorder/trcStreamingRecorder.c **** 			TRC_STREAM_PORT_ALLOCATE_DYNAMIC_EVENT(largestEventType, event, eventSize);
1266:source\bsw\TraceRecorder/trcStreamingRecorder.c **** 			if (event != NULL)
1267:source\bsw\TraceRecorder/trcStreamingRecorder.c **** 			{
1268:source\bsw\TraceRecorder/trcStreamingRecorder.c **** 				uint32_t* data32;
1269:source\bsw\TraceRecorder/trcStreamingRecorder.c **** 				uint8_t* data8;
1270:source\bsw\TraceRecorder/trcStreamingRecorder.c **** 				event->base.EventID = (eventID) | (uint16_t)PARAM_COUNT(nWords);
1271:source\bsw\TraceRecorder/trcStreamingRecorder.c **** 				event->base.EventCount = (uint16_t)eventCounter;
1272:source\bsw\TraceRecorder/trcStreamingRecorder.c **** 				event->base.TS = prvGetTimestamp32();
1273:source\bsw\TraceRecorder/trcStreamingRecorder.c **** 
1274:source\bsw\TraceRecorder/trcStreamingRecorder.c **** 				/* 32-bit write-pointer for the data argument */
1275:source\bsw\TraceRecorder/trcStreamingRecorder.c **** 				data32 = (uint32_t*) &(event->data[0]);
1276:source\bsw\TraceRecorder/trcStreamingRecorder.c **** 
1277:source\bsw\TraceRecorder/trcStreamingRecorder.c **** 				if (userEvtChannel != NULL)
1278:source\bsw\TraceRecorder/trcStreamingRecorder.c **** 				{
1279:source\bsw\TraceRecorder/trcStreamingRecorder.c **** 					/* First, add the User Event Channel if not NULL */
1280:source\bsw\TraceRecorder/trcStreamingRecorder.c **** 					data32[0] = (uint32_t)userEvtChannel;
1281:source\bsw\TraceRecorder/trcStreamingRecorder.c **** 				}
1282:source\bsw\TraceRecorder/trcStreamingRecorder.c **** 
1283:source\bsw\TraceRecorder/trcStreamingRecorder.c **** 				data8 = (uint8_t*) &(event->data[0]);
1284:source\bsw\TraceRecorder/trcStreamingRecorder.c **** 				for (i = 0; i < len; i++)
1285:source\bsw\TraceRecorder/trcStreamingRecorder.c **** 				{
ARM GAS  C:\Users\robom\AppData\Local\Temp\ccqs2S2W.s 			page 24


1286:source\bsw\TraceRecorder/trcStreamingRecorder.c **** 					data8[offset + i] = str[i];
1287:source\bsw\TraceRecorder/trcStreamingRecorder.c **** 				}
1288:source\bsw\TraceRecorder/trcStreamingRecorder.c **** 
1289:source\bsw\TraceRecorder/trcStreamingRecorder.c **** 				if (len < (15 * 4 - offset))
1290:source\bsw\TraceRecorder/trcStreamingRecorder.c **** 					data8[offset + len] = 0;	/* Only truncate if we don't fill up the buffer completely */
1291:source\bsw\TraceRecorder/trcStreamingRecorder.c **** 				TRC_STREAM_PORT_COMMIT_EVENT(event, (uint32_t)eventSize);
1292:source\bsw\TraceRecorder/trcStreamingRecorder.c **** 			}
1293:source\bsw\TraceRecorder/trcStreamingRecorder.c **** 		}
1294:source\bsw\TraceRecorder/trcStreamingRecorder.c **** 	}
1295:source\bsw\TraceRecorder/trcStreamingRecorder.c **** 	
1296:source\bsw\TraceRecorder/trcStreamingRecorder.c **** 	TRACE_EXIT_CRITICAL_SECTION();
1297:source\bsw\TraceRecorder/trcStreamingRecorder.c **** }
1298:source\bsw\TraceRecorder/trcStreamingRecorder.c **** 
1299:source\bsw\TraceRecorder/trcStreamingRecorder.c **** /* Saves a symbol name (task name etc.) in symbol table */
1300:source\bsw\TraceRecorder/trcStreamingRecorder.c **** void prvTraceSaveSymbol(const void *address, const char *name)
1301:source\bsw\TraceRecorder/trcStreamingRecorder.c **** {
1302:source\bsw\TraceRecorder/trcStreamingRecorder.c **** 	uint32_t i;
1303:source\bsw\TraceRecorder/trcStreamingRecorder.c **** 	uint32_t foundSlot;
1304:source\bsw\TraceRecorder/trcStreamingRecorder.c **** 	uint32_t *ptrAddress;
1305:source\bsw\TraceRecorder/trcStreamingRecorder.c **** 	uint8_t *ptrSymbol;
1306:source\bsw\TraceRecorder/trcStreamingRecorder.c **** 	TRACE_ALLOC_CRITICAL_SECTION();
1307:source\bsw\TraceRecorder/trcStreamingRecorder.c **** 
1308:source\bsw\TraceRecorder/trcStreamingRecorder.c **** 	TRACE_ENTER_CRITICAL_SECTION();
1309:source\bsw\TraceRecorder/trcStreamingRecorder.c **** 	
1310:source\bsw\TraceRecorder/trcStreamingRecorder.c **** 	foundSlot = firstFreeSymbolTableIndex;
1311:source\bsw\TraceRecorder/trcStreamingRecorder.c **** 
1312:source\bsw\TraceRecorder/trcStreamingRecorder.c **** 	/* First look for previous entries using this address */
1313:source\bsw\TraceRecorder/trcStreamingRecorder.c **** 	for (i = 0; i < firstFreeSymbolTableIndex; i += SYMBOL_TABLE_SLOT_SIZE)
1314:source\bsw\TraceRecorder/trcStreamingRecorder.c **** 	{
1315:source\bsw\TraceRecorder/trcStreamingRecorder.c **** 		/* We access the symbol table via the union member pSymbolTableBufferUINT32 to avoid strict-alias
1316:source\bsw\TraceRecorder/trcStreamingRecorder.c **** 		ptrAddress = &symbolTable.SymbolTableBuffer.pSymbolTableBufferUINT32[i / sizeof(uint32_t)];
1317:source\bsw\TraceRecorder/trcStreamingRecorder.c **** 		if (*ptrAddress == (uint32_t)address)
1318:source\bsw\TraceRecorder/trcStreamingRecorder.c **** 		{
1319:source\bsw\TraceRecorder/trcStreamingRecorder.c **** 			foundSlot = i;
1320:source\bsw\TraceRecorder/trcStreamingRecorder.c **** 			break;
1321:source\bsw\TraceRecorder/trcStreamingRecorder.c **** 		}
1322:source\bsw\TraceRecorder/trcStreamingRecorder.c **** 	}
1323:source\bsw\TraceRecorder/trcStreamingRecorder.c **** 
1324:source\bsw\TraceRecorder/trcStreamingRecorder.c **** 	if (foundSlot < SYMBOL_TABLE_BUFFER_SIZE)
1325:source\bsw\TraceRecorder/trcStreamingRecorder.c **** 	{
1326:source\bsw\TraceRecorder/trcStreamingRecorder.c **** 		/* We access the symbol table via the union member pSymbolTableBufferUINT32 to avoid strict-alias
1327:source\bsw\TraceRecorder/trcStreamingRecorder.c **** 		symbolTable.SymbolTableBuffer.pSymbolTableBufferUINT32[foundSlot / sizeof(uint32_t)] = (uint32_t)
1328:source\bsw\TraceRecorder/trcStreamingRecorder.c **** 		
1329:source\bsw\TraceRecorder/trcStreamingRecorder.c **** 		/* We access the symbol table via the union member pSymbolTableBufferUINT8 to avoid strict-aliasi
1330:source\bsw\TraceRecorder/trcStreamingRecorder.c **** 		ptrSymbol = &symbolTable.SymbolTableBuffer.pSymbolTableBufferUINT8[foundSlot + sizeof(uint32_t)];
1331:source\bsw\TraceRecorder/trcStreamingRecorder.c **** 		for (i = 0; i < (TRC_CFG_SYMBOL_MAX_LENGTH); i++)
1332:source\bsw\TraceRecorder/trcStreamingRecorder.c ****         {
1333:source\bsw\TraceRecorder/trcStreamingRecorder.c **** 			ptrSymbol[i] = (uint8_t)name[i];	/* We do this first to ensure we also get the 0 termination, if
1334:source\bsw\TraceRecorder/trcStreamingRecorder.c **** 
1335:source\bsw\TraceRecorder/trcStreamingRecorder.c **** 			if (name[i] == 0)
1336:source\bsw\TraceRecorder/trcStreamingRecorder.c **** 				break;
1337:source\bsw\TraceRecorder/trcStreamingRecorder.c **** 		}
1338:source\bsw\TraceRecorder/trcStreamingRecorder.c **** 
1339:source\bsw\TraceRecorder/trcStreamingRecorder.c **** 		/* Check the length of "name", if longer than SYMBOL_MAX_LENGTH */
1340:source\bsw\TraceRecorder/trcStreamingRecorder.c **** 		while ((name[i] != 0) && i < 128)
1341:source\bsw\TraceRecorder/trcStreamingRecorder.c **** 		{
1342:source\bsw\TraceRecorder/trcStreamingRecorder.c **** 			i++;
ARM GAS  C:\Users\robom\AppData\Local\Temp\ccqs2S2W.s 			page 25


1343:source\bsw\TraceRecorder/trcStreamingRecorder.c **** 		}
1344:source\bsw\TraceRecorder/trcStreamingRecorder.c **** 
1345:source\bsw\TraceRecorder/trcStreamingRecorder.c **** 		/* Remember the longest symbol name, for diagnostic purposes */
1346:source\bsw\TraceRecorder/trcStreamingRecorder.c **** 		if (i > LongestSymbolName)
1347:source\bsw\TraceRecorder/trcStreamingRecorder.c **** 		{
1348:source\bsw\TraceRecorder/trcStreamingRecorder.c **** 			LongestSymbolName = i;
1349:source\bsw\TraceRecorder/trcStreamingRecorder.c **** 		}
1350:source\bsw\TraceRecorder/trcStreamingRecorder.c **** 
1351:source\bsw\TraceRecorder/trcStreamingRecorder.c **** 		/* Is this the last entry in the symbol table? */
1352:source\bsw\TraceRecorder/trcStreamingRecorder.c **** 		if (foundSlot == firstFreeSymbolTableIndex)
1353:source\bsw\TraceRecorder/trcStreamingRecorder.c **** 		{
1354:source\bsw\TraceRecorder/trcStreamingRecorder.c **** 			firstFreeSymbolTableIndex += SYMBOL_TABLE_SLOT_SIZE;
1355:source\bsw\TraceRecorder/trcStreamingRecorder.c **** 		}
1356:source\bsw\TraceRecorder/trcStreamingRecorder.c **** 	}
1357:source\bsw\TraceRecorder/trcStreamingRecorder.c **** 	else
1358:source\bsw\TraceRecorder/trcStreamingRecorder.c **** 	{
1359:source\bsw\TraceRecorder/trcStreamingRecorder.c **** 		NoRoomForSymbol++;
1360:source\bsw\TraceRecorder/trcStreamingRecorder.c **** 	}
1361:source\bsw\TraceRecorder/trcStreamingRecorder.c **** 
1362:source\bsw\TraceRecorder/trcStreamingRecorder.c **** 	TRACE_EXIT_CRITICAL_SECTION();
1363:source\bsw\TraceRecorder/trcStreamingRecorder.c **** }
1364:source\bsw\TraceRecorder/trcStreamingRecorder.c **** 
1365:source\bsw\TraceRecorder/trcStreamingRecorder.c **** /* Deletes a symbol name (task name etc.) from symbol table */
1366:source\bsw\TraceRecorder/trcStreamingRecorder.c **** void prvTraceDeleteSymbol(void *address)
1367:source\bsw\TraceRecorder/trcStreamingRecorder.c **** {
1368:source\bsw\TraceRecorder/trcStreamingRecorder.c **** 	uint32_t i, j;
1369:source\bsw\TraceRecorder/trcStreamingRecorder.c **** 	uint32_t *ptr, *lastEntryPtr;
1370:source\bsw\TraceRecorder/trcStreamingRecorder.c **** 	TRACE_ALLOC_CRITICAL_SECTION();
1371:source\bsw\TraceRecorder/trcStreamingRecorder.c **** 
1372:source\bsw\TraceRecorder/trcStreamingRecorder.c **** 	TRACE_ENTER_CRITICAL_SECTION();
1373:source\bsw\TraceRecorder/trcStreamingRecorder.c **** 
1374:source\bsw\TraceRecorder/trcStreamingRecorder.c **** 	for (i = 0; i < firstFreeSymbolTableIndex; i += SYMBOL_TABLE_SLOT_SIZE)
1375:source\bsw\TraceRecorder/trcStreamingRecorder.c **** 	{
1376:source\bsw\TraceRecorder/trcStreamingRecorder.c **** 		/* We access the symbol table via the union member pSymbolTableBufferUINT32 to avoid strict-alias
1377:source\bsw\TraceRecorder/trcStreamingRecorder.c **** 		ptr = &symbolTable.SymbolTableBuffer.pSymbolTableBufferUINT32[i / sizeof(uint32_t)];
1378:source\bsw\TraceRecorder/trcStreamingRecorder.c **** 		if (*ptr == (uint32_t)address)
1379:source\bsw\TraceRecorder/trcStreamingRecorder.c **** 		{
1380:source\bsw\TraceRecorder/trcStreamingRecorder.c **** 			/* See if we have another entry in the table, and that this isn't already the last entry */
1381:source\bsw\TraceRecorder/trcStreamingRecorder.c **** 			if (firstFreeSymbolTableIndex > SYMBOL_TABLE_SLOT_SIZE && i != (firstFreeSymbolTableIndex - SYMB
1382:source\bsw\TraceRecorder/trcStreamingRecorder.c **** 			{
1383:source\bsw\TraceRecorder/trcStreamingRecorder.c **** 				/* Another entry is available, get pointer to the last one */
1384:source\bsw\TraceRecorder/trcStreamingRecorder.c **** 				/* We access the symbol table via the union member pSymbolTableBufferUINT32 to avoid strict-ali
1385:source\bsw\TraceRecorder/trcStreamingRecorder.c **** 				lastEntryPtr = &symbolTable.SymbolTableBuffer.pSymbolTableBufferUINT32[(firstFreeSymbolTableInd
1386:source\bsw\TraceRecorder/trcStreamingRecorder.c **** 				
1387:source\bsw\TraceRecorder/trcStreamingRecorder.c **** 				/* Copy last entry to this position */
1388:source\bsw\TraceRecorder/trcStreamingRecorder.c **** 				for (j = 0; j < (SYMBOL_TABLE_SLOT_SIZE) / sizeof(uint32_t); j++)
1389:source\bsw\TraceRecorder/trcStreamingRecorder.c **** 				{
1390:source\bsw\TraceRecorder/trcStreamingRecorder.c **** 					ptr[j] = lastEntryPtr[j];
1391:source\bsw\TraceRecorder/trcStreamingRecorder.c **** 				}
1392:source\bsw\TraceRecorder/trcStreamingRecorder.c **** 
1393:source\bsw\TraceRecorder/trcStreamingRecorder.c **** 				/* For good measure we also zero out the original position */
1394:source\bsw\TraceRecorder/trcStreamingRecorder.c **** 				*lastEntryPtr = 0;
1395:source\bsw\TraceRecorder/trcStreamingRecorder.c **** 			}
1396:source\bsw\TraceRecorder/trcStreamingRecorder.c **** 			else
1397:source\bsw\TraceRecorder/trcStreamingRecorder.c **** 				*ptr = 0; /* No other entry found, or this is the last entry */
1398:source\bsw\TraceRecorder/trcStreamingRecorder.c **** 
1399:source\bsw\TraceRecorder/trcStreamingRecorder.c **** 			/* Lower index */
ARM GAS  C:\Users\robom\AppData\Local\Temp\ccqs2S2W.s 			page 26


1400:source\bsw\TraceRecorder/trcStreamingRecorder.c **** 			firstFreeSymbolTableIndex -= SYMBOL_TABLE_SLOT_SIZE;
1401:source\bsw\TraceRecorder/trcStreamingRecorder.c **** 
1402:source\bsw\TraceRecorder/trcStreamingRecorder.c **** 			break;
1403:source\bsw\TraceRecorder/trcStreamingRecorder.c **** 		}
1404:source\bsw\TraceRecorder/trcStreamingRecorder.c **** 	}
1405:source\bsw\TraceRecorder/trcStreamingRecorder.c **** 
1406:source\bsw\TraceRecorder/trcStreamingRecorder.c **** 	TRACE_EXIT_CRITICAL_SECTION();
1407:source\bsw\TraceRecorder/trcStreamingRecorder.c **** }
1408:source\bsw\TraceRecorder/trcStreamingRecorder.c **** 
1409:source\bsw\TraceRecorder/trcStreamingRecorder.c **** /* Saves an object data entry (current task priority) in object data table */
1410:source\bsw\TraceRecorder/trcStreamingRecorder.c **** void prvTraceSaveObjectData(const void *address, uint32_t data)
1411:source\bsw\TraceRecorder/trcStreamingRecorder.c **** {
1412:source\bsw\TraceRecorder/trcStreamingRecorder.c **** 	uint32_t i;
1413:source\bsw\TraceRecorder/trcStreamingRecorder.c **** 	uint32_t foundSlot;
1414:source\bsw\TraceRecorder/trcStreamingRecorder.c **** 	uint32_t *ptr;
1415:source\bsw\TraceRecorder/trcStreamingRecorder.c **** 	TRACE_ALLOC_CRITICAL_SECTION();
1416:source\bsw\TraceRecorder/trcStreamingRecorder.c **** 
1417:source\bsw\TraceRecorder/trcStreamingRecorder.c **** 	TRACE_ENTER_CRITICAL_SECTION();
1418:source\bsw\TraceRecorder/trcStreamingRecorder.c **** 	
1419:source\bsw\TraceRecorder/trcStreamingRecorder.c **** 	foundSlot = firstFreeObjectDataTableIndex;
1420:source\bsw\TraceRecorder/trcStreamingRecorder.c **** 
1421:source\bsw\TraceRecorder/trcStreamingRecorder.c **** 	/* First look for previous entries using this address */
1422:source\bsw\TraceRecorder/trcStreamingRecorder.c **** 	for (i = 0; i < firstFreeObjectDataTableIndex; i += OBJECT_DATA_SLOT_SIZE)
1423:source\bsw\TraceRecorder/trcStreamingRecorder.c **** 	{
1424:source\bsw\TraceRecorder/trcStreamingRecorder.c **** 		/* We access the data table via the union member pObjectDataTableBufferUINT32 to avoid strict-ali
1425:source\bsw\TraceRecorder/trcStreamingRecorder.c **** 		ptr = &objectDataTable.ObjectDataTableBuffer.pObjectDataTableBufferUINT32[i / sizeof(uint32_t)];
1426:source\bsw\TraceRecorder/trcStreamingRecorder.c **** 		if (*ptr == (uint32_t)address)
1427:source\bsw\TraceRecorder/trcStreamingRecorder.c **** 		{
1428:source\bsw\TraceRecorder/trcStreamingRecorder.c **** 			foundSlot = i;
1429:source\bsw\TraceRecorder/trcStreamingRecorder.c **** 			break;
1430:source\bsw\TraceRecorder/trcStreamingRecorder.c **** 		}
1431:source\bsw\TraceRecorder/trcStreamingRecorder.c **** 	}
1432:source\bsw\TraceRecorder/trcStreamingRecorder.c **** 
1433:source\bsw\TraceRecorder/trcStreamingRecorder.c **** 	if (foundSlot < OBJECT_DATA_TABLE_BUFFER_SIZE)
1434:source\bsw\TraceRecorder/trcStreamingRecorder.c **** 	{
1435:source\bsw\TraceRecorder/trcStreamingRecorder.c **** 		/* We access the data table via the union member pObjectDataTableBufferUINT32 to avoid strict-ali
1436:source\bsw\TraceRecorder/trcStreamingRecorder.c **** 		objectDataTable.ObjectDataTableBuffer.pObjectDataTableBufferUINT32[foundSlot / sizeof(uint32_t)] 
1437:source\bsw\TraceRecorder/trcStreamingRecorder.c **** 		objectDataTable.ObjectDataTableBuffer.pObjectDataTableBufferUINT32[foundSlot / sizeof(uint32_t) +
1438:source\bsw\TraceRecorder/trcStreamingRecorder.c **** 
1439:source\bsw\TraceRecorder/trcStreamingRecorder.c **** 		/* Is this the last entry in the object data table? */
1440:source\bsw\TraceRecorder/trcStreamingRecorder.c **** 		if (foundSlot == firstFreeObjectDataTableIndex)
1441:source\bsw\TraceRecorder/trcStreamingRecorder.c **** 		{
1442:source\bsw\TraceRecorder/trcStreamingRecorder.c **** 			firstFreeObjectDataTableIndex += OBJECT_DATA_SLOT_SIZE;
1443:source\bsw\TraceRecorder/trcStreamingRecorder.c **** 		}
1444:source\bsw\TraceRecorder/trcStreamingRecorder.c **** 	}
1445:source\bsw\TraceRecorder/trcStreamingRecorder.c **** 	else
1446:source\bsw\TraceRecorder/trcStreamingRecorder.c **** 	{
1447:source\bsw\TraceRecorder/trcStreamingRecorder.c **** 		NoRoomForObjectData++;
1448:source\bsw\TraceRecorder/trcStreamingRecorder.c **** 	}
1449:source\bsw\TraceRecorder/trcStreamingRecorder.c **** 
1450:source\bsw\TraceRecorder/trcStreamingRecorder.c **** 	TRACE_EXIT_CRITICAL_SECTION();
1451:source\bsw\TraceRecorder/trcStreamingRecorder.c **** }
1452:source\bsw\TraceRecorder/trcStreamingRecorder.c **** 
1453:source\bsw\TraceRecorder/trcStreamingRecorder.c **** /* Removes an object data entry (task base priority) from object data table */
1454:source\bsw\TraceRecorder/trcStreamingRecorder.c **** void prvTraceDeleteObjectData(void *address)
1455:source\bsw\TraceRecorder/trcStreamingRecorder.c **** {
1456:source\bsw\TraceRecorder/trcStreamingRecorder.c **** 	uint32_t i, j;
ARM GAS  C:\Users\robom\AppData\Local\Temp\ccqs2S2W.s 			page 27


1457:source\bsw\TraceRecorder/trcStreamingRecorder.c **** 	uint32_t *ptr, *lastEntryPtr;
1458:source\bsw\TraceRecorder/trcStreamingRecorder.c **** 	TRACE_ALLOC_CRITICAL_SECTION();
1459:source\bsw\TraceRecorder/trcStreamingRecorder.c **** 
1460:source\bsw\TraceRecorder/trcStreamingRecorder.c **** 	TRACE_ENTER_CRITICAL_SECTION();
1461:source\bsw\TraceRecorder/trcStreamingRecorder.c **** 
1462:source\bsw\TraceRecorder/trcStreamingRecorder.c **** 	for (i = 0; i < firstFreeObjectDataTableIndex; i += OBJECT_DATA_SLOT_SIZE)
1463:source\bsw\TraceRecorder/trcStreamingRecorder.c **** 	{
1464:source\bsw\TraceRecorder/trcStreamingRecorder.c **** 		/* We access the data table via the union member pObjectDataTableBufferUINT32 to avoid strict-ali
1465:source\bsw\TraceRecorder/trcStreamingRecorder.c **** 		ptr = &objectDataTable.ObjectDataTableBuffer.pObjectDataTableBufferUINT32[i / sizeof(uint32_t)];
1466:source\bsw\TraceRecorder/trcStreamingRecorder.c **** 		if (*ptr == (uint32_t)address)
1467:source\bsw\TraceRecorder/trcStreamingRecorder.c **** 		{
1468:source\bsw\TraceRecorder/trcStreamingRecorder.c **** 			/* See if we have another entry in the table, and that this isn't already the last entry */
1469:source\bsw\TraceRecorder/trcStreamingRecorder.c **** 			if (firstFreeObjectDataTableIndex > OBJECT_DATA_SLOT_SIZE && i != (firstFreeObjectDataTableIndex
1470:source\bsw\TraceRecorder/trcStreamingRecorder.c **** 			{
1471:source\bsw\TraceRecorder/trcStreamingRecorder.c **** 				/* Another entry is available, get pointer to the last one */
1472:source\bsw\TraceRecorder/trcStreamingRecorder.c **** 				/* We access the data table via the union member pObjectDataTableBufferUINT32 to avoid strict-a
1473:source\bsw\TraceRecorder/trcStreamingRecorder.c **** 				lastEntryPtr = &objectDataTable.ObjectDataTableBuffer.pObjectDataTableBufferUINT32[(firstFreeOb
1474:source\bsw\TraceRecorder/trcStreamingRecorder.c **** 				
1475:source\bsw\TraceRecorder/trcStreamingRecorder.c **** 				/* Copy last entry to this position */
1476:source\bsw\TraceRecorder/trcStreamingRecorder.c **** 				for (j = 0; j < (OBJECT_DATA_SLOT_SIZE) / sizeof(uint32_t); j++)
1477:source\bsw\TraceRecorder/trcStreamingRecorder.c **** 				{
1478:source\bsw\TraceRecorder/trcStreamingRecorder.c **** 					ptr[j] = lastEntryPtr[j];
1479:source\bsw\TraceRecorder/trcStreamingRecorder.c **** 				}
1480:source\bsw\TraceRecorder/trcStreamingRecorder.c **** 
1481:source\bsw\TraceRecorder/trcStreamingRecorder.c **** 				/* For good measure we also zero out the original position */
1482:source\bsw\TraceRecorder/trcStreamingRecorder.c **** 				*lastEntryPtr = 0;
1483:source\bsw\TraceRecorder/trcStreamingRecorder.c **** 			}
1484:source\bsw\TraceRecorder/trcStreamingRecorder.c **** 			else
1485:source\bsw\TraceRecorder/trcStreamingRecorder.c **** 				*ptr = 0; /* No other entry found, or this is the last entry */
1486:source\bsw\TraceRecorder/trcStreamingRecorder.c **** 
1487:source\bsw\TraceRecorder/trcStreamingRecorder.c **** 			/* Lower index */
1488:source\bsw\TraceRecorder/trcStreamingRecorder.c **** 			firstFreeObjectDataTableIndex -= OBJECT_DATA_SLOT_SIZE;
1489:source\bsw\TraceRecorder/trcStreamingRecorder.c **** 
1490:source\bsw\TraceRecorder/trcStreamingRecorder.c **** 			break;
1491:source\bsw\TraceRecorder/trcStreamingRecorder.c **** 		}
1492:source\bsw\TraceRecorder/trcStreamingRecorder.c **** 	}
1493:source\bsw\TraceRecorder/trcStreamingRecorder.c **** 
1494:source\bsw\TraceRecorder/trcStreamingRecorder.c **** 	TRACE_EXIT_CRITICAL_SECTION();
1495:source\bsw\TraceRecorder/trcStreamingRecorder.c **** }
1496:source\bsw\TraceRecorder/trcStreamingRecorder.c **** 
1497:source\bsw\TraceRecorder/trcStreamingRecorder.c **** /* Checks if the provided command is a valid command */
1498:source\bsw\TraceRecorder/trcStreamingRecorder.c **** int prvIsValidCommand(TracealyzerCommandType* cmd)
1499:source\bsw\TraceRecorder/trcStreamingRecorder.c **** {
1500:source\bsw\TraceRecorder/trcStreamingRecorder.c ****   	uint16_t checksum = (uint16_t)(0xFFFF - (	cmd->cmdCode +
1501:source\bsw\TraceRecorder/trcStreamingRecorder.c **** 												cmd->param1 +
1502:source\bsw\TraceRecorder/trcStreamingRecorder.c **** 												cmd->param2 +
1503:source\bsw\TraceRecorder/trcStreamingRecorder.c **** 												cmd->param3 +
1504:source\bsw\TraceRecorder/trcStreamingRecorder.c **** 												cmd->param4 +
1505:source\bsw\TraceRecorder/trcStreamingRecorder.c **** 												cmd->param5));
1506:source\bsw\TraceRecorder/trcStreamingRecorder.c **** 
1507:source\bsw\TraceRecorder/trcStreamingRecorder.c **** 	if (cmd->checksumMSB != (unsigned char)(checksum >> 8))
1508:source\bsw\TraceRecorder/trcStreamingRecorder.c **** 		return 0;
1509:source\bsw\TraceRecorder/trcStreamingRecorder.c **** 
1510:source\bsw\TraceRecorder/trcStreamingRecorder.c **** 	if (cmd->checksumLSB != (unsigned char)(checksum & 0xFF))
1511:source\bsw\TraceRecorder/trcStreamingRecorder.c **** 		return 0;
1512:source\bsw\TraceRecorder/trcStreamingRecorder.c **** 
1513:source\bsw\TraceRecorder/trcStreamingRecorder.c **** 	if (cmd->cmdCode > CMD_LAST_COMMAND)
ARM GAS  C:\Users\robom\AppData\Local\Temp\ccqs2S2W.s 			page 28


1514:source\bsw\TraceRecorder/trcStreamingRecorder.c **** 		return 0;
1515:source\bsw\TraceRecorder/trcStreamingRecorder.c **** 
1516:source\bsw\TraceRecorder/trcStreamingRecorder.c **** 	return 1;
1517:source\bsw\TraceRecorder/trcStreamingRecorder.c **** }
1518:source\bsw\TraceRecorder/trcStreamingRecorder.c **** 
1519:source\bsw\TraceRecorder/trcStreamingRecorder.c **** /* Executed the received command (Start or Stop) */
1520:source\bsw\TraceRecorder/trcStreamingRecorder.c **** void prvProcessCommand(TracealyzerCommandType* cmd)
1521:source\bsw\TraceRecorder/trcStreamingRecorder.c **** {
1522:source\bsw\TraceRecorder/trcStreamingRecorder.c ****   	switch(cmd->cmdCode)
1523:source\bsw\TraceRecorder/trcStreamingRecorder.c **** 	{
1524:source\bsw\TraceRecorder/trcStreamingRecorder.c **** 		case CMD_SET_ACTIVE:
1525:source\bsw\TraceRecorder/trcStreamingRecorder.c **** 		  	prvSetRecorderEnabled(cmd->param1);
1526:source\bsw\TraceRecorder/trcStreamingRecorder.c **** 		  	break;
1527:source\bsw\TraceRecorder/trcStreamingRecorder.c **** 		default:
1528:source\bsw\TraceRecorder/trcStreamingRecorder.c **** 		  	break;
1529:source\bsw\TraceRecorder/trcStreamingRecorder.c **** 	}
1530:source\bsw\TraceRecorder/trcStreamingRecorder.c **** }
1531:source\bsw\TraceRecorder/trcStreamingRecorder.c **** 
1532:source\bsw\TraceRecorder/trcStreamingRecorder.c **** /* Called on warnings, when the recording can continue. */
1533:source\bsw\TraceRecorder/trcStreamingRecorder.c **** void prvTraceWarning(int errCode)
1534:source\bsw\TraceRecorder/trcStreamingRecorder.c **** {
1535:source\bsw\TraceRecorder/trcStreamingRecorder.c **** 	if (!errorCode)
1536:source\bsw\TraceRecorder/trcStreamingRecorder.c **** 	{
1537:source\bsw\TraceRecorder/trcStreamingRecorder.c **** 		errorCode = errCode;
1538:source\bsw\TraceRecorder/trcStreamingRecorder.c **** 		prvTraceStoreWarnings();
1539:source\bsw\TraceRecorder/trcStreamingRecorder.c **** 	}
1540:source\bsw\TraceRecorder/trcStreamingRecorder.c **** }
1541:source\bsw\TraceRecorder/trcStreamingRecorder.c **** 
1542:source\bsw\TraceRecorder/trcStreamingRecorder.c **** /* Called on critical errors in the recorder. Stops the recorder! */
1543:source\bsw\TraceRecorder/trcStreamingRecorder.c **** void prvTraceError(int errCode)
1544:source\bsw\TraceRecorder/trcStreamingRecorder.c **** {
1545:source\bsw\TraceRecorder/trcStreamingRecorder.c **** 	if (! errorCode)
1546:source\bsw\TraceRecorder/trcStreamingRecorder.c **** 	{
1547:source\bsw\TraceRecorder/trcStreamingRecorder.c **** 		errorCode = errCode;
1548:source\bsw\TraceRecorder/trcStreamingRecorder.c **** 		prvTraceStoreWarnings();
1549:source\bsw\TraceRecorder/trcStreamingRecorder.c **** 		vTracePrintF(trcWarningChannel, "Recorder stopped in prvTraceError()");
1550:source\bsw\TraceRecorder/trcStreamingRecorder.c **** 
1551:source\bsw\TraceRecorder/trcStreamingRecorder.c **** 		prvSetRecorderEnabled(0);
1552:source\bsw\TraceRecorder/trcStreamingRecorder.c **** 	}
1553:source\bsw\TraceRecorder/trcStreamingRecorder.c **** }
1554:source\bsw\TraceRecorder/trcStreamingRecorder.c **** 
1555:source\bsw\TraceRecorder/trcStreamingRecorder.c **** /* If using DWT timestamping (default on ARM Cortex-M3, M4 and M7), make sure the DWT unit is initi
1556:source\bsw\TraceRecorder/trcStreamingRecorder.c **** #ifndef TRC_CFG_ARM_CM_USE_SYSTICK
1557:source\bsw\TraceRecorder/trcStreamingRecorder.c **** #if ((TRC_CFG_HARDWARE_PORT == TRC_HARDWARE_PORT_ARM_Cortex_M) && (defined (__CORTEX_M) && (__CORTE
1558:source\bsw\TraceRecorder/trcStreamingRecorder.c **** 
1559:source\bsw\TraceRecorder/trcStreamingRecorder.c **** void prvTraceInitCortexM()
1560:source\bsw\TraceRecorder/trcStreamingRecorder.c **** {
1561:source\bsw\TraceRecorder/trcStreamingRecorder.c **** 	/* Make sure the DWT registers are unlocked, in case the debugger doesn't do this. */
1562:source\bsw\TraceRecorder/trcStreamingRecorder.c **** 	TRC_REG_ITM_LOCKACCESS = TRC_ITM_LOCKACCESS_UNLOCK;
1563:source\bsw\TraceRecorder/trcStreamingRecorder.c **** 
1564:source\bsw\TraceRecorder/trcStreamingRecorder.c **** 	/* Make sure DWT is enabled is enabled, if supported */
1565:source\bsw\TraceRecorder/trcStreamingRecorder.c **** 	TRC_REG_DEMCR |= TRC_DEMCR_TRCENA;
1566:source\bsw\TraceRecorder/trcStreamingRecorder.c **** 
1567:source\bsw\TraceRecorder/trcStreamingRecorder.c **** 	do
1568:source\bsw\TraceRecorder/trcStreamingRecorder.c **** 	{
1569:source\bsw\TraceRecorder/trcStreamingRecorder.c **** 		/* Verify that DWT is supported */
1570:source\bsw\TraceRecorder/trcStreamingRecorder.c **** 		if (TRC_REG_DEMCR == 0)
ARM GAS  C:\Users\robom\AppData\Local\Temp\ccqs2S2W.s 			page 29


1571:source\bsw\TraceRecorder/trcStreamingRecorder.c **** 		{
1572:source\bsw\TraceRecorder/trcStreamingRecorder.c **** 			/* This function is called on Cortex-M3, M4 and M7 devices to initialize
1573:source\bsw\TraceRecorder/trcStreamingRecorder.c **** 			the DWT unit, assumed present. The DWT cycle counter is used for timestamping. 
1574:source\bsw\TraceRecorder/trcStreamingRecorder.c **** 			
1575:source\bsw\TraceRecorder/trcStreamingRecorder.c **** 			If the below error is produced, the DWT unit does not seem to be available.
1576:source\bsw\TraceRecorder/trcStreamingRecorder.c **** 			
1577:source\bsw\TraceRecorder/trcStreamingRecorder.c **** 			In that case, define the macro TRC_CFG_ARM_CM_USE_SYSTICK in your build
1578:source\bsw\TraceRecorder/trcStreamingRecorder.c **** 			to use SysTick timestamping instead, or define your own timestamping by 
1579:source\bsw\TraceRecorder/trcStreamingRecorder.c **** 			setting TRC_CFG_HARDWARE_PORT to TRC_HARDWARE_PORT_APPLICATION_DEFINED
1580:source\bsw\TraceRecorder/trcStreamingRecorder.c **** 			and make the necessary definitions, as explained in trcHardwarePort.h.*/
1581:source\bsw\TraceRecorder/trcStreamingRecorder.c **** 			
1582:source\bsw\TraceRecorder/trcStreamingRecorder.c **** 			prvTraceError(PSF_ERROR_DWT_NOT_SUPPORTED);
1583:source\bsw\TraceRecorder/trcStreamingRecorder.c **** 			break;
1584:source\bsw\TraceRecorder/trcStreamingRecorder.c **** 		}
1585:source\bsw\TraceRecorder/trcStreamingRecorder.c **** 
1586:source\bsw\TraceRecorder/trcStreamingRecorder.c **** 		/* Verify that DWT_CYCCNT is supported */
1587:source\bsw\TraceRecorder/trcStreamingRecorder.c **** 		if (TRC_REG_DWT_CTRL & TRC_DWT_CTRL_NOCYCCNT)
1588:source\bsw\TraceRecorder/trcStreamingRecorder.c **** 		{
1589:source\bsw\TraceRecorder/trcStreamingRecorder.c **** 			/* This function is called on Cortex-M3, M4 and M7 devices to initialize
1590:source\bsw\TraceRecorder/trcStreamingRecorder.c **** 			the DWT unit, assumed present. The DWT cycle counter is used for timestamping. 
1591:source\bsw\TraceRecorder/trcStreamingRecorder.c **** 			
1592:source\bsw\TraceRecorder/trcStreamingRecorder.c **** 			If the below error is produced, the cycle counter does not seem to be available.
1593:source\bsw\TraceRecorder/trcStreamingRecorder.c **** 			
1594:source\bsw\TraceRecorder/trcStreamingRecorder.c **** 			In that case, define the macro TRC_CFG_ARM_CM_USE_SYSTICK in your build
1595:source\bsw\TraceRecorder/trcStreamingRecorder.c **** 			to use SysTick timestamping instead, or define your own timestamping by 
1596:source\bsw\TraceRecorder/trcStreamingRecorder.c **** 			setting TRC_CFG_HARDWARE_PORT to TRC_HARDWARE_PORT_APPLICATION_DEFINED
1597:source\bsw\TraceRecorder/trcStreamingRecorder.c **** 			and make the necessary definitions, as explained in trcHardwarePort.h.*/
1598:source\bsw\TraceRecorder/trcStreamingRecorder.c **** 
1599:source\bsw\TraceRecorder/trcStreamingRecorder.c **** 			prvTraceError(PSF_ERROR_DWT_CYCCNT_NOT_SUPPORTED);
1600:source\bsw\TraceRecorder/trcStreamingRecorder.c **** 			break;
1601:source\bsw\TraceRecorder/trcStreamingRecorder.c **** 		}
1602:source\bsw\TraceRecorder/trcStreamingRecorder.c **** 
1603:source\bsw\TraceRecorder/trcStreamingRecorder.c **** 		/* Reset the cycle counter */
1604:source\bsw\TraceRecorder/trcStreamingRecorder.c **** 		TRC_REG_DWT_CYCCNT = 0;
1605:source\bsw\TraceRecorder/trcStreamingRecorder.c **** 
1606:source\bsw\TraceRecorder/trcStreamingRecorder.c **** 		/* Enable the cycle counter */
1607:source\bsw\TraceRecorder/trcStreamingRecorder.c **** 		TRC_REG_DWT_CTRL |= TRC_DWT_CTRL_CYCCNTENA;
1608:source\bsw\TraceRecorder/trcStreamingRecorder.c **** 
1609:source\bsw\TraceRecorder/trcStreamingRecorder.c **** 	} while(0);	/* breaks above jump here */
1610:source\bsw\TraceRecorder/trcStreamingRecorder.c **** }
1611:source\bsw\TraceRecorder/trcStreamingRecorder.c **** #endif
1612:source\bsw\TraceRecorder/trcStreamingRecorder.c **** #endif
1613:source\bsw\TraceRecorder/trcStreamingRecorder.c **** 
1614:source\bsw\TraceRecorder/trcStreamingRecorder.c **** /* Performs timestamping using definitions in trcHardwarePort.h */
1615:source\bsw\TraceRecorder/trcStreamingRecorder.c **** static uint32_t prvGetTimestamp32(void)
1616:source\bsw\TraceRecorder/trcStreamingRecorder.c **** {
  27              		.loc 1 1616 0
  28              		.cfi_startproc
  29              		@ args = 0, pretend = 0, frame = 0
  30              		@ frame_needed = 0, uses_anonymous_args = 0
  31              		@ link register save eliminated.
1617:source\bsw\TraceRecorder/trcStreamingRecorder.c **** #if ((TRC_HWTC_TYPE == TRC_FREE_RUNNING_32BIT_INCR) || (TRC_HWTC_TYPE == TRC_FREE_RUNNING_32BIT_DEC
1618:source\bsw\TraceRecorder/trcStreamingRecorder.c **** 	return TRC_HWTC_COUNT;
  32              		.loc 1 1618 0
  33 0000 014B     		ldr	r3, .L2
  34 0002 1868     		ldr	r0, [r3]
1619:source\bsw\TraceRecorder/trcStreamingRecorder.c **** #endif
ARM GAS  C:\Users\robom\AppData\Local\Temp\ccqs2S2W.s 			page 30


1620:source\bsw\TraceRecorder/trcStreamingRecorder.c **** 	
1621:source\bsw\TraceRecorder/trcStreamingRecorder.c **** #if ((TRC_HWTC_TYPE == TRC_CUSTOM_TIMER_INCR) || (TRC_HWTC_TYPE == TRC_CUSTOM_TIMER_DECR))
1622:source\bsw\TraceRecorder/trcStreamingRecorder.c **** 	return TRC_HWTC_COUNT;
1623:source\bsw\TraceRecorder/trcStreamingRecorder.c **** #endif
1624:source\bsw\TraceRecorder/trcStreamingRecorder.c **** 	
1625:source\bsw\TraceRecorder/trcStreamingRecorder.c **** #if ((TRC_HWTC_TYPE == TRC_OS_TIMER_INCR) || (TRC_HWTC_TYPE == TRC_OS_TIMER_DECR))
1626:source\bsw\TraceRecorder/trcStreamingRecorder.c **** 	uint32_t ticks = TRACE_GET_OS_TICKS();
1627:source\bsw\TraceRecorder/trcStreamingRecorder.c **** 	return ((TRC_HWTC_COUNT) & 0x00FFFFFFU) + ((ticks & 0x000000FFU) << 24);
1628:source\bsw\TraceRecorder/trcStreamingRecorder.c **** #endif
1629:source\bsw\TraceRecorder/trcStreamingRecorder.c **** }
  35              		.loc 1 1629 0
  36 0004 7047     		bx	lr
  37              	.L3:
  38 0006 00BF     		.align	2
  39              	.L2:
  40 0008 041000E0 		.word	-536866812
  41              		.cfi_endproc
  42              	.LFE148:
  43              		.size	prvGetTimestamp32, .-prvGetTimestamp32
  44              		.section	.text.prvAllocateBufferPage,"ax",%progbits
  45              		.align	2
  46              		.thumb
  47              		.thumb_func
  48              		.type	prvAllocateBufferPage, %function
  49              	prvAllocateBufferPage:
  50              	.LFB150:
1630:source\bsw\TraceRecorder/trcStreamingRecorder.c **** 
1631:source\bsw\TraceRecorder/trcStreamingRecorder.c **** /* Store the Timestamp Config event */
1632:source\bsw\TraceRecorder/trcStreamingRecorder.c **** static void prvTraceStoreTSConfig(void)
1633:source\bsw\TraceRecorder/trcStreamingRecorder.c **** {
1634:source\bsw\TraceRecorder/trcStreamingRecorder.c **** 	/* If not overridden using vTraceSetFrequency, use default value */
1635:source\bsw\TraceRecorder/trcStreamingRecorder.c **** 	if (timestampFrequency == 0)
1636:source\bsw\TraceRecorder/trcStreamingRecorder.c **** 	{
1637:source\bsw\TraceRecorder/trcStreamingRecorder.c **** 		timestampFrequency = TRC_HWTC_FREQ_HZ;
1638:source\bsw\TraceRecorder/trcStreamingRecorder.c **** 	}
1639:source\bsw\TraceRecorder/trcStreamingRecorder.c **** 	
1640:source\bsw\TraceRecorder/trcStreamingRecorder.c **** 	#if (TRC_HWTC_TYPE == TRC_CUSTOM_TIMER_INCR || TRC_HWTC_TYPE == TRC_CUSTOM_TIMER_DECR)
1641:source\bsw\TraceRecorder/trcStreamingRecorder.c **** 	
1642:source\bsw\TraceRecorder/trcStreamingRecorder.c **** 		prvTraceStoreEvent(5, 
1643:source\bsw\TraceRecorder/trcStreamingRecorder.c **** 							PSF_EVENT_TS_CONFIG,
1644:source\bsw\TraceRecorder/trcStreamingRecorder.c **** 							(uint32_t)timestampFrequency,	                    
1645:source\bsw\TraceRecorder/trcStreamingRecorder.c **** 							(uint32_t)(TRACE_TICK_RATE_HZ),
1646:source\bsw\TraceRecorder/trcStreamingRecorder.c **** 							(uint32_t)(TRC_HWTC_TYPE),
1647:source\bsw\TraceRecorder/trcStreamingRecorder.c **** 							(uint32_t)(TRC_CFG_ISR_TAILCHAINING_THRESHOLD),
1648:source\bsw\TraceRecorder/trcStreamingRecorder.c **** 							(uint32_t)(TRC_HWTC_PERIOD));
1649:source\bsw\TraceRecorder/trcStreamingRecorder.c **** 	
1650:source\bsw\TraceRecorder/trcStreamingRecorder.c **** 	#else
1651:source\bsw\TraceRecorder/trcStreamingRecorder.c **** 	
1652:source\bsw\TraceRecorder/trcStreamingRecorder.c **** 	prvTraceStoreEvent(4, 
1653:source\bsw\TraceRecorder/trcStreamingRecorder.c **** 						PSF_EVENT_TS_CONFIG,
1654:source\bsw\TraceRecorder/trcStreamingRecorder.c **** 						(uint32_t)timestampFrequency,	                    
1655:source\bsw\TraceRecorder/trcStreamingRecorder.c **** 						(uint32_t)(TRACE_TICK_RATE_HZ),
1656:source\bsw\TraceRecorder/trcStreamingRecorder.c **** 						(uint32_t)(TRC_HWTC_TYPE),
1657:source\bsw\TraceRecorder/trcStreamingRecorder.c **** 						(uint32_t)(TRC_CFG_ISR_TAILCHAINING_THRESHOLD));	
1658:source\bsw\TraceRecorder/trcStreamingRecorder.c **** 	#endif
1659:source\bsw\TraceRecorder/trcStreamingRecorder.c **** }
1660:source\bsw\TraceRecorder/trcStreamingRecorder.c **** 
ARM GAS  C:\Users\robom\AppData\Local\Temp\ccqs2S2W.s 			page 31


1661:source\bsw\TraceRecorder/trcStreamingRecorder.c **** /* Retrieve a buffer page to write to. */
1662:source\bsw\TraceRecorder/trcStreamingRecorder.c **** static int prvAllocateBufferPage(int prevPage)
1663:source\bsw\TraceRecorder/trcStreamingRecorder.c **** {
  51              		.loc 1 1663 0
  52              		.cfi_startproc
  53              		@ args = 0, pretend = 0, frame = 0
  54              		@ frame_needed = 0, uses_anonymous_args = 0
  55              		@ link register save eliminated.
  56              	.LVL0:
1664:source\bsw\TraceRecorder/trcStreamingRecorder.c **** 	int index;
1665:source\bsw\TraceRecorder/trcStreamingRecorder.c **** 	int count = 0;
1666:source\bsw\TraceRecorder/trcStreamingRecorder.c **** 
1667:source\bsw\TraceRecorder/trcStreamingRecorder.c **** 	index = (prevPage + 1) % (TRC_CFG_PAGED_EVENT_BUFFER_PAGE_COUNT);
  57              		.loc 1 1667 0
  58 0000 0130     		adds	r0, r0, #1
  59              	.LVL1:
  60 0002 0E4B     		ldr	r3, .L12
  61 0004 1840     		ands	r0, r0, r3
  62              	.LVL2:
  63 0006 03D5     		bpl	.L5
  64 0008 0138     		subs	r0, r0, #1
  65 000a 60F00100 		orn	r0, r0, #1
  66 000e 0130     		adds	r0, r0, #1
  67              	.L5:
  68              	.LVL3:
1665:source\bsw\TraceRecorder/trcStreamingRecorder.c **** 
  69              		.loc 1 1665 0
  70 0010 0023     		movs	r3, #0
1668:source\bsw\TraceRecorder/trcStreamingRecorder.c **** 
1669:source\bsw\TraceRecorder/trcStreamingRecorder.c **** 	while((PageInfo[index].Status != PAGE_STATUS_FREE) && (count ++ < (TRC_CFG_PAGED_EVENT_BUFFER_PAGE
  71              		.loc 1 1669 0
  72 0012 08E0     		b	.L6
  73              	.LVL4:
  74              	.L9:
1670:source\bsw\TraceRecorder/trcStreamingRecorder.c **** 	{
1671:source\bsw\TraceRecorder/trcStreamingRecorder.c **** 		index = (index + 1) % (TRC_CFG_PAGED_EVENT_BUFFER_PAGE_COUNT);
  75              		.loc 1 1671 0
  76 0014 0130     		adds	r0, r0, #1
  77              	.LVL5:
  78 0016 094B     		ldr	r3, .L12
  79 0018 1840     		ands	r0, r0, r3
  80              	.LVL6:
  81 001a 03D5     		bpl	.L7
  82 001c 0138     		subs	r0, r0, #1
  83 001e 60F00100 		orn	r0, r0, #1
  84 0022 0130     		adds	r0, r0, #1
  85              	.L7:
  86              	.LVL7:
1669:source\bsw\TraceRecorder/trcStreamingRecorder.c **** 	{
  87              		.loc 1 1669 0
  88 0024 0B46     		mov	r3, r1
  89              	.LVL8:
  90              	.L6:
  91 0026 064A     		ldr	r2, .L12+4
  92 0028 32F83020 		ldrh	r2, [r2, r0, lsl #3]
  93 002c 12B1     		cbz	r2, .L8
1669:source\bsw\TraceRecorder/trcStreamingRecorder.c **** 	{
ARM GAS  C:\Users\robom\AppData\Local\Temp\ccqs2S2W.s 			page 32


  94              		.loc 1 1669 0 is_stmt 0 discriminator 1
  95 002e 591C     		adds	r1, r3, #1
  96              	.LVL9:
  97 0030 012B     		cmp	r3, #1
  98 0032 EFDD     		ble	.L9
  99              	.LVL10:
 100              	.L8:
1672:source\bsw\TraceRecorder/trcStreamingRecorder.c **** 	}
1673:source\bsw\TraceRecorder/trcStreamingRecorder.c **** 
1674:source\bsw\TraceRecorder/trcStreamingRecorder.c **** 	if (PageInfo[index].Status == PAGE_STATUS_FREE)
 101              		.loc 1 1674 0 is_stmt 1
 102 0034 0AB1     		cbz	r2, .L10
1675:source\bsw\TraceRecorder/trcStreamingRecorder.c **** 	{
1676:source\bsw\TraceRecorder/trcStreamingRecorder.c **** 		return index;
1677:source\bsw\TraceRecorder/trcStreamingRecorder.c **** 	}
1678:source\bsw\TraceRecorder/trcStreamingRecorder.c **** 
1679:source\bsw\TraceRecorder/trcStreamingRecorder.c **** 	return -1;
 103              		.loc 1 1679 0
 104 0036 4FF0FF30 		mov	r0, #-1
 105              	.LVL11:
 106              	.L10:
1680:source\bsw\TraceRecorder/trcStreamingRecorder.c **** }
 107              		.loc 1 1680 0
 108 003a 7047     		bx	lr
 109              	.L13:
 110              		.align	2
 111              	.L12:
 112 003c 01000080 		.word	-2147483647
 113 0040 00000000 		.word	PageInfo
 114              		.cfi_endproc
 115              	.LFE150:
 116              		.size	prvAllocateBufferPage, .-prvAllocateBufferPage
 117              		.section	.text.prvPageReadComplete,"ax",%progbits
 118              		.align	2
 119              		.thumb
 120              		.thumb_func
 121              		.type	prvPageReadComplete, %function
 122              	prvPageReadComplete:
 123              	.LFB151:
1681:source\bsw\TraceRecorder/trcStreamingRecorder.c **** 
1682:source\bsw\TraceRecorder/trcStreamingRecorder.c **** /* Mark the page read as complete. */
1683:source\bsw\TraceRecorder/trcStreamingRecorder.c **** static void prvPageReadComplete(int pageIndex)
1684:source\bsw\TraceRecorder/trcStreamingRecorder.c **** {
 124              		.loc 1 1684 0
 125              		.cfi_startproc
 126              		@ args = 0, pretend = 0, frame = 0
 127              		@ frame_needed = 0, uses_anonymous_args = 0
 128              		@ link register save eliminated.
 129              	.LVL12:
 130 0000 30B4     		push	{r4, r5}
 131              		.cfi_def_cfa_offset 8
 132              		.cfi_offset 4, -8
 133              		.cfi_offset 5, -4
 134              	.LBB137:
 135              	.LBB138:
 136              		.file 2 "Generated_Source\\PSoC5/cmsis_gcc.h"
   1:Generated_Source\PSoC5/cmsis_gcc.h **** /**************************************************************************//**
ARM GAS  C:\Users\robom\AppData\Local\Temp\ccqs2S2W.s 			page 33


   2:Generated_Source\PSoC5/cmsis_gcc.h ****  * @file     cmsis_gcc.h
   3:Generated_Source\PSoC5/cmsis_gcc.h ****  * @brief    CMSIS Cortex-M Core Function/Instruction Header File
   4:Generated_Source\PSoC5/cmsis_gcc.h ****  * @version  V5.00
   5:Generated_Source\PSoC5/cmsis_gcc.h ****  * @date     28. October 2016
   6:Generated_Source\PSoC5/cmsis_gcc.h ****  ******************************************************************************/
   7:Generated_Source\PSoC5/cmsis_gcc.h **** /*
   8:Generated_Source\PSoC5/cmsis_gcc.h ****  * Copyright (c) 2009-2016 ARM Limited. All rights reserved.
   9:Generated_Source\PSoC5/cmsis_gcc.h ****  *
  10:Generated_Source\PSoC5/cmsis_gcc.h ****  * SPDX-License-Identifier: Apache-2.0
  11:Generated_Source\PSoC5/cmsis_gcc.h ****  *
  12:Generated_Source\PSoC5/cmsis_gcc.h ****  * Licensed under the Apache License, Version 2.0 (the License); you may
  13:Generated_Source\PSoC5/cmsis_gcc.h ****  * not use this file except in compliance with the License.
  14:Generated_Source\PSoC5/cmsis_gcc.h ****  * You may obtain a copy of the License at
  15:Generated_Source\PSoC5/cmsis_gcc.h ****  *
  16:Generated_Source\PSoC5/cmsis_gcc.h ****  * http://www.apache.org/licenses/LICENSE-2.0
  17:Generated_Source\PSoC5/cmsis_gcc.h ****  *
  18:Generated_Source\PSoC5/cmsis_gcc.h ****  * Unless required by applicable law or agreed to in writing, software
  19:Generated_Source\PSoC5/cmsis_gcc.h ****  * distributed under the License is distributed on an AS IS BASIS, WITHOUT
  20:Generated_Source\PSoC5/cmsis_gcc.h ****  * WARRANTIES OR CONDITIONS OF ANY KIND, either express or implied.
  21:Generated_Source\PSoC5/cmsis_gcc.h ****  * See the License for the specific language governing permissions and
  22:Generated_Source\PSoC5/cmsis_gcc.h ****  * limitations under the License.
  23:Generated_Source\PSoC5/cmsis_gcc.h ****  */
  24:Generated_Source\PSoC5/cmsis_gcc.h **** 
  25:Generated_Source\PSoC5/cmsis_gcc.h **** #ifndef __CMSIS_GCC_H
  26:Generated_Source\PSoC5/cmsis_gcc.h **** #define __CMSIS_GCC_H
  27:Generated_Source\PSoC5/cmsis_gcc.h **** 
  28:Generated_Source\PSoC5/cmsis_gcc.h **** /* ignore some GCC warnings */
  29:Generated_Source\PSoC5/cmsis_gcc.h **** #pragma GCC diagnostic push
  30:Generated_Source\PSoC5/cmsis_gcc.h **** #pragma GCC diagnostic ignored "-Wsign-conversion"
  31:Generated_Source\PSoC5/cmsis_gcc.h **** #pragma GCC diagnostic ignored "-Wconversion"
  32:Generated_Source\PSoC5/cmsis_gcc.h **** #pragma GCC diagnostic ignored "-Wunused-parameter"
  33:Generated_Source\PSoC5/cmsis_gcc.h **** 
  34:Generated_Source\PSoC5/cmsis_gcc.h **** /* CMSIS compiler specific defines */
  35:Generated_Source\PSoC5/cmsis_gcc.h **** #ifndef   __ASM
  36:Generated_Source\PSoC5/cmsis_gcc.h ****   #define __ASM                     __asm
  37:Generated_Source\PSoC5/cmsis_gcc.h **** #endif
  38:Generated_Source\PSoC5/cmsis_gcc.h **** #ifndef   __INLINE
  39:Generated_Source\PSoC5/cmsis_gcc.h ****   #define __INLINE                  inline
  40:Generated_Source\PSoC5/cmsis_gcc.h **** #endif
  41:Generated_Source\PSoC5/cmsis_gcc.h **** #ifndef   __STATIC_INLINE
  42:Generated_Source\PSoC5/cmsis_gcc.h ****   #define __STATIC_INLINE           static inline
  43:Generated_Source\PSoC5/cmsis_gcc.h **** #endif
  44:Generated_Source\PSoC5/cmsis_gcc.h **** #ifndef   __NO_RETURN
  45:Generated_Source\PSoC5/cmsis_gcc.h ****   #define __NO_RETURN               __attribute__((noreturn))
  46:Generated_Source\PSoC5/cmsis_gcc.h **** #endif
  47:Generated_Source\PSoC5/cmsis_gcc.h **** #ifndef   __USED
  48:Generated_Source\PSoC5/cmsis_gcc.h ****   #define __USED                    __attribute__((used))
  49:Generated_Source\PSoC5/cmsis_gcc.h **** #endif
  50:Generated_Source\PSoC5/cmsis_gcc.h **** #ifndef   _WEAK
  51:Generated_Source\PSoC5/cmsis_gcc.h ****   #define __WEAK                    __attribute__((weak))
  52:Generated_Source\PSoC5/cmsis_gcc.h **** #endif
  53:Generated_Source\PSoC5/cmsis_gcc.h **** #ifndef   __UNALIGNED_UINT32
  54:Generated_Source\PSoC5/cmsis_gcc.h ****   struct __attribute__((packed)) T_UINT32 { uint32_t v; };
  55:Generated_Source\PSoC5/cmsis_gcc.h ****   #define __UNALIGNED_UINT32(x)     (((struct T_UINT32 *)(x))->v)
  56:Generated_Source\PSoC5/cmsis_gcc.h **** #endif
  57:Generated_Source\PSoC5/cmsis_gcc.h **** #ifndef   __ALIGNED
  58:Generated_Source\PSoC5/cmsis_gcc.h ****   #define __ALIGNED(x)              __attribute__((aligned(x)))
ARM GAS  C:\Users\robom\AppData\Local\Temp\ccqs2S2W.s 			page 34


  59:Generated_Source\PSoC5/cmsis_gcc.h **** #endif
  60:Generated_Source\PSoC5/cmsis_gcc.h **** #ifndef   __PACKED
  61:Generated_Source\PSoC5/cmsis_gcc.h ****   #define __PACKED                  __attribute__((packed, aligned(1)))
  62:Generated_Source\PSoC5/cmsis_gcc.h **** #endif
  63:Generated_Source\PSoC5/cmsis_gcc.h **** 
  64:Generated_Source\PSoC5/cmsis_gcc.h **** 
  65:Generated_Source\PSoC5/cmsis_gcc.h **** /* ###########################  Core Function Access  ########################### */
  66:Generated_Source\PSoC5/cmsis_gcc.h **** /** \ingroup  CMSIS_Core_FunctionInterface
  67:Generated_Source\PSoC5/cmsis_gcc.h ****     \defgroup CMSIS_Core_RegAccFunctions CMSIS Core Register Access Functions
  68:Generated_Source\PSoC5/cmsis_gcc.h ****   @{
  69:Generated_Source\PSoC5/cmsis_gcc.h ****  */
  70:Generated_Source\PSoC5/cmsis_gcc.h **** 
  71:Generated_Source\PSoC5/cmsis_gcc.h **** /**
  72:Generated_Source\PSoC5/cmsis_gcc.h ****   \brief   Enable IRQ Interrupts
  73:Generated_Source\PSoC5/cmsis_gcc.h ****   \details Enables IRQ interrupts by clearing the I-bit in the CPSR.
  74:Generated_Source\PSoC5/cmsis_gcc.h ****            Can only be executed in Privileged modes.
  75:Generated_Source\PSoC5/cmsis_gcc.h ****  */
  76:Generated_Source\PSoC5/cmsis_gcc.h **** __attribute__((always_inline)) __STATIC_INLINE void __enable_irq(void)
  77:Generated_Source\PSoC5/cmsis_gcc.h **** {
  78:Generated_Source\PSoC5/cmsis_gcc.h ****   __ASM volatile ("cpsie i" : : : "memory");
  79:Generated_Source\PSoC5/cmsis_gcc.h **** }
  80:Generated_Source\PSoC5/cmsis_gcc.h **** 
  81:Generated_Source\PSoC5/cmsis_gcc.h **** 
  82:Generated_Source\PSoC5/cmsis_gcc.h **** /**
  83:Generated_Source\PSoC5/cmsis_gcc.h ****   \brief   Disable IRQ Interrupts
  84:Generated_Source\PSoC5/cmsis_gcc.h ****   \details Disables IRQ interrupts by setting the I-bit in the CPSR.
  85:Generated_Source\PSoC5/cmsis_gcc.h ****            Can only be executed in Privileged modes.
  86:Generated_Source\PSoC5/cmsis_gcc.h ****  */
  87:Generated_Source\PSoC5/cmsis_gcc.h **** __attribute__((always_inline)) __STATIC_INLINE void __disable_irq(void)
  88:Generated_Source\PSoC5/cmsis_gcc.h **** {
  89:Generated_Source\PSoC5/cmsis_gcc.h ****   __ASM volatile ("cpsid i" : : : "memory");
  90:Generated_Source\PSoC5/cmsis_gcc.h **** }
  91:Generated_Source\PSoC5/cmsis_gcc.h **** 
  92:Generated_Source\PSoC5/cmsis_gcc.h **** 
  93:Generated_Source\PSoC5/cmsis_gcc.h **** /**
  94:Generated_Source\PSoC5/cmsis_gcc.h ****   \brief   Get Control Register
  95:Generated_Source\PSoC5/cmsis_gcc.h ****   \details Returns the content of the Control Register.
  96:Generated_Source\PSoC5/cmsis_gcc.h ****   \return               Control Register value
  97:Generated_Source\PSoC5/cmsis_gcc.h ****  */
  98:Generated_Source\PSoC5/cmsis_gcc.h **** __attribute__((always_inline)) __STATIC_INLINE uint32_t __get_CONTROL(void)
  99:Generated_Source\PSoC5/cmsis_gcc.h **** {
 100:Generated_Source\PSoC5/cmsis_gcc.h ****   uint32_t result;
 101:Generated_Source\PSoC5/cmsis_gcc.h **** 
 102:Generated_Source\PSoC5/cmsis_gcc.h ****   __ASM volatile ("MRS %0, control" : "=r" (result) );
 103:Generated_Source\PSoC5/cmsis_gcc.h ****   return(result);
 104:Generated_Source\PSoC5/cmsis_gcc.h **** }
 105:Generated_Source\PSoC5/cmsis_gcc.h **** 
 106:Generated_Source\PSoC5/cmsis_gcc.h **** 
 107:Generated_Source\PSoC5/cmsis_gcc.h **** #if (defined (__ARM_FEATURE_CMSE ) && (__ARM_FEATURE_CMSE == 3))
 108:Generated_Source\PSoC5/cmsis_gcc.h **** /**
 109:Generated_Source\PSoC5/cmsis_gcc.h ****   \brief   Get Control Register (non-secure)
 110:Generated_Source\PSoC5/cmsis_gcc.h ****   \details Returns the content of the non-secure Control Register when in secure mode.
 111:Generated_Source\PSoC5/cmsis_gcc.h ****   \return               non-secure Control Register value
 112:Generated_Source\PSoC5/cmsis_gcc.h ****  */
 113:Generated_Source\PSoC5/cmsis_gcc.h **** __attribute__((always_inline)) __STATIC_INLINE uint32_t __TZ_get_CONTROL_NS(void)
 114:Generated_Source\PSoC5/cmsis_gcc.h **** {
 115:Generated_Source\PSoC5/cmsis_gcc.h ****   uint32_t result;
ARM GAS  C:\Users\robom\AppData\Local\Temp\ccqs2S2W.s 			page 35


 116:Generated_Source\PSoC5/cmsis_gcc.h **** 
 117:Generated_Source\PSoC5/cmsis_gcc.h ****   __ASM volatile ("MRS %0, control_ns" : "=r" (result) );
 118:Generated_Source\PSoC5/cmsis_gcc.h ****   return(result);
 119:Generated_Source\PSoC5/cmsis_gcc.h **** }
 120:Generated_Source\PSoC5/cmsis_gcc.h **** #endif
 121:Generated_Source\PSoC5/cmsis_gcc.h **** 
 122:Generated_Source\PSoC5/cmsis_gcc.h **** 
 123:Generated_Source\PSoC5/cmsis_gcc.h **** /**
 124:Generated_Source\PSoC5/cmsis_gcc.h ****   \brief   Set Control Register
 125:Generated_Source\PSoC5/cmsis_gcc.h ****   \details Writes the given value to the Control Register.
 126:Generated_Source\PSoC5/cmsis_gcc.h ****   \param [in]    control  Control Register value to set
 127:Generated_Source\PSoC5/cmsis_gcc.h ****  */
 128:Generated_Source\PSoC5/cmsis_gcc.h **** __attribute__((always_inline)) __STATIC_INLINE void __set_CONTROL(uint32_t control)
 129:Generated_Source\PSoC5/cmsis_gcc.h **** {
 130:Generated_Source\PSoC5/cmsis_gcc.h ****   __ASM volatile ("MSR control, %0" : : "r" (control) : "memory");
 131:Generated_Source\PSoC5/cmsis_gcc.h **** }
 132:Generated_Source\PSoC5/cmsis_gcc.h **** 
 133:Generated_Source\PSoC5/cmsis_gcc.h **** 
 134:Generated_Source\PSoC5/cmsis_gcc.h **** #if (defined (__ARM_FEATURE_CMSE ) && (__ARM_FEATURE_CMSE == 3))
 135:Generated_Source\PSoC5/cmsis_gcc.h **** /**
 136:Generated_Source\PSoC5/cmsis_gcc.h ****   \brief   Set Control Register (non-secure)
 137:Generated_Source\PSoC5/cmsis_gcc.h ****   \details Writes the given value to the non-secure Control Register when in secure state.
 138:Generated_Source\PSoC5/cmsis_gcc.h ****   \param [in]    control  Control Register value to set
 139:Generated_Source\PSoC5/cmsis_gcc.h ****  */
 140:Generated_Source\PSoC5/cmsis_gcc.h **** __attribute__((always_inline)) __STATIC_INLINE void __TZ_set_CONTROL_NS(uint32_t control)
 141:Generated_Source\PSoC5/cmsis_gcc.h **** {
 142:Generated_Source\PSoC5/cmsis_gcc.h ****   __ASM volatile ("MSR control_ns, %0" : : "r" (control) : "memory");
 143:Generated_Source\PSoC5/cmsis_gcc.h **** }
 144:Generated_Source\PSoC5/cmsis_gcc.h **** #endif
 145:Generated_Source\PSoC5/cmsis_gcc.h **** 
 146:Generated_Source\PSoC5/cmsis_gcc.h **** 
 147:Generated_Source\PSoC5/cmsis_gcc.h **** /**
 148:Generated_Source\PSoC5/cmsis_gcc.h ****   \brief   Get IPSR Register
 149:Generated_Source\PSoC5/cmsis_gcc.h ****   \details Returns the content of the IPSR Register.
 150:Generated_Source\PSoC5/cmsis_gcc.h ****   \return               IPSR Register value
 151:Generated_Source\PSoC5/cmsis_gcc.h ****  */
 152:Generated_Source\PSoC5/cmsis_gcc.h **** __attribute__((always_inline)) __STATIC_INLINE uint32_t __get_IPSR(void)
 153:Generated_Source\PSoC5/cmsis_gcc.h **** {
 154:Generated_Source\PSoC5/cmsis_gcc.h ****   uint32_t result;
 155:Generated_Source\PSoC5/cmsis_gcc.h **** 
 156:Generated_Source\PSoC5/cmsis_gcc.h ****   __ASM volatile ("MRS %0, ipsr" : "=r" (result) );
 157:Generated_Source\PSoC5/cmsis_gcc.h ****   return(result);
 158:Generated_Source\PSoC5/cmsis_gcc.h **** }
 159:Generated_Source\PSoC5/cmsis_gcc.h **** 
 160:Generated_Source\PSoC5/cmsis_gcc.h **** 
 161:Generated_Source\PSoC5/cmsis_gcc.h **** /**
 162:Generated_Source\PSoC5/cmsis_gcc.h ****   \brief   Get APSR Register
 163:Generated_Source\PSoC5/cmsis_gcc.h ****   \details Returns the content of the APSR Register.
 164:Generated_Source\PSoC5/cmsis_gcc.h ****   \return               APSR Register value
 165:Generated_Source\PSoC5/cmsis_gcc.h ****  */
 166:Generated_Source\PSoC5/cmsis_gcc.h **** __attribute__((always_inline)) __STATIC_INLINE uint32_t __get_APSR(void)
 167:Generated_Source\PSoC5/cmsis_gcc.h **** {
 168:Generated_Source\PSoC5/cmsis_gcc.h ****   uint32_t result;
 169:Generated_Source\PSoC5/cmsis_gcc.h **** 
 170:Generated_Source\PSoC5/cmsis_gcc.h ****   __ASM volatile ("MRS %0, apsr" : "=r" (result) );
 171:Generated_Source\PSoC5/cmsis_gcc.h ****   return(result);
 172:Generated_Source\PSoC5/cmsis_gcc.h **** }
ARM GAS  C:\Users\robom\AppData\Local\Temp\ccqs2S2W.s 			page 36


 173:Generated_Source\PSoC5/cmsis_gcc.h **** 
 174:Generated_Source\PSoC5/cmsis_gcc.h **** 
 175:Generated_Source\PSoC5/cmsis_gcc.h **** /**
 176:Generated_Source\PSoC5/cmsis_gcc.h ****   \brief   Get xPSR Register
 177:Generated_Source\PSoC5/cmsis_gcc.h ****   \details Returns the content of the xPSR Register.
 178:Generated_Source\PSoC5/cmsis_gcc.h ****   \return               xPSR Register value
 179:Generated_Source\PSoC5/cmsis_gcc.h ****  */
 180:Generated_Source\PSoC5/cmsis_gcc.h **** __attribute__((always_inline)) __STATIC_INLINE uint32_t __get_xPSR(void)
 181:Generated_Source\PSoC5/cmsis_gcc.h **** {
 182:Generated_Source\PSoC5/cmsis_gcc.h ****   uint32_t result;
 183:Generated_Source\PSoC5/cmsis_gcc.h **** 
 184:Generated_Source\PSoC5/cmsis_gcc.h ****   __ASM volatile ("MRS %0, xpsr" : "=r" (result) );
 185:Generated_Source\PSoC5/cmsis_gcc.h ****   return(result);
 186:Generated_Source\PSoC5/cmsis_gcc.h **** }
 187:Generated_Source\PSoC5/cmsis_gcc.h **** 
 188:Generated_Source\PSoC5/cmsis_gcc.h **** 
 189:Generated_Source\PSoC5/cmsis_gcc.h **** /**
 190:Generated_Source\PSoC5/cmsis_gcc.h ****   \brief   Get Process Stack Pointer
 191:Generated_Source\PSoC5/cmsis_gcc.h ****   \details Returns the current value of the Process Stack Pointer (PSP).
 192:Generated_Source\PSoC5/cmsis_gcc.h ****   \return               PSP Register value
 193:Generated_Source\PSoC5/cmsis_gcc.h ****  */
 194:Generated_Source\PSoC5/cmsis_gcc.h **** __attribute__((always_inline)) __STATIC_INLINE uint32_t __get_PSP(void)
 195:Generated_Source\PSoC5/cmsis_gcc.h **** {
 196:Generated_Source\PSoC5/cmsis_gcc.h ****   register uint32_t result;
 197:Generated_Source\PSoC5/cmsis_gcc.h **** 
 198:Generated_Source\PSoC5/cmsis_gcc.h ****   __ASM volatile ("MRS %0, psp"  : "=r" (result) );
 199:Generated_Source\PSoC5/cmsis_gcc.h ****   return(result);
 200:Generated_Source\PSoC5/cmsis_gcc.h **** }
 201:Generated_Source\PSoC5/cmsis_gcc.h **** 
 202:Generated_Source\PSoC5/cmsis_gcc.h **** 
 203:Generated_Source\PSoC5/cmsis_gcc.h **** #if (defined (__ARM_FEATURE_CMSE ) && (__ARM_FEATURE_CMSE == 3))
 204:Generated_Source\PSoC5/cmsis_gcc.h **** /**
 205:Generated_Source\PSoC5/cmsis_gcc.h ****   \brief   Get Process Stack Pointer (non-secure)
 206:Generated_Source\PSoC5/cmsis_gcc.h ****   \details Returns the current value of the non-secure Process Stack Pointer (PSP) when in secure s
 207:Generated_Source\PSoC5/cmsis_gcc.h ****   \return               PSP Register value
 208:Generated_Source\PSoC5/cmsis_gcc.h ****  */
 209:Generated_Source\PSoC5/cmsis_gcc.h **** __attribute__((always_inline)) __STATIC_INLINE uint32_t __TZ_get_PSP_NS(void)
 210:Generated_Source\PSoC5/cmsis_gcc.h **** {
 211:Generated_Source\PSoC5/cmsis_gcc.h ****   register uint32_t result;
 212:Generated_Source\PSoC5/cmsis_gcc.h **** 
 213:Generated_Source\PSoC5/cmsis_gcc.h ****   __ASM volatile ("MRS %0, psp_ns"  : "=r" (result) );
 214:Generated_Source\PSoC5/cmsis_gcc.h ****   return(result);
 215:Generated_Source\PSoC5/cmsis_gcc.h **** }
 216:Generated_Source\PSoC5/cmsis_gcc.h **** #endif
 217:Generated_Source\PSoC5/cmsis_gcc.h **** 
 218:Generated_Source\PSoC5/cmsis_gcc.h **** 
 219:Generated_Source\PSoC5/cmsis_gcc.h **** /**
 220:Generated_Source\PSoC5/cmsis_gcc.h ****   \brief   Set Process Stack Pointer
 221:Generated_Source\PSoC5/cmsis_gcc.h ****   \details Assigns the given value to the Process Stack Pointer (PSP).
 222:Generated_Source\PSoC5/cmsis_gcc.h ****   \param [in]    topOfProcStack  Process Stack Pointer value to set
 223:Generated_Source\PSoC5/cmsis_gcc.h ****  */
 224:Generated_Source\PSoC5/cmsis_gcc.h **** __attribute__((always_inline)) __STATIC_INLINE void __set_PSP(uint32_t topOfProcStack)
 225:Generated_Source\PSoC5/cmsis_gcc.h **** {
 226:Generated_Source\PSoC5/cmsis_gcc.h ****   __ASM volatile ("MSR psp, %0" : : "r" (topOfProcStack) : "sp");
 227:Generated_Source\PSoC5/cmsis_gcc.h **** }
 228:Generated_Source\PSoC5/cmsis_gcc.h **** 
 229:Generated_Source\PSoC5/cmsis_gcc.h **** 
ARM GAS  C:\Users\robom\AppData\Local\Temp\ccqs2S2W.s 			page 37


 230:Generated_Source\PSoC5/cmsis_gcc.h **** #if (defined (__ARM_FEATURE_CMSE ) && (__ARM_FEATURE_CMSE == 3))
 231:Generated_Source\PSoC5/cmsis_gcc.h **** /**
 232:Generated_Source\PSoC5/cmsis_gcc.h ****   \brief   Set Process Stack Pointer (non-secure)
 233:Generated_Source\PSoC5/cmsis_gcc.h ****   \details Assigns the given value to the non-secure Process Stack Pointer (PSP) when in secure sta
 234:Generated_Source\PSoC5/cmsis_gcc.h ****   \param [in]    topOfProcStack  Process Stack Pointer value to set
 235:Generated_Source\PSoC5/cmsis_gcc.h ****  */
 236:Generated_Source\PSoC5/cmsis_gcc.h **** __attribute__((always_inline)) __STATIC_INLINE void __TZ_set_PSP_NS(uint32_t topOfProcStack)
 237:Generated_Source\PSoC5/cmsis_gcc.h **** {
 238:Generated_Source\PSoC5/cmsis_gcc.h ****   __ASM volatile ("MSR psp_ns, %0" : : "r" (topOfProcStack) : "sp");
 239:Generated_Source\PSoC5/cmsis_gcc.h **** }
 240:Generated_Source\PSoC5/cmsis_gcc.h **** #endif
 241:Generated_Source\PSoC5/cmsis_gcc.h **** 
 242:Generated_Source\PSoC5/cmsis_gcc.h **** 
 243:Generated_Source\PSoC5/cmsis_gcc.h **** /**
 244:Generated_Source\PSoC5/cmsis_gcc.h ****   \brief   Get Main Stack Pointer
 245:Generated_Source\PSoC5/cmsis_gcc.h ****   \details Returns the current value of the Main Stack Pointer (MSP).
 246:Generated_Source\PSoC5/cmsis_gcc.h ****   \return               MSP Register value
 247:Generated_Source\PSoC5/cmsis_gcc.h ****  */
 248:Generated_Source\PSoC5/cmsis_gcc.h **** __attribute__((always_inline)) __STATIC_INLINE uint32_t __get_MSP(void)
 249:Generated_Source\PSoC5/cmsis_gcc.h **** {
 250:Generated_Source\PSoC5/cmsis_gcc.h ****   register uint32_t result;
 251:Generated_Source\PSoC5/cmsis_gcc.h **** 
 252:Generated_Source\PSoC5/cmsis_gcc.h ****   __ASM volatile ("MRS %0, msp" : "=r" (result) );
 253:Generated_Source\PSoC5/cmsis_gcc.h ****   return(result);
 254:Generated_Source\PSoC5/cmsis_gcc.h **** }
 255:Generated_Source\PSoC5/cmsis_gcc.h **** 
 256:Generated_Source\PSoC5/cmsis_gcc.h **** 
 257:Generated_Source\PSoC5/cmsis_gcc.h **** #if (defined (__ARM_FEATURE_CMSE ) && (__ARM_FEATURE_CMSE == 3))
 258:Generated_Source\PSoC5/cmsis_gcc.h **** /**
 259:Generated_Source\PSoC5/cmsis_gcc.h ****   \brief   Get Main Stack Pointer (non-secure)
 260:Generated_Source\PSoC5/cmsis_gcc.h ****   \details Returns the current value of the non-secure Main Stack Pointer (MSP) when in secure stat
 261:Generated_Source\PSoC5/cmsis_gcc.h ****   \return               MSP Register value
 262:Generated_Source\PSoC5/cmsis_gcc.h ****  */
 263:Generated_Source\PSoC5/cmsis_gcc.h **** __attribute__((always_inline)) __STATIC_INLINE uint32_t __TZ_get_MSP_NS(void)
 264:Generated_Source\PSoC5/cmsis_gcc.h **** {
 265:Generated_Source\PSoC5/cmsis_gcc.h ****   register uint32_t result;
 266:Generated_Source\PSoC5/cmsis_gcc.h **** 
 267:Generated_Source\PSoC5/cmsis_gcc.h ****   __ASM volatile ("MRS %0, msp_ns" : "=r" (result) );
 268:Generated_Source\PSoC5/cmsis_gcc.h ****   return(result);
 269:Generated_Source\PSoC5/cmsis_gcc.h **** }
 270:Generated_Source\PSoC5/cmsis_gcc.h **** #endif
 271:Generated_Source\PSoC5/cmsis_gcc.h **** 
 272:Generated_Source\PSoC5/cmsis_gcc.h **** 
 273:Generated_Source\PSoC5/cmsis_gcc.h **** /**
 274:Generated_Source\PSoC5/cmsis_gcc.h ****   \brief   Set Main Stack Pointer
 275:Generated_Source\PSoC5/cmsis_gcc.h ****   \details Assigns the given value to the Main Stack Pointer (MSP).
 276:Generated_Source\PSoC5/cmsis_gcc.h ****   \param [in]    topOfMainStack  Main Stack Pointer value to set
 277:Generated_Source\PSoC5/cmsis_gcc.h ****  */
 278:Generated_Source\PSoC5/cmsis_gcc.h **** __attribute__((always_inline)) __STATIC_INLINE void __set_MSP(uint32_t topOfMainStack)
 279:Generated_Source\PSoC5/cmsis_gcc.h **** {
 280:Generated_Source\PSoC5/cmsis_gcc.h ****   __ASM volatile ("MSR msp, %0" : : "r" (topOfMainStack) : "sp");
 281:Generated_Source\PSoC5/cmsis_gcc.h **** }
 282:Generated_Source\PSoC5/cmsis_gcc.h **** 
 283:Generated_Source\PSoC5/cmsis_gcc.h **** 
 284:Generated_Source\PSoC5/cmsis_gcc.h **** #if (defined (__ARM_FEATURE_CMSE ) && (__ARM_FEATURE_CMSE == 3))
 285:Generated_Source\PSoC5/cmsis_gcc.h **** /**
 286:Generated_Source\PSoC5/cmsis_gcc.h ****   \brief   Set Main Stack Pointer (non-secure)
ARM GAS  C:\Users\robom\AppData\Local\Temp\ccqs2S2W.s 			page 38


 287:Generated_Source\PSoC5/cmsis_gcc.h ****   \details Assigns the given value to the non-secure Main Stack Pointer (MSP) when in secure state.
 288:Generated_Source\PSoC5/cmsis_gcc.h ****   \param [in]    topOfMainStack  Main Stack Pointer value to set
 289:Generated_Source\PSoC5/cmsis_gcc.h ****  */
 290:Generated_Source\PSoC5/cmsis_gcc.h **** __attribute__((always_inline)) __STATIC_INLINE void __TZ_set_MSP_NS(uint32_t topOfMainStack)
 291:Generated_Source\PSoC5/cmsis_gcc.h **** {
 292:Generated_Source\PSoC5/cmsis_gcc.h ****   __ASM volatile ("MSR msp_ns, %0" : : "r" (topOfMainStack) : "sp");
 293:Generated_Source\PSoC5/cmsis_gcc.h **** }
 294:Generated_Source\PSoC5/cmsis_gcc.h **** #endif
 295:Generated_Source\PSoC5/cmsis_gcc.h **** 
 296:Generated_Source\PSoC5/cmsis_gcc.h **** 
 297:Generated_Source\PSoC5/cmsis_gcc.h **** /**
 298:Generated_Source\PSoC5/cmsis_gcc.h ****   \brief   Get Priority Mask
 299:Generated_Source\PSoC5/cmsis_gcc.h ****   \details Returns the current state of the priority mask bit from the Priority Mask Register.
 300:Generated_Source\PSoC5/cmsis_gcc.h ****   \return               Priority Mask value
 301:Generated_Source\PSoC5/cmsis_gcc.h ****  */
 302:Generated_Source\PSoC5/cmsis_gcc.h **** __attribute__((always_inline)) __STATIC_INLINE uint32_t __get_PRIMASK(void)
 303:Generated_Source\PSoC5/cmsis_gcc.h **** {
 304:Generated_Source\PSoC5/cmsis_gcc.h ****   uint32_t result;
 305:Generated_Source\PSoC5/cmsis_gcc.h **** 
 306:Generated_Source\PSoC5/cmsis_gcc.h ****   __ASM volatile ("MRS %0, primask" : "=r" (result) );
 137              		.loc 2 306 0
 138              		.syntax unified
 139              	@ 306 "Generated_Source\PSoC5/cmsis_gcc.h" 1
 140 0002 EFF31082 		MRS r2, primask
 141              	@ 0 "" 2
 142              	.LVL13:
 143              		.thumb
 144              		.syntax unified
 145              	.LBE138:
 146              	.LBE137:
 147              	.LBB139:
 148              	.LBB140:
 307:Generated_Source\PSoC5/cmsis_gcc.h ****   return(result);
 308:Generated_Source\PSoC5/cmsis_gcc.h **** }
 309:Generated_Source\PSoC5/cmsis_gcc.h **** 
 310:Generated_Source\PSoC5/cmsis_gcc.h **** 
 311:Generated_Source\PSoC5/cmsis_gcc.h **** #if (defined (__ARM_FEATURE_CMSE ) && (__ARM_FEATURE_CMSE == 3))
 312:Generated_Source\PSoC5/cmsis_gcc.h **** /**
 313:Generated_Source\PSoC5/cmsis_gcc.h ****   \brief   Get Priority Mask (non-secure)
 314:Generated_Source\PSoC5/cmsis_gcc.h ****   \details Returns the current state of the non-secure priority mask bit from the Priority Mask Reg
 315:Generated_Source\PSoC5/cmsis_gcc.h ****   \return               Priority Mask value
 316:Generated_Source\PSoC5/cmsis_gcc.h ****  */
 317:Generated_Source\PSoC5/cmsis_gcc.h **** __attribute__((always_inline)) __STATIC_INLINE uint32_t __TZ_get_PRIMASK_NS(void)
 318:Generated_Source\PSoC5/cmsis_gcc.h **** {
 319:Generated_Source\PSoC5/cmsis_gcc.h ****   uint32_t result;
 320:Generated_Source\PSoC5/cmsis_gcc.h **** 
 321:Generated_Source\PSoC5/cmsis_gcc.h ****   __ASM volatile ("MRS %0, primask_ns" : "=r" (result) );
 322:Generated_Source\PSoC5/cmsis_gcc.h ****   return(result);
 323:Generated_Source\PSoC5/cmsis_gcc.h **** }
 324:Generated_Source\PSoC5/cmsis_gcc.h **** #endif
 325:Generated_Source\PSoC5/cmsis_gcc.h **** 
 326:Generated_Source\PSoC5/cmsis_gcc.h **** 
 327:Generated_Source\PSoC5/cmsis_gcc.h **** /**
 328:Generated_Source\PSoC5/cmsis_gcc.h ****   \brief   Set Priority Mask
 329:Generated_Source\PSoC5/cmsis_gcc.h ****   \details Assigns the given value to the Priority Mask Register.
 330:Generated_Source\PSoC5/cmsis_gcc.h ****   \param [in]    priMask  Priority Mask
 331:Generated_Source\PSoC5/cmsis_gcc.h ****  */
ARM GAS  C:\Users\robom\AppData\Local\Temp\ccqs2S2W.s 			page 39


 332:Generated_Source\PSoC5/cmsis_gcc.h **** __attribute__((always_inline)) __STATIC_INLINE void __set_PRIMASK(uint32_t priMask)
 333:Generated_Source\PSoC5/cmsis_gcc.h **** {
 334:Generated_Source\PSoC5/cmsis_gcc.h ****   __ASM volatile ("MSR primask, %0" : : "r" (priMask) : "memory");
 149              		.loc 2 334 0
 150 0006 0123     		movs	r3, #1
 151              		.syntax unified
 152              	@ 334 "Generated_Source\PSoC5/cmsis_gcc.h" 1
 153 0008 83F31088 		MSR primask, r3
 154              	@ 0 "" 2
 155              	.LVL14:
 156              		.thumb
 157              		.syntax unified
 158              	.LBE140:
 159              	.LBE139:
1685:source\bsw\TraceRecorder/trcStreamingRecorder.c ****   	TRACE_ALLOC_CRITICAL_SECTION();
1686:source\bsw\TraceRecorder/trcStreamingRecorder.c **** 
1687:source\bsw\TraceRecorder/trcStreamingRecorder.c **** 	TRACE_ENTER_CRITICAL_SECTION();
1688:source\bsw\TraceRecorder/trcStreamingRecorder.c **** 	PageInfo[pageIndex].BytesRemaining = (TRC_CFG_PAGED_EVENT_BUFFER_PAGE_SIZE);
 160              		.loc 1 1688 0
 161 000c 0B49     		ldr	r1, .L16
 162 000e 01EBC004 		add	r4, r1, r0, lsl #3
 163 0012 40F6C413 		movw	r3, #2500
 164 0016 6380     		strh	r3, [r4, #2]	@ movhi
1689:source\bsw\TraceRecorder/trcStreamingRecorder.c **** 	PageInfo[pageIndex].WritePointer = &EventBuffer[pageIndex * (TRC_CFG_PAGED_EVENT_BUFFER_PAGE_SIZE)
 165              		.loc 1 1689 0
 166 0018 094D     		ldr	r5, .L16+4
 167 001a 2D68     		ldr	r5, [r5]
 168 001c 03FB0053 		mla	r3, r3, r0, r5
 169 0020 6360     		str	r3, [r4, #4]
1690:source\bsw\TraceRecorder/trcStreamingRecorder.c **** 	PageInfo[pageIndex].Status = PAGE_STATUS_FREE;
 170              		.loc 1 1690 0
 171 0022 0023     		movs	r3, #0
 172 0024 21F83030 		strh	r3, [r1, r0, lsl #3]	@ movhi
1691:source\bsw\TraceRecorder/trcStreamingRecorder.c **** 
1692:source\bsw\TraceRecorder/trcStreamingRecorder.c **** 	TotalBytesRemaining += (TRC_CFG_PAGED_EVENT_BUFFER_PAGE_SIZE);
 173              		.loc 1 1692 0
 174 0028 0649     		ldr	r1, .L16+8
 175 002a 0B68     		ldr	r3, [r1]
 176 002c 03F6C413 		addw	r3, r3, #2500
 177 0030 0B60     		str	r3, [r1]
 178              	.LBB141:
 179              	.LBB142:
 180              		.loc 2 334 0
 181              		.syntax unified
 182              	@ 334 "Generated_Source\PSoC5/cmsis_gcc.h" 1
 183 0032 82F31088 		MSR primask, r2
 184              	@ 0 "" 2
 185              		.thumb
 186              		.syntax unified
 187              	.LBE142:
 188              	.LBE141:
1693:source\bsw\TraceRecorder/trcStreamingRecorder.c **** 
1694:source\bsw\TraceRecorder/trcStreamingRecorder.c **** 	TRACE_EXIT_CRITICAL_SECTION();
1695:source\bsw\TraceRecorder/trcStreamingRecorder.c **** }
 189              		.loc 1 1695 0
 190 0036 30BC     		pop	{r4, r5}
 191              		.cfi_restore 5
ARM GAS  C:\Users\robom\AppData\Local\Temp\ccqs2S2W.s 			page 40


 192              		.cfi_restore 4
 193              		.cfi_def_cfa_offset 0
 194 0038 7047     		bx	lr
 195              	.L17:
 196 003a 00BF     		.align	2
 197              	.L16:
 198 003c 00000000 		.word	PageInfo
 199 0040 00000000 		.word	.LANCHOR0
 200 0044 00000000 		.word	.LANCHOR1
 201              		.cfi_endproc
 202              	.LFE151:
 203              		.size	prvPageReadComplete, .-prvPageReadComplete
 204              		.section	.text.prvGetBufferPage,"ax",%progbits
 205              		.align	2
 206              		.thumb
 207              		.thumb_func
 208              		.type	prvGetBufferPage, %function
 209              	prvGetBufferPage:
 210              	.LFB152:
1696:source\bsw\TraceRecorder/trcStreamingRecorder.c **** 
1697:source\bsw\TraceRecorder/trcStreamingRecorder.c **** /* Get the current buffer page index and remaining number of bytes. */
1698:source\bsw\TraceRecorder/trcStreamingRecorder.c **** static int prvGetBufferPage(int32_t* bytesUsed)
1699:source\bsw\TraceRecorder/trcStreamingRecorder.c **** {
 211              		.loc 1 1699 0
 212              		.cfi_startproc
 213              		@ args = 0, pretend = 0, frame = 0
 214              		@ frame_needed = 0, uses_anonymous_args = 0
 215              		@ link register save eliminated.
 216              	.LVL15:
 217 0000 30B4     		push	{r4, r5}
 218              		.cfi_def_cfa_offset 8
 219              		.cfi_offset 4, -8
 220              		.cfi_offset 5, -4
 221              	.LVL16:
1700:source\bsw\TraceRecorder/trcStreamingRecorder.c **** 	static int8_t lastPage = -1;
1701:source\bsw\TraceRecorder/trcStreamingRecorder.c **** 	int count = 0;
1702:source\bsw\TraceRecorder/trcStreamingRecorder.c ****   	int8_t index = (int8_t) ((lastPage + 1) % (TRC_CFG_PAGED_EVENT_BUFFER_PAGE_COUNT));
 222              		.loc 1 1702 0
 223 0002 1A4B     		ldr	r3, .L27
 224 0004 93F90430 		ldrsb	r3, [r3, #4]
 225 0008 0133     		adds	r3, r3, #1
 226 000a 194A     		ldr	r2, .L27+4
 227 000c 1340     		ands	r3, r3, r2
 228 000e 03D5     		bpl	.L19
 229 0010 013B     		subs	r3, r3, #1
 230 0012 63F00103 		orn	r3, r3, #1
 231 0016 0133     		adds	r3, r3, #1
 232              	.L19:
 233 0018 5BB2     		sxtb	r3, r3
 234              	.LVL17:
1701:source\bsw\TraceRecorder/trcStreamingRecorder.c ****   	int8_t index = (int8_t) ((lastPage + 1) % (TRC_CFG_PAGED_EVENT_BUFFER_PAGE_COUNT));
 235              		.loc 1 1701 0
 236 001a 0021     		movs	r1, #0
1703:source\bsw\TraceRecorder/trcStreamingRecorder.c **** 
1704:source\bsw\TraceRecorder/trcStreamingRecorder.c **** 	while((PageInfo[index].Status != PAGE_STATUS_READ) && (count++ < (TRC_CFG_PAGED_EVENT_BUFFER_PAGE_
 237              		.loc 1 1704 0
 238 001c 09E0     		b	.L20
ARM GAS  C:\Users\robom\AppData\Local\Temp\ccqs2S2W.s 			page 41


 239              	.LVL18:
 240              	.L23:
1705:source\bsw\TraceRecorder/trcStreamingRecorder.c **** 	{
1706:source\bsw\TraceRecorder/trcStreamingRecorder.c **** 		index = (int8_t)((index + 1) % (TRC_CFG_PAGED_EVENT_BUFFER_PAGE_COUNT));
 241              		.loc 1 1706 0
 242 001e 0132     		adds	r2, r2, #1
 243 0020 134B     		ldr	r3, .L27+4
 244              	.LVL19:
 245 0022 1340     		ands	r3, r2, r3
 246 0024 03D5     		bpl	.L21
 247 0026 013B     		subs	r3, r3, #1
 248 0028 63F00103 		orn	r3, r3, #1
 249 002c 0133     		adds	r3, r3, #1
 250              	.L21:
 251 002e 5BB2     		sxtb	r3, r3
 252              	.LVL20:
1704:source\bsw\TraceRecorder/trcStreamingRecorder.c **** 	{
 253              		.loc 1 1704 0
 254 0030 2946     		mov	r1, r5
 255              	.LVL21:
 256              	.L20:
 257 0032 1A46     		mov	r2, r3
 258 0034 0F4C     		ldr	r4, .L27+8
 259 0036 34F83340 		ldrh	r4, [r4, r3, lsl #3]
 260 003a 022C     		cmp	r4, #2
 261 003c 02D0     		beq	.L22
1704:source\bsw\TraceRecorder/trcStreamingRecorder.c **** 	{
 262              		.loc 1 1704 0 is_stmt 0 discriminator 1
 263 003e 4D1C     		adds	r5, r1, #1
 264              	.LVL22:
 265 0040 0129     		cmp	r1, #1
 266 0042 ECDD     		ble	.L23
 267              	.LVL23:
 268              	.L22:
1707:source\bsw\TraceRecorder/trcStreamingRecorder.c **** 	}
1708:source\bsw\TraceRecorder/trcStreamingRecorder.c **** 
1709:source\bsw\TraceRecorder/trcStreamingRecorder.c **** 	if (PageInfo[index].Status == PAGE_STATUS_READ)
 269              		.loc 1 1709 0 is_stmt 1
 270 0044 022C     		cmp	r4, #2
 271 0046 0AD1     		bne	.L24
1710:source\bsw\TraceRecorder/trcStreamingRecorder.c **** 	{
1711:source\bsw\TraceRecorder/trcStreamingRecorder.c **** 		*bytesUsed = (TRC_CFG_PAGED_EVENT_BUFFER_PAGE_SIZE) - PageInfo[index].BytesRemaining;
 272              		.loc 1 1711 0
 273 0048 0A49     		ldr	r1, .L27+8
 274 004a 01EBC201 		add	r1, r1, r2, lsl #3
 275 004e 4988     		ldrh	r1, [r1, #2]
 276 0050 C1F51C61 		rsb	r1, r1, #2496
 277 0054 0431     		adds	r1, r1, #4
 278 0056 0160     		str	r1, [r0]
1712:source\bsw\TraceRecorder/trcStreamingRecorder.c **** 		lastPage = index;
 279              		.loc 1 1712 0
 280 0058 0449     		ldr	r1, .L27
 281 005a 0B71     		strb	r3, [r1, #4]
1713:source\bsw\TraceRecorder/trcStreamingRecorder.c **** 		return index;
 282              		.loc 1 1713 0
 283 005c 03E0     		b	.L25
 284              	.L24:
ARM GAS  C:\Users\robom\AppData\Local\Temp\ccqs2S2W.s 			page 42


1714:source\bsw\TraceRecorder/trcStreamingRecorder.c **** 	}
1715:source\bsw\TraceRecorder/trcStreamingRecorder.c **** 
1716:source\bsw\TraceRecorder/trcStreamingRecorder.c **** 	*bytesUsed = 0;
 285              		.loc 1 1716 0
 286 005e 0023     		movs	r3, #0
 287              	.LVL24:
 288 0060 0360     		str	r3, [r0]
1717:source\bsw\TraceRecorder/trcStreamingRecorder.c **** 
1718:source\bsw\TraceRecorder/trcStreamingRecorder.c **** 	return -1;
 289              		.loc 1 1718 0
 290 0062 4FF0FF32 		mov	r2, #-1
 291              	.L25:
1719:source\bsw\TraceRecorder/trcStreamingRecorder.c **** }
 292              		.loc 1 1719 0
 293 0066 1046     		mov	r0, r2
 294              	.LVL25:
 295 0068 30BC     		pop	{r4, r5}
 296              		.cfi_restore 5
 297              		.cfi_restore 4
 298              		.cfi_def_cfa_offset 0
 299 006a 7047     		bx	lr
 300              	.L28:
 301              		.align	2
 302              	.L27:
 303 006c 00000000 		.word	.LANCHOR1
 304 0070 01000080 		.word	-2147483647
 305 0074 00000000 		.word	PageInfo
 306              		.cfi_endproc
 307              	.LFE152:
 308              		.size	prvGetBufferPage, .-prvGetBufferPage
 309              		.section	.text.vTraceSetFrequency,"ax",%progbits
 310              		.align	2
 311              		.global	vTraceSetFrequency
 312              		.thumb
 313              		.thumb_func
 314              		.type	vTraceSetFrequency, %function
 315              	vTraceSetFrequency:
 316              	.LFB113:
 352:source\bsw\TraceRecorder/trcStreamingRecorder.c **** 	timestampFrequency = frequency;
 317              		.loc 1 352 0
 318              		.cfi_startproc
 319              		@ args = 0, pretend = 0, frame = 0
 320              		@ frame_needed = 0, uses_anonymous_args = 0
 321              		@ link register save eliminated.
 322              	.LVL26:
 353:source\bsw\TraceRecorder/trcStreamingRecorder.c **** }
 323              		.loc 1 353 0
 324 0000 014B     		ldr	r3, .L30
 325 0002 5860     		str	r0, [r3, #4]
 326 0004 7047     		bx	lr
 327              	.L31:
 328 0006 00BF     		.align	2
 329              	.L30:
 330 0008 00000000 		.word	.LANCHOR0
 331              		.cfi_endproc
 332              	.LFE113:
 333              		.size	vTraceSetFrequency, .-vTraceSetFrequency
ARM GAS  C:\Users\robom\AppData\Local\Temp\ccqs2S2W.s 			page 43


 334              		.section	.text.xTraceGetLastError,"ax",%progbits
 335              		.align	2
 336              		.global	xTraceGetLastError
 337              		.thumb
 338              		.thumb_func
 339              		.type	xTraceGetLastError, %function
 340              	xTraceGetLastError:
 341              	.LFB120:
 629:source\bsw\TraceRecorder/trcStreamingRecorder.c **** 	/* Note: the error messages are short, in order to fit in a User Event.
 342              		.loc 1 629 0
 343              		.cfi_startproc
 344              		@ args = 0, pretend = 0, frame = 0
 345              		@ frame_needed = 0, uses_anonymous_args = 0
 346              		@ link register save eliminated.
 633:source\bsw\TraceRecorder/trcStreamingRecorder.c **** 	{
 347              		.loc 1 633 0
 348 0000 294B     		ldr	r3, .L47
 349 0002 9B68     		ldr	r3, [r3, #8]
 350 0004 013B     		subs	r3, r3, #1
 351 0006 692B     		cmp	r3, #105
 352 0008 4AD8     		bhi	.L33
 353 000a DFE803F0 		tbb	[pc, r3]
 354              	.L35:
 355 000e 3F       		.byte	(.L34-.L35)/2
 356 000f 41       		.byte	(.L36-.L35)/2
 357 0010 43       		.byte	(.L37-.L35)/2
 358 0011 45       		.byte	(.L38-.L35)/2
 359 0012 47       		.byte	(.L39-.L35)/2
 360 0013 49       		.byte	(.L33-.L35)/2
 361 0014 49       		.byte	(.L33-.L35)/2
 362 0015 49       		.byte	(.L33-.L35)/2
 363 0016 49       		.byte	(.L33-.L35)/2
 364 0017 49       		.byte	(.L33-.L35)/2
 365 0018 49       		.byte	(.L33-.L35)/2
 366 0019 49       		.byte	(.L33-.L35)/2
 367 001a 49       		.byte	(.L33-.L35)/2
 368 001b 49       		.byte	(.L33-.L35)/2
 369 001c 49       		.byte	(.L33-.L35)/2
 370 001d 49       		.byte	(.L33-.L35)/2
 371 001e 49       		.byte	(.L33-.L35)/2
 372 001f 49       		.byte	(.L33-.L35)/2
 373 0020 49       		.byte	(.L33-.L35)/2
 374 0021 49       		.byte	(.L33-.L35)/2
 375 0022 49       		.byte	(.L33-.L35)/2
 376 0023 49       		.byte	(.L33-.L35)/2
 377 0024 49       		.byte	(.L33-.L35)/2
 378 0025 49       		.byte	(.L33-.L35)/2
 379 0026 49       		.byte	(.L33-.L35)/2
 380 0027 49       		.byte	(.L33-.L35)/2
 381 0028 49       		.byte	(.L33-.L35)/2
 382 0029 49       		.byte	(.L33-.L35)/2
 383 002a 49       		.byte	(.L33-.L35)/2
 384 002b 49       		.byte	(.L33-.L35)/2
 385 002c 49       		.byte	(.L33-.L35)/2
 386 002d 49       		.byte	(.L33-.L35)/2
 387 002e 49       		.byte	(.L33-.L35)/2
 388 002f 49       		.byte	(.L33-.L35)/2
ARM GAS  C:\Users\robom\AppData\Local\Temp\ccqs2S2W.s 			page 44


 389 0030 49       		.byte	(.L33-.L35)/2
 390 0031 49       		.byte	(.L33-.L35)/2
 391 0032 49       		.byte	(.L33-.L35)/2
 392 0033 49       		.byte	(.L33-.L35)/2
 393 0034 49       		.byte	(.L33-.L35)/2
 394 0035 49       		.byte	(.L33-.L35)/2
 395 0036 49       		.byte	(.L33-.L35)/2
 396 0037 49       		.byte	(.L33-.L35)/2
 397 0038 49       		.byte	(.L33-.L35)/2
 398 0039 49       		.byte	(.L33-.L35)/2
 399 003a 49       		.byte	(.L33-.L35)/2
 400 003b 49       		.byte	(.L33-.L35)/2
 401 003c 49       		.byte	(.L33-.L35)/2
 402 003d 49       		.byte	(.L33-.L35)/2
 403 003e 49       		.byte	(.L33-.L35)/2
 404 003f 49       		.byte	(.L33-.L35)/2
 405 0040 49       		.byte	(.L33-.L35)/2
 406 0041 49       		.byte	(.L33-.L35)/2
 407 0042 49       		.byte	(.L33-.L35)/2
 408 0043 49       		.byte	(.L33-.L35)/2
 409 0044 49       		.byte	(.L33-.L35)/2
 410 0045 49       		.byte	(.L33-.L35)/2
 411 0046 49       		.byte	(.L33-.L35)/2
 412 0047 49       		.byte	(.L33-.L35)/2
 413 0048 49       		.byte	(.L33-.L35)/2
 414 0049 49       		.byte	(.L33-.L35)/2
 415 004a 49       		.byte	(.L33-.L35)/2
 416 004b 49       		.byte	(.L33-.L35)/2
 417 004c 49       		.byte	(.L33-.L35)/2
 418 004d 49       		.byte	(.L33-.L35)/2
 419 004e 49       		.byte	(.L33-.L35)/2
 420 004f 49       		.byte	(.L33-.L35)/2
 421 0050 49       		.byte	(.L33-.L35)/2
 422 0051 49       		.byte	(.L33-.L35)/2
 423 0052 49       		.byte	(.L33-.L35)/2
 424 0053 49       		.byte	(.L33-.L35)/2
 425 0054 49       		.byte	(.L33-.L35)/2
 426 0055 49       		.byte	(.L33-.L35)/2
 427 0056 49       		.byte	(.L33-.L35)/2
 428 0057 49       		.byte	(.L33-.L35)/2
 429 0058 49       		.byte	(.L33-.L35)/2
 430 0059 49       		.byte	(.L33-.L35)/2
 431 005a 49       		.byte	(.L33-.L35)/2
 432 005b 49       		.byte	(.L33-.L35)/2
 433 005c 49       		.byte	(.L33-.L35)/2
 434 005d 49       		.byte	(.L33-.L35)/2
 435 005e 49       		.byte	(.L33-.L35)/2
 436 005f 49       		.byte	(.L33-.L35)/2
 437 0060 49       		.byte	(.L33-.L35)/2
 438 0061 49       		.byte	(.L33-.L35)/2
 439 0062 49       		.byte	(.L33-.L35)/2
 440 0063 49       		.byte	(.L33-.L35)/2
 441 0064 49       		.byte	(.L33-.L35)/2
 442 0065 49       		.byte	(.L33-.L35)/2
 443 0066 49       		.byte	(.L33-.L35)/2
 444 0067 49       		.byte	(.L33-.L35)/2
 445 0068 49       		.byte	(.L33-.L35)/2
ARM GAS  C:\Users\robom\AppData\Local\Temp\ccqs2S2W.s 			page 45


 446 0069 49       		.byte	(.L33-.L35)/2
 447 006a 49       		.byte	(.L33-.L35)/2
 448 006b 49       		.byte	(.L33-.L35)/2
 449 006c 49       		.byte	(.L33-.L35)/2
 450 006d 49       		.byte	(.L33-.L35)/2
 451 006e 49       		.byte	(.L33-.L35)/2
 452 006f 49       		.byte	(.L33-.L35)/2
 453 0070 49       		.byte	(.L33-.L35)/2
 454 0071 49       		.byte	(.L33-.L35)/2
 455 0072 35       		.byte	(.L40-.L35)/2
 456 0073 4B       		.byte	(.L46-.L35)/2
 457 0074 37       		.byte	(.L42-.L35)/2
 458 0075 39       		.byte	(.L43-.L35)/2
 459 0076 3B       		.byte	(.L44-.L35)/2
 460 0077 3D       		.byte	(.L45-.L35)/2
 461              		.p2align 1
 462              	.L40:
 641:source\bsw\TraceRecorder/trcStreamingRecorder.c **** 
 463              		.loc 1 641 0
 464 0078 0C48     		ldr	r0, .L47+4
 465 007a 7047     		bx	lr
 466              	.L42:
 657:source\bsw\TraceRecorder/trcStreamingRecorder.c **** 
 467              		.loc 1 657 0
 468 007c 0C48     		ldr	r0, .L47+8
 469 007e 7047     		bx	lr
 470              	.L43:
 675:source\bsw\TraceRecorder/trcStreamingRecorder.c **** 
 471              		.loc 1 675 0
 472 0080 0C48     		ldr	r0, .L47+12
 473 0082 7047     		bx	lr
 474              	.L44:
 681:source\bsw\TraceRecorder/trcStreamingRecorder.c **** 
 475              		.loc 1 681 0
 476 0084 0C48     		ldr	r0, .L47+16
 477 0086 7047     		bx	lr
 478              	.L45:
 687:source\bsw\TraceRecorder/trcStreamingRecorder.c **** 
 479              		.loc 1 687 0
 480 0088 0C48     		ldr	r0, .L47+20
 481 008a 7047     		bx	lr
 482              	.L34:
 693:source\bsw\TraceRecorder/trcStreamingRecorder.c **** 	
 483              		.loc 1 693 0
 484 008c 0C48     		ldr	r0, .L47+24
 485 008e 7047     		bx	lr
 486              	.L36:
 700:source\bsw\TraceRecorder/trcStreamingRecorder.c **** 
 487              		.loc 1 700 0
 488 0090 0C48     		ldr	r0, .L47+28
 489 0092 7047     		bx	lr
 490              	.L37:
 708:source\bsw\TraceRecorder/trcStreamingRecorder.c **** 
 491              		.loc 1 708 0
 492 0094 0C48     		ldr	r0, .L47+32
 493 0096 7047     		bx	lr
 494              	.L38:
ARM GAS  C:\Users\robom\AppData\Local\Temp\ccqs2S2W.s 			page 46


 716:source\bsw\TraceRecorder/trcStreamingRecorder.c **** 	
 495              		.loc 1 716 0
 496 0098 0C48     		ldr	r0, .L47+36
 497 009a 7047     		bx	lr
 498              	.L39:
 721:source\bsw\TraceRecorder/trcStreamingRecorder.c **** 	
 499              		.loc 1 721 0
 500 009c 0C48     		ldr	r0, .L47+40
 501 009e 7047     		bx	lr
 502              	.L33:
 725:source\bsw\TraceRecorder/trcStreamingRecorder.c **** }
 503              		.loc 1 725 0
 504 00a0 0020     		movs	r0, #0
 505 00a2 7047     		bx	lr
 506              	.L46:
 649:source\bsw\TraceRecorder/trcStreamingRecorder.c **** 
 507              		.loc 1 649 0
 508 00a4 0B48     		ldr	r0, .L47+44
 726:source\bsw\TraceRecorder/trcStreamingRecorder.c **** 
 509              		.loc 1 726 0
 510 00a6 7047     		bx	lr
 511              	.L48:
 512              		.align	2
 513              	.L47:
 514 00a8 00000000 		.word	.LANCHOR0
 515 00ac 00000000 		.word	.LC0
 516 00b0 6C000000 		.word	.LC2
 517 00b4 A0000000 		.word	.LC3
 518 00b8 CC000000 		.word	.LC4
 519 00bc 00010000 		.word	.LC5
 520 00c0 34010000 		.word	.LC6
 521 00c4 60010000 		.word	.LC7
 522 00c8 90010000 		.word	.LC8
 523 00cc BC010000 		.word	.LC9
 524 00d0 F0010000 		.word	.LC10
 525 00d4 38000000 		.word	.LC1
 526              		.cfi_endproc
 527              	.LFE120:
 528              		.size	xTraceGetLastError, .-xTraceGetLastError
 529              		.section	.text.vTraceClearError,"ax",%progbits
 530              		.align	2
 531              		.global	vTraceClearError
 532              		.thumb
 533              		.thumb_func
 534              		.type	vTraceClearError, %function
 535              	vTraceClearError:
 536              	.LFB121:
 734:source\bsw\TraceRecorder/trcStreamingRecorder.c **** 	NoRoomForSymbol = 0;
 537              		.loc 1 734 0
 538              		.cfi_startproc
 539              		@ args = 0, pretend = 0, frame = 0
 540              		@ frame_needed = 0, uses_anonymous_args = 0
 541              		@ link register save eliminated.
 735:source\bsw\TraceRecorder/trcStreamingRecorder.c **** 	LongestSymbolName = 0;
 542              		.loc 1 735 0
 543 0000 034B     		ldr	r3, .L50
 544 0002 0022     		movs	r2, #0
ARM GAS  C:\Users\robom\AppData\Local\Temp\ccqs2S2W.s 			page 47


 545 0004 DA60     		str	r2, [r3, #12]
 736:source\bsw\TraceRecorder/trcStreamingRecorder.c **** 	NoRoomForObjectData = 0;
 546              		.loc 1 736 0
 547 0006 1A61     		str	r2, [r3, #16]
 737:source\bsw\TraceRecorder/trcStreamingRecorder.c **** 	MaxBytesTruncated = 0;
 548              		.loc 1 737 0
 549 0008 5A61     		str	r2, [r3, #20]
 738:source\bsw\TraceRecorder/trcStreamingRecorder.c **** 	errorCode = PSF_ERROR_NONE;
 550              		.loc 1 738 0
 551 000a 9A61     		str	r2, [r3, #24]
 739:source\bsw\TraceRecorder/trcStreamingRecorder.c **** }
 552              		.loc 1 739 0
 553 000c 9A60     		str	r2, [r3, #8]
 554 000e 7047     		bx	lr
 555              	.L51:
 556              		.align	2
 557              	.L50:
 558 0010 00000000 		.word	.LANCHOR0
 559              		.cfi_endproc
 560              	.LFE121:
 561              		.size	vTraceClearError, .-vTraceClearError
 562              		.section	.text.xTraceIsRecordingEnabled,"ax",%progbits
 563              		.align	2
 564              		.global	xTraceIsRecordingEnabled
 565              		.thumb
 566              		.thumb_func
 567              		.type	xTraceIsRecordingEnabled, %function
 568              	xTraceIsRecordingEnabled:
 569              	.LFB123:
 774:source\bsw\TraceRecorder/trcStreamingRecorder.c **** 	return (int)RecorderEnabled;
 570              		.loc 1 774 0
 571              		.cfi_startproc
 572              		@ args = 0, pretend = 0, frame = 0
 573              		@ frame_needed = 0, uses_anonymous_args = 0
 574              		@ link register save eliminated.
 776:source\bsw\TraceRecorder/trcStreamingRecorder.c **** 
 575              		.loc 1 776 0
 576 0000 014B     		ldr	r3, .L53
 577 0002 D869     		ldr	r0, [r3, #28]
 578 0004 7047     		bx	lr
 579              	.L54:
 580 0006 00BF     		.align	2
 581              	.L53:
 582 0008 00000000 		.word	.LANCHOR0
 583              		.cfi_endproc
 584              	.LFE123:
 585              		.size	xTraceIsRecordingEnabled, .-xTraceIsRecordingEnabled
 586              		.section	.text.vTraceSetFilterMask,"ax",%progbits
 587              		.align	2
 588              		.global	vTraceSetFilterMask
 589              		.thumb
 590              		.thumb_func
 591              		.type	vTraceSetFilterMask, %function
 592              	vTraceSetFilterMask:
 593              	.LFB124:
 779:source\bsw\TraceRecorder/trcStreamingRecorder.c **** 	CurrentFilterMask = filterMask;
 594              		.loc 1 779 0
ARM GAS  C:\Users\robom\AppData\Local\Temp\ccqs2S2W.s 			page 48


 595              		.cfi_startproc
 596              		@ args = 0, pretend = 0, frame = 0
 597              		@ frame_needed = 0, uses_anonymous_args = 0
 598              		@ link register save eliminated.
 599              	.LVL27:
 780:source\bsw\TraceRecorder/trcStreamingRecorder.c **** }
 600              		.loc 1 780 0
 601 0000 014B     		ldr	r3, .L56
 602 0002 D880     		strh	r0, [r3, #6]	@ movhi
 603 0004 7047     		bx	lr
 604              	.L57:
 605 0006 00BF     		.align	2
 606              	.L56:
 607 0008 00000000 		.word	.LANCHOR1
 608              		.cfi_endproc
 609              	.LFE124:
 610              		.size	vTraceSetFilterMask, .-vTraceSetFilterMask
 611              		.section	.text.vTraceSetFilterGroup,"ax",%progbits
 612              		.align	2
 613              		.global	vTraceSetFilterGroup
 614              		.thumb
 615              		.thumb_func
 616              		.type	vTraceSetFilterGroup, %function
 617              	vTraceSetFilterGroup:
 618              	.LFB125:
 784:source\bsw\TraceRecorder/trcStreamingRecorder.c **** 	CurrentFilterGroup = filterGroup;
 619              		.loc 1 784 0
 620              		.cfi_startproc
 621              		@ args = 0, pretend = 0, frame = 0
 622              		@ frame_needed = 0, uses_anonymous_args = 0
 623              		@ link register save eliminated.
 624              	.LVL28:
 785:source\bsw\TraceRecorder/trcStreamingRecorder.c **** }
 625              		.loc 1 785 0
 626 0000 014B     		ldr	r3, .L59
 627 0002 1881     		strh	r0, [r3, #8]	@ movhi
 628 0004 7047     		bx	lr
 629              	.L60:
 630 0006 00BF     		.align	2
 631              	.L59:
 632 0008 00000000 		.word	.LANCHOR1
 633              		.cfi_endproc
 634              	.LFE125:
 635              		.size	vTraceSetFilterGroup, .-vTraceSetFilterGroup
 636              		.section	.text.prvTraceSaveSymbol,"ax",%progbits
 637              		.align	2
 638              		.global	prvTraceSaveSymbol
 639              		.thumb
 640              		.thumb_func
 641              		.type	prvTraceSaveSymbol, %function
 642              	prvTraceSaveSymbol:
 643              	.LFB139:
1301:source\bsw\TraceRecorder/trcStreamingRecorder.c **** 	uint32_t i;
 644              		.loc 1 1301 0
 645              		.cfi_startproc
 646              		@ args = 0, pretend = 0, frame = 0
 647              		@ frame_needed = 0, uses_anonymous_args = 0
ARM GAS  C:\Users\robom\AppData\Local\Temp\ccqs2S2W.s 			page 49


 648              		@ link register save eliminated.
 649              	.LVL29:
 650 0000 70B4     		push	{r4, r5, r6}
 651              		.cfi_def_cfa_offset 12
 652              		.cfi_offset 4, -12
 653              		.cfi_offset 5, -8
 654              		.cfi_offset 6, -4
 655              	.LBB143:
 656              	.LBB144:
 306:Generated_Source\PSoC5/cmsis_gcc.h ****   return(result);
 657              		.loc 2 306 0
 658              		.syntax unified
 659              	@ 306 "Generated_Source\PSoC5/cmsis_gcc.h" 1
 660 0002 EFF31086 		MRS r6, primask
 661              	@ 0 "" 2
 662              	.LVL30:
 663              		.thumb
 664              		.syntax unified
 665              	.LBE144:
 666              	.LBE143:
 667              	.LBB145:
 668              	.LBB146:
 669              		.loc 2 334 0
 670 0006 0123     		movs	r3, #1
 671              		.syntax unified
 672              	@ 334 "Generated_Source\PSoC5/cmsis_gcc.h" 1
 673 0008 83F31088 		MSR primask, r3
 674              	@ 0 "" 2
 675              	.LVL31:
 676              		.thumb
 677              		.syntax unified
 678              	.LBE146:
 679              	.LBE145:
1310:source\bsw\TraceRecorder/trcStreamingRecorder.c **** 
 680              		.loc 1 1310 0
 681 000c 1E4B     		ldr	r3, .L75
 682 000e 1D6A     		ldr	r5, [r3, #32]
 683              	.LVL32:
1313:source\bsw\TraceRecorder/trcStreamingRecorder.c **** 	{
 684              		.loc 1 1313 0
 685 0010 0022     		movs	r2, #0
 686 0012 07E0     		b	.L62
 687              	.LVL33:
 688              	.L64:
1317:source\bsw\TraceRecorder/trcStreamingRecorder.c **** 		{
 689              		.loc 1 1317 0
 690 0014 22F00303 		bic	r3, r2, #3
 691 0018 1B4C     		ldr	r4, .L75
 692 001a 2344     		add	r3, r3, r4
 693 001c 5B6A     		ldr	r3, [r3, #36]
 694 001e 8342     		cmp	r3, r0
 695 0020 03D0     		beq	.L63
1313:source\bsw\TraceRecorder/trcStreamingRecorder.c **** 	{
 696              		.loc 1 1313 0 discriminator 2
 697 0022 2032     		adds	r2, r2, #32
 698              	.LVL34:
 699              	.L62:
ARM GAS  C:\Users\robom\AppData\Local\Temp\ccqs2S2W.s 			page 50


1313:source\bsw\TraceRecorder/trcStreamingRecorder.c **** 	{
 700              		.loc 1 1313 0 is_stmt 0 discriminator 1
 701 0024 AA42     		cmp	r2, r5
 702 0026 F5D3     		bcc	.L64
1310:source\bsw\TraceRecorder/trcStreamingRecorder.c **** 
 703              		.loc 1 1310 0 is_stmt 1
 704 0028 2A46     		mov	r2, r5
 705              	.LVL35:
 706              	.L63:
1324:source\bsw\TraceRecorder/trcStreamingRecorder.c **** 	{
 707              		.loc 1 1324 0
 708 002a B2F5A06F 		cmp	r2, #1280
 709 002e 22D2     		bcs	.L65
1327:source\bsw\TraceRecorder/trcStreamingRecorder.c **** 		
 710              		.loc 1 1327 0
 711 0030 154B     		ldr	r3, .L75
 712 0032 22F00304 		bic	r4, r2, #3
 713 0036 1C44     		add	r4, r4, r3
 714 0038 6062     		str	r0, [r4, #36]
1330:source\bsw\TraceRecorder/trcStreamingRecorder.c **** 		for (i = 0; i < (TRC_CFG_SYMBOL_MAX_LENGTH); i++)
 715              		.loc 1 1330 0
 716 003a 141D     		adds	r4, r2, #4
 717 003c 2433     		adds	r3, r3, #36
 718 003e 1C44     		add	r4, r4, r3
 719              	.LVL36:
1331:source\bsw\TraceRecorder/trcStreamingRecorder.c ****         {
 720              		.loc 1 1331 0
 721 0040 0023     		movs	r3, #0
 722 0042 04E0     		b	.L66
 723              	.LVL37:
 724              	.L68:
1333:source\bsw\TraceRecorder/trcStreamingRecorder.c **** 
 725              		.loc 1 1333 0
 726 0044 C85C     		ldrb	r0, [r1, r3]	@ zero_extendqisi2
 727 0046 E054     		strb	r0, [r4, r3]
1335:source\bsw\TraceRecorder/trcStreamingRecorder.c **** 				break;
 728              		.loc 1 1335 0
 729 0048 C85C     		ldrb	r0, [r1, r3]	@ zero_extendqisi2
 730 004a 20B1     		cbz	r0, .L69
1331:source\bsw\TraceRecorder/trcStreamingRecorder.c ****         {
 731              		.loc 1 1331 0 discriminator 2
 732 004c 0133     		adds	r3, r3, #1
 733              	.LVL38:
 734              	.L66:
1331:source\bsw\TraceRecorder/trcStreamingRecorder.c ****         {
 735              		.loc 1 1331 0 is_stmt 0 discriminator 1
 736 004e 182B     		cmp	r3, #24
 737 0050 F8D9     		bls	.L68
 738 0052 00E0     		b	.L69
 739              	.L71:
1342:source\bsw\TraceRecorder/trcStreamingRecorder.c **** 		}
 740              		.loc 1 1342 0 is_stmt 1
 741 0054 0133     		adds	r3, r3, #1
 742              	.LVL39:
 743              	.L69:
1340:source\bsw\TraceRecorder/trcStreamingRecorder.c **** 		{
 744              		.loc 1 1340 0
ARM GAS  C:\Users\robom\AppData\Local\Temp\ccqs2S2W.s 			page 51


 745 0056 C85C     		ldrb	r0, [r1, r3]	@ zero_extendqisi2
 746 0058 08B1     		cbz	r0, .L70
1340:source\bsw\TraceRecorder/trcStreamingRecorder.c **** 		{
 747              		.loc 1 1340 0 is_stmt 0 discriminator 1
 748 005a 7F2B     		cmp	r3, #127
 749 005c FAD9     		bls	.L71
 750              	.L70:
1346:source\bsw\TraceRecorder/trcStreamingRecorder.c **** 		{
 751              		.loc 1 1346 0 is_stmt 1
 752 005e 0A49     		ldr	r1, .L75
 753              	.LVL40:
 754 0060 0969     		ldr	r1, [r1, #16]
 755 0062 8B42     		cmp	r3, r1
 756 0064 01D9     		bls	.L72
1348:source\bsw\TraceRecorder/trcStreamingRecorder.c **** 		}
 757              		.loc 1 1348 0
 758 0066 0849     		ldr	r1, .L75
 759 0068 0B61     		str	r3, [r1, #16]
 760              	.L72:
1352:source\bsw\TraceRecorder/trcStreamingRecorder.c **** 		{
 761              		.loc 1 1352 0
 762 006a AA42     		cmp	r2, r5
 763 006c 07D1     		bne	.L73
1354:source\bsw\TraceRecorder/trcStreamingRecorder.c **** 		}
 764              		.loc 1 1354 0
 765 006e 2035     		adds	r5, r5, #32
 766 0070 054B     		ldr	r3, .L75
 767              	.LVL41:
 768 0072 1D62     		str	r5, [r3, #32]
 769 0074 03E0     		b	.L73
 770              	.LVL42:
 771              	.L65:
1359:source\bsw\TraceRecorder/trcStreamingRecorder.c **** 	}
 772              		.loc 1 1359 0
 773 0076 044A     		ldr	r2, .L75
 774              	.LVL43:
 775 0078 D368     		ldr	r3, [r2, #12]
 776 007a 0133     		adds	r3, r3, #1
 777 007c D360     		str	r3, [r2, #12]
 778              	.LVL44:
 779              	.L73:
 780              	.LBB147:
 781              	.LBB148:
 782              		.loc 2 334 0
 783              		.syntax unified
 784              	@ 334 "Generated_Source\PSoC5/cmsis_gcc.h" 1
 785 007e 86F31088 		MSR primask, r6
 786              	@ 0 "" 2
 787              	.LVL45:
 788              		.thumb
 789              		.syntax unified
 790              	.LBE148:
 791              	.LBE147:
1363:source\bsw\TraceRecorder/trcStreamingRecorder.c **** 
 792              		.loc 1 1363 0
 793 0082 70BC     		pop	{r4, r5, r6}
 794              		.cfi_restore 6
ARM GAS  C:\Users\robom\AppData\Local\Temp\ccqs2S2W.s 			page 52


 795              		.cfi_restore 5
 796              		.cfi_restore 4
 797              		.cfi_def_cfa_offset 0
 798 0084 7047     		bx	lr
 799              	.L76:
 800 0086 00BF     		.align	2
 801              	.L75:
 802 0088 00000000 		.word	.LANCHOR0
 803              		.cfi_endproc
 804              	.LFE139:
 805              		.size	prvTraceSaveSymbol, .-prvTraceSaveSymbol
 806              		.section	.text.prvTraceDeleteSymbol,"ax",%progbits
 807              		.align	2
 808              		.global	prvTraceDeleteSymbol
 809              		.thumb
 810              		.thumb_func
 811              		.type	prvTraceDeleteSymbol, %function
 812              	prvTraceDeleteSymbol:
 813              	.LFB140:
1367:source\bsw\TraceRecorder/trcStreamingRecorder.c **** 	uint32_t i, j;
 814              		.loc 1 1367 0
 815              		.cfi_startproc
 816              		@ args = 0, pretend = 0, frame = 0
 817              		@ frame_needed = 0, uses_anonymous_args = 0
 818              		@ link register save eliminated.
 819              	.LVL46:
 820 0000 F0B4     		push	{r4, r5, r6, r7}
 821              		.cfi_def_cfa_offset 16
 822              		.cfi_offset 4, -16
 823              		.cfi_offset 5, -12
 824              		.cfi_offset 6, -8
 825              		.cfi_offset 7, -4
 826              	.LBB149:
 827              	.LBB150:
 306:Generated_Source\PSoC5/cmsis_gcc.h ****   return(result);
 828              		.loc 2 306 0
 829              		.syntax unified
 830              	@ 306 "Generated_Source\PSoC5/cmsis_gcc.h" 1
 831 0002 EFF31087 		MRS r7, primask
 832              	@ 0 "" 2
 833              	.LVL47:
 834              		.thumb
 835              		.syntax unified
 836              	.LBE150:
 837              	.LBE149:
 838              	.LBB151:
 839              	.LBB152:
 840              		.loc 2 334 0
 841 0006 0123     		movs	r3, #1
 842              		.syntax unified
 843              	@ 334 "Generated_Source\PSoC5/cmsis_gcc.h" 1
 844 0008 83F31088 		MSR primask, r3
 845              	@ 0 "" 2
 846              	.LVL48:
 847              		.thumb
 848              		.syntax unified
 849              	.LBE152:
ARM GAS  C:\Users\robom\AppData\Local\Temp\ccqs2S2W.s 			page 53


 850              	.LBE151:
1374:source\bsw\TraceRecorder/trcStreamingRecorder.c **** 	{
 851              		.loc 1 1374 0
 852 000c 0022     		movs	r2, #0
 853 000e 2CE0     		b	.L78
 854              	.LVL49:
 855              	.L85:
1377:source\bsw\TraceRecorder/trcStreamingRecorder.c **** 		if (*ptr == (uint32_t)address)
 856              		.loc 1 1377 0
 857 0010 9508     		lsrs	r5, r2, #2
 858 0012 1A49     		ldr	r1, .L87
 859 0014 01F12406 		add	r6, r1, #36
 860 0018 AB00     		lsls	r3, r5, #2
 861 001a 1E44     		add	r6, r6, r3
 862              	.LVL50:
1378:source\bsw\TraceRecorder/trcStreamingRecorder.c **** 		{
 863              		.loc 1 1378 0
 864 001c 0B44     		add	r3, r3, r1
 865 001e 5B6A     		ldr	r3, [r3, #36]
 866 0020 8342     		cmp	r3, r0
 867 0022 21D1     		bne	.L79
1381:source\bsw\TraceRecorder/trcStreamingRecorder.c **** 			{
 868              		.loc 1 1381 0
 869 0024 202C     		cmp	r4, #32
 870 0026 15D9     		bls	.L80
1381:source\bsw\TraceRecorder/trcStreamingRecorder.c **** 			{
 871              		.loc 1 1381 0 is_stmt 0 discriminator 1
 872 0028 203C     		subs	r4, r4, #32
 873 002a A242     		cmp	r2, r4
 874 002c 12D0     		beq	.L80
1385:source\bsw\TraceRecorder/trcStreamingRecorder.c **** 				
 875              		.loc 1 1385 0 is_stmt 1
 876 002e A408     		lsrs	r4, r4, #2
 877 0030 2431     		adds	r1, r1, #36
 878 0032 01EB8401 		add	r1, r1, r4, lsl #2
 879              	.LVL51:
1388:source\bsw\TraceRecorder/trcStreamingRecorder.c **** 				{
 880              		.loc 1 1388 0
 881 0036 0023     		movs	r3, #0
 882 0038 04E0     		b	.L81
 883              	.LVL52:
 884              	.L82:
1390:source\bsw\TraceRecorder/trcStreamingRecorder.c **** 				}
 885              		.loc 1 1390 0 discriminator 3
 886 003a 51F82320 		ldr	r2, [r1, r3, lsl #2]
 887 003e 46F82320 		str	r2, [r6, r3, lsl #2]
1388:source\bsw\TraceRecorder/trcStreamingRecorder.c **** 				{
 888              		.loc 1 1388 0 discriminator 3
 889 0042 0133     		adds	r3, r3, #1
 890              	.LVL53:
 891              	.L81:
1388:source\bsw\TraceRecorder/trcStreamingRecorder.c **** 				{
 892              		.loc 1 1388 0 is_stmt 0 discriminator 1
 893 0044 072B     		cmp	r3, #7
 894 0046 F8D9     		bls	.L82
1394:source\bsw\TraceRecorder/trcStreamingRecorder.c **** 			}
 895              		.loc 1 1394 0 is_stmt 1
ARM GAS  C:\Users\robom\AppData\Local\Temp\ccqs2S2W.s 			page 54


 896 0048 0C4B     		ldr	r3, .L87
 897              	.LVL54:
 898 004a 03EB8404 		add	r4, r3, r4, lsl #2
 899 004e 0023     		movs	r3, #0
 900 0050 6362     		str	r3, [r4, #36]
 901 0052 04E0     		b	.L83
 902              	.LVL55:
 903              	.L80:
1397:source\bsw\TraceRecorder/trcStreamingRecorder.c **** 
 904              		.loc 1 1397 0
 905 0054 094B     		ldr	r3, .L87
 906 0056 03EB8505 		add	r5, r3, r5, lsl #2
 907 005a 0023     		movs	r3, #0
 908 005c 6B62     		str	r3, [r5, #36]
 909              	.LVL56:
 910              	.L83:
1400:source\bsw\TraceRecorder/trcStreamingRecorder.c **** 
 911              		.loc 1 1400 0
 912 005e 074A     		ldr	r2, .L87
 913 0060 136A     		ldr	r3, [r2, #32]
 914 0062 203B     		subs	r3, r3, #32
 915 0064 1362     		str	r3, [r2, #32]
1402:source\bsw\TraceRecorder/trcStreamingRecorder.c **** 		}
 916              		.loc 1 1402 0
 917 0066 04E0     		b	.L84
 918              	.LVL57:
 919              	.L79:
1374:source\bsw\TraceRecorder/trcStreamingRecorder.c **** 	{
 920              		.loc 1 1374 0 discriminator 2
 921 0068 2032     		adds	r2, r2, #32
 922              	.LVL58:
 923              	.L78:
1374:source\bsw\TraceRecorder/trcStreamingRecorder.c **** 	{
 924              		.loc 1 1374 0 is_stmt 0 discriminator 1
 925 006a 044B     		ldr	r3, .L87
 926 006c 1C6A     		ldr	r4, [r3, #32]
 927 006e A242     		cmp	r2, r4
 928 0070 CED3     		bcc	.L85
 929              	.LVL59:
 930              	.L84:
 931              	.LBB153:
 932              	.LBB154:
 933              		.loc 2 334 0 is_stmt 1
 934              		.syntax unified
 935              	@ 334 "Generated_Source\PSoC5/cmsis_gcc.h" 1
 936 0072 87F31088 		MSR primask, r7
 937              	@ 0 "" 2
 938              	.LVL60:
 939              		.thumb
 940              		.syntax unified
 941              	.LBE154:
 942              	.LBE153:
1407:source\bsw\TraceRecorder/trcStreamingRecorder.c **** 
 943              		.loc 1 1407 0
 944 0076 F0BC     		pop	{r4, r5, r6, r7}
 945              		.cfi_restore 7
 946              		.cfi_restore 6
ARM GAS  C:\Users\robom\AppData\Local\Temp\ccqs2S2W.s 			page 55


 947              		.cfi_restore 5
 948              		.cfi_restore 4
 949              		.cfi_def_cfa_offset 0
 950 0078 7047     		bx	lr
 951              	.L88:
 952 007a 00BF     		.align	2
 953              	.L87:
 954 007c 00000000 		.word	.LANCHOR0
 955              		.cfi_endproc
 956              	.LFE140:
 957              		.size	prvTraceDeleteSymbol, .-prvTraceDeleteSymbol
 958              		.section	.text.prvTraceSaveObjectData,"ax",%progbits
 959              		.align	2
 960              		.global	prvTraceSaveObjectData
 961              		.thumb
 962              		.thumb_func
 963              		.type	prvTraceSaveObjectData, %function
 964              	prvTraceSaveObjectData:
 965              	.LFB141:
1411:source\bsw\TraceRecorder/trcStreamingRecorder.c **** 	uint32_t i;
 966              		.loc 1 1411 0
 967              		.cfi_startproc
 968              		@ args = 0, pretend = 0, frame = 0
 969              		@ frame_needed = 0, uses_anonymous_args = 0
 970              		@ link register save eliminated.
 971              	.LVL61:
 972 0000 F0B4     		push	{r4, r5, r6, r7}
 973              		.cfi_def_cfa_offset 16
 974              		.cfi_offset 4, -16
 975              		.cfi_offset 5, -12
 976              		.cfi_offset 6, -8
 977              		.cfi_offset 7, -4
 978              	.LBB155:
 979              	.LBB156:
 306:Generated_Source\PSoC5/cmsis_gcc.h ****   return(result);
 980              		.loc 2 306 0
 981              		.syntax unified
 982              	@ 306 "Generated_Source\PSoC5/cmsis_gcc.h" 1
 983 0002 EFF31086 		MRS r6, primask
 984              	@ 0 "" 2
 985              	.LVL62:
 986              		.thumb
 987              		.syntax unified
 988              	.LBE156:
 989              	.LBE155:
 990              	.LBB157:
 991              	.LBB158:
 992              		.loc 2 334 0
 993 0006 0123     		movs	r3, #1
 994              		.syntax unified
 995              	@ 334 "Generated_Source\PSoC5/cmsis_gcc.h" 1
 996 0008 83F31088 		MSR primask, r3
 997              	@ 0 "" 2
 998              	.LVL63:
 999              		.thumb
 1000              		.syntax unified
 1001              	.LBE158:
ARM GAS  C:\Users\robom\AppData\Local\Temp\ccqs2S2W.s 			page 56


 1002              	.LBE157:
1419:source\bsw\TraceRecorder/trcStreamingRecorder.c **** 
 1003              		.loc 1 1419 0
 1004 000c 164B     		ldr	r3, .L96
 1005 000e D3F82455 		ldr	r5, [r3, #1316]
 1006              	.LVL64:
1422:source\bsw\TraceRecorder/trcStreamingRecorder.c **** 	{
 1007              		.loc 1 1422 0
 1008 0012 0023     		movs	r3, #0
 1009 0014 08E0     		b	.L90
 1010              	.LVL65:
 1011              	.L92:
1426:source\bsw\TraceRecorder/trcStreamingRecorder.c **** 		{
 1012              		.loc 1 1426 0
 1013 0016 23F00302 		bic	r2, r3, #3
 1014 001a 134C     		ldr	r4, .L96
 1015 001c 2244     		add	r2, r2, r4
 1016 001e D2F82825 		ldr	r2, [r2, #1320]
 1017 0022 8242     		cmp	r2, r0
 1018 0024 03D0     		beq	.L91
1422:source\bsw\TraceRecorder/trcStreamingRecorder.c **** 	{
 1019              		.loc 1 1422 0 discriminator 2
 1020 0026 0833     		adds	r3, r3, #8
 1021              	.LVL66:
 1022              	.L90:
1422:source\bsw\TraceRecorder/trcStreamingRecorder.c **** 	{
 1023              		.loc 1 1422 0 is_stmt 0 discriminator 1
 1024 0028 AB42     		cmp	r3, r5
 1025 002a F4D3     		bcc	.L92
1419:source\bsw\TraceRecorder/trcStreamingRecorder.c **** 
 1026              		.loc 1 1419 0 is_stmt 1
 1027 002c 2B46     		mov	r3, r5
 1028              	.LVL67:
 1029              	.L91:
1433:source\bsw\TraceRecorder/trcStreamingRecorder.c **** 	{
 1030              		.loc 1 1433 0
 1031 002e B3F5A07F 		cmp	r3, #320
 1032 0032 11D2     		bcs	.L93
1436:source\bsw\TraceRecorder/trcStreamingRecorder.c **** 		objectDataTable.ObjectDataTableBuffer.pObjectDataTableBufferUINT32[foundSlot / sizeof(uint32_t) +
 1033              		.loc 1 1436 0
 1034 0034 9C08     		lsrs	r4, r3, #2
 1035 0036 0C4A     		ldr	r2, .L96
 1036 0038 02EB8407 		add	r7, r2, r4, lsl #2
 1037 003c C7F82805 		str	r0, [r7, #1320]
1437:source\bsw\TraceRecorder/trcStreamingRecorder.c **** 
 1038              		.loc 1 1437 0
 1039 0040 0134     		adds	r4, r4, #1
 1040 0042 02EB8402 		add	r2, r2, r4, lsl #2
 1041 0046 C2F82815 		str	r1, [r2, #1320]
1440:source\bsw\TraceRecorder/trcStreamingRecorder.c **** 		{
 1042              		.loc 1 1440 0
 1043 004a AB42     		cmp	r3, r5
 1044 004c 08D1     		bne	.L94
1442:source\bsw\TraceRecorder/trcStreamingRecorder.c **** 		}
 1045              		.loc 1 1442 0
 1046 004e 0835     		adds	r5, r5, #8
 1047 0050 054B     		ldr	r3, .L96
ARM GAS  C:\Users\robom\AppData\Local\Temp\ccqs2S2W.s 			page 57


 1048              	.LVL68:
 1049 0052 C3F82455 		str	r5, [r3, #1316]
 1050 0056 03E0     		b	.L94
 1051              	.LVL69:
 1052              	.L93:
1447:source\bsw\TraceRecorder/trcStreamingRecorder.c **** 	}
 1053              		.loc 1 1447 0
 1054 0058 034A     		ldr	r2, .L96
 1055 005a 5369     		ldr	r3, [r2, #20]
 1056              	.LVL70:
 1057 005c 0133     		adds	r3, r3, #1
 1058 005e 5361     		str	r3, [r2, #20]
 1059              	.L94:
 1060              	.LVL71:
 1061              	.LBB159:
 1062              	.LBB160:
 1063              		.loc 2 334 0
 1064              		.syntax unified
 1065              	@ 334 "Generated_Source\PSoC5/cmsis_gcc.h" 1
 1066 0060 86F31088 		MSR primask, r6
 1067              	@ 0 "" 2
 1068              	.LVL72:
 1069              		.thumb
 1070              		.syntax unified
 1071              	.LBE160:
 1072              	.LBE159:
1451:source\bsw\TraceRecorder/trcStreamingRecorder.c **** 
 1073              		.loc 1 1451 0
 1074 0064 F0BC     		pop	{r4, r5, r6, r7}
 1075              		.cfi_restore 7
 1076              		.cfi_restore 6
 1077              		.cfi_restore 5
 1078              		.cfi_restore 4
 1079              		.cfi_def_cfa_offset 0
 1080 0066 7047     		bx	lr
 1081              	.L97:
 1082              		.align	2
 1083              	.L96:
 1084 0068 00000000 		.word	.LANCHOR0
 1085              		.cfi_endproc
 1086              	.LFE141:
 1087              		.size	prvTraceSaveObjectData, .-prvTraceSaveObjectData
 1088              		.section	.text.prvTraceDeleteObjectData,"ax",%progbits
 1089              		.align	2
 1090              		.global	prvTraceDeleteObjectData
 1091              		.thumb
 1092              		.thumb_func
 1093              		.type	prvTraceDeleteObjectData, %function
 1094              	prvTraceDeleteObjectData:
 1095              	.LFB142:
1455:source\bsw\TraceRecorder/trcStreamingRecorder.c **** 	uint32_t i, j;
 1096              		.loc 1 1455 0
 1097              		.cfi_startproc
 1098              		@ args = 0, pretend = 0, frame = 0
 1099              		@ frame_needed = 0, uses_anonymous_args = 0
 1100              		@ link register save eliminated.
 1101              	.LVL73:
ARM GAS  C:\Users\robom\AppData\Local\Temp\ccqs2S2W.s 			page 58


 1102 0000 F0B4     		push	{r4, r5, r6, r7}
 1103              		.cfi_def_cfa_offset 16
 1104              		.cfi_offset 4, -16
 1105              		.cfi_offset 5, -12
 1106              		.cfi_offset 6, -8
 1107              		.cfi_offset 7, -4
 1108              	.LBB161:
 1109              	.LBB162:
 306:Generated_Source\PSoC5/cmsis_gcc.h ****   return(result);
 1110              		.loc 2 306 0
 1111              		.syntax unified
 1112              	@ 306 "Generated_Source\PSoC5/cmsis_gcc.h" 1
 1113 0002 EFF31087 		MRS r7, primask
 1114              	@ 0 "" 2
 1115              	.LVL74:
 1116              		.thumb
 1117              		.syntax unified
 1118              	.LBE162:
 1119              	.LBE161:
 1120              	.LBB163:
 1121              	.LBB164:
 1122              		.loc 2 334 0
 1123 0006 0123     		movs	r3, #1
 1124              		.syntax unified
 1125              	@ 334 "Generated_Source\PSoC5/cmsis_gcc.h" 1
 1126 0008 83F31088 		MSR primask, r3
 1127              	@ 0 "" 2
 1128              	.LVL75:
 1129              		.thumb
 1130              		.syntax unified
 1131              	.LBE164:
 1132              	.LBE163:
1462:source\bsw\TraceRecorder/trcStreamingRecorder.c **** 	{
 1133              		.loc 1 1462 0
 1134 000c 0022     		movs	r2, #0
 1135 000e 32E0     		b	.L99
 1136              	.LVL76:
 1137              	.L106:
1465:source\bsw\TraceRecorder/trcStreamingRecorder.c **** 		if (*ptr == (uint32_t)address)
 1138              		.loc 1 1465 0
 1139 0010 9508     		lsrs	r5, r2, #2
 1140 0012 1D49     		ldr	r1, .L108
 1141 0014 01F5A566 		add	r6, r1, #1320
 1142 0018 AB00     		lsls	r3, r5, #2
 1143 001a 1E44     		add	r6, r6, r3
 1144              	.LVL77:
1466:source\bsw\TraceRecorder/trcStreamingRecorder.c **** 		{
 1145              		.loc 1 1466 0
 1146 001c 0B44     		add	r3, r3, r1
 1147 001e D3F82835 		ldr	r3, [r3, #1320]
 1148 0022 8342     		cmp	r3, r0
 1149 0024 26D1     		bne	.L100
1469:source\bsw\TraceRecorder/trcStreamingRecorder.c **** 			{
 1150              		.loc 1 1469 0
 1151 0026 082C     		cmp	r4, #8
 1152 0028 17D9     		bls	.L101
1469:source\bsw\TraceRecorder/trcStreamingRecorder.c **** 			{
ARM GAS  C:\Users\robom\AppData\Local\Temp\ccqs2S2W.s 			page 59


 1153              		.loc 1 1469 0 is_stmt 0 discriminator 1
 1154 002a 083C     		subs	r4, r4, #8
 1155 002c A242     		cmp	r2, r4
 1156 002e 14D0     		beq	.L101
1473:source\bsw\TraceRecorder/trcStreamingRecorder.c **** 				
 1157              		.loc 1 1473 0 is_stmt 1
 1158 0030 A408     		lsrs	r4, r4, #2
 1159 0032 01F5A562 		add	r2, r1, #1320
 1160              	.LVL78:
 1161 0036 02EB8402 		add	r2, r2, r4, lsl #2
 1162              	.LVL79:
1476:source\bsw\TraceRecorder/trcStreamingRecorder.c **** 				{
 1163              		.loc 1 1476 0
 1164 003a 0023     		movs	r3, #0
 1165 003c 04E0     		b	.L102
 1166              	.LVL80:
 1167              	.L103:
1478:source\bsw\TraceRecorder/trcStreamingRecorder.c **** 				}
 1168              		.loc 1 1478 0 discriminator 3
 1169 003e 52F82310 		ldr	r1, [r2, r3, lsl #2]
 1170 0042 46F82310 		str	r1, [r6, r3, lsl #2]
1476:source\bsw\TraceRecorder/trcStreamingRecorder.c **** 				{
 1171              		.loc 1 1476 0 discriminator 3
 1172 0046 0133     		adds	r3, r3, #1
 1173              	.LVL81:
 1174              	.L102:
1476:source\bsw\TraceRecorder/trcStreamingRecorder.c **** 				{
 1175              		.loc 1 1476 0 is_stmt 0 discriminator 1
 1176 0048 012B     		cmp	r3, #1
 1177 004a F8D9     		bls	.L103
1482:source\bsw\TraceRecorder/trcStreamingRecorder.c **** 			}
 1178              		.loc 1 1482 0 is_stmt 1
 1179 004c 0E4B     		ldr	r3, .L108
 1180              	.LVL82:
 1181 004e 03EB8404 		add	r4, r3, r4, lsl #2
 1182 0052 0023     		movs	r3, #0
 1183 0054 C4F82835 		str	r3, [r4, #1320]
 1184 0058 05E0     		b	.L104
 1185              	.LVL83:
 1186              	.L101:
1485:source\bsw\TraceRecorder/trcStreamingRecorder.c **** 
 1187              		.loc 1 1485 0
 1188 005a 0B4B     		ldr	r3, .L108
 1189 005c 03EB8505 		add	r5, r3, r5, lsl #2
 1190 0060 0023     		movs	r3, #0
 1191 0062 C5F82835 		str	r3, [r5, #1320]
 1192              	.LVL84:
 1193              	.L104:
1488:source\bsw\TraceRecorder/trcStreamingRecorder.c **** 
 1194              		.loc 1 1488 0
 1195 0066 084A     		ldr	r2, .L108
 1196 0068 D2F82435 		ldr	r3, [r2, #1316]
 1197 006c 083B     		subs	r3, r3, #8
 1198 006e C2F82435 		str	r3, [r2, #1316]
1490:source\bsw\TraceRecorder/trcStreamingRecorder.c **** 		}
 1199              		.loc 1 1490 0
 1200 0072 05E0     		b	.L105
ARM GAS  C:\Users\robom\AppData\Local\Temp\ccqs2S2W.s 			page 60


 1201              	.LVL85:
 1202              	.L100:
1462:source\bsw\TraceRecorder/trcStreamingRecorder.c **** 	{
 1203              		.loc 1 1462 0 discriminator 2
 1204 0074 0832     		adds	r2, r2, #8
 1205              	.LVL86:
 1206              	.L99:
1462:source\bsw\TraceRecorder/trcStreamingRecorder.c **** 	{
 1207              		.loc 1 1462 0 is_stmt 0 discriminator 1
 1208 0076 044B     		ldr	r3, .L108
 1209 0078 D3F82445 		ldr	r4, [r3, #1316]
 1210 007c A242     		cmp	r2, r4
 1211 007e C7D3     		bcc	.L106
 1212              	.LVL87:
 1213              	.L105:
 1214              	.LBB165:
 1215              	.LBB166:
 1216              		.loc 2 334 0 is_stmt 1
 1217              		.syntax unified
 1218              	@ 334 "Generated_Source\PSoC5/cmsis_gcc.h" 1
 1219 0080 87F31088 		MSR primask, r7
 1220              	@ 0 "" 2
 1221              	.LVL88:
 1222              		.thumb
 1223              		.syntax unified
 1224              	.LBE166:
 1225              	.LBE165:
1495:source\bsw\TraceRecorder/trcStreamingRecorder.c **** 
 1226              		.loc 1 1495 0
 1227 0084 F0BC     		pop	{r4, r5, r6, r7}
 1228              		.cfi_restore 7
 1229              		.cfi_restore 6
 1230              		.cfi_restore 5
 1231              		.cfi_restore 4
 1232              		.cfi_def_cfa_offset 0
 1233 0086 7047     		bx	lr
 1234              	.L109:
 1235              		.align	2
 1236              	.L108:
 1237 0088 00000000 		.word	.LANCHOR0
 1238              		.cfi_endproc
 1239              	.LFE142:
 1240              		.size	prvTraceDeleteObjectData, .-prvTraceDeleteObjectData
 1241              		.section	.text.prvIsValidCommand,"ax",%progbits
 1242              		.align	2
 1243              		.global	prvIsValidCommand
 1244              		.thumb
 1245              		.thumb_func
 1246              		.type	prvIsValidCommand, %function
 1247              	prvIsValidCommand:
 1248              	.LFB143:
1499:source\bsw\TraceRecorder/trcStreamingRecorder.c ****   	uint16_t checksum = (uint16_t)(0xFFFF - (	cmd->cmdCode +
 1249              		.loc 1 1499 0
 1250              		.cfi_startproc
 1251              		@ args = 0, pretend = 0, frame = 0
 1252              		@ frame_needed = 0, uses_anonymous_args = 0
 1253              		@ link register save eliminated.
ARM GAS  C:\Users\robom\AppData\Local\Temp\ccqs2S2W.s 			page 61


 1254              	.LVL89:
 1255 0000 70B4     		push	{r4, r5, r6}
 1256              		.cfi_def_cfa_offset 12
 1257              		.cfi_offset 4, -12
 1258              		.cfi_offset 5, -8
 1259              		.cfi_offset 6, -4
1500:source\bsw\TraceRecorder/trcStreamingRecorder.c **** 												cmd->param1 +
 1260              		.loc 1 1500 0
 1261 0002 0678     		ldrb	r6, [r0]	@ zero_extendqisi2
1501:source\bsw\TraceRecorder/trcStreamingRecorder.c **** 												cmd->param2 +
 1262              		.loc 1 1501 0
 1263 0004 4378     		ldrb	r3, [r0, #1]	@ zero_extendqisi2
1502:source\bsw\TraceRecorder/trcStreamingRecorder.c **** 												cmd->param3 +
 1264              		.loc 1 1502 0
 1265 0006 8578     		ldrb	r5, [r0, #2]	@ zero_extendqisi2
1503:source\bsw\TraceRecorder/trcStreamingRecorder.c **** 												cmd->param4 +
 1266              		.loc 1 1503 0
 1267 0008 C478     		ldrb	r4, [r0, #3]	@ zero_extendqisi2
1504:source\bsw\TraceRecorder/trcStreamingRecorder.c **** 												cmd->param5));
 1268              		.loc 1 1504 0
 1269 000a 0179     		ldrb	r1, [r0, #4]	@ zero_extendqisi2
1505:source\bsw\TraceRecorder/trcStreamingRecorder.c **** 
 1270              		.loc 1 1505 0
 1271 000c 4279     		ldrb	r2, [r0, #5]	@ zero_extendqisi2
1500:source\bsw\TraceRecorder/trcStreamingRecorder.c **** 												cmd->param1 +
 1272              		.loc 1 1500 0
 1273 000e 3344     		add	r3, r3, r6
 1274 0010 2B44     		add	r3, r3, r5
 1275 0012 2344     		add	r3, r3, r4
 1276 0014 0B44     		add	r3, r3, r1
 1277 0016 1344     		add	r3, r3, r2
 1278 0018 9BB2     		uxth	r3, r3
 1279 001a DB43     		mvns	r3, r3
 1280 001c 9BB2     		uxth	r3, r3
 1281              	.LVL90:
1507:source\bsw\TraceRecorder/trcStreamingRecorder.c **** 		return 0;
 1282              		.loc 1 1507 0
 1283 001e C279     		ldrb	r2, [r0, #7]	@ zero_extendqisi2
 1284 0020 B2EB132F 		cmp	r2, r3, lsr #8
 1285 0024 07D1     		bne	.L112
1510:source\bsw\TraceRecorder/trcStreamingRecorder.c **** 		return 0;
 1286              		.loc 1 1510 0
 1287 0026 8279     		ldrb	r2, [r0, #6]	@ zero_extendqisi2
 1288 0028 DBB2     		uxtb	r3, r3
 1289              	.LVL91:
 1290 002a 9A42     		cmp	r2, r3
 1291 002c 05D1     		bne	.L113
1513:source\bsw\TraceRecorder/trcStreamingRecorder.c **** 		return 0;
 1292              		.loc 1 1513 0
 1293 002e 012E     		cmp	r6, #1
 1294 0030 05D9     		bls	.L114
1514:source\bsw\TraceRecorder/trcStreamingRecorder.c **** 
 1295              		.loc 1 1514 0
 1296 0032 0020     		movs	r0, #0
 1297              	.LVL92:
 1298 0034 04E0     		b	.L111
 1299              	.LVL93:
ARM GAS  C:\Users\robom\AppData\Local\Temp\ccqs2S2W.s 			page 62


 1300              	.L112:
1508:source\bsw\TraceRecorder/trcStreamingRecorder.c **** 
 1301              		.loc 1 1508 0
 1302 0036 0020     		movs	r0, #0
 1303              	.LVL94:
 1304 0038 02E0     		b	.L111
 1305              	.LVL95:
 1306              	.L113:
1511:source\bsw\TraceRecorder/trcStreamingRecorder.c **** 
 1307              		.loc 1 1511 0
 1308 003a 0020     		movs	r0, #0
 1309              	.LVL96:
 1310 003c 00E0     		b	.L111
 1311              	.LVL97:
 1312              	.L114:
1516:source\bsw\TraceRecorder/trcStreamingRecorder.c **** }
 1313              		.loc 1 1516 0
 1314 003e 0120     		movs	r0, #1
 1315              	.LVL98:
 1316              	.L111:
1517:source\bsw\TraceRecorder/trcStreamingRecorder.c **** 
 1317              		.loc 1 1517 0
 1318 0040 70BC     		pop	{r4, r5, r6}
 1319              		.cfi_restore 6
 1320              		.cfi_restore 5
 1321              		.cfi_restore 4
 1322              		.cfi_def_cfa_offset 0
 1323              	.LVL99:
 1324 0042 7047     		bx	lr
 1325              		.cfi_endproc
 1326              	.LFE143:
 1327              		.size	prvIsValidCommand, .-prvIsValidCommand
 1328              		.section	.text.prvPagedEventBufferGetWritePointer,"ax",%progbits
 1329              		.align	2
 1330              		.global	prvPagedEventBufferGetWritePointer
 1331              		.thumb
 1332              		.thumb_func
 1333              		.type	prvPagedEventBufferGetWritePointer, %function
 1334              	prvPagedEventBufferGetWritePointer:
 1335              	.LFB154:
1720:source\bsw\TraceRecorder/trcStreamingRecorder.c **** 
1721:source\bsw\TraceRecorder/trcStreamingRecorder.c **** /*******************************************************************************
1722:source\bsw\TraceRecorder/trcStreamingRecorder.c ****  * uint32_t prvPagedEventBufferTransfer(void)
1723:source\bsw\TraceRecorder/trcStreamingRecorder.c ****  *
1724:source\bsw\TraceRecorder/trcStreamingRecorder.c ****  * Transfers one buffer page of trace data, if a full page is available, using
1725:source\bsw\TraceRecorder/trcStreamingRecorder.c ****  * the macro TRC_STREAM_PORT_WRITE_DATA as defined in trcStreamingPort.h.
1726:source\bsw\TraceRecorder/trcStreamingRecorder.c ****  *
1727:source\bsw\TraceRecorder/trcStreamingRecorder.c ****  * This function is intended to be called the periodic TzCtrl task with a suitable
1728:source\bsw\TraceRecorder/trcStreamingRecorder.c ****  * delay (e.g. 10-100 ms).
1729:source\bsw\TraceRecorder/trcStreamingRecorder.c ****  *
1730:source\bsw\TraceRecorder/trcStreamingRecorder.c ****  * Returns the number of bytes sent. If non-zero, it is good to call this 
1731:source\bsw\TraceRecorder/trcStreamingRecorder.c ****  * again, in order to send any additional data waiting in the buffer.
1732:source\bsw\TraceRecorder/trcStreamingRecorder.c ****  * If zero, wait a while before calling again.
1733:source\bsw\TraceRecorder/trcStreamingRecorder.c ****  *
1734:source\bsw\TraceRecorder/trcStreamingRecorder.c ****  * In case of errors from the streaming interface, it registers a warning
1735:source\bsw\TraceRecorder/trcStreamingRecorder.c ****  * (PSF_WARNING_STREAM_PORT_WRITE) provided by xTraceGetLastError().
1736:source\bsw\TraceRecorder/trcStreamingRecorder.c ****  *
ARM GAS  C:\Users\robom\AppData\Local\Temp\ccqs2S2W.s 			page 63


1737:source\bsw\TraceRecorder/trcStreamingRecorder.c ****  *******************************************************************************/
1738:source\bsw\TraceRecorder/trcStreamingRecorder.c **** uint32_t prvPagedEventBufferTransfer(void)
1739:source\bsw\TraceRecorder/trcStreamingRecorder.c **** {
1740:source\bsw\TraceRecorder/trcStreamingRecorder.c **** 	int8_t pageToTransfer = -1;
1741:source\bsw\TraceRecorder/trcStreamingRecorder.c ****     int32_t bytesTransferredTotal = 0;
1742:source\bsw\TraceRecorder/trcStreamingRecorder.c **** 	int32_t bytesTransferredNow = 0;
1743:source\bsw\TraceRecorder/trcStreamingRecorder.c **** 	int32_t bytesToTransfer;
1744:source\bsw\TraceRecorder/trcStreamingRecorder.c **** 
1745:source\bsw\TraceRecorder/trcStreamingRecorder.c ****     pageToTransfer = (int8_t)prvGetBufferPage(&bytesToTransfer);
1746:source\bsw\TraceRecorder/trcStreamingRecorder.c **** 
1747:source\bsw\TraceRecorder/trcStreamingRecorder.c **** 	/* bytesToTransfer now contains the number of "valid" bytes in the buffer page, that should be tra
1748:source\bsw\TraceRecorder/trcStreamingRecorder.c **** 	There might be some unused junk bytes in the end, that must be ignored. */
1749:source\bsw\TraceRecorder/trcStreamingRecorder.c ****     
1750:source\bsw\TraceRecorder/trcStreamingRecorder.c ****     if (pageToTransfer > -1)
1751:source\bsw\TraceRecorder/trcStreamingRecorder.c ****     {
1752:source\bsw\TraceRecorder/trcStreamingRecorder.c ****         while (1)  /* Keep going until we have transferred all that we intended to */
1753:source\bsw\TraceRecorder/trcStreamingRecorder.c ****         {
1754:source\bsw\TraceRecorder/trcStreamingRecorder.c **** 			if (TRC_STREAM_PORT_WRITE_DATA(
1755:source\bsw\TraceRecorder/trcStreamingRecorder.c **** 					&EventBuffer[pageToTransfer * (TRC_CFG_PAGED_EVENT_BUFFER_PAGE_SIZE) + bytesTransferredTotal],
1756:source\bsw\TraceRecorder/trcStreamingRecorder.c **** 					(uint32_t)(bytesToTransfer - bytesTransferredTotal),
1757:source\bsw\TraceRecorder/trcStreamingRecorder.c **** 					&bytesTransferredNow) == 0)
1758:source\bsw\TraceRecorder/trcStreamingRecorder.c **** 			{
1759:source\bsw\TraceRecorder/trcStreamingRecorder.c **** 				/* Write was successful. Update the number of transferred bytes. */
1760:source\bsw\TraceRecorder/trcStreamingRecorder.c **** 				bytesTransferredTotal += bytesTransferredNow;
1761:source\bsw\TraceRecorder/trcStreamingRecorder.c **** 
1762:source\bsw\TraceRecorder/trcStreamingRecorder.c **** 				if (bytesTransferredTotal == bytesToTransfer)
1763:source\bsw\TraceRecorder/trcStreamingRecorder.c **** 				{
1764:source\bsw\TraceRecorder/trcStreamingRecorder.c **** 					/* All bytes have been transferred. Mark the buffer page as "Read Complete" (so it can be writ
1765:source\bsw\TraceRecorder/trcStreamingRecorder.c **** 					prvPageReadComplete(pageToTransfer);
1766:source\bsw\TraceRecorder/trcStreamingRecorder.c **** 					return (uint32_t)bytesTransferredTotal;
1767:source\bsw\TraceRecorder/trcStreamingRecorder.c **** 				}
1768:source\bsw\TraceRecorder/trcStreamingRecorder.c **** 			}
1769:source\bsw\TraceRecorder/trcStreamingRecorder.c **** 			else
1770:source\bsw\TraceRecorder/trcStreamingRecorder.c **** 			{
1771:source\bsw\TraceRecorder/trcStreamingRecorder.c **** 				/* Some error from the streaming interface... */
1772:source\bsw\TraceRecorder/trcStreamingRecorder.c **** 				prvTraceWarning(PSF_WARNING_STREAM_PORT_WRITE);
1773:source\bsw\TraceRecorder/trcStreamingRecorder.c **** 				return 0;
1774:source\bsw\TraceRecorder/trcStreamingRecorder.c **** 			}
1775:source\bsw\TraceRecorder/trcStreamingRecorder.c **** 		}
1776:source\bsw\TraceRecorder/trcStreamingRecorder.c **** 	}
1777:source\bsw\TraceRecorder/trcStreamingRecorder.c **** 	return 0;
1778:source\bsw\TraceRecorder/trcStreamingRecorder.c **** }
1779:source\bsw\TraceRecorder/trcStreamingRecorder.c **** 
1780:source\bsw\TraceRecorder/trcStreamingRecorder.c **** /*******************************************************************************
1781:source\bsw\TraceRecorder/trcStreamingRecorder.c ****  * void* prvPagedEventBufferGetWritePointer(int sizeOfEvent)
1782:source\bsw\TraceRecorder/trcStreamingRecorder.c ****  *
1783:source\bsw\TraceRecorder/trcStreamingRecorder.c ****  * Returns a pointer to an available location in the buffer able to store the
1784:source\bsw\TraceRecorder/trcStreamingRecorder.c ****  * requested size.
1785:source\bsw\TraceRecorder/trcStreamingRecorder.c ****  * 
1786:source\bsw\TraceRecorder/trcStreamingRecorder.c ****  * Return value: The pointer.
1787:source\bsw\TraceRecorder/trcStreamingRecorder.c ****  * 
1788:source\bsw\TraceRecorder/trcStreamingRecorder.c ****  * Parameters:
1789:source\bsw\TraceRecorder/trcStreamingRecorder.c ****  * - sizeOfEvent: The size of the event that is to be placed in the buffer.
1790:source\bsw\TraceRecorder/trcStreamingRecorder.c ****  *
1791:source\bsw\TraceRecorder/trcStreamingRecorder.c **** *******************************************************************************/
1792:source\bsw\TraceRecorder/trcStreamingRecorder.c **** void* prvPagedEventBufferGetWritePointer(int sizeOfEvent)
1793:source\bsw\TraceRecorder/trcStreamingRecorder.c **** {
ARM GAS  C:\Users\robom\AppData\Local\Temp\ccqs2S2W.s 			page 64


 1336              		.loc 1 1793 0
 1337              		.cfi_startproc
 1338              		@ args = 0, pretend = 0, frame = 0
 1339              		@ frame_needed = 0, uses_anonymous_args = 0
 1340              	.LVL100:
 1341 0000 10B5     		push	{r4, lr}
 1342              		.cfi_def_cfa_offset 8
 1343              		.cfi_offset 4, -8
 1344              		.cfi_offset 14, -4
 1345 0002 0446     		mov	r4, r0
1794:source\bsw\TraceRecorder/trcStreamingRecorder.c **** 	void* ret;
1795:source\bsw\TraceRecorder/trcStreamingRecorder.c **** 	static int currentWritePage = -1;
1796:source\bsw\TraceRecorder/trcStreamingRecorder.c **** 
1797:source\bsw\TraceRecorder/trcStreamingRecorder.c **** 	if (currentWritePage == -1)
 1346              		.loc 1 1797 0
 1347 0004 274B     		ldr	r3, .L123
 1348 0006 D868     		ldr	r0, [r3, #12]
 1349              	.LVL101:
 1350 0008 B0F1FF3F 		cmp	r0, #-1
 1351 000c 0ED1     		bne	.L117
1798:source\bsw\TraceRecorder/trcStreamingRecorder.c **** 	{
1799:source\bsw\TraceRecorder/trcStreamingRecorder.c **** 	    currentWritePage = prvAllocateBufferPage(currentWritePage);
 1352              		.loc 1 1799 0
 1353 000e FFF7FEFF 		bl	prvAllocateBufferPage
 1354              	.LVL102:
 1355 0012 244B     		ldr	r3, .L123
 1356 0014 D860     		str	r0, [r3, #12]
1800:source\bsw\TraceRecorder/trcStreamingRecorder.c **** 		if (currentWritePage == -1)
 1357              		.loc 1 1800 0
 1358 0016 B0F1FF3F 		cmp	r0, #-1
 1359 001a 07D1     		bne	.L117
1801:source\bsw\TraceRecorder/trcStreamingRecorder.c **** 		{
1802:source\bsw\TraceRecorder/trcStreamingRecorder.c **** 		  	DroppedEventCounter++;
 1360              		.loc 1 1802 0
 1361 001c 224A     		ldr	r2, .L123+4
 1362 001e D2F86836 		ldr	r3, [r2, #1640]
 1363 0022 0133     		adds	r3, r3, #1
 1364 0024 C2F86836 		str	r3, [r2, #1640]
1803:source\bsw\TraceRecorder/trcStreamingRecorder.c **** 			return NULL;
 1365              		.loc 1 1803 0
 1366 0028 0020     		movs	r0, #0
 1367 002a 10BD     		pop	{r4, pc}
 1368              	.LVL103:
 1369              	.L117:
1804:source\bsw\TraceRecorder/trcStreamingRecorder.c **** 		}
1805:source\bsw\TraceRecorder/trcStreamingRecorder.c **** 	}
1806:source\bsw\TraceRecorder/trcStreamingRecorder.c **** 
1807:source\bsw\TraceRecorder/trcStreamingRecorder.c ****     if (PageInfo[currentWritePage].BytesRemaining - sizeOfEvent < 0)
 1370              		.loc 1 1807 0
 1371 002c 1D4B     		ldr	r3, .L123
 1372 002e D868     		ldr	r0, [r3, #12]
 1373 0030 1E4B     		ldr	r3, .L123+8
 1374 0032 03EBC003 		add	r3, r3, r0, lsl #3
 1375 0036 5B88     		ldrh	r3, [r3, #2]
 1376 0038 1B1B     		subs	r3, r3, r4
 1377 003a 002B     		cmp	r3, #0
 1378 003c 1EDA     		bge	.L119
ARM GAS  C:\Users\robom\AppData\Local\Temp\ccqs2S2W.s 			page 65


1808:source\bsw\TraceRecorder/trcStreamingRecorder.c **** 	{
1809:source\bsw\TraceRecorder/trcStreamingRecorder.c **** 		PageInfo[currentWritePage].Status = PAGE_STATUS_READ;
 1379              		.loc 1 1809 0
 1380 003e 1B4B     		ldr	r3, .L123+8
 1381 0040 0222     		movs	r2, #2
 1382 0042 23F83020 		strh	r2, [r3, r0, lsl #3]	@ movhi
1810:source\bsw\TraceRecorder/trcStreamingRecorder.c **** 
1811:source\bsw\TraceRecorder/trcStreamingRecorder.c **** 		TotalBytesRemaining -= PageInfo[currentWritePage].BytesRemaining; // Last trailing bytes
 1383              		.loc 1 1811 0
 1384 0046 03EBC003 		add	r3, r3, r0, lsl #3
 1385 004a 5988     		ldrh	r1, [r3, #2]
 1386 004c 154A     		ldr	r2, .L123
 1387 004e 1368     		ldr	r3, [r2]
 1388 0050 5B1A     		subs	r3, r3, r1
 1389 0052 1360     		str	r3, [r2]
1812:source\bsw\TraceRecorder/trcStreamingRecorder.c **** 
1813:source\bsw\TraceRecorder/trcStreamingRecorder.c **** 		if (TotalBytesRemaining < TotalBytesRemaining_LowWaterMark)
 1390              		.loc 1 1813 0
 1391 0054 1269     		ldr	r2, [r2, #16]
 1392 0056 9342     		cmp	r3, r2
 1393 0058 01D2     		bcs	.L120
1814:source\bsw\TraceRecorder/trcStreamingRecorder.c **** 		  TotalBytesRemaining_LowWaterMark = TotalBytesRemaining;
 1394              		.loc 1 1814 0
 1395 005a 124A     		ldr	r2, .L123
 1396 005c 1361     		str	r3, [r2, #16]
 1397              	.L120:
1815:source\bsw\TraceRecorder/trcStreamingRecorder.c **** 
1816:source\bsw\TraceRecorder/trcStreamingRecorder.c **** 		currentWritePage = prvAllocateBufferPage(currentWritePage);
 1398              		.loc 1 1816 0
 1399 005e FFF7FEFF 		bl	prvAllocateBufferPage
 1400              	.LVL104:
 1401 0062 104B     		ldr	r3, .L123
 1402 0064 D860     		str	r0, [r3, #12]
1817:source\bsw\TraceRecorder/trcStreamingRecorder.c **** 		if (currentWritePage == -1)
 1403              		.loc 1 1817 0
 1404 0066 B0F1FF3F 		cmp	r0, #-1
 1405 006a 07D1     		bne	.L119
1818:source\bsw\TraceRecorder/trcStreamingRecorder.c **** 		{
1819:source\bsw\TraceRecorder/trcStreamingRecorder.c **** 		  DroppedEventCounter++;
 1406              		.loc 1 1819 0
 1407 006c 0E4A     		ldr	r2, .L123+4
 1408 006e D2F86836 		ldr	r3, [r2, #1640]
 1409 0072 0133     		adds	r3, r3, #1
 1410 0074 C2F86836 		str	r3, [r2, #1640]
1820:source\bsw\TraceRecorder/trcStreamingRecorder.c **** 		  return NULL;
 1411              		.loc 1 1820 0
 1412 0078 0020     		movs	r0, #0
 1413 007a 10BD     		pop	{r4, pc}
 1414              	.LVL105:
 1415              	.L119:
1821:source\bsw\TraceRecorder/trcStreamingRecorder.c **** 		}
1822:source\bsw\TraceRecorder/trcStreamingRecorder.c **** 	}
1823:source\bsw\TraceRecorder/trcStreamingRecorder.c **** 	ret = PageInfo[currentWritePage].WritePointer;
 1416              		.loc 1 1823 0
 1417 007c 094A     		ldr	r2, .L123
 1418 007e D168     		ldr	r1, [r2, #12]
 1419 0080 0A4B     		ldr	r3, .L123+8
ARM GAS  C:\Users\robom\AppData\Local\Temp\ccqs2S2W.s 			page 66


 1420 0082 03EBC103 		add	r3, r3, r1, lsl #3
 1421 0086 5868     		ldr	r0, [r3, #4]
 1422              	.LVL106:
1824:source\bsw\TraceRecorder/trcStreamingRecorder.c **** 	PageInfo[currentWritePage].WritePointer += sizeOfEvent;
 1423              		.loc 1 1824 0
 1424 0088 0119     		adds	r1, r0, r4
 1425 008a 5960     		str	r1, [r3, #4]
1825:source\bsw\TraceRecorder/trcStreamingRecorder.c **** 	PageInfo[currentWritePage].BytesRemaining = (uint16_t)(PageInfo[currentWritePage].BytesRemaining -
 1426              		.loc 1 1825 0
 1427 008c 5988     		ldrh	r1, [r3, #2]
 1428 008e 091B     		subs	r1, r1, r4
 1429 0090 5980     		strh	r1, [r3, #2]	@ movhi
1826:source\bsw\TraceRecorder/trcStreamingRecorder.c **** 
1827:source\bsw\TraceRecorder/trcStreamingRecorder.c **** 	TotalBytesRemaining = (TotalBytesRemaining-(uint16_t)sizeOfEvent);
 1430              		.loc 1 1827 0
 1431 0092 A4B2     		uxth	r4, r4
 1432              	.LVL107:
 1433 0094 1368     		ldr	r3, [r2]
 1434 0096 1C1B     		subs	r4, r3, r4
 1435 0098 1460     		str	r4, [r2]
1828:source\bsw\TraceRecorder/trcStreamingRecorder.c **** 
1829:source\bsw\TraceRecorder/trcStreamingRecorder.c **** 	if (TotalBytesRemaining < TotalBytesRemaining_LowWaterMark)
 1436              		.loc 1 1829 0
 1437 009a 1369     		ldr	r3, [r2, #16]
 1438 009c 9C42     		cmp	r4, r3
 1439 009e 00D2     		bcs	.L118
1830:source\bsw\TraceRecorder/trcStreamingRecorder.c **** 		TotalBytesRemaining_LowWaterMark = TotalBytesRemaining;
 1440              		.loc 1 1830 0
 1441 00a0 1461     		str	r4, [r2, #16]
 1442              	.L118:
1831:source\bsw\TraceRecorder/trcStreamingRecorder.c **** 
1832:source\bsw\TraceRecorder/trcStreamingRecorder.c **** 	return ret;
1833:source\bsw\TraceRecorder/trcStreamingRecorder.c **** }
 1443              		.loc 1 1833 0
 1444 00a2 10BD     		pop	{r4, pc}
 1445              	.L124:
 1446              		.align	2
 1447              	.L123:
 1448 00a4 00000000 		.word	.LANCHOR1
 1449 00a8 00000000 		.word	.LANCHOR0
 1450 00ac 00000000 		.word	PageInfo
 1451              		.cfi_endproc
 1452              	.LFE154:
 1453              		.size	prvPagedEventBufferGetWritePointer, .-prvPagedEventBufferGetWritePointer
 1454              		.section	.text.prvTraceStoreHeader,"ax",%progbits
 1455              		.align	2
 1456              		.thumb
 1457              		.thumb_func
 1458              		.type	prvTraceStoreHeader, %function
 1459              	prvTraceStoreHeader:
 1460              	.LFB129:
 900:source\bsw\TraceRecorder/trcStreamingRecorder.c ****   	TRACE_ALLOC_CRITICAL_SECTION();
 1461              		.loc 1 900 0
 1462              		.cfi_startproc
 1463              		@ args = 0, pretend = 0, frame = 0
 1464              		@ frame_needed = 0, uses_anonymous_args = 0
 1465 0000 10B5     		push	{r4, lr}
ARM GAS  C:\Users\robom\AppData\Local\Temp\ccqs2S2W.s 			page 67


 1466              		.cfi_def_cfa_offset 8
 1467              		.cfi_offset 4, -8
 1468              		.cfi_offset 14, -4
 1469              	.LBB167:
 1470              	.LBB168:
 306:Generated_Source\PSoC5/cmsis_gcc.h ****   return(result);
 1471              		.loc 2 306 0
 1472              		.syntax unified
 1473              	@ 306 "Generated_Source\PSoC5/cmsis_gcc.h" 1
 1474 0002 EFF31084 		MRS r4, primask
 1475              	@ 0 "" 2
 1476              	.LVL108:
 1477              		.thumb
 1478              		.syntax unified
 1479              	.LBE168:
 1480              	.LBE167:
 1481              	.LBB169:
 1482              	.LBB170:
 1483              		.loc 2 334 0
 1484 0006 0123     		movs	r3, #1
 1485              		.syntax unified
 1486              	@ 334 "Generated_Source\PSoC5/cmsis_gcc.h" 1
 1487 0008 83F31088 		MSR primask, r3
 1488              	@ 0 "" 2
 1489              	.LVL109:
 1490              		.thumb
 1491              		.syntax unified
 1492              	.LBE170:
 1493              	.LBE169:
 905:source\bsw\TraceRecorder/trcStreamingRecorder.c **** 	{
 1494              		.loc 1 905 0
 1495 000c 0C4B     		ldr	r3, .L128
 1496 000e DB69     		ldr	r3, [r3, #28]
 1497 0010 9BB1     		cbz	r3, .L126
 1498              	.LBB171:
 907:source\bsw\TraceRecorder/trcStreamingRecorder.c **** 		if (header != NULL)
 1499              		.loc 1 907 0
 1500 0012 1420     		movs	r0, #20
 1501 0014 FFF7FEFF 		bl	prvPagedEventBufferGetWritePointer
 1502              	.LVL110:
 908:source\bsw\TraceRecorder/trcStreamingRecorder.c **** 		{
 1503              		.loc 1 908 0
 1504 0018 78B1     		cbz	r0, .L126
 910:source\bsw\TraceRecorder/trcStreamingRecorder.c **** 			header->version = FormatVersion;
 1505              		.loc 1 910 0
 1506 001a 0A4A     		ldr	r2, .L128+4
 1507 001c 0260     		str	r2, [r0]
 911:source\bsw\TraceRecorder/trcStreamingRecorder.c **** 			header->platform = TRACE_KERNEL_VERSION;
 1508              		.loc 1 911 0
 1509 001e 0422     		movs	r2, #4
 1510 0020 8280     		strh	r2, [r0, #4]	@ movhi
 912:source\bsw\TraceRecorder/trcStreamingRecorder.c ****             header->options = 0;
 1511              		.loc 1 912 0
 1512 0022 41F6A122 		movw	r2, #6817
 1513 0026 C280     		strh	r2, [r0, #6]	@ movhi
 913:source\bsw\TraceRecorder/trcStreamingRecorder.c ****             /* Lowest bit used for TRC_IRQ_PRIORITY_ORDER */
 1514              		.loc 1 913 0
ARM GAS  C:\Users\robom\AppData\Local\Temp\ccqs2S2W.s 			page 68


 1515 0028 0022     		movs	r2, #0
 1516 002a 8260     		str	r2, [r0, #8]
 916:source\bsw\TraceRecorder/trcStreamingRecorder.c **** 			header->symbolCount = (TRC_CFG_SYMBOL_TABLE_SLOTS);
 1517              		.loc 1 916 0
 1518 002c 2022     		movs	r2, #32
 1519 002e 8281     		strh	r2, [r0, #12]	@ movhi
 917:source\bsw\TraceRecorder/trcStreamingRecorder.c **** 			header->objectDataSize = 8;
 1520              		.loc 1 917 0
 1521 0030 2822     		movs	r2, #40
 1522 0032 C281     		strh	r2, [r0, #14]	@ movhi
 918:source\bsw\TraceRecorder/trcStreamingRecorder.c **** 			header->objectDataCount = (TRC_CFG_OBJECT_DATA_SLOTS);
 1523              		.loc 1 918 0
 1524 0034 0821     		movs	r1, #8
 1525 0036 0182     		strh	r1, [r0, #16]	@ movhi
 919:source\bsw\TraceRecorder/trcStreamingRecorder.c **** 			TRC_STREAM_PORT_COMMIT_EVENT(header, sizeof(PSFHeaderInfo));
 1526              		.loc 1 919 0
 1527 0038 4282     		strh	r2, [r0, #18]	@ movhi
 1528              	.LVL111:
 1529              	.L126:
 1530              	.LBE171:
 1531              	.LBB172:
 1532              	.LBB173:
 1533              		.loc 2 334 0
 1534              		.syntax unified
 1535              	@ 334 "Generated_Source\PSoC5/cmsis_gcc.h" 1
 1536 003a 84F31088 		MSR primask, r4
 1537              	@ 0 "" 2
 1538              	.LVL112:
 1539              		.thumb
 1540              		.syntax unified
 1541 003e 10BD     		pop	{r4, pc}
 1542              	.L129:
 1543              		.align	2
 1544              	.L128:
 1545 0040 00000000 		.word	.LANCHOR0
 1546 0044 00465350 		.word	1347634688
 1547              	.LBE173:
 1548              	.LBE172:
 1549              		.cfi_endproc
 1550              	.LFE129:
 1551              		.size	prvTraceStoreHeader, .-prvTraceStoreHeader
 1552              		.section	.text.prvTraceStoreSymbolTable,"ax",%progbits
 1553              		.align	2
 1554              		.thumb
 1555              		.thumb_func
 1556              		.type	prvTraceStoreSymbolTable, %function
 1557              	prvTraceStoreSymbolTable:
 1558              	.LFB127:
 846:source\bsw\TraceRecorder/trcStreamingRecorder.c **** 	uint32_t i = 0;
 1559              		.loc 1 846 0
 1560              		.cfi_startproc
 1561              		@ args = 0, pretend = 0, frame = 0
 1562              		@ frame_needed = 0, uses_anonymous_args = 0
 1563 0000 70B5     		push	{r4, r5, r6, lr}
 1564              		.cfi_def_cfa_offset 16
 1565              		.cfi_offset 4, -16
 1566              		.cfi_offset 5, -12
ARM GAS  C:\Users\robom\AppData\Local\Temp\ccqs2S2W.s 			page 69


 1567              		.cfi_offset 6, -8
 1568              		.cfi_offset 14, -4
 1569              	.LVL113:
 1570              	.LBB174:
 1571              	.LBB175:
 306:Generated_Source\PSoC5/cmsis_gcc.h ****   return(result);
 1572              		.loc 2 306 0
 1573              		.syntax unified
 1574              	@ 306 "Generated_Source\PSoC5/cmsis_gcc.h" 1
 1575 0002 EFF31086 		MRS r6, primask
 1576              	@ 0 "" 2
 1577              	.LVL114:
 1578              		.thumb
 1579              		.syntax unified
 1580              	.LBE175:
 1581              	.LBE174:
 1582              	.LBB176:
 1583              	.LBB177:
 1584              		.loc 2 334 0
 1585 0006 0123     		movs	r3, #1
 1586              		.syntax unified
 1587              	@ 334 "Generated_Source\PSoC5/cmsis_gcc.h" 1
 1588 0008 83F31088 		MSR primask, r3
 1589              	@ 0 "" 2
 1590              	.LVL115:
 1591              		.thumb
 1592              		.syntax unified
 1593              	.LBE177:
 1594              	.LBE176:
 853:source\bsw\TraceRecorder/trcStreamingRecorder.c **** 	{
 1595              		.loc 1 853 0
 1596 000c 0F4B     		ldr	r3, .L140
 1597 000e DB69     		ldr	r3, [r3, #28]
 1598 0010 A3B9     		cbnz	r3, .L137
 1599 0012 17E0     		b	.L132
 1600              	.LVL116:
 1601              	.L136:
 1602              	.LBB178:
 857:source\bsw\TraceRecorder/trcStreamingRecorder.c ****             if (data != NULL)
 1603              		.loc 1 857 0
 1604 0014 2020     		movs	r0, #32
 1605 0016 FFF7FEFF 		bl	prvPagedEventBufferGetWritePointer
 1606              	.LVL117:
 858:source\bsw\TraceRecorder/trcStreamingRecorder.c ****             {
 1607              		.loc 1 858 0
 1608 001a 0546     		mov	r5, r0
 1609 001c 48B9     		cbnz	r0, .L138
 1610 001e 0BE0     		b	.L134
 1611              	.LVL118:
 1612              	.L135:
 862:source\bsw\TraceRecorder/trcStreamingRecorder.c ****                 }
 1613              		.loc 1 862 0 discriminator 3
 1614 0020 E118     		adds	r1, r4, r3
 1615 0022 0A4A     		ldr	r2, .L140
 1616 0024 02EB8102 		add	r2, r2, r1, lsl #2
 1617 0028 526A     		ldr	r2, [r2, #36]
 1618 002a 45F82320 		str	r2, [r5, r3, lsl #2]
ARM GAS  C:\Users\robom\AppData\Local\Temp\ccqs2S2W.s 			page 70


 860:source\bsw\TraceRecorder/trcStreamingRecorder.c ****                 {
 1619              		.loc 1 860 0 discriminator 3
 1620 002e 0133     		adds	r3, r3, #1
 1621              	.LVL119:
 1622 0030 00E0     		b	.L133
 1623              	.LVL120:
 1624              	.L138:
 1625 0032 0023     		movs	r3, #0
 1626              	.L133:
 1627              	.LVL121:
 860:source\bsw\TraceRecorder/trcStreamingRecorder.c ****                 {
 1628              		.loc 1 860 0 is_stmt 0 discriminator 1
 1629 0034 072B     		cmp	r3, #7
 1630 0036 F3D9     		bls	.L135
 1631              	.LVL122:
 1632              	.L134:
 1633              	.LBE178:
 855:source\bsw\TraceRecorder/trcStreamingRecorder.c **** 		{
 1634              		.loc 1 855 0 is_stmt 1 discriminator 2
 1635 0038 0834     		adds	r4, r4, #8
 1636              	.LVL123:
 1637 003a 00E0     		b	.L131
 1638              	.LVL124:
 1639              	.L137:
 1640 003c 0024     		movs	r4, #0
 1641              	.LVL125:
 1642              	.L131:
 855:source\bsw\TraceRecorder/trcStreamingRecorder.c **** 		{
 1643              		.loc 1 855 0 is_stmt 0 discriminator 1
 1644 003e B4F5A07F 		cmp	r4, #320
 1645 0042 E7D3     		bcc	.L136
 1646              	.LVL126:
 1647              	.L132:
 1648              	.LBB179:
 1649              	.LBB180:
 1650              		.loc 2 334 0 is_stmt 1
 1651              		.syntax unified
 1652              	@ 334 "Generated_Source\PSoC5/cmsis_gcc.h" 1
 1653 0044 86F31088 		MSR primask, r6
 1654              	@ 0 "" 2
 1655              	.LVL127:
 1656              		.thumb
 1657              		.syntax unified
 1658 0048 70BD     		pop	{r4, r5, r6, pc}
 1659              	.L141:
 1660 004a 00BF     		.align	2
 1661              	.L140:
 1662 004c 00000000 		.word	.LANCHOR0
 1663              	.LBE180:
 1664              	.LBE179:
 1665              		.cfi_endproc
 1666              	.LFE127:
 1667              		.size	prvTraceStoreSymbolTable, .-prvTraceStoreSymbolTable
 1668              		.section	.text.prvTraceStoreObjectDataTable,"ax",%progbits
 1669              		.align	2
 1670              		.thumb
 1671              		.thumb_func
ARM GAS  C:\Users\robom\AppData\Local\Temp\ccqs2S2W.s 			page 71


 1672              		.type	prvTraceStoreObjectDataTable, %function
 1673              	prvTraceStoreObjectDataTable:
 1674              	.LFB128:
 873:source\bsw\TraceRecorder/trcStreamingRecorder.c **** 	uint32_t i = 0;
 1675              		.loc 1 873 0
 1676              		.cfi_startproc
 1677              		@ args = 0, pretend = 0, frame = 0
 1678              		@ frame_needed = 0, uses_anonymous_args = 0
 1679 0000 70B5     		push	{r4, r5, r6, lr}
 1680              		.cfi_def_cfa_offset 16
 1681              		.cfi_offset 4, -16
 1682              		.cfi_offset 5, -12
 1683              		.cfi_offset 6, -8
 1684              		.cfi_offset 14, -4
 1685              	.LVL128:
 1686              	.LBB181:
 1687              	.LBB182:
 306:Generated_Source\PSoC5/cmsis_gcc.h ****   return(result);
 1688              		.loc 2 306 0
 1689              		.syntax unified
 1690              	@ 306 "Generated_Source\PSoC5/cmsis_gcc.h" 1
 1691 0002 EFF31086 		MRS r6, primask
 1692              	@ 0 "" 2
 1693              	.LVL129:
 1694              		.thumb
 1695              		.syntax unified
 1696              	.LBE182:
 1697              	.LBE181:
 1698              	.LBB183:
 1699              	.LBB184:
 1700              		.loc 2 334 0
 1701 0006 0123     		movs	r3, #1
 1702              		.syntax unified
 1703              	@ 334 "Generated_Source\PSoC5/cmsis_gcc.h" 1
 1704 0008 83F31088 		MSR primask, r3
 1705              	@ 0 "" 2
 1706              	.LVL130:
 1707              		.thumb
 1708              		.syntax unified
 1709              	.LBE184:
 1710              	.LBE183:
 880:source\bsw\TraceRecorder/trcStreamingRecorder.c **** 	{
 1711              		.loc 1 880 0
 1712 000c 0F4B     		ldr	r3, .L152
 1713 000e DB69     		ldr	r3, [r3, #28]
 1714 0010 ABB9     		cbnz	r3, .L149
 1715 0012 17E0     		b	.L144
 1716              	.LVL131:
 1717              	.L148:
 1718              	.LBB185:
 884:source\bsw\TraceRecorder/trcStreamingRecorder.c ****             if (data != NULL)
 1719              		.loc 1 884 0
 1720 0014 0820     		movs	r0, #8
 1721 0016 FFF7FEFF 		bl	prvPagedEventBufferGetWritePointer
 1722              	.LVL132:
 885:source\bsw\TraceRecorder/trcStreamingRecorder.c ****             {
 1723              		.loc 1 885 0
ARM GAS  C:\Users\robom\AppData\Local\Temp\ccqs2S2W.s 			page 72


 1724 001a 0546     		mov	r5, r0
 1725 001c 50B9     		cbnz	r0, .L150
 1726 001e 0CE0     		b	.L146
 1727              	.LVL133:
 1728              	.L147:
 889:source\bsw\TraceRecorder/trcStreamingRecorder.c ****                 }
 1729              		.loc 1 889 0 discriminator 3
 1730 0020 E118     		adds	r1, r4, r3
 1731 0022 0A4A     		ldr	r2, .L152
 1732 0024 02EB8102 		add	r2, r2, r1, lsl #2
 1733 0028 D2F82825 		ldr	r2, [r2, #1320]
 1734 002c 45F82320 		str	r2, [r5, r3, lsl #2]
 887:source\bsw\TraceRecorder/trcStreamingRecorder.c ****                 {
 1735              		.loc 1 887 0 discriminator 3
 1736 0030 0133     		adds	r3, r3, #1
 1737              	.LVL134:
 1738 0032 00E0     		b	.L145
 1739              	.LVL135:
 1740              	.L150:
 1741 0034 0023     		movs	r3, #0
 1742              	.L145:
 1743              	.LVL136:
 887:source\bsw\TraceRecorder/trcStreamingRecorder.c ****                 {
 1744              		.loc 1 887 0 is_stmt 0 discriminator 1
 1745 0036 012B     		cmp	r3, #1
 1746 0038 F2D9     		bls	.L147
 1747              	.LVL137:
 1748              	.L146:
 1749              	.LBE185:
 882:source\bsw\TraceRecorder/trcStreamingRecorder.c ****         {
 1750              		.loc 1 882 0 is_stmt 1 discriminator 2
 1751 003a 0234     		adds	r4, r4, #2
 1752              	.LVL138:
 1753 003c 00E0     		b	.L143
 1754              	.LVL139:
 1755              	.L149:
 1756 003e 0024     		movs	r4, #0
 1757              	.LVL140:
 1758              	.L143:
 882:source\bsw\TraceRecorder/trcStreamingRecorder.c ****         {
 1759              		.loc 1 882 0 is_stmt 0 discriminator 1
 1760 0040 4F2C     		cmp	r4, #79
 1761 0042 E7D9     		bls	.L148
 1762              	.LVL141:
 1763              	.L144:
 1764              	.LBB186:
 1765              	.LBB187:
 1766              		.loc 2 334 0 is_stmt 1
 1767              		.syntax unified
 1768              	@ 334 "Generated_Source\PSoC5/cmsis_gcc.h" 1
 1769 0044 86F31088 		MSR primask, r6
 1770              	@ 0 "" 2
 1771              	.LVL142:
 1772              		.thumb
 1773              		.syntax unified
 1774 0048 70BD     		pop	{r4, r5, r6, pc}
 1775              	.L153:
ARM GAS  C:\Users\robom\AppData\Local\Temp\ccqs2S2W.s 			page 73


 1776 004a 00BF     		.align	2
 1777              	.L152:
 1778 004c 00000000 		.word	.LANCHOR0
 1779              	.LBE187:
 1780              	.LBE186:
 1781              		.cfi_endproc
 1782              	.LFE128:
 1783              		.size	prvTraceStoreObjectDataTable, .-prvTraceStoreObjectDataTable
 1784              		.section	.text.prvTraceStoreSimpleStringEventHelper,"ax",%progbits
 1785              		.align	2
 1786              		.global	prvTraceStoreSimpleStringEventHelper
 1787              		.thumb
 1788              		.thumb_func
 1789              		.type	prvTraceStoreSimpleStringEventHelper, %function
 1790              	prvTraceStoreSimpleStringEventHelper:
 1791              	.LFB138:
1209:source\bsw\TraceRecorder/trcStreamingRecorder.c **** 	int len;
 1792              		.loc 1 1209 0
 1793              		.cfi_startproc
 1794              		@ args = 0, pretend = 0, frame = 0
 1795              		@ frame_needed = 0, uses_anonymous_args = 0
 1796              	.LVL143:
 1797 0000 2DE9F84F 		push	{r3, r4, r5, r6, r7, r8, r9, r10, fp, lr}
 1798              		.cfi_def_cfa_offset 40
 1799              		.cfi_offset 3, -40
 1800              		.cfi_offset 4, -36
 1801              		.cfi_offset 5, -32
 1802              		.cfi_offset 6, -28
 1803              		.cfi_offset 7, -24
 1804              		.cfi_offset 8, -20
 1805              		.cfi_offset 9, -16
 1806              		.cfi_offset 10, -12
 1807              		.cfi_offset 11, -8
 1808              		.cfi_offset 14, -4
 1809              	.LVL144:
1221:source\bsw\TraceRecorder/trcStreamingRecorder.c **** 	
 1810              		.loc 1 1221 0
 1811 0004 0024     		movs	r4, #0
 1812 0006 00E0     		b	.L155
 1813              	.LVL145:
 1814              	.L157:
1221:source\bsw\TraceRecorder/trcStreamingRecorder.c **** 	
 1815              		.loc 1 1221 0 is_stmt 0 discriminator 4
 1816 0008 0134     		adds	r4, r4, #1
 1817              	.LVL146:
 1818              	.L155:
1221:source\bsw\TraceRecorder/trcStreamingRecorder.c **** 	
 1819              		.loc 1 1221 0 discriminator 1
 1820 000a 0B5D     		ldrb	r3, [r1, r4]	@ zero_extendqisi2
 1821 000c 0BB1     		cbz	r3, .L156
1221:source\bsw\TraceRecorder/trcStreamingRecorder.c **** 	
 1822              		.loc 1 1221 0 discriminator 3
 1823 000e 332C     		cmp	r4, #51
 1824 0010 FADD     		ble	.L157
 1825              	.L156:
1224:source\bsw\TraceRecorder/trcStreamingRecorder.c **** 
 1826              		.loc 1 1224 0 is_stmt 1
ARM GAS  C:\Users\robom\AppData\Local\Temp\ccqs2S2W.s 			page 74


 1827 0012 261D     		adds	r6, r4, #4
 1828 0014 00D5     		bpl	.L158
 1829 0016 0336     		adds	r6, r6, #3
 1830              	.L158:
 1831 0018 B610     		asrs	r6, r6, #2
 1832              	.LVL147:
1227:source\bsw\TraceRecorder/trcStreamingRecorder.c **** 	{
 1833              		.loc 1 1227 0
 1834 001a 18B9     		cbnz	r0, .L166
1216:source\bsw\TraceRecorder/trcStreamingRecorder.c ****   	TRACE_ALLOC_CRITICAL_SECTION();
 1835              		.loc 1 1216 0
 1836 001c 4FF0900A 		mov	r10, #144
1214:source\bsw\TraceRecorder/trcStreamingRecorder.c **** 	int offset = 0;
 1837              		.loc 1 1214 0
 1838 0020 0023     		movs	r3, #0
 1839 0022 02E0     		b	.L159
 1840              	.L166:
1230:source\bsw\TraceRecorder/trcStreamingRecorder.c **** 	}
 1841              		.loc 1 1230 0
 1842 0024 4FF0910A 		mov	r10, #145
1229:source\bsw\TraceRecorder/trcStreamingRecorder.c **** 		eventID++;
 1843              		.loc 1 1229 0
 1844 0028 0123     		movs	r3, #1
 1845              	.L159:
 1846              	.LVL148:
1233:source\bsw\TraceRecorder/trcStreamingRecorder.c **** 
 1847              		.loc 1 1233 0
 1848 002a 9F00     		lsls	r7, r3, #2
 1849              	.LVL149:
1236:source\bsw\TraceRecorder/trcStreamingRecorder.c **** 
 1850              		.loc 1 1236 0
 1851 002c 1E44     		add	r6, r6, r3
 1852              	.LVL150:
1238:source\bsw\TraceRecorder/trcStreamingRecorder.c **** 	{
 1853              		.loc 1 1238 0
 1854 002e 0F2E     		cmp	r6, #15
 1855 0030 0ADD     		ble	.L160
 1856              	.LBB188:
1245:source\bsw\TraceRecorder/trcStreamingRecorder.c **** 
 1857              		.loc 1 1245 0
 1858 0032 0F3E     		subs	r6, r6, #15
 1859              	.LVL151:
 1860 0034 B600     		lsls	r6, r6, #2
 1861              	.LVL152:
1247:source\bsw\TraceRecorder/trcStreamingRecorder.c **** 		{
 1862              		.loc 1 1247 0
 1863 0036 244B     		ldr	r3, .L168
 1864              	.LVL153:
 1865 0038 9B69     		ldr	r3, [r3, #24]
 1866 003a 9E42     		cmp	r6, r3
 1867 003c 01D9     		bls	.L161
1249:source\bsw\TraceRecorder/trcStreamingRecorder.c **** 		}
 1868              		.loc 1 1249 0
 1869 003e 224B     		ldr	r3, .L168
 1870 0040 9E61     		str	r6, [r3, #24]
 1871              	.L161:
 1872              	.LVL154:
ARM GAS  C:\Users\robom\AppData\Local\Temp\ccqs2S2W.s 			page 75


1253:source\bsw\TraceRecorder/trcStreamingRecorder.c **** 	}
 1873              		.loc 1 1253 0
 1874 0042 C7F13C04 		rsb	r4, r7, #60
 1875              	.LVL155:
1252:source\bsw\TraceRecorder/trcStreamingRecorder.c **** 		len = 15 * 4 - offset;
 1876              		.loc 1 1252 0
 1877 0046 0F26     		movs	r6, #15
 1878              	.LVL156:
 1879              	.L160:
 1880              	.LBE188:
 1881              	.LBB189:
 1882              	.LBB190:
 306:Generated_Source\PSoC5/cmsis_gcc.h ****   return(result);
 1883              		.loc 2 306 0
 1884              		.syntax unified
 1885              	@ 306 "Generated_Source\PSoC5/cmsis_gcc.h" 1
 1886 0048 EFF31088 		MRS r8, primask
 1887              	@ 0 "" 2
 1888              	.LVL157:
 1889              		.thumb
 1890              		.syntax unified
 1891              	.LBE190:
 1892              	.LBE189:
 1893              	.LBB191:
 1894              	.LBB192:
 1895              		.loc 2 334 0
 1896 004c 0123     		movs	r3, #1
 1897              		.syntax unified
 1898              	@ 334 "Generated_Source\PSoC5/cmsis_gcc.h" 1
 1899 004e 83F31088 		MSR primask, r3
 1900              	@ 0 "" 2
 1901              	.LVL158:
 1902              		.thumb
 1903              		.syntax unified
 1904              	.LBE192:
 1905              	.LBE191:
1258:source\bsw\TraceRecorder/trcStreamingRecorder.c **** 	{
 1906              		.loc 1 1258 0
 1907 0052 1D4B     		ldr	r3, .L168
 1908 0054 DB69     		ldr	r3, [r3, #28]
 1909 0056 9BB3     		cbz	r3, .L162
 1910 0058 0D46     		mov	r5, r1
 1911 005a 8346     		mov	fp, r0
 1912              	.LBB193:
1260:source\bsw\TraceRecorder/trcStreamingRecorder.c **** 
 1913              		.loc 1 1260 0
 1914 005c B01C     		adds	r0, r6, #2
 1915              	.LVL159:
1262:source\bsw\TraceRecorder/trcStreamingRecorder.c **** 
 1916              		.loc 1 1262 0
 1917 005e 1A4A     		ldr	r2, .L168
 1918 0060 D2F86C36 		ldr	r3, [r2, #1644]
 1919 0064 0133     		adds	r3, r3, #1
 1920 0066 C2F86C36 		str	r3, [r2, #1644]
 1921              	.LBB194:
1265:source\bsw\TraceRecorder/trcStreamingRecorder.c **** 			if (event != NULL)
 1922              		.loc 1 1265 0
ARM GAS  C:\Users\robom\AppData\Local\Temp\ccqs2S2W.s 			page 76


 1923 006a 8000     		lsls	r0, r0, #2
 1924 006c FFF7FEFF 		bl	prvPagedEventBufferGetWritePointer
 1925              	.LVL160:
1266:source\bsw\TraceRecorder/trcStreamingRecorder.c **** 			{
 1926              		.loc 1 1266 0
 1927 0070 8146     		mov	r9, r0
 1928 0072 28B3     		cbz	r0, .L162
 1929              	.LBB195:
1270:source\bsw\TraceRecorder/trcStreamingRecorder.c **** 				event->base.EventCount = (uint16_t)eventCounter;
 1930              		.loc 1 1270 0
 1931 0074 3603     		lsls	r6, r6, #12
 1932              	.LVL161:
 1933 0076 B6B2     		uxth	r6, r6
 1934 0078 4AEA060A 		orr	r10, r10, r6
 1935              	.LVL162:
 1936 007c A0F800A0 		strh	r10, [r0]	@ movhi
1271:source\bsw\TraceRecorder/trcStreamingRecorder.c **** 				event->base.TS = prvGetTimestamp32();
 1937              		.loc 1 1271 0
 1938 0080 114B     		ldr	r3, .L168
 1939 0082 B3F86C36 		ldrh	r3, [r3, #1644]
 1940 0086 4380     		strh	r3, [r0, #2]	@ movhi
1272:source\bsw\TraceRecorder/trcStreamingRecorder.c **** 
 1941              		.loc 1 1272 0
 1942 0088 FFF7FEFF 		bl	prvGetTimestamp32
 1943              	.LVL163:
 1944 008c C9F80400 		str	r0, [r9, #4]
 1945              	.LVL164:
1277:source\bsw\TraceRecorder/trcStreamingRecorder.c **** 				{
 1946              		.loc 1 1277 0
 1947 0090 BBF1000F 		cmp	fp, #0
 1948 0094 01D0     		beq	.L163
1280:source\bsw\TraceRecorder/trcStreamingRecorder.c **** 				}
 1949              		.loc 1 1280 0
 1950 0096 C9F808B0 		str	fp, [r9, #8]
 1951              	.L163:
1283:source\bsw\TraceRecorder/trcStreamingRecorder.c **** 				for (i = 0; i < len; i++)
 1952              		.loc 1 1283 0
 1953 009a 09F10809 		add	r9, r9, #8
 1954              	.LVL165:
1284:source\bsw\TraceRecorder/trcStreamingRecorder.c **** 				{
 1955              		.loc 1 1284 0
 1956 009e 0023     		movs	r3, #0
 1957 00a0 04E0     		b	.L164
 1958              	.LVL166:
 1959              	.L165:
1286:source\bsw\TraceRecorder/trcStreamingRecorder.c **** 				}
 1960              		.loc 1 1286 0 discriminator 3
 1961 00a2 DA19     		adds	r2, r3, r7
 1962 00a4 E95C     		ldrb	r1, [r5, r3]	@ zero_extendqisi2
 1963 00a6 09F80210 		strb	r1, [r9, r2]
1284:source\bsw\TraceRecorder/trcStreamingRecorder.c **** 				{
 1964              		.loc 1 1284 0 discriminator 3
 1965 00aa 0133     		adds	r3, r3, #1
 1966              	.LVL167:
 1967              	.L164:
1284:source\bsw\TraceRecorder/trcStreamingRecorder.c **** 				{
 1968              		.loc 1 1284 0 is_stmt 0 discriminator 1
ARM GAS  C:\Users\robom\AppData\Local\Temp\ccqs2S2W.s 			page 77


 1969 00ac 9C42     		cmp	r4, r3
 1970 00ae F8DC     		bgt	.L165
1289:source\bsw\TraceRecorder/trcStreamingRecorder.c **** 					data8[offset + len] = 0;	/* Only truncate if we don't fill up the buffer completely */
 1971              		.loc 1 1289 0 is_stmt 1
 1972 00b0 C7F13C03 		rsb	r3, r7, #60
 1973              	.LVL168:
 1974 00b4 9C42     		cmp	r4, r3
 1975 00b6 03DA     		bge	.L162
1290:source\bsw\TraceRecorder/trcStreamingRecorder.c **** 				TRC_STREAM_PORT_COMMIT_EVENT(event, (uint32_t)eventSize);
 1976              		.loc 1 1290 0
 1977 00b8 3C44     		add	r4, r4, r7
 1978              	.LVL169:
 1979 00ba 0023     		movs	r3, #0
 1980 00bc 09F80430 		strb	r3, [r9, r4]
 1981              	.LVL170:
 1982              	.L162:
 1983              	.LBE195:
 1984              	.LBE194:
 1985              	.LBE193:
 1986              	.LBB196:
 1987              	.LBB197:
 1988              		.loc 2 334 0
 1989              		.syntax unified
 1990              	@ 334 "Generated_Source\PSoC5/cmsis_gcc.h" 1
 1991 00c0 88F31088 		MSR primask, r8
 1992              	@ 0 "" 2
 1993              		.thumb
 1994              		.syntax unified
 1995 00c4 BDE8F88F 		pop	{r3, r4, r5, r6, r7, r8, r9, r10, fp, pc}
 1996              	.LVL171:
 1997              	.L169:
 1998              		.align	2
 1999              	.L168:
 2000 00c8 00000000 		.word	.LANCHOR0
 2001              	.LBE197:
 2002              	.LBE196:
 2003              		.cfi_endproc
 2004              	.LFE138:
 2005              		.size	prvTraceStoreSimpleStringEventHelper, .-prvTraceStoreSimpleStringEventHelper
 2006              		.section	.text.vTracePrint,"ax",%progbits
 2007              		.align	2
 2008              		.global	vTracePrint
 2009              		.thumb
 2010              		.thumb_func
 2011              		.type	vTracePrint, %function
 2012              	vTracePrint:
 2013              	.LFB115:
 399:source\bsw\TraceRecorder/trcStreamingRecorder.c **** 	prvTraceStoreSimpleStringEventHelper(chn, str);
 2014              		.loc 1 399 0
 2015              		.cfi_startproc
 2016              		@ args = 0, pretend = 0, frame = 0
 2017              		@ frame_needed = 0, uses_anonymous_args = 0
 2018              	.LVL172:
 2019 0000 08B5     		push	{r3, lr}
 2020              		.cfi_def_cfa_offset 8
 2021              		.cfi_offset 3, -8
 2022              		.cfi_offset 14, -4
ARM GAS  C:\Users\robom\AppData\Local\Temp\ccqs2S2W.s 			page 78


 400:source\bsw\TraceRecorder/trcStreamingRecorder.c **** }
 2023              		.loc 1 400 0
 2024 0002 FFF7FEFF 		bl	prvTraceStoreSimpleStringEventHelper
 2025              	.LVL173:
 2026 0006 08BD     		pop	{r3, pc}
 2027              		.cfi_endproc
 2028              	.LFE115:
 2029              		.size	vTracePrint, .-vTracePrint
 2030              		.section	.text.prvTraceStoreWarnings,"ax",%progbits
 2031              		.align	2
 2032              		.thumb
 2033              		.thumb_func
 2034              		.type	prvTraceStoreWarnings, %function
 2035              	prvTraceStoreWarnings:
 2036              	.LFB130:
 928:source\bsw\TraceRecorder/trcStreamingRecorder.c **** 	if (RecorderEnabled)
 2037              		.loc 1 928 0
 2038              		.cfi_startproc
 2039              		@ args = 0, pretend = 0, frame = 0
 2040              		@ frame_needed = 0, uses_anonymous_args = 0
 2041 0000 08B5     		push	{r3, lr}
 2042              		.cfi_def_cfa_offset 8
 2043              		.cfi_offset 3, -8
 2044              		.cfi_offset 14, -4
 929:source\bsw\TraceRecorder/trcStreamingRecorder.c **** 	{
 2045              		.loc 1 929 0
 2046 0002 064B     		ldr	r3, .L175
 2047 0004 DB69     		ldr	r3, [r3, #28]
 2048 0006 3BB1     		cbz	r3, .L172
 2049              	.LBB198:
 931:source\bsw\TraceRecorder/trcStreamingRecorder.c **** 
 2050              		.loc 1 931 0
 2051 0008 FFF7FEFF 		bl	xTraceGetLastError
 2052              	.LVL174:
 933:source\bsw\TraceRecorder/trcStreamingRecorder.c **** 		{
 2053              		.loc 1 933 0
 2054 000c 0146     		mov	r1, r0
 2055 000e 18B1     		cbz	r0, .L172
 935:source\bsw\TraceRecorder/trcStreamingRecorder.c **** 		}
 2056              		.loc 1 935 0
 2057 0010 034B     		ldr	r3, .L175+4
 2058 0012 1868     		ldr	r0, [r3]
 2059              	.LVL175:
 2060 0014 FFF7FEFF 		bl	vTracePrint
 2061              	.LVL176:
 2062              	.L172:
 2063 0018 08BD     		pop	{r3, pc}
 2064              	.L176:
 2065 001a 00BF     		.align	2
 2066              	.L175:
 2067 001c 00000000 		.word	.LANCHOR0
 2068 0020 00000000 		.word	trcWarningChannel
 2069              	.LBE198:
 2070              		.cfi_endproc
 2071              	.LFE130:
 2072              		.size	prvTraceStoreWarnings, .-prvTraceStoreWarnings
 2073              		.section	.text.prvTraceWarning,"ax",%progbits
ARM GAS  C:\Users\robom\AppData\Local\Temp\ccqs2S2W.s 			page 79


 2074              		.align	2
 2075              		.global	prvTraceWarning
 2076              		.thumb
 2077              		.thumb_func
 2078              		.type	prvTraceWarning, %function
 2079              	prvTraceWarning:
 2080              	.LFB145:
1534:source\bsw\TraceRecorder/trcStreamingRecorder.c **** 	if (!errorCode)
 2081              		.loc 1 1534 0
 2082              		.cfi_startproc
 2083              		@ args = 0, pretend = 0, frame = 0
 2084              		@ frame_needed = 0, uses_anonymous_args = 0
 2085              	.LVL177:
 2086 0000 08B5     		push	{r3, lr}
 2087              		.cfi_def_cfa_offset 8
 2088              		.cfi_offset 3, -8
 2089              		.cfi_offset 14, -4
1535:source\bsw\TraceRecorder/trcStreamingRecorder.c **** 	{
 2090              		.loc 1 1535 0
 2091 0002 044B     		ldr	r3, .L180
 2092 0004 9B68     		ldr	r3, [r3, #8]
 2093 0006 1BB9     		cbnz	r3, .L177
1537:source\bsw\TraceRecorder/trcStreamingRecorder.c **** 		prvTraceStoreWarnings();
 2094              		.loc 1 1537 0
 2095 0008 024B     		ldr	r3, .L180
 2096 000a 9860     		str	r0, [r3, #8]
1538:source\bsw\TraceRecorder/trcStreamingRecorder.c **** 	}
 2097              		.loc 1 1538 0
 2098 000c FFF7FEFF 		bl	prvTraceStoreWarnings
 2099              	.LVL178:
 2100              	.L177:
 2101 0010 08BD     		pop	{r3, pc}
 2102              	.L181:
 2103 0012 00BF     		.align	2
 2104              	.L180:
 2105 0014 00000000 		.word	.LANCHOR0
 2106              		.cfi_endproc
 2107              	.LFE145:
 2108              		.size	prvTraceWarning, .-prvTraceWarning
 2109              		.section	.text.prvPagedEventBufferTransfer,"ax",%progbits
 2110              		.align	2
 2111              		.global	prvPagedEventBufferTransfer
 2112              		.thumb
 2113              		.thumb_func
 2114              		.type	prvPagedEventBufferTransfer, %function
 2115              	prvPagedEventBufferTransfer:
 2116              	.LFB153:
1739:source\bsw\TraceRecorder/trcStreamingRecorder.c **** 	int8_t pageToTransfer = -1;
 2117              		.loc 1 1739 0
 2118              		.cfi_startproc
 2119              		@ args = 0, pretend = 0, frame = 8
 2120              		@ frame_needed = 0, uses_anonymous_args = 0
 2121 0000 70B5     		push	{r4, r5, r6, lr}
 2122              		.cfi_def_cfa_offset 16
 2123              		.cfi_offset 4, -16
 2124              		.cfi_offset 5, -12
 2125              		.cfi_offset 6, -8
ARM GAS  C:\Users\robom\AppData\Local\Temp\ccqs2S2W.s 			page 80


 2126              		.cfi_offset 14, -4
 2127 0002 82B0     		sub	sp, sp, #8
 2128              		.cfi_def_cfa_offset 24
 2129              	.LVL179:
1742:source\bsw\TraceRecorder/trcStreamingRecorder.c **** 	int32_t bytesToTransfer;
 2130              		.loc 1 1742 0
 2131 0004 0023     		movs	r3, #0
 2132 0006 0193     		str	r3, [sp, #4]
1745:source\bsw\TraceRecorder/trcStreamingRecorder.c **** 
 2133              		.loc 1 1745 0
 2134 0008 6846     		mov	r0, sp
 2135 000a FFF7FEFF 		bl	prvGetBufferPage
 2136              	.LVL180:
 2137 000e 45B2     		sxtb	r5, r0
 2138              	.LVL181:
1750:source\bsw\TraceRecorder/trcStreamingRecorder.c ****     {
 2139              		.loc 1 1750 0
 2140 0010 002D     		cmp	r5, #0
 2141 0012 1CDB     		blt	.L186
 2142 0014 0024     		movs	r4, #0
 2143              	.LVL182:
 2144              	.L185:
1754:source\bsw\TraceRecorder/trcStreamingRecorder.c **** 					&EventBuffer[pageToTransfer * (TRC_CFG_PAGED_EVENT_BUFFER_PAGE_SIZE) + bytesTransferredTotal],
 2145              		.loc 1 1754 0
 2146 0016 0F4B     		ldr	r3, .L188
 2147 0018 1868     		ldr	r0, [r3]
 2148 001a 40F6C413 		movw	r3, #2500
 2149 001e 03FB0543 		mla	r3, r3, r5, r4
 2150 0022 01AA     		add	r2, sp, #4
 2151 0024 0099     		ldr	r1, [sp]
 2152 0026 091B     		subs	r1, r1, r4
 2153 0028 1844     		add	r0, r0, r3
 2154 002a FFF7FEFF 		bl	trcUARTTransmit
 2155              	.LVL183:
 2156 002e 48B9     		cbnz	r0, .L184
1760:source\bsw\TraceRecorder/trcStreamingRecorder.c **** 
 2157              		.loc 1 1760 0
 2158 0030 019B     		ldr	r3, [sp, #4]
 2159 0032 1C44     		add	r4, r4, r3
 2160              	.LVL184:
1762:source\bsw\TraceRecorder/trcStreamingRecorder.c **** 				{
 2161              		.loc 1 1762 0
 2162 0034 009B     		ldr	r3, [sp]
 2163 0036 9C42     		cmp	r4, r3
 2164 0038 EDD1     		bne	.L185
1765:source\bsw\TraceRecorder/trcStreamingRecorder.c **** 					return (uint32_t)bytesTransferredTotal;
 2165              		.loc 1 1765 0
 2166 003a 2846     		mov	r0, r5
 2167 003c FFF7FEFF 		bl	prvPageReadComplete
 2168              	.LVL185:
1766:source\bsw\TraceRecorder/trcStreamingRecorder.c **** 				}
 2169              		.loc 1 1766 0
 2170 0040 2046     		mov	r0, r4
 2171 0042 05E0     		b	.L183
 2172              	.L184:
1772:source\bsw\TraceRecorder/trcStreamingRecorder.c **** 				return 0;
 2173              		.loc 1 1772 0
ARM GAS  C:\Users\robom\AppData\Local\Temp\ccqs2S2W.s 			page 81


 2174 0044 6A20     		movs	r0, #106
 2175 0046 FFF7FEFF 		bl	prvTraceWarning
 2176              	.LVL186:
1773:source\bsw\TraceRecorder/trcStreamingRecorder.c **** 			}
 2177              		.loc 1 1773 0
 2178 004a 0020     		movs	r0, #0
 2179 004c 00E0     		b	.L183
 2180              	.LVL187:
 2181              	.L186:
1777:source\bsw\TraceRecorder/trcStreamingRecorder.c **** }
 2182              		.loc 1 1777 0
 2183 004e 0020     		movs	r0, #0
 2184              	.LVL188:
 2185              	.L183:
1778:source\bsw\TraceRecorder/trcStreamingRecorder.c **** 
 2186              		.loc 1 1778 0
 2187 0050 02B0     		add	sp, sp, #8
 2188              		.cfi_def_cfa_offset 16
 2189              		@ sp needed
 2190 0052 70BD     		pop	{r4, r5, r6, pc}
 2191              	.LVL189:
 2192              	.L189:
 2193              		.align	2
 2194              	.L188:
 2195 0054 00000000 		.word	.LANCHOR0
 2196              		.cfi_endproc
 2197              	.LFE153:
 2198              		.size	prvPagedEventBufferTransfer, .-prvPagedEventBufferTransfer
 2199              		.section	.text.prvPagedEventBufferInit,"ax",%progbits
 2200              		.align	2
 2201              		.global	prvPagedEventBufferInit
 2202              		.thumb
 2203              		.thumb_func
 2204              		.type	prvPagedEventBufferInit, %function
 2205              	prvPagedEventBufferInit:
 2206              	.LFB155:
1834:source\bsw\TraceRecorder/trcStreamingRecorder.c **** 
1835:source\bsw\TraceRecorder/trcStreamingRecorder.c **** /*******************************************************************************
1836:source\bsw\TraceRecorder/trcStreamingRecorder.c ****  * void prvPagedEventBufferInit(char* buffer)
1837:source\bsw\TraceRecorder/trcStreamingRecorder.c ****  *
1838:source\bsw\TraceRecorder/trcStreamingRecorder.c ****  * Assigns the buffer to use and initializes the PageInfo structure.
1839:source\bsw\TraceRecorder/trcStreamingRecorder.c ****  *
1840:source\bsw\TraceRecorder/trcStreamingRecorder.c ****  * Return value: void
1841:source\bsw\TraceRecorder/trcStreamingRecorder.c ****  * 
1842:source\bsw\TraceRecorder/trcStreamingRecorder.c ****  * Parameters:
1843:source\bsw\TraceRecorder/trcStreamingRecorder.c ****  * - char* buffer: pointer to the trace data buffer, allocated by the caller.
1844:source\bsw\TraceRecorder/trcStreamingRecorder.c ****  *
1845:source\bsw\TraceRecorder/trcStreamingRecorder.c **** *******************************************************************************/
1846:source\bsw\TraceRecorder/trcStreamingRecorder.c **** void prvPagedEventBufferInit(char* buffer)
1847:source\bsw\TraceRecorder/trcStreamingRecorder.c **** {
 2207              		.loc 1 1847 0
 2208              		.cfi_startproc
 2209              		@ args = 0, pretend = 0, frame = 0
 2210              		@ frame_needed = 0, uses_anonymous_args = 0
 2211              		@ link register save eliminated.
 2212              	.LVL190:
 2213 0000 30B4     		push	{r4, r5}
ARM GAS  C:\Users\robom\AppData\Local\Temp\ccqs2S2W.s 			page 82


 2214              		.cfi_def_cfa_offset 8
 2215              		.cfi_offset 4, -8
 2216              		.cfi_offset 5, -4
1848:source\bsw\TraceRecorder/trcStreamingRecorder.c ****   	int i;
1849:source\bsw\TraceRecorder/trcStreamingRecorder.c ****   	TRACE_ALLOC_CRITICAL_SECTION();
1850:source\bsw\TraceRecorder/trcStreamingRecorder.c ****     
1851:source\bsw\TraceRecorder/trcStreamingRecorder.c ****     EventBuffer = buffer;
 2217              		.loc 1 1851 0
 2218 0002 0F4B     		ldr	r3, .L194
 2219 0004 1860     		str	r0, [r3]
 2220              	.LBB199:
 2221              	.LBB200:
 306:Generated_Source\PSoC5/cmsis_gcc.h ****   return(result);
 2222              		.loc 2 306 0
 2223              		.syntax unified
 2224              	@ 306 "Generated_Source\PSoC5/cmsis_gcc.h" 1
 2225 0006 EFF31085 		MRS r5, primask
 2226              	@ 0 "" 2
 2227              	.LVL191:
 2228              		.thumb
 2229              		.syntax unified
 2230              	.LBE200:
 2231              	.LBE199:
 2232              	.LBB201:
 2233              	.LBB202:
 2234              		.loc 2 334 0
 2235 000a 0123     		movs	r3, #1
 2236              		.syntax unified
 2237              	@ 334 "Generated_Source\PSoC5/cmsis_gcc.h" 1
 2238 000c 83F31088 		MSR primask, r3
 2239              	@ 0 "" 2
 2240              	.LVL192:
 2241              		.thumb
 2242              		.syntax unified
 2243              	.LBE202:
 2244              	.LBE201:
1852:source\bsw\TraceRecorder/trcStreamingRecorder.c ****     
1853:source\bsw\TraceRecorder/trcStreamingRecorder.c **** 	TRACE_ENTER_CRITICAL_SECTION();
1854:source\bsw\TraceRecorder/trcStreamingRecorder.c **** 	for (i = 0; i < (TRC_CFG_PAGED_EVENT_BUFFER_PAGE_COUNT); i++)
 2245              		.loc 1 1854 0
 2246 0010 0023     		movs	r3, #0
 2247 0012 0EE0     		b	.L191
 2248              	.LVL193:
 2249              	.L192:
1855:source\bsw\TraceRecorder/trcStreamingRecorder.c **** 	{
1856:source\bsw\TraceRecorder/trcStreamingRecorder.c **** 		PageInfo[i].BytesRemaining = (TRC_CFG_PAGED_EVENT_BUFFER_PAGE_SIZE);
 2250              		.loc 1 1856 0 discriminator 3
 2251 0014 0B49     		ldr	r1, .L194+4
 2252 0016 01EBC300 		add	r0, r1, r3, lsl #3
 2253 001a 40F6C412 		movw	r2, #2500
 2254 001e 4280     		strh	r2, [r0, #2]	@ movhi
1857:source\bsw\TraceRecorder/trcStreamingRecorder.c **** 		PageInfo[i].WritePointer = &EventBuffer[i * (TRC_CFG_PAGED_EVENT_BUFFER_PAGE_SIZE)];
 2255              		.loc 1 1857 0 discriminator 3
 2256 0020 074C     		ldr	r4, .L194
 2257 0022 2468     		ldr	r4, [r4]
 2258 0024 02FB0342 		mla	r2, r2, r3, r4
 2259 0028 4260     		str	r2, [r0, #4]
ARM GAS  C:\Users\robom\AppData\Local\Temp\ccqs2S2W.s 			page 83


1858:source\bsw\TraceRecorder/trcStreamingRecorder.c **** 		PageInfo[i].Status = PAGE_STATUS_FREE;
 2260              		.loc 1 1858 0 discriminator 3
 2261 002a 0022     		movs	r2, #0
 2262 002c 21F83320 		strh	r2, [r1, r3, lsl #3]	@ movhi
1854:source\bsw\TraceRecorder/trcStreamingRecorder.c **** 	{
 2263              		.loc 1 1854 0 discriminator 3
 2264 0030 0133     		adds	r3, r3, #1
 2265              	.LVL194:
 2266              	.L191:
1854:source\bsw\TraceRecorder/trcStreamingRecorder.c **** 	{
 2267              		.loc 1 1854 0 is_stmt 0 discriminator 1
 2268 0032 012B     		cmp	r3, #1
 2269 0034 EEDD     		ble	.L192
 2270              	.LVL195:
 2271              	.LBB203:
 2272              	.LBB204:
 2273              		.loc 2 334 0 is_stmt 1
 2274              		.syntax unified
 2275              	@ 334 "Generated_Source\PSoC5/cmsis_gcc.h" 1
 2276 0036 85F31088 		MSR primask, r5
 2277              	@ 0 "" 2
 2278              	.LVL196:
 2279              		.thumb
 2280              		.syntax unified
 2281              	.LBE204:
 2282              	.LBE203:
1859:source\bsw\TraceRecorder/trcStreamingRecorder.c **** 	}
1860:source\bsw\TraceRecorder/trcStreamingRecorder.c **** 	TRACE_EXIT_CRITICAL_SECTION();
1861:source\bsw\TraceRecorder/trcStreamingRecorder.c **** 
1862:source\bsw\TraceRecorder/trcStreamingRecorder.c **** }
 2283              		.loc 1 1862 0
 2284 003a 30BC     		pop	{r4, r5}
 2285              		.cfi_restore 5
 2286              		.cfi_restore 4
 2287              		.cfi_def_cfa_offset 0
 2288 003c 7047     		bx	lr
 2289              	.L195:
 2290 003e 00BF     		.align	2
 2291              	.L194:
 2292 0040 00000000 		.word	.LANCHOR0
 2293 0044 00000000 		.word	PageInfo
 2294              		.cfi_endproc
 2295              	.LFE155:
 2296              		.size	prvPagedEventBufferInit, .-prvPagedEventBufferInit
 2297              		.section	.text.prvSetRecorderEnabled,"ax",%progbits
 2298              		.align	2
 2299              		.thumb
 2300              		.thumb_func
 2301              		.type	prvSetRecorderEnabled, %function
 2302              	prvSetRecorderEnabled:
 2303              	.LFB126:
 795:source\bsw\TraceRecorder/trcStreamingRecorder.c ****   	void* currentTask;
 2304              		.loc 1 795 0
 2305              		.cfi_startproc
 2306              		@ args = 0, pretend = 0, frame = 0
 2307              		@ frame_needed = 0, uses_anonymous_args = 0
 2308              	.LVL197:
ARM GAS  C:\Users\robom\AppData\Local\Temp\ccqs2S2W.s 			page 84


 800:source\bsw\TraceRecorder/trcStreamingRecorder.c **** 	{
 2309              		.loc 1 800 0
 2310 0000 1C4B     		ldr	r3, .L203
 2311 0002 DB69     		ldr	r3, [r3, #28]
 2312 0004 8342     		cmp	r3, r0
 2313 0006 34D0     		beq	.L202
 795:source\bsw\TraceRecorder/trcStreamingRecorder.c ****   	void* currentTask;
 2314              		.loc 1 795 0
 2315 0008 70B5     		push	{r4, r5, r6, lr}
 2316              		.cfi_def_cfa_offset 16
 2317              		.cfi_offset 4, -16
 2318              		.cfi_offset 5, -12
 2319              		.cfi_offset 6, -8
 2320              		.cfi_offset 14, -4
 2321 000a 0446     		mov	r4, r0
 805:source\bsw\TraceRecorder/trcStreamingRecorder.c **** 
 2322              		.loc 1 805 0
 2323 000c FFF7FEFF 		bl	prvTraceGetCurrentTaskId
 2324              	.LVL198:
 2325 0010 0546     		mov	r5, r0
 2326              	.LVL199:
 2327              	.LBB205:
 2328              	.LBB206:
 306:Generated_Source\PSoC5/cmsis_gcc.h ****   return(result);
 2329              		.loc 2 306 0
 2330              		.syntax unified
 2331              	@ 306 "Generated_Source\PSoC5/cmsis_gcc.h" 1
 2332 0012 EFF31086 		MRS r6, primask
 2333              	@ 0 "" 2
 2334              	.LVL200:
 2335              		.thumb
 2336              		.syntax unified
 2337              	.LBE206:
 2338              	.LBE205:
 2339              	.LBB207:
 2340              	.LBB208:
 2341              		.loc 2 334 0
 2342 0016 0123     		movs	r3, #1
 2343              		.syntax unified
 2344              	@ 334 "Generated_Source\PSoC5/cmsis_gcc.h" 1
 2345 0018 83F31088 		MSR primask, r3
 2346              	@ 0 "" 2
 2347              	.LVL201:
 2348              		.thumb
 2349              		.syntax unified
 2350              	.LBE208:
 2351              	.LBE207:
 809:source\bsw\TraceRecorder/trcStreamingRecorder.c **** 
 2352              		.loc 1 809 0
 2353 001c 154B     		ldr	r3, .L203
 2354 001e DC61     		str	r4, [r3, #28]
 811:source\bsw\TraceRecorder/trcStreamingRecorder.c ****     {
 2355              		.loc 1 811 0
 2356 0020 00B9     		cbnz	r0, .L198
 813:source\bsw\TraceRecorder/trcStreamingRecorder.c **** 	}
 2357              		.loc 1 813 0
 2358 0022 0225     		movs	r5, #2
ARM GAS  C:\Users\robom\AppData\Local\Temp\ccqs2S2W.s 			page 85


 2359              	.L198:
 2360              	.LVL202:
 816:source\bsw\TraceRecorder/trcStreamingRecorder.c **** 	{
 2361              		.loc 1 816 0
 2362 0024 14B3     		cbz	r4, .L199
 818:source\bsw\TraceRecorder/trcStreamingRecorder.c **** 
 2363              		.loc 1 818 0
 2364 0026 144C     		ldr	r4, .L203+4
 2365              	.LVL203:
 2366 0028 2046     		mov	r0, r4
 2367 002a FFF7FEFF 		bl	prvPagedEventBufferInit
 2368              	.LVL204:
 821:source\bsw\TraceRecorder/trcStreamingRecorder.c **** 		#endif
 2369              		.loc 1 821 0
 2370 002e 2046     		mov	r0, r4
 2371 0030 FFF7FEFF 		bl	prvPagedEventBufferInit
 2372              	.LVL205:
 824:source\bsw\TraceRecorder/trcStreamingRecorder.c ****         ISR_stack_index = -1;
 2373              		.loc 1 824 0
 2374 0034 0F4C     		ldr	r4, .L203
 2375 0036 0023     		movs	r3, #0
 2376 0038 C4F86C36 		str	r3, [r4, #1644]
 825:source\bsw\TraceRecorder/trcStreamingRecorder.c ****         prvTraceStoreHeader();
 2377              		.loc 1 825 0
 2378 003c FF22     		movs	r2, #255
 2379 003e 0F4B     		ldr	r3, .L203+8
 2380 0040 1A75     		strb	r2, [r3, #20]
 826:source\bsw\TraceRecorder/trcStreamingRecorder.c **** 		prvTraceStoreSymbolTable();
 2381              		.loc 1 826 0
 2382 0042 FFF7FEFF 		bl	prvTraceStoreHeader
 2383              	.LVL206:
 827:source\bsw\TraceRecorder/trcStreamingRecorder.c ****     	prvTraceStoreObjectDataTable();
 2384              		.loc 1 827 0
 2385 0046 FFF7FEFF 		bl	prvTraceStoreSymbolTable
 2386              	.LVL207:
 828:source\bsw\TraceRecorder/trcStreamingRecorder.c ****         prvTraceStoreEvent3(	PSF_EVENT_TRACE_START,
 2387              		.loc 1 828 0
 2388 004a FFF7FEFF 		bl	prvTraceStoreObjectDataTable
 2389              	.LVL208:
 829:source\bsw\TraceRecorder/trcStreamingRecorder.c **** 							(uint32_t)TRACE_GET_OS_TICKS(),
 2390              		.loc 1 829 0
 2391 004e D4F87016 		ldr	r1, [r4, #1648]
 2392 0052 D4F87436 		ldr	r3, [r4, #1652]
 2393 0056 5A1C     		adds	r2, r3, #1
 2394 0058 C4F87426 		str	r2, [r4, #1652]
 2395 005c 2A46     		mov	r2, r5
 2396 005e 0120     		movs	r0, #1
 2397 0060 FFF7FEFF 		bl	prvTraceStoreEvent3
 2398              	.LVL209:
 833:source\bsw\TraceRecorder/trcStreamingRecorder.c **** 		prvTraceStoreWarnings();
 2399              		.loc 1 833 0
 2400 0064 FFF7FEFF 		bl	prvTraceStoreTSConfig
 2401              	.LVL210:
 834:source\bsw\TraceRecorder/trcStreamingRecorder.c **** 	}
 2402              		.loc 1 834 0
 2403 0068 FFF7FEFF 		bl	prvTraceStoreWarnings
 2404              	.LVL211:
ARM GAS  C:\Users\robom\AppData\Local\Temp\ccqs2S2W.s 			page 86


 2405              	.L199:
 2406              	.LBB209:
 2407              	.LBB210:
 2408              		.loc 2 334 0
 2409              		.syntax unified
 2410              	@ 334 "Generated_Source\PSoC5/cmsis_gcc.h" 1
 2411 006c 86F31088 		MSR primask, r6
 2412              	@ 0 "" 2
 2413              		.thumb
 2414              		.syntax unified
 2415 0070 70BD     		pop	{r4, r5, r6, pc}
 2416              	.LVL212:
 2417              	.L202:
 2418              		.cfi_def_cfa_offset 0
 2419              		.cfi_restore 4
 2420              		.cfi_restore 5
 2421              		.cfi_restore 6
 2422              		.cfi_restore 14
 2423 0072 7047     		bx	lr
 2424              	.L204:
 2425              		.align	2
 2426              	.L203:
 2427 0074 00000000 		.word	.LANCHOR0
 2428 0078 00000000 		.word	_TzTraceData
 2429 007c 00000000 		.word	.LANCHOR1
 2430              	.LBE210:
 2431              	.LBE209:
 2432              		.cfi_endproc
 2433              	.LFE126:
 2434              		.size	prvSetRecorderEnabled, .-prvSetRecorderEnabled
 2435              		.section	.text.vTraceStop,"ax",%progbits
 2436              		.align	2
 2437              		.global	vTraceStop
 2438              		.thumb
 2439              		.thumb_func
 2440              		.type	vTraceStop, %function
 2441              	vTraceStop:
 2442              	.LFB122:
 748:source\bsw\TraceRecorder/trcStreamingRecorder.c **** 	prvSetRecorderEnabled(0);
 2443              		.loc 1 748 0
 2444              		.cfi_startproc
 2445              		@ args = 0, pretend = 0, frame = 0
 2446              		@ frame_needed = 0, uses_anonymous_args = 0
 2447 0000 08B5     		push	{r3, lr}
 2448              		.cfi_def_cfa_offset 8
 2449              		.cfi_offset 3, -8
 2450              		.cfi_offset 14, -4
 749:source\bsw\TraceRecorder/trcStreamingRecorder.c **** }
 2451              		.loc 1 749 0
 2452 0002 0020     		movs	r0, #0
 2453 0004 FFF7FEFF 		bl	prvSetRecorderEnabled
 2454              	.LVL213:
 2455 0008 08BD     		pop	{r3, pc}
 2456              		.cfi_endproc
 2457              	.LFE122:
 2458              		.size	vTraceStop, .-vTraceStop
 2459 000a 00BF     		.section	.text.prvProcessCommand,"ax",%progbits
ARM GAS  C:\Users\robom\AppData\Local\Temp\ccqs2S2W.s 			page 87


 2460              		.align	2
 2461              		.global	prvProcessCommand
 2462              		.thumb
 2463              		.thumb_func
 2464              		.type	prvProcessCommand, %function
 2465              	prvProcessCommand:
 2466              	.LFB144:
1521:source\bsw\TraceRecorder/trcStreamingRecorder.c ****   	switch(cmd->cmdCode)
 2467              		.loc 1 1521 0
 2468              		.cfi_startproc
 2469              		@ args = 0, pretend = 0, frame = 0
 2470              		@ frame_needed = 0, uses_anonymous_args = 0
 2471              	.LVL214:
 2472 0000 08B5     		push	{r3, lr}
 2473              		.cfi_def_cfa_offset 8
 2474              		.cfi_offset 3, -8
 2475              		.cfi_offset 14, -4
1522:source\bsw\TraceRecorder/trcStreamingRecorder.c **** 	{
 2476              		.loc 1 1522 0
 2477 0002 0378     		ldrb	r3, [r0]	@ zero_extendqisi2
 2478 0004 012B     		cmp	r3, #1
 2479 0006 02D1     		bne	.L207
1525:source\bsw\TraceRecorder/trcStreamingRecorder.c **** 		  	break;
 2480              		.loc 1 1525 0
 2481 0008 4078     		ldrb	r0, [r0, #1]	@ zero_extendqisi2
 2482              	.LVL215:
 2483 000a FFF7FEFF 		bl	prvSetRecorderEnabled
 2484              	.LVL216:
 2485              	.L207:
 2486 000e 08BD     		pop	{r3, pc}
 2487              		.cfi_endproc
 2488              	.LFE144:
 2489              		.size	prvProcessCommand, .-prvProcessCommand
 2490              		.section	.text.prvTraceError,"ax",%progbits
 2491              		.align	2
 2492              		.global	prvTraceError
 2493              		.thumb
 2494              		.thumb_func
 2495              		.type	prvTraceError, %function
 2496              	prvTraceError:
 2497              	.LFB146:
1544:source\bsw\TraceRecorder/trcStreamingRecorder.c **** 	if (! errorCode)
 2498              		.loc 1 1544 0
 2499              		.cfi_startproc
 2500              		@ args = 0, pretend = 0, frame = 0
 2501              		@ frame_needed = 0, uses_anonymous_args = 0
 2502              	.LVL217:
 2503 0000 08B5     		push	{r3, lr}
 2504              		.cfi_def_cfa_offset 8
 2505              		.cfi_offset 3, -8
 2506              		.cfi_offset 14, -4
1545:source\bsw\TraceRecorder/trcStreamingRecorder.c **** 	{
 2507              		.loc 1 1545 0
 2508 0002 084B     		ldr	r3, .L214
 2509 0004 9B68     		ldr	r3, [r3, #8]
 2510 0006 5BB9     		cbnz	r3, .L211
1547:source\bsw\TraceRecorder/trcStreamingRecorder.c **** 		prvTraceStoreWarnings();
ARM GAS  C:\Users\robom\AppData\Local\Temp\ccqs2S2W.s 			page 88


 2511              		.loc 1 1547 0
 2512 0008 064B     		ldr	r3, .L214
 2513 000a 9860     		str	r0, [r3, #8]
1548:source\bsw\TraceRecorder/trcStreamingRecorder.c **** 		vTracePrintF(trcWarningChannel, "Recorder stopped in prvTraceError()");
 2514              		.loc 1 1548 0
 2515 000c FFF7FEFF 		bl	prvTraceStoreWarnings
 2516              	.LVL218:
1549:source\bsw\TraceRecorder/trcStreamingRecorder.c **** 
 2517              		.loc 1 1549 0
 2518 0010 0549     		ldr	r1, .L214+4
 2519 0012 064B     		ldr	r3, .L214+8
 2520 0014 1868     		ldr	r0, [r3]
 2521 0016 FFF7FEFF 		bl	vTracePrintF
 2522              	.LVL219:
1551:source\bsw\TraceRecorder/trcStreamingRecorder.c **** 	}
 2523              		.loc 1 1551 0
 2524 001a 0020     		movs	r0, #0
 2525 001c FFF7FEFF 		bl	prvSetRecorderEnabled
 2526              	.LVL220:
 2527              	.L211:
 2528 0020 08BD     		pop	{r3, pc}
 2529              	.L215:
 2530 0022 00BF     		.align	2
 2531              	.L214:
 2532 0024 00000000 		.word	.LANCHOR0
 2533 0028 24020000 		.word	.LC11
 2534 002c 00000000 		.word	trcWarningChannel
 2535              		.cfi_endproc
 2536              	.LFE146:
 2537              		.size	prvTraceError, .-prvTraceError
 2538              		.section	.text.prvTraceStoreStringEventHelper,"ax",%progbits
 2539              		.align	2
 2540              		.thumb
 2541              		.thumb_func
 2542              		.type	prvTraceStoreStringEventHelper, %function
 2543              	prvTraceStoreStringEventHelper:
 2544              	.LFB137:
1117:source\bsw\TraceRecorder/trcStreamingRecorder.c ****   	int nWords;
 2545              		.loc 1 1117 0
 2546              		.cfi_startproc
 2547              		@ args = 8, pretend = 0, frame = 0
 2548              		@ frame_needed = 0, uses_anonymous_args = 0
 2549              	.LVL221:
 2550 0000 2DE9F84F 		push	{r3, r4, r5, r6, r7, r8, r9, r10, fp, lr}
 2551              		.cfi_def_cfa_offset 40
 2552              		.cfi_offset 3, -40
 2553              		.cfi_offset 4, -36
 2554              		.cfi_offset 5, -32
 2555              		.cfi_offset 6, -28
 2556              		.cfi_offset 7, -24
 2557              		.cfi_offset 8, -20
 2558              		.cfi_offset 9, -16
 2559              		.cfi_offset 10, -12
 2560              		.cfi_offset 11, -8
 2561              		.cfi_offset 14, -4
 2562 0004 0B9F     		ldr	r7, [sp, #44]
 2563              	.LVL222:
ARM GAS  C:\Users\robom\AppData\Local\Temp\ccqs2S2W.s 			page 89


1124:source\bsw\TraceRecorder/trcStreamingRecorder.c **** 	
 2564              		.loc 1 1124 0
 2565 0006 B1F5805F 		cmp	r1, #4096
 2566 000a 04D3     		bcc	.L217
1124:source\bsw\TraceRecorder/trcStreamingRecorder.c **** 	
 2567              		.loc 1 1124 0 is_stmt 0 discriminator 1
 2568 000c 0120     		movs	r0, #1
 2569              	.LVL223:
 2570 000e FFF7FEFF 		bl	prvTraceError
 2571              	.LVL224:
 2572 0012 BDE8F88F 		pop	{r3, r4, r5, r6, r7, r8, r9, r10, fp, pc}
 2573              	.LVL225:
 2574              	.L217:
 2575 0016 0546     		mov	r5, r0
 2576 0018 8A46     		mov	r10, r1
 2577 001a 9046     		mov	r8, r2
 2578 001c 1E46     		mov	r6, r3
1127:source\bsw\TraceRecorder/trcStreamingRecorder.c **** 
 2579              		.loc 1 1127 0 is_stmt 1
 2580 001e 1C1D     		adds	r4, r3, #4
 2581 0020 00D5     		bpl	.L219
 2582 0022 0334     		adds	r4, r4, #3
 2583              	.L219:
 2584 0024 A410     		asrs	r4, r4, #2
 2585              	.LVL226:
1130:source\bsw\TraceRecorder/trcStreamingRecorder.c **** 		nArgs++;
 2586              		.loc 1 1130 0
 2587 0026 B8F1000F 		cmp	r8, #0
 2588 002a 00D0     		beq	.L220
1131:source\bsw\TraceRecorder/trcStreamingRecorder.c **** 
 2589              		.loc 1 1131 0
 2590 002c 0135     		adds	r5, r5, #1
 2591              	.LVL227:
 2592              	.L220:
1133:source\bsw\TraceRecorder/trcStreamingRecorder.c **** 
 2593              		.loc 1 1133 0
 2594 002e 4FEA8509 		lsl	r9, r5, #2
 2595              	.LVL228:
1136:source\bsw\TraceRecorder/trcStreamingRecorder.c **** 
 2596              		.loc 1 1136 0
 2597 0032 2C44     		add	r4, r4, r5
 2598              	.LVL229:
1138:source\bsw\TraceRecorder/trcStreamingRecorder.c **** 	{
 2599              		.loc 1 1138 0
 2600 0034 0F2C     		cmp	r4, #15
 2601 0036 0ADD     		ble	.L221
 2602              	.LBB211:
1145:source\bsw\TraceRecorder/trcStreamingRecorder.c **** 
 2603              		.loc 1 1145 0
 2604 0038 0F3C     		subs	r4, r4, #15
 2605              	.LVL230:
 2606 003a A400     		lsls	r4, r4, #2
 2607              	.LVL231:
1147:source\bsw\TraceRecorder/trcStreamingRecorder.c **** 		{
 2608              		.loc 1 1147 0
 2609 003c 294B     		ldr	r3, .L231
 2610              	.LVL232:
ARM GAS  C:\Users\robom\AppData\Local\Temp\ccqs2S2W.s 			page 90


 2611 003e 9B69     		ldr	r3, [r3, #24]
 2612 0040 9C42     		cmp	r4, r3
 2613 0042 01D9     		bls	.L222
1149:source\bsw\TraceRecorder/trcStreamingRecorder.c **** 		}
 2614              		.loc 1 1149 0
 2615 0044 274B     		ldr	r3, .L231
 2616 0046 9C61     		str	r4, [r3, #24]
 2617              	.L222:
 2618              	.LVL233:
1153:source\bsw\TraceRecorder/trcStreamingRecorder.c **** 	}
 2619              		.loc 1 1153 0
 2620 0048 C9F13C06 		rsb	r6, r9, #60
 2621              	.LVL234:
1152:source\bsw\TraceRecorder/trcStreamingRecorder.c **** 		len = 15 * 4 - offset;
 2622              		.loc 1 1152 0
 2623 004c 0F24     		movs	r4, #15
 2624              	.LVL235:
 2625              	.L221:
 2626              	.LBE211:
 2627              	.LBB212:
 2628              	.LBB213:
 306:Generated_Source\PSoC5/cmsis_gcc.h ****   return(result);
 2629              		.loc 2 306 0
 2630              		.syntax unified
 2631              	@ 306 "Generated_Source\PSoC5/cmsis_gcc.h" 1
 2632 004e EFF3108B 		MRS fp, primask
 2633              	@ 0 "" 2
 2634              	.LVL236:
 2635              		.thumb
 2636              		.syntax unified
 2637              	.LBE213:
 2638              	.LBE212:
 2639              	.LBB214:
 2640              	.LBB215:
 2641              		.loc 2 334 0
 2642 0052 0123     		movs	r3, #1
 2643              		.syntax unified
 2644              	@ 334 "Generated_Source\PSoC5/cmsis_gcc.h" 1
 2645 0054 83F31088 		MSR primask, r3
 2646              	@ 0 "" 2
 2647              	.LVL237:
 2648              		.thumb
 2649              		.syntax unified
 2650              	.LBE215:
 2651              	.LBE214:
1158:source\bsw\TraceRecorder/trcStreamingRecorder.c **** 	{
 2652              		.loc 1 1158 0
 2653 0058 224B     		ldr	r3, .L231
 2654 005a DB69     		ldr	r3, [r3, #28]
 2655 005c 002B     		cmp	r3, #0
 2656 005e 3DD0     		beq	.L223
 2657              	.LBB216:
1160:source\bsw\TraceRecorder/trcStreamingRecorder.c **** 
 2658              		.loc 1 1160 0
 2659 0060 A01C     		adds	r0, r4, #2
1162:source\bsw\TraceRecorder/trcStreamingRecorder.c **** 
 2660              		.loc 1 1162 0
ARM GAS  C:\Users\robom\AppData\Local\Temp\ccqs2S2W.s 			page 91


 2661 0062 204A     		ldr	r2, .L231
 2662              	.LVL238:
 2663 0064 D2F86C36 		ldr	r3, [r2, #1644]
 2664 0068 0133     		adds	r3, r3, #1
 2665 006a C2F86C36 		str	r3, [r2, #1644]
 2666              	.LBB217:
1165:source\bsw\TraceRecorder/trcStreamingRecorder.c **** 			if (event != NULL)
 2667              		.loc 1 1165 0
 2668 006e 8000     		lsls	r0, r0, #2
 2669 0070 FFF7FEFF 		bl	prvPagedEventBufferGetWritePointer
 2670              	.LVL239:
1166:source\bsw\TraceRecorder/trcStreamingRecorder.c **** 			{
 2671              		.loc 1 1166 0
 2672 0074 90B3     		cbz	r0, .L223
 2673              	.LBB218:
1170:source\bsw\TraceRecorder/trcStreamingRecorder.c **** 				event->base.EventCount = (uint16_t)eventCounter;
 2674              		.loc 1 1170 0
 2675 0076 2403     		lsls	r4, r4, #12
 2676              	.LVL240:
 2677 0078 A4B2     		uxth	r4, r4
 2678 007a 4AEA040A 		orr	r10, r10, r4
 2679 007e A0F800A0 		strh	r10, [r0]	@ movhi
1171:source\bsw\TraceRecorder/trcStreamingRecorder.c **** 				event->base.TS = prvGetTimestamp32();
 2680              		.loc 1 1171 0
 2681 0082 184B     		ldr	r3, .L231
 2682 0084 B3F86C36 		ldrh	r3, [r3, #1644]
 2683 0088 0446     		mov	r4, r0
 2684 008a 4380     		strh	r3, [r0, #2]	@ movhi
1172:source\bsw\TraceRecorder/trcStreamingRecorder.c **** 
 2685              		.loc 1 1172 0
 2686 008c FFF7FEFF 		bl	prvGetTimestamp32
 2687              	.LVL241:
 2688 0090 2146     		mov	r1, r4
 2689 0092 6060     		str	r0, [r4, #4]
1175:source\bsw\TraceRecorder/trcStreamingRecorder.c **** 
 2690              		.loc 1 1175 0
 2691 0094 0831     		adds	r1, r1, #8
 2692              	.LVL242:
1177:source\bsw\TraceRecorder/trcStreamingRecorder.c **** 				{
 2693              		.loc 1 1177 0
 2694 0096 0023     		movs	r3, #0
 2695 0098 0DE0     		b	.L224
 2696              	.LVL243:
 2697              	.L227:
1179:source\bsw\TraceRecorder/trcStreamingRecorder.c **** 					{
 2698              		.loc 1 1179 0
 2699 009a B8F1000F 		cmp	r8, #0
 2700 009e 03D0     		beq	.L225
1179:source\bsw\TraceRecorder/trcStreamingRecorder.c **** 					{
 2701              		.loc 1 1179 0 is_stmt 0 discriminator 1
 2702 00a0 13B9     		cbnz	r3, .L225
1182:source\bsw\TraceRecorder/trcStreamingRecorder.c **** 					}
 2703              		.loc 1 1182 0 is_stmt 1
 2704 00a2 41F82380 		str	r8, [r1, r3, lsl #2]
 2705 00a6 05E0     		b	.L226
 2706              	.L225:
1187:source\bsw\TraceRecorder/trcStreamingRecorder.c **** 					}
ARM GAS  C:\Users\robom\AppData\Local\Temp\ccqs2S2W.s 			page 92


 2707              		.loc 1 1187 0
 2708 00a8 3A68     		ldr	r2, [r7]
 2709 00aa 101D     		adds	r0, r2, #4
 2710 00ac 3860     		str	r0, [r7]
 2711 00ae 1268     		ldr	r2, [r2]
 2712 00b0 41F82320 		str	r2, [r1, r3, lsl #2]
 2713              	.L226:
1177:source\bsw\TraceRecorder/trcStreamingRecorder.c **** 				{
 2714              		.loc 1 1177 0 discriminator 2
 2715 00b4 0133     		adds	r3, r3, #1
 2716              	.LVL244:
 2717              	.L224:
1177:source\bsw\TraceRecorder/trcStreamingRecorder.c **** 				{
 2718              		.loc 1 1177 0 is_stmt 0 discriminator 1
 2719 00b6 9D42     		cmp	r5, r3
 2720 00b8 EFDC     		bgt	.L227
 2721 00ba 0023     		movs	r3, #0
 2722              	.LVL245:
 2723 00bc 05E0     		b	.L228
 2724              	.LVL246:
 2725              	.L229:
1193:source\bsw\TraceRecorder/trcStreamingRecorder.c **** 				}
 2726              		.loc 1 1193 0 is_stmt 1 discriminator 3
 2727 00be 03EB0902 		add	r2, r3, r9
 2728 00c2 0A98     		ldr	r0, [sp, #40]
 2729 00c4 C05C     		ldrb	r0, [r0, r3]	@ zero_extendqisi2
 2730 00c6 8854     		strb	r0, [r1, r2]
1191:source\bsw\TraceRecorder/trcStreamingRecorder.c **** 				{
 2731              		.loc 1 1191 0 discriminator 3
 2732 00c8 0133     		adds	r3, r3, #1
 2733              	.LVL247:
 2734              	.L228:
1191:source\bsw\TraceRecorder/trcStreamingRecorder.c **** 				{
 2735              		.loc 1 1191 0 is_stmt 0 discriminator 1
 2736 00ca 9E42     		cmp	r6, r3
 2737 00cc F7DC     		bgt	.L229
1196:source\bsw\TraceRecorder/trcStreamingRecorder.c **** 					data8[offset + len] = 0;	/* Only truncate if we don't fill up the buffer completely */
 2738              		.loc 1 1196 0 is_stmt 1
 2739 00ce C9F13C03 		rsb	r3, r9, #60
 2740              	.LVL248:
 2741 00d2 9E42     		cmp	r6, r3
 2742 00d4 02DA     		bge	.L223
1197:source\bsw\TraceRecorder/trcStreamingRecorder.c **** 				TRC_STREAM_PORT_COMMIT_EVENT(event, (uint32_t)eventSize);
 2743              		.loc 1 1197 0
 2744 00d6 4E44     		add	r6, r6, r9
 2745              	.LVL249:
 2746 00d8 0023     		movs	r3, #0
 2747 00da 8B55     		strb	r3, [r1, r6]
 2748              	.LVL250:
 2749              	.L223:
 2750              	.LBE218:
 2751              	.LBE217:
 2752              	.LBE216:
 2753              	.LBB219:
 2754              	.LBB220:
 2755              		.loc 2 334 0
 2756              		.syntax unified
ARM GAS  C:\Users\robom\AppData\Local\Temp\ccqs2S2W.s 			page 93


 2757              	@ 334 "Generated_Source\PSoC5/cmsis_gcc.h" 1
 2758 00dc 8BF31088 		MSR primask, fp
 2759              	@ 0 "" 2
 2760              		.thumb
 2761              		.syntax unified
 2762 00e0 BDE8F88F 		pop	{r3, r4, r5, r6, r7, r8, r9, r10, fp, pc}
 2763              	.LVL251:
 2764              	.L232:
 2765              		.align	2
 2766              	.L231:
 2767 00e4 00000000 		.word	.LANCHOR0
 2768              	.LBE220:
 2769              	.LBE219:
 2770              		.cfi_endproc
 2771              	.LFE137:
 2772              		.size	prvTraceStoreStringEventHelper, .-prvTraceStoreStringEventHelper
 2773              		.section	.text.vTracePrintF,"ax",%progbits
 2774              		.align	2
 2775              		.global	vTracePrintF
 2776              		.thumb
 2777              		.thumb_func
 2778              		.type	vTracePrintF, %function
 2779              	vTracePrintF:
 2780              	.LFB116:
 450:source\bsw\TraceRecorder/trcStreamingRecorder.c **** 	va_list vl;
 2781              		.loc 1 450 0
 2782              		.cfi_startproc
 2783              		@ args = 4, pretend = 12, frame = 8
 2784              		@ frame_needed = 0, uses_anonymous_args = 1
 2785              	.LVL252:
 2786 0000 0EB4     		push	{r1, r2, r3}
 2787              		.cfi_def_cfa_offset 12
 2788              		.cfi_offset 1, -12
 2789              		.cfi_offset 2, -8
 2790              		.cfi_offset 3, -4
 2791 0002 70B5     		push	{r4, r5, r6, lr}
 2792              		.cfi_def_cfa_offset 28
 2793              		.cfi_offset 4, -28
 2794              		.cfi_offset 5, -24
 2795              		.cfi_offset 6, -20
 2796              		.cfi_offset 14, -16
 2797 0004 85B0     		sub	sp, sp, #20
 2798              		.cfi_def_cfa_offset 48
 2799 0006 099D     		ldr	r5, [sp, #36]
 2800              	.LVL253:
 454:source\bsw\TraceRecorder/trcStreamingRecorder.c **** 
 2801              		.loc 1 454 0
 2802 0008 0026     		movs	r6, #0
 457:source\bsw\TraceRecorder/trcStreamingRecorder.c **** 	{
 2803              		.loc 1 457 0
 2804 000a 3346     		mov	r3, r6
 2805 000c 09E0     		b	.L234
 2806              	.LVL254:
 2807              	.L238:
 459:source\bsw\TraceRecorder/trcStreamingRecorder.c **** 		{
 2808              		.loc 1 459 0
 2809 000e 2529     		cmp	r1, #37
ARM GAS  C:\Users\robom\AppData\Local\Temp\ccqs2S2W.s 			page 94


 2810 0010 06D1     		bne	.L235
 461:source\bsw\TraceRecorder/trcStreamingRecorder.c **** 			{
 2811              		.loc 1 461 0
 2812 0012 0134     		adds	r4, r4, #1
 2813 0014 295D     		ldrb	r1, [r5, r4]	@ zero_extendqisi2
 2814 0016 11B1     		cbz	r1, .L236
 461:source\bsw\TraceRecorder/trcStreamingRecorder.c **** 			{
 2815              		.loc 1 461 0 is_stmt 0 discriminator 1
 2816 0018 2529     		cmp	r1, #37
 2817 001a 00D0     		beq	.L236
 463:source\bsw\TraceRecorder/trcStreamingRecorder.c **** 			}
 2818              		.loc 1 463 0 is_stmt 1
 2819 001c 0136     		adds	r6, r6, #1
 2820              	.LVL255:
 2821              	.L236:
 466:source\bsw\TraceRecorder/trcStreamingRecorder.c **** 		}
 2822              		.loc 1 466 0
 2823 001e 0133     		adds	r3, r3, #1
 2824              	.LVL256:
 2825              	.L235:
 457:source\bsw\TraceRecorder/trcStreamingRecorder.c **** 	{
 2826              		.loc 1 457 0 discriminator 2
 2827 0020 0133     		adds	r3, r3, #1
 2828              	.LVL257:
 2829              	.L234:
 457:source\bsw\TraceRecorder/trcStreamingRecorder.c **** 	{
 2830              		.loc 1 457 0 is_stmt 0 discriminator 1
 2831 0022 1C46     		mov	r4, r3
 2832 0024 E95C     		ldrb	r1, [r5, r3]	@ zero_extendqisi2
 2833 0026 09B1     		cbz	r1, .L237
 457:source\bsw\TraceRecorder/trcStreamingRecorder.c **** 	{
 2834              		.loc 1 457 0 discriminator 3
 2835 0028 332B     		cmp	r3, #51
 2836 002a F0DD     		ble	.L238
 2837              	.L237:
 470:source\bsw\TraceRecorder/trcStreamingRecorder.c **** 	
 2838              		.loc 1 470 0 is_stmt 1
 2839 002c 0AAA     		add	r2, sp, #40
 2840 002e 0392     		str	r2, [sp, #12]
 472:source\bsw\TraceRecorder/trcStreamingRecorder.c **** 	{
 2841              		.loc 1 472 0
 2842 0030 50B1     		cbz	r0, .L239
 474:source\bsw\TraceRecorder/trcStreamingRecorder.c **** 	}
 2843              		.loc 1 474 0
 2844 0032 06F19101 		add	r1, r6, #145
 2845 0036 03AA     		add	r2, sp, #12
 2846 0038 0192     		str	r2, [sp, #4]
 2847 003a 0095     		str	r5, [sp]
 2848 003c 0246     		mov	r2, r0
 2849 003e 89B2     		uxth	r1, r1
 2850 0040 3046     		mov	r0, r6
 2851              	.LVL258:
 2852 0042 FFF7FEFF 		bl	prvTraceStoreStringEventHelper
 2853              	.LVL259:
 2854 0046 09E0     		b	.L233
 2855              	.LVL260:
 2856              	.L239:
ARM GAS  C:\Users\robom\AppData\Local\Temp\ccqs2S2W.s 			page 95


 478:source\bsw\TraceRecorder/trcStreamingRecorder.c **** 	}
 2857              		.loc 1 478 0
 2858 0048 06F19001 		add	r1, r6, #144
 2859 004c 03AA     		add	r2, sp, #12
 2860 004e 0192     		str	r2, [sp, #4]
 2861 0050 0095     		str	r5, [sp]
 2862 0052 0246     		mov	r2, r0
 2863 0054 89B2     		uxth	r1, r1
 2864 0056 3046     		mov	r0, r6
 2865              	.LVL261:
 2866 0058 FFF7FEFF 		bl	prvTraceStoreStringEventHelper
 2867              	.LVL262:
 2868              	.L233:
 481:source\bsw\TraceRecorder/trcStreamingRecorder.c **** #endif /* (TRC_CFG_SCHEDULING_ONLY == 0) && (TRC_CFG_INCLUDE_USER_EVENTS == 1) */
 2869              		.loc 1 481 0
 2870 005c 05B0     		add	sp, sp, #20
 2871              		.cfi_def_cfa_offset 28
 2872              		@ sp needed
 2873 005e BDE87040 		pop	{r4, r5, r6, lr}
 2874              		.cfi_restore 14
 2875              		.cfi_restore 6
 2876              		.cfi_restore 5
 2877              		.cfi_restore 4
 2878              		.cfi_def_cfa_offset 12
 2879              	.LVL263:
 2880 0062 03B0     		add	sp, sp, #12
 2881              		.cfi_restore 3
 2882              		.cfi_restore 2
 2883              		.cfi_restore 1
 2884              		.cfi_def_cfa_offset 0
 2885 0064 7047     		bx	lr
 2886              		.cfi_endproc
 2887              	.LFE116:
 2888              		.size	vTracePrintF, .-vTracePrintF
 2889 0066 00BF     		.section	.text.prvTraceStoreStringEvent,"ax",%progbits
 2890              		.align	2
 2891              		.global	prvTraceStoreStringEvent
 2892              		.thumb
 2893              		.thumb_func
 2894              		.type	prvTraceStoreStringEvent, %function
 2895              	prvTraceStoreStringEvent:
 2896              	.LFB136:
1099:source\bsw\TraceRecorder/trcStreamingRecorder.c **** 	int len;
 2897              		.loc 1 1099 0
 2898              		.cfi_startproc
 2899              		@ args = 4, pretend = 8, frame = 8
 2900              		@ frame_needed = 0, uses_anonymous_args = 1
 2901              	.LVL264:
 2902 0000 0CB4     		push	{r2, r3}
 2903              		.cfi_def_cfa_offset 8
 2904              		.cfi_offset 2, -8
 2905              		.cfi_offset 3, -4
 2906 0002 30B5     		push	{r4, r5, lr}
 2907              		.cfi_def_cfa_offset 20
 2908              		.cfi_offset 4, -20
 2909              		.cfi_offset 5, -16
 2910              		.cfi_offset 14, -12
ARM GAS  C:\Users\robom\AppData\Local\Temp\ccqs2S2W.s 			page 96


 2911 0004 85B0     		sub	sp, sp, #20
 2912              		.cfi_def_cfa_offset 40
 2913 0006 089C     		ldr	r4, [sp, #32]
 2914              	.LVL265:
1103:source\bsw\TraceRecorder/trcStreamingRecorder.c **** 
 2915              		.loc 1 1103 0
 2916 0008 0023     		movs	r3, #0
 2917 000a 00E0     		b	.L243
 2918              	.LVL266:
 2919              	.L245:
1103:source\bsw\TraceRecorder/trcStreamingRecorder.c **** 
 2920              		.loc 1 1103 0 is_stmt 0 discriminator 4
 2921 000c 0133     		adds	r3, r3, #1
 2922              	.LVL267:
 2923              	.L243:
1103:source\bsw\TraceRecorder/trcStreamingRecorder.c **** 
 2924              		.loc 1 1103 0 discriminator 1
 2925 000e E25C     		ldrb	r2, [r4, r3]	@ zero_extendqisi2
 2926 0010 0AB1     		cbz	r2, .L244
1103:source\bsw\TraceRecorder/trcStreamingRecorder.c **** 
 2927              		.loc 1 1103 0 discriminator 3
 2928 0012 332B     		cmp	r3, #51
 2929 0014 FADD     		ble	.L245
 2930              	.L244:
1105:source\bsw\TraceRecorder/trcStreamingRecorder.c **** 	prvTraceStoreStringEventHelper(nArgs, eventID, NULL, len, str, &vl);
 2931              		.loc 1 1105 0 is_stmt 1
 2932 0016 04AA     		add	r2, sp, #16
 2933 0018 09AD     		add	r5, sp, #36
 2934 001a 42F8045D 		str	r5, [r2, #-4]!
1106:source\bsw\TraceRecorder/trcStreamingRecorder.c **** 	va_end(vl);
 2935              		.loc 1 1106 0
 2936 001e 0192     		str	r2, [sp, #4]
 2937 0020 0094     		str	r4, [sp]
 2938 0022 0022     		movs	r2, #0
 2939 0024 FFF7FEFF 		bl	prvTraceStoreStringEventHelper
 2940              	.LVL268:
1108:source\bsw\TraceRecorder/trcStreamingRecorder.c **** 
 2941              		.loc 1 1108 0
 2942 0028 05B0     		add	sp, sp, #20
 2943              		.cfi_def_cfa_offset 20
 2944              		@ sp needed
 2945 002a BDE83040 		pop	{r4, r5, lr}
 2946              		.cfi_restore 14
 2947              		.cfi_restore 5
 2948              		.cfi_restore 4
 2949              		.cfi_def_cfa_offset 8
 2950 002e 02B0     		add	sp, sp, #8
 2951              		.cfi_restore 3
 2952              		.cfi_restore 2
 2953              		.cfi_def_cfa_offset 0
 2954 0030 7047     		bx	lr
 2955              		.cfi_endproc
 2956              	.LFE136:
 2957              		.size	prvTraceStoreStringEvent, .-prvTraceStoreStringEvent
 2958 0032 00BF     		.section	.text.vTraceStoreKernelObjectName,"ax",%progbits
 2959              		.align	2
 2960              		.global	vTraceStoreKernelObjectName
ARM GAS  C:\Users\robom\AppData\Local\Temp\ccqs2S2W.s 			page 97


 2961              		.thumb
 2962              		.thumb_func
 2963              		.type	vTraceStoreKernelObjectName, %function
 2964              	vTraceStoreKernelObjectName:
 2965              	.LFB112:
 333:source\bsw\TraceRecorder/trcStreamingRecorder.c **** 	/* Always save in symbol table, if the recording has not yet started */
 2966              		.loc 1 333 0
 2967              		.cfi_startproc
 2968              		@ args = 0, pretend = 0, frame = 0
 2969              		@ frame_needed = 0, uses_anonymous_args = 0
 2970              	.LVL269:
 2971 0000 38B5     		push	{r3, r4, r5, lr}
 2972              		.cfi_def_cfa_offset 16
 2973              		.cfi_offset 3, -16
 2974              		.cfi_offset 4, -12
 2975              		.cfi_offset 5, -8
 2976              		.cfi_offset 14, -4
 2977 0002 0546     		mov	r5, r0
 2978 0004 0C46     		mov	r4, r1
 335:source\bsw\TraceRecorder/trcStreamingRecorder.c **** 
 2979              		.loc 1 335 0
 2980 0006 FFF7FEFF 		bl	prvTraceSaveSymbol
 2981              	.LVL270:
 337:source\bsw\TraceRecorder/trcStreamingRecorder.c **** }
 2982              		.loc 1 337 0
 2983 000a 2B46     		mov	r3, r5
 2984 000c 2246     		mov	r2, r4
 2985 000e 0321     		movs	r1, #3
 2986 0010 0120     		movs	r0, #1
 2987 0012 FFF7FEFF 		bl	prvTraceStoreStringEvent
 2988              	.LVL271:
 2989 0016 38BD     		pop	{r3, r4, r5, pc}
 2990              		.cfi_endproc
 2991              	.LFE112:
 2992              		.size	vTraceStoreKernelObjectName, .-vTraceStoreKernelObjectName
 2993              		.section	.text.xTraceRegisterString,"ax",%progbits
 2994              		.align	2
 2995              		.global	xTraceRegisterString
 2996              		.thumb
 2997              		.thumb_func
 2998              		.type	xTraceRegisterString, %function
 2999              	xTraceRegisterString:
 3000              	.LFB114:
 364:source\bsw\TraceRecorder/trcStreamingRecorder.c **** 	prvTraceSaveSymbol((const void*)name, name);
 3001              		.loc 1 364 0
 3002              		.cfi_startproc
 3003              		@ args = 0, pretend = 0, frame = 0
 3004              		@ frame_needed = 0, uses_anonymous_args = 0
 3005              	.LVL272:
 3006 0000 10B5     		push	{r4, lr}
 3007              		.cfi_def_cfa_offset 8
 3008              		.cfi_offset 4, -8
 3009              		.cfi_offset 14, -4
 3010 0002 0446     		mov	r4, r0
 365:source\bsw\TraceRecorder/trcStreamingRecorder.c **** 
 3011              		.loc 1 365 0
 3012 0004 0146     		mov	r1, r0
ARM GAS  C:\Users\robom\AppData\Local\Temp\ccqs2S2W.s 			page 98


 3013 0006 FFF7FEFF 		bl	prvTraceSaveSymbol
 3014              	.LVL273:
 368:source\bsw\TraceRecorder/trcStreamingRecorder.c **** 
 3015              		.loc 1 368 0
 3016 000a 2346     		mov	r3, r4
 3017 000c 2246     		mov	r2, r4
 3018 000e 0321     		movs	r1, #3
 3019 0010 0120     		movs	r0, #1
 3020 0012 FFF7FEFF 		bl	prvTraceStoreStringEvent
 3021              	.LVL274:
 371:source\bsw\TraceRecorder/trcStreamingRecorder.c **** 
 3022              		.loc 1 371 0
 3023 0016 2046     		mov	r0, r4
 3024 0018 10BD     		pop	{r4, pc}
 3025              		.cfi_endproc
 3026              	.LFE114:
 3027              		.size	xTraceRegisterString, .-xTraceRegisterString
 3028 001a 00BF     		.section	.text.xTraceSetISRProperties,"ax",%progbits
 3029              		.align	2
 3030              		.global	xTraceSetISRProperties
 3031              		.thumb
 3032              		.thumb_func
 3033              		.type	xTraceSetISRProperties, %function
 3034              	xTraceSetISRProperties:
 3035              	.LFB117:
 504:source\bsw\TraceRecorder/trcStreamingRecorder.c **** 	/* Save object data in object data table */
 3036              		.loc 1 504 0
 3037              		.cfi_startproc
 3038              		@ args = 0, pretend = 0, frame = 0
 3039              		@ frame_needed = 0, uses_anonymous_args = 0
 3040              	.LVL275:
 3041 0000 30B5     		push	{r4, r5, lr}
 3042              		.cfi_def_cfa_offset 12
 3043              		.cfi_offset 4, -12
 3044              		.cfi_offset 5, -8
 3045              		.cfi_offset 14, -4
 3046 0002 83B0     		sub	sp, sp, #12
 3047              		.cfi_def_cfa_offset 24
 3048 0004 0446     		mov	r4, r0
 3049 0006 0D46     		mov	r5, r1
 506:source\bsw\TraceRecorder/trcStreamingRecorder.c ****         
 3050              		.loc 1 506 0
 3051 0008 FFF7FEFF 		bl	prvTraceSaveObjectData
 3052              	.LVL276:
 509:source\bsw\TraceRecorder/trcStreamingRecorder.c ****         
 3053              		.loc 1 509 0
 3054 000c 0095     		str	r5, [sp]
 3055 000e 2346     		mov	r3, r4
 3056 0010 2246     		mov	r2, r4
 3057 0012 0721     		movs	r1, #7
 3058 0014 0220     		movs	r0, #2
 3059 0016 FFF7FEFF 		bl	prvTraceStoreStringEvent
 3060              	.LVL277:
 512:source\bsw\TraceRecorder/trcStreamingRecorder.c **** 	
 3061              		.loc 1 512 0
 3062 001a 2146     		mov	r1, r4
 3063 001c 2046     		mov	r0, r4
ARM GAS  C:\Users\robom\AppData\Local\Temp\ccqs2S2W.s 			page 99


 3064 001e FFF7FEFF 		bl	prvTraceSaveSymbol
 3065              	.LVL278:
 515:source\bsw\TraceRecorder/trcStreamingRecorder.c **** 
 3066              		.loc 1 515 0
 3067 0022 2046     		mov	r0, r4
 3068 0024 03B0     		add	sp, sp, #12
 3069              		.cfi_def_cfa_offset 12
 3070              		@ sp needed
 3071 0026 30BD     		pop	{r4, r5, pc}
 3072              		.cfi_endproc
 3073              	.LFE117:
 3074              		.size	xTraceSetISRProperties, .-xTraceSetISRProperties
 3075              		.section	.text.prvTraceStoreEvent0,"ax",%progbits
 3076              		.align	2
 3077              		.global	prvTraceStoreEvent0
 3078              		.thumb
 3079              		.thumb_func
 3080              		.type	prvTraceStoreEvent0, %function
 3081              	prvTraceStoreEvent0:
 3082              	.LFB131:
 942:source\bsw\TraceRecorder/trcStreamingRecorder.c ****   	TRACE_ALLOC_CRITICAL_SECTION();
 3083              		.loc 1 942 0
 3084              		.cfi_startproc
 3085              		@ args = 0, pretend = 0, frame = 0
 3086              		@ frame_needed = 0, uses_anonymous_args = 0
 3087              	.LVL279:
 3088 0000 70B5     		push	{r4, r5, r6, lr}
 3089              		.cfi_def_cfa_offset 16
 3090              		.cfi_offset 4, -16
 3091              		.cfi_offset 5, -12
 3092              		.cfi_offset 6, -8
 3093              		.cfi_offset 14, -4
 945:source\bsw\TraceRecorder/trcStreamingRecorder.c **** 
 3094              		.loc 1 945 0
 3095 0002 B0F5805F 		cmp	r0, #4096
 3096 0006 03D3     		bcc	.L254
 945:source\bsw\TraceRecorder/trcStreamingRecorder.c **** 
 3097              		.loc 1 945 0 is_stmt 0 discriminator 1
 3098 0008 0120     		movs	r0, #1
 3099              	.LVL280:
 3100 000a FFF7FEFF 		bl	prvTraceError
 3101              	.LVL281:
 3102 000e 70BD     		pop	{r4, r5, r6, pc}
 3103              	.LVL282:
 3104              	.L254:
 3105 0010 0446     		mov	r4, r0
 3106              	.LBB221:
 3107              	.LBB222:
 306:Generated_Source\PSoC5/cmsis_gcc.h ****   return(result);
 3108              		.loc 2 306 0 is_stmt 1
 3109              		.syntax unified
 3110              	@ 306 "Generated_Source\PSoC5/cmsis_gcc.h" 1
 3111 0012 EFF31085 		MRS r5, primask
 3112              	@ 0 "" 2
 3113              	.LVL283:
 3114              		.thumb
 3115              		.syntax unified
ARM GAS  C:\Users\robom\AppData\Local\Temp\ccqs2S2W.s 			page 100


 3116              	.LBE222:
 3117              	.LBE221:
 3118              	.LBB223:
 3119              	.LBB224:
 3120              		.loc 2 334 0
 3121 0016 0123     		movs	r3, #1
 3122              		.syntax unified
 3123              	@ 334 "Generated_Source\PSoC5/cmsis_gcc.h" 1
 3124 0018 83F31088 		MSR primask, r3
 3125              	@ 0 "" 2
 3126              	.LVL284:
 3127              		.thumb
 3128              		.syntax unified
 3129              	.LBE224:
 3130              	.LBE223:
 949:source\bsw\TraceRecorder/trcStreamingRecorder.c **** 	{
 3131              		.loc 1 949 0
 3132 001c 0C4B     		ldr	r3, .L258
 3133 001e DB69     		ldr	r3, [r3, #28]
 3134 0020 93B1     		cbz	r3, .L256
 951:source\bsw\TraceRecorder/trcStreamingRecorder.c **** 
 3135              		.loc 1 951 0
 3136 0022 0B4A     		ldr	r2, .L258
 3137 0024 D2F86C36 		ldr	r3, [r2, #1644]
 3138 0028 0133     		adds	r3, r3, #1
 3139 002a C2F86C36 		str	r3, [r2, #1644]
 3140              	.LBB225:
 954:source\bsw\TraceRecorder/trcStreamingRecorder.c **** 			if (event != NULL)
 3141              		.loc 1 954 0
 3142 002e 0820     		movs	r0, #8
 3143              	.LVL285:
 3144 0030 FFF7FEFF 		bl	prvPagedEventBufferGetWritePointer
 3145              	.LVL286:
 955:source\bsw\TraceRecorder/trcStreamingRecorder.c **** 			{
 3146              		.loc 1 955 0
 3147 0034 0646     		mov	r6, r0
 3148 0036 38B1     		cbz	r0, .L256
 957:source\bsw\TraceRecorder/trcStreamingRecorder.c **** 				event->EventCount = (uint16_t)eventCounter;
 3149              		.loc 1 957 0
 3150 0038 0480     		strh	r4, [r0]	@ movhi
 958:source\bsw\TraceRecorder/trcStreamingRecorder.c **** 				event->TS = prvGetTimestamp32();
 3151              		.loc 1 958 0
 3152 003a 054B     		ldr	r3, .L258
 3153 003c B3F86C36 		ldrh	r3, [r3, #1644]
 3154 0040 4380     		strh	r3, [r0, #2]	@ movhi
 959:source\bsw\TraceRecorder/trcStreamingRecorder.c **** 				TRC_STREAM_PORT_COMMIT_EVENT(event, sizeof(BaseEvent));
 3155              		.loc 1 959 0
 3156 0042 FFF7FEFF 		bl	prvGetTimestamp32
 3157              	.LVL287:
 3158 0046 7060     		str	r0, [r6, #4]
 3159              	.LVL288:
 3160              	.L256:
 3161              	.LBE225:
 3162              	.LBB226:
 3163              	.LBB227:
 3164              		.loc 2 334 0
 3165              		.syntax unified
ARM GAS  C:\Users\robom\AppData\Local\Temp\ccqs2S2W.s 			page 101


 3166              	@ 334 "Generated_Source\PSoC5/cmsis_gcc.h" 1
 3167 0048 85F31088 		MSR primask, r5
 3168              	@ 0 "" 2
 3169              		.thumb
 3170              		.syntax unified
 3171 004c 70BD     		pop	{r4, r5, r6, pc}
 3172              	.LVL289:
 3173              	.L259:
 3174 004e 00BF     		.align	2
 3175              	.L258:
 3176 0050 00000000 		.word	.LANCHOR0
 3177              	.LBE227:
 3178              	.LBE226:
 3179              		.cfi_endproc
 3180              	.LFE131:
 3181              		.size	prvTraceStoreEvent0, .-prvTraceStoreEvent0
 3182              		.section	.text.vTraceInstanceFinishedNow,"ax",%progbits
 3183              		.align	2
 3184              		.global	vTraceInstanceFinishedNow
 3185              		.thumb
 3186              		.thumb_func
 3187              		.type	vTraceInstanceFinishedNow, %function
 3188              	vTraceInstanceFinishedNow:
 3189              	.LFB110:
 304:source\bsw\TraceRecorder/trcStreamingRecorder.c **** 	prvTraceStoreEvent0(PSF_EVENT_IFE_DIRECT);
 3190              		.loc 1 304 0
 3191              		.cfi_startproc
 3192              		@ args = 0, pretend = 0, frame = 0
 3193              		@ frame_needed = 0, uses_anonymous_args = 0
 3194 0000 08B5     		push	{r3, lr}
 3195              		.cfi_def_cfa_offset 8
 3196              		.cfi_offset 3, -8
 3197              		.cfi_offset 14, -4
 305:source\bsw\TraceRecorder/trcStreamingRecorder.c **** }
 3198              		.loc 1 305 0
 3199 0002 3D20     		movs	r0, #61
 3200 0004 FFF7FEFF 		bl	prvTraceStoreEvent0
 3201              	.LVL290:
 3202 0008 08BD     		pop	{r3, pc}
 3203              		.cfi_endproc
 3204              	.LFE110:
 3205              		.size	vTraceInstanceFinishedNow, .-vTraceInstanceFinishedNow
 3206 000a 00BF     		.section	.text.vTraceInstanceFinishedNext,"ax",%progbits
 3207              		.align	2
 3208              		.global	vTraceInstanceFinishedNext
 3209              		.thumb
 3210              		.thumb_func
 3211              		.type	vTraceInstanceFinishedNext, %function
 3212              	vTraceInstanceFinishedNext:
 3213              	.LFB111:
 320:source\bsw\TraceRecorder/trcStreamingRecorder.c **** 	prvTraceStoreEvent0(PSF_EVENT_IFE_NEXT);
 3214              		.loc 1 320 0
 3215              		.cfi_startproc
 3216              		@ args = 0, pretend = 0, frame = 0
 3217              		@ frame_needed = 0, uses_anonymous_args = 0
 3218 0000 08B5     		push	{r3, lr}
 3219              		.cfi_def_cfa_offset 8
ARM GAS  C:\Users\robom\AppData\Local\Temp\ccqs2S2W.s 			page 102


 3220              		.cfi_offset 3, -8
 3221              		.cfi_offset 14, -4
 321:source\bsw\TraceRecorder/trcStreamingRecorder.c **** }
 3222              		.loc 1 321 0
 3223 0002 3C20     		movs	r0, #60
 3224 0004 FFF7FEFF 		bl	prvTraceStoreEvent0
 3225              	.LVL291:
 3226 0008 08BD     		pop	{r3, pc}
 3227              		.cfi_endproc
 3228              	.LFE111:
 3229              		.size	vTraceInstanceFinishedNext, .-vTraceInstanceFinishedNext
 3230 000a 00BF     		.section	.text.prvTraceStoreEvent1,"ax",%progbits
 3231              		.align	2
 3232              		.global	prvTraceStoreEvent1
 3233              		.thumb
 3234              		.thumb_func
 3235              		.type	prvTraceStoreEvent1, %function
 3236              	prvTraceStoreEvent1:
 3237              	.LFB132:
 969:source\bsw\TraceRecorder/trcStreamingRecorder.c ****   	TRACE_ALLOC_CRITICAL_SECTION();
 3238              		.loc 1 969 0
 3239              		.cfi_startproc
 3240              		@ args = 0, pretend = 0, frame = 0
 3241              		@ frame_needed = 0, uses_anonymous_args = 0
 3242              	.LVL292:
 3243 0000 F8B5     		push	{r3, r4, r5, r6, r7, lr}
 3244              		.cfi_def_cfa_offset 24
 3245              		.cfi_offset 3, -24
 3246              		.cfi_offset 4, -20
 3247              		.cfi_offset 5, -16
 3248              		.cfi_offset 6, -12
 3249              		.cfi_offset 7, -8
 3250              		.cfi_offset 14, -4
 972:source\bsw\TraceRecorder/trcStreamingRecorder.c **** 
 3251              		.loc 1 972 0
 3252 0002 B0F5805F 		cmp	r0, #4096
 3253 0006 03D3     		bcc	.L265
 972:source\bsw\TraceRecorder/trcStreamingRecorder.c **** 
 3254              		.loc 1 972 0 is_stmt 0 discriminator 1
 3255 0008 0120     		movs	r0, #1
 3256              	.LVL293:
 3257 000a FFF7FEFF 		bl	prvTraceError
 3258              	.LVL294:
 3259 000e F8BD     		pop	{r3, r4, r5, r6, r7, pc}
 3260              	.LVL295:
 3261              	.L265:
 3262 0010 0446     		mov	r4, r0
 3263 0012 0E46     		mov	r6, r1
 3264              	.LBB228:
 3265              	.LBB229:
 306:Generated_Source\PSoC5/cmsis_gcc.h ****   return(result);
 3266              		.loc 2 306 0 is_stmt 1
 3267              		.syntax unified
 3268              	@ 306 "Generated_Source\PSoC5/cmsis_gcc.h" 1
 3269 0014 EFF31085 		MRS r5, primask
 3270              	@ 0 "" 2
 3271              	.LVL296:
ARM GAS  C:\Users\robom\AppData\Local\Temp\ccqs2S2W.s 			page 103


 3272              		.thumb
 3273              		.syntax unified
 3274              	.LBE229:
 3275              	.LBE228:
 3276              	.LBB230:
 3277              	.LBB231:
 3278              		.loc 2 334 0
 3279 0018 0123     		movs	r3, #1
 3280              		.syntax unified
 3281              	@ 334 "Generated_Source\PSoC5/cmsis_gcc.h" 1
 3282 001a 83F31088 		MSR primask, r3
 3283              	@ 0 "" 2
 3284              	.LVL297:
 3285              		.thumb
 3286              		.syntax unified
 3287              	.LBE231:
 3288              	.LBE230:
 976:source\bsw\TraceRecorder/trcStreamingRecorder.c **** 	{
 3289              		.loc 1 976 0
 3290 001e 0E4B     		ldr	r3, .L269
 3291 0020 DB69     		ldr	r3, [r3, #28]
 3292 0022 ABB1     		cbz	r3, .L267
 978:source\bsw\TraceRecorder/trcStreamingRecorder.c **** 		
 3293              		.loc 1 978 0
 3294 0024 0C4A     		ldr	r2, .L269
 3295 0026 D2F86C36 		ldr	r3, [r2, #1644]
 3296 002a 0133     		adds	r3, r3, #1
 3297 002c C2F86C36 		str	r3, [r2, #1644]
 3298              	.LBB232:
 981:source\bsw\TraceRecorder/trcStreamingRecorder.c **** 			if (event != NULL)
 3299              		.loc 1 981 0
 3300 0030 0C20     		movs	r0, #12
 3301              	.LVL298:
 3302 0032 FFF7FEFF 		bl	prvPagedEventBufferGetWritePointer
 3303              	.LVL299:
 982:source\bsw\TraceRecorder/trcStreamingRecorder.c **** 			{
 3304              		.loc 1 982 0
 3305 0036 0746     		mov	r7, r0
 3306 0038 50B1     		cbz	r0, .L267
 984:source\bsw\TraceRecorder/trcStreamingRecorder.c **** 				event->base.EventCount = (uint16_t)eventCounter;
 3307              		.loc 1 984 0
 3308 003a 44F48054 		orr	r4, r4, #4096
 3309 003e 0480     		strh	r4, [r0]	@ movhi
 985:source\bsw\TraceRecorder/trcStreamingRecorder.c **** 				event->base.TS = prvGetTimestamp32();
 3310              		.loc 1 985 0
 3311 0040 054B     		ldr	r3, .L269
 3312 0042 B3F86C36 		ldrh	r3, [r3, #1644]
 3313 0046 4380     		strh	r3, [r0, #2]	@ movhi
 986:source\bsw\TraceRecorder/trcStreamingRecorder.c **** 				event->param1 = (uint32_t)param1;
 3314              		.loc 1 986 0
 3315 0048 FFF7FEFF 		bl	prvGetTimestamp32
 3316              	.LVL300:
 3317 004c 7860     		str	r0, [r7, #4]
 987:source\bsw\TraceRecorder/trcStreamingRecorder.c **** 				TRC_STREAM_PORT_COMMIT_EVENT(event, sizeof(EventWithParam_1));
 3318              		.loc 1 987 0
 3319 004e BE60     		str	r6, [r7, #8]
 3320              	.LVL301:
ARM GAS  C:\Users\robom\AppData\Local\Temp\ccqs2S2W.s 			page 104


 3321              	.L267:
 3322              	.LBE232:
 3323              	.LBB233:
 3324              	.LBB234:
 3325              		.loc 2 334 0
 3326              		.syntax unified
 3327              	@ 334 "Generated_Source\PSoC5/cmsis_gcc.h" 1
 3328 0050 85F31088 		MSR primask, r5
 3329              	@ 0 "" 2
 3330              		.thumb
 3331              		.syntax unified
 3332 0054 F8BD     		pop	{r3, r4, r5, r6, r7, pc}
 3333              	.LVL302:
 3334              	.L270:
 3335 0056 00BF     		.align	2
 3336              	.L269:
 3337 0058 00000000 		.word	.LANCHOR0
 3338              	.LBE234:
 3339              	.LBE233:
 3340              		.cfi_endproc
 3341              	.LFE132:
 3342              		.size	prvTraceStoreEvent1, .-prvTraceStoreEvent1
 3343              		.section	.text.vTraceStoreISREnd,"ax",%progbits
 3344              		.align	2
 3345              		.global	vTraceStoreISREnd
 3346              		.thumb
 3347              		.thumb_func
 3348              		.type	vTraceStoreISREnd, %function
 3349              	vTraceStoreISREnd:
 3350              	.LFB119:
 587:source\bsw\TraceRecorder/trcStreamingRecorder.c **** 	TRACE_ALLOC_CRITICAL_SECTION();
 3351              		.loc 1 587 0
 3352              		.cfi_startproc
 3353              		@ args = 0, pretend = 0, frame = 0
 3354              		@ frame_needed = 0, uses_anonymous_args = 0
 3355              	.LVL303:
 3356 0000 10B5     		push	{r4, lr}
 3357              		.cfi_def_cfa_offset 8
 3358              		.cfi_offset 4, -8
 3359              		.cfi_offset 14, -4
 3360              	.LBB235:
 3361              	.LBB236:
 306:Generated_Source\PSoC5/cmsis_gcc.h ****   return(result);
 3362              		.loc 2 306 0
 3363              		.syntax unified
 3364              	@ 306 "Generated_Source\PSoC5/cmsis_gcc.h" 1
 3365 0002 EFF31084 		MRS r4, primask
 3366              	@ 0 "" 2
 3367              	.LVL304:
 3368              		.thumb
 3369              		.syntax unified
 3370              	.LBE236:
 3371              	.LBE235:
 3372              	.LBB237:
 3373              	.LBB238:
 3374              		.loc 2 334 0
 3375 0006 0123     		movs	r3, #1
ARM GAS  C:\Users\robom\AppData\Local\Temp\ccqs2S2W.s 			page 105


 3376              		.syntax unified
 3377              	@ 334 "Generated_Source\PSoC5/cmsis_gcc.h" 1
 3378 0008 83F31088 		MSR primask, r3
 3379              	@ 0 "" 2
 3380              	.LVL305:
 3381              		.thumb
 3382              		.syntax unified
 3383              	.LBE238:
 3384              	.LBE237:
 595:source\bsw\TraceRecorder/trcStreamingRecorder.c **** 
 3385              		.loc 1 595 0
 3386 000c 134A     		ldr	r2, .L276
 3387 000e D2F87836 		ldr	r3, [r2, #1656]
 3388 0012 1843     		orrs	r0, r0, r3
 3389              	.LVL306:
 3390 0014 C2F87806 		str	r0, [r2, #1656]
 597:source\bsw\TraceRecorder/trcStreamingRecorder.c **** 	{
 3391              		.loc 1 597 0
 3392 0018 114B     		ldr	r3, .L276+4
 3393 001a 93F91430 		ldrsb	r3, [r3, #20]
 3394 001e 002B     		cmp	r3, #0
 3395 0020 0CDD     		ble	.L272
 599:source\bsw\TraceRecorder/trcStreamingRecorder.c **** 
 3396              		.loc 1 599 0
 3397 0022 013B     		subs	r3, r3, #1
 3398 0024 5BB2     		sxtb	r3, r3
 3399 0026 0E4A     		ldr	r2, .L276+4
 3400 0028 1375     		strb	r3, [r2, #20]
 603:source\bsw\TraceRecorder/trcStreamingRecorder.c **** #endif
 3401              		.loc 1 603 0
 3402 002a 0C4A     		ldr	r2, .L276
 3403 002c 02EB8303 		add	r3, r2, r3, lsl #2
 3404 0030 D3F87C16 		ldr	r1, [r3, #1660]
 3405 0034 3420     		movs	r0, #52
 3406 0036 FFF7FEFF 		bl	prvTraceStoreEvent1
 3407              	.LVL307:
 3408 003a 0CE0     		b	.L273
 3409              	.L272:
 608:source\bsw\TraceRecorder/trcStreamingRecorder.c **** 		
 3410              		.loc 1 608 0
 3411 003c 013B     		subs	r3, r3, #1
 3412 003e 084A     		ldr	r2, .L276+4
 3413 0040 1375     		strb	r3, [r2, #20]
 611:source\bsw\TraceRecorder/trcStreamingRecorder.c **** 		{
 3414              		.loc 1 611 0
 3415 0042 10B1     		cbz	r0, .L274
 611:source\bsw\TraceRecorder/trcStreamingRecorder.c **** 		{
 3416              		.loc 1 611 0 is_stmt 0 discriminator 1
 3417 0044 FFF7FEFF 		bl	prvTraceIsSchedulerSuspended
 3418              	.LVL308:
 3419 0048 28B1     		cbz	r0, .L273
 3420              	.L274:
 3421              	.LBB239:
 614:source\bsw\TraceRecorder/trcStreamingRecorder.c **** #endif
 3422              		.loc 1 614 0 is_stmt 1
 3423 004a FFF7FEFF 		bl	prvTraceGetCurrentTaskId
 3424              	.LVL309:
ARM GAS  C:\Users\robom\AppData\Local\Temp\ccqs2S2W.s 			page 106


 3425 004e 0146     		mov	r1, r0
 3426 0050 3620     		movs	r0, #54
 3427 0052 FFF7FEFF 		bl	prvTraceStoreEvent1
 3428              	.LVL310:
 3429              	.L273:
 3430              	.LBE239:
 3431              	.LBB240:
 3432              	.LBB241:
 3433              		.loc 2 334 0
 3434              		.syntax unified
 3435              	@ 334 "Generated_Source\PSoC5/cmsis_gcc.h" 1
 3436 0056 84F31088 		MSR primask, r4
 3437              	@ 0 "" 2
 3438              	.LVL311:
 3439              		.thumb
 3440              		.syntax unified
 3441 005a 10BD     		pop	{r4, pc}
 3442              	.L277:
 3443              		.align	2
 3444              	.L276:
 3445 005c 00000000 		.word	.LANCHOR0
 3446 0060 00000000 		.word	.LANCHOR1
 3447              	.LBE241:
 3448              	.LBE240:
 3449              		.cfi_endproc
 3450              	.LFE119:
 3451              		.size	vTraceStoreISREnd, .-vTraceStoreISREnd
 3452              		.section	.text.vTraceStoreISRBegin,"ax",%progbits
 3453              		.align	2
 3454              		.global	vTraceStoreISRBegin
 3455              		.thumb
 3456              		.thumb_func
 3457              		.type	vTraceStoreISRBegin, %function
 3458              	vTraceStoreISRBegin:
 3459              	.LFB118:
 537:source\bsw\TraceRecorder/trcStreamingRecorder.c **** 	TRACE_ALLOC_CRITICAL_SECTION();
 3460              		.loc 1 537 0
 3461              		.cfi_startproc
 3462              		@ args = 0, pretend = 0, frame = 0
 3463              		@ frame_needed = 0, uses_anonymous_args = 0
 3464              	.LVL312:
 3465 0000 10B5     		push	{r4, lr}
 3466              		.cfi_def_cfa_offset 8
 3467              		.cfi_offset 4, -8
 3468              		.cfi_offset 14, -4
 3469              	.LBB242:
 3470              	.LBB243:
 306:Generated_Source\PSoC5/cmsis_gcc.h ****   return(result);
 3471              		.loc 2 306 0
 3472              		.syntax unified
 3473              	@ 306 "Generated_Source\PSoC5/cmsis_gcc.h" 1
 3474 0002 EFF31084 		MRS r4, primask
 3475              	@ 0 "" 2
 3476              	.LVL313:
 3477              		.thumb
 3478              		.syntax unified
 3479              	.LBE243:
ARM GAS  C:\Users\robom\AppData\Local\Temp\ccqs2S2W.s 			page 107


 3480              	.LBE242:
 3481              	.LBB244:
 3482              	.LBB245:
 3483              		.loc 2 334 0
 3484 0006 0123     		movs	r3, #1
 3485              		.syntax unified
 3486              	@ 334 "Generated_Source\PSoC5/cmsis_gcc.h" 1
 3487 0008 83F31088 		MSR primask, r3
 3488              	@ 0 "" 2
 3489              	.LVL314:
 3490              		.thumb
 3491              		.syntax unified
 3492              	.LBE245:
 3493              	.LBE244:
 544:source\bsw\TraceRecorder/trcStreamingRecorder.c **** 		isPendingContextSwitch = 0; 
 3494              		.loc 1 544 0
 3495 000c 104B     		ldr	r3, .L283
 3496 000e 93F91430 		ldrsb	r3, [r3, #20]
 3497 0012 B3F1FF3F 		cmp	r3, #-1
 3498 0016 03D1     		bne	.L279
 545:source\bsw\TraceRecorder/trcStreamingRecorder.c **** 	
 3499              		.loc 1 545 0
 3500 0018 0021     		movs	r1, #0
 3501 001a 0E4A     		ldr	r2, .L283+4
 3502 001c C2F87816 		str	r1, [r2, #1656]
 3503              	.L279:
 547:source\bsw\TraceRecorder/trcStreamingRecorder.c **** 	{
 3504              		.loc 1 547 0
 3505 0020 062B     		cmp	r3, #6
 3506 0022 0FDC     		bgt	.L280
 549:source\bsw\TraceRecorder/trcStreamingRecorder.c **** 		ISR_stack[ISR_stack_index] = (uint32_t)handle;
 3507              		.loc 1 549 0
 3508 0024 0133     		adds	r3, r3, #1
 3509 0026 5BB2     		sxtb	r3, r3
 3510 0028 094A     		ldr	r2, .L283
 3511 002a 1375     		strb	r3, [r2, #20]
 550:source\bsw\TraceRecorder/trcStreamingRecorder.c **** #if (TRC_CFG_INCLUDE_ISR_TRACING == 1)
 3512              		.loc 1 550 0
 3513 002c 094A     		ldr	r2, .L283+4
 3514 002e 02EB8303 		add	r3, r2, r3, lsl #2
 3515 0032 C3F87C06 		str	r0, [r3, #1660]
 552:source\bsw\TraceRecorder/trcStreamingRecorder.c **** #endif
 3516              		.loc 1 552 0
 3517 0036 0146     		mov	r1, r0
 3518 0038 3320     		movs	r0, #51
 3519              	.LVL315:
 3520 003a FFF7FEFF 		bl	prvTraceStoreEvent1
 3521              	.LVL316:
 3522              	.LBB246:
 3523              	.LBB247:
 3524              		.loc 2 334 0
 3525              		.syntax unified
 3526              	@ 334 "Generated_Source\PSoC5/cmsis_gcc.h" 1
 3527 003e 84F31088 		MSR primask, r4
 3528              	@ 0 "" 2
 3529              		.thumb
 3530              		.syntax unified
ARM GAS  C:\Users\robom\AppData\Local\Temp\ccqs2S2W.s 			page 108


 3531 0042 10BD     		pop	{r4, pc}
 3532              	.LVL317:
 3533              	.L280:
 3534              	.LBE247:
 3535              	.LBE246:
 3536              	.LBB248:
 3537              	.LBB249:
 3538              		.syntax unified
 3539              	@ 334 "Generated_Source\PSoC5/cmsis_gcc.h" 1
 3540 0044 84F31088 		MSR primask, r4
 3541              	@ 0 "" 2
 3542              	.LVL318:
 3543              		.thumb
 3544              		.syntax unified
 3545              	.LBE249:
 3546              	.LBE248:
 559:source\bsw\TraceRecorder/trcStreamingRecorder.c **** 	}
 3547              		.loc 1 559 0
 3548 0048 0220     		movs	r0, #2
 3549              	.LVL319:
 3550 004a FFF7FEFF 		bl	prvTraceError
 3551              	.LVL320:
 3552 004e 10BD     		pop	{r4, pc}
 3553              	.L284:
 3554              		.align	2
 3555              	.L283:
 3556 0050 00000000 		.word	.LANCHOR1
 3557 0054 00000000 		.word	.LANCHOR0
 3558              		.cfi_endproc
 3559              	.LFE118:
 3560              		.size	vTraceStoreISRBegin, .-vTraceStoreISRBegin
 3561              		.section	.text.prvTraceStoreEvent2,"ax",%progbits
 3562              		.align	2
 3563              		.global	prvTraceStoreEvent2
 3564              		.thumb
 3565              		.thumb_func
 3566              		.type	prvTraceStoreEvent2, %function
 3567              	prvTraceStoreEvent2:
 3568              	.LFB133:
 997:source\bsw\TraceRecorder/trcStreamingRecorder.c ****   	TRACE_ALLOC_CRITICAL_SECTION();
 3569              		.loc 1 997 0
 3570              		.cfi_startproc
 3571              		@ args = 0, pretend = 0, frame = 0
 3572              		@ frame_needed = 0, uses_anonymous_args = 0
 3573              	.LVL321:
 3574 0000 2DE9F041 		push	{r4, r5, r6, r7, r8, lr}
 3575              		.cfi_def_cfa_offset 24
 3576              		.cfi_offset 4, -24
 3577              		.cfi_offset 5, -20
 3578              		.cfi_offset 6, -16
 3579              		.cfi_offset 7, -12
 3580              		.cfi_offset 8, -8
 3581              		.cfi_offset 14, -4
1000:source\bsw\TraceRecorder/trcStreamingRecorder.c **** 
 3582              		.loc 1 1000 0
 3583 0004 B0F5805F 		cmp	r0, #4096
 3584 0008 04D3     		bcc	.L286
ARM GAS  C:\Users\robom\AppData\Local\Temp\ccqs2S2W.s 			page 109


1000:source\bsw\TraceRecorder/trcStreamingRecorder.c **** 
 3585              		.loc 1 1000 0 is_stmt 0 discriminator 1
 3586 000a 0120     		movs	r0, #1
 3587              	.LVL322:
 3588 000c FFF7FEFF 		bl	prvTraceError
 3589              	.LVL323:
 3590 0010 BDE8F081 		pop	{r4, r5, r6, r7, r8, pc}
 3591              	.LVL324:
 3592              	.L286:
 3593 0014 0446     		mov	r4, r0
 3594 0016 0F46     		mov	r7, r1
 3595 0018 1646     		mov	r6, r2
 3596              	.LBB250:
 3597              	.LBB251:
 306:Generated_Source\PSoC5/cmsis_gcc.h ****   return(result);
 3598              		.loc 2 306 0 is_stmt 1
 3599              		.syntax unified
 3600              	@ 306 "Generated_Source\PSoC5/cmsis_gcc.h" 1
 3601 001a EFF31085 		MRS r5, primask
 3602              	@ 0 "" 2
 3603              	.LVL325:
 3604              		.thumb
 3605              		.syntax unified
 3606              	.LBE251:
 3607              	.LBE250:
 3608              	.LBB252:
 3609              	.LBB253:
 3610              		.loc 2 334 0
 3611 001e 0123     		movs	r3, #1
 3612              		.syntax unified
 3613              	@ 334 "Generated_Source\PSoC5/cmsis_gcc.h" 1
 3614 0020 83F31088 		MSR primask, r3
 3615              	@ 0 "" 2
 3616              	.LVL326:
 3617              		.thumb
 3618              		.syntax unified
 3619              	.LBE253:
 3620              	.LBE252:
1004:source\bsw\TraceRecorder/trcStreamingRecorder.c **** 	{
 3621              		.loc 1 1004 0
 3622 0024 104B     		ldr	r3, .L290
 3623 0026 DB69     		ldr	r3, [r3, #28]
 3624 0028 CBB1     		cbz	r3, .L288
1006:source\bsw\TraceRecorder/trcStreamingRecorder.c **** 
 3625              		.loc 1 1006 0
 3626 002a 0F4A     		ldr	r2, .L290
 3627              	.LVL327:
 3628 002c D2F86C36 		ldr	r3, [r2, #1644]
 3629 0030 0133     		adds	r3, r3, #1
 3630 0032 C2F86C36 		str	r3, [r2, #1644]
 3631              	.LBB254:
1009:source\bsw\TraceRecorder/trcStreamingRecorder.c **** 			if (event != NULL)
 3632              		.loc 1 1009 0
 3633 0036 1020     		movs	r0, #16
 3634              	.LVL328:
 3635 0038 FFF7FEFF 		bl	prvPagedEventBufferGetWritePointer
 3636              	.LVL329:
ARM GAS  C:\Users\robom\AppData\Local\Temp\ccqs2S2W.s 			page 110


1010:source\bsw\TraceRecorder/trcStreamingRecorder.c **** 			{
 3637              		.loc 1 1010 0
 3638 003c 8046     		mov	r8, r0
 3639 003e 70B1     		cbz	r0, .L288
1012:source\bsw\TraceRecorder/trcStreamingRecorder.c **** 				event->base.EventCount = (uint16_t)eventCounter;
 3640              		.loc 1 1012 0
 3641 0040 44F40054 		orr	r4, r4, #8192
 3642 0044 0480     		strh	r4, [r0]	@ movhi
1013:source\bsw\TraceRecorder/trcStreamingRecorder.c **** 				event->base.TS = prvGetTimestamp32();
 3643              		.loc 1 1013 0
 3644 0046 084B     		ldr	r3, .L290
 3645 0048 B3F86C36 		ldrh	r3, [r3, #1644]
 3646 004c 4380     		strh	r3, [r0, #2]	@ movhi
1014:source\bsw\TraceRecorder/trcStreamingRecorder.c **** 				event->param1 = (uint32_t)param1;
 3647              		.loc 1 1014 0
 3648 004e FFF7FEFF 		bl	prvGetTimestamp32
 3649              	.LVL330:
 3650 0052 C8F80400 		str	r0, [r8, #4]
1015:source\bsw\TraceRecorder/trcStreamingRecorder.c **** 				event->param2 = param2;
 3651              		.loc 1 1015 0
 3652 0056 C8F80870 		str	r7, [r8, #8]
1016:source\bsw\TraceRecorder/trcStreamingRecorder.c **** 				TRC_STREAM_PORT_COMMIT_EVENT(event, sizeof(EventWithParam_2));
 3653              		.loc 1 1016 0
 3654 005a C8F80C60 		str	r6, [r8, #12]
 3655              	.LVL331:
 3656              	.L288:
 3657              	.LBE254:
 3658              	.LBB255:
 3659              	.LBB256:
 3660              		.loc 2 334 0
 3661              		.syntax unified
 3662              	@ 334 "Generated_Source\PSoC5/cmsis_gcc.h" 1
 3663 005e 85F31088 		MSR primask, r5
 3664              	@ 0 "" 2
 3665              		.thumb
 3666              		.syntax unified
 3667 0062 BDE8F081 		pop	{r4, r5, r6, r7, r8, pc}
 3668              	.LVL332:
 3669              	.L291:
 3670 0066 00BF     		.align	2
 3671              	.L290:
 3672 0068 00000000 		.word	.LANCHOR0
 3673              	.LBE256:
 3674              	.LBE255:
 3675              		.cfi_endproc
 3676              	.LFE133:
 3677              		.size	prvTraceStoreEvent2, .-prvTraceStoreEvent2
 3678              		.section	.text.prvTraceStoreEvent3,"ax",%progbits
 3679              		.align	2
 3680              		.global	prvTraceStoreEvent3
 3681              		.thumb
 3682              		.thumb_func
 3683              		.type	prvTraceStoreEvent3, %function
 3684              	prvTraceStoreEvent3:
 3685              	.LFB134:
1029:source\bsw\TraceRecorder/trcStreamingRecorder.c ****   	TRACE_ALLOC_CRITICAL_SECTION();
 3686              		.loc 1 1029 0
ARM GAS  C:\Users\robom\AppData\Local\Temp\ccqs2S2W.s 			page 111


 3687              		.cfi_startproc
 3688              		@ args = 0, pretend = 0, frame = 0
 3689              		@ frame_needed = 0, uses_anonymous_args = 0
 3690              	.LVL333:
 3691 0000 2DE9F843 		push	{r3, r4, r5, r6, r7, r8, r9, lr}
 3692              		.cfi_def_cfa_offset 32
 3693              		.cfi_offset 3, -32
 3694              		.cfi_offset 4, -28
 3695              		.cfi_offset 5, -24
 3696              		.cfi_offset 6, -20
 3697              		.cfi_offset 7, -16
 3698              		.cfi_offset 8, -12
 3699              		.cfi_offset 9, -8
 3700              		.cfi_offset 14, -4
1032:source\bsw\TraceRecorder/trcStreamingRecorder.c **** 
 3701              		.loc 1 1032 0
 3702 0004 B0F5805F 		cmp	r0, #4096
 3703 0008 04D3     		bcc	.L293
1032:source\bsw\TraceRecorder/trcStreamingRecorder.c **** 
 3704              		.loc 1 1032 0 is_stmt 0 discriminator 1
 3705 000a 0120     		movs	r0, #1
 3706              	.LVL334:
 3707 000c FFF7FEFF 		bl	prvTraceError
 3708              	.LVL335:
 3709 0010 BDE8F883 		pop	{r3, r4, r5, r6, r7, r8, r9, pc}
 3710              	.LVL336:
 3711              	.L293:
 3712 0014 0446     		mov	r4, r0
 3713 0016 8846     		mov	r8, r1
 3714 0018 1746     		mov	r7, r2
 3715 001a 1E46     		mov	r6, r3
 3716              	.LBB257:
 3717              	.LBB258:
 306:Generated_Source\PSoC5/cmsis_gcc.h ****   return(result);
 3718              		.loc 2 306 0 is_stmt 1
 3719              		.syntax unified
 3720              	@ 306 "Generated_Source\PSoC5/cmsis_gcc.h" 1
 3721 001c EFF31085 		MRS r5, primask
 3722              	@ 0 "" 2
 3723              	.LVL337:
 3724              		.thumb
 3725              		.syntax unified
 3726              	.LBE258:
 3727              	.LBE257:
 3728              	.LBB259:
 3729              	.LBB260:
 3730              		.loc 2 334 0
 3731 0020 0123     		movs	r3, #1
 3732              	.LVL338:
 3733              		.syntax unified
 3734              	@ 334 "Generated_Source\PSoC5/cmsis_gcc.h" 1
 3735 0022 83F31088 		MSR primask, r3
 3736              	@ 0 "" 2
 3737              	.LVL339:
 3738              		.thumb
 3739              		.syntax unified
 3740              	.LBE260:
ARM GAS  C:\Users\robom\AppData\Local\Temp\ccqs2S2W.s 			page 112


 3741              	.LBE259:
1036:source\bsw\TraceRecorder/trcStreamingRecorder.c **** 	{
 3742              		.loc 1 1036 0
 3743 0026 114B     		ldr	r3, .L297
 3744 0028 DB69     		ldr	r3, [r3, #28]
 3745 002a DBB1     		cbz	r3, .L295
1038:source\bsw\TraceRecorder/trcStreamingRecorder.c **** 
 3746              		.loc 1 1038 0
 3747 002c 0F4A     		ldr	r2, .L297
 3748              	.LVL340:
 3749 002e D2F86C36 		ldr	r3, [r2, #1644]
 3750 0032 0133     		adds	r3, r3, #1
 3751 0034 C2F86C36 		str	r3, [r2, #1644]
 3752              	.LBB261:
1041:source\bsw\TraceRecorder/trcStreamingRecorder.c **** 			if (event != NULL)
 3753              		.loc 1 1041 0
 3754 0038 1420     		movs	r0, #20
 3755              	.LVL341:
 3756 003a FFF7FEFF 		bl	prvPagedEventBufferGetWritePointer
 3757              	.LVL342:
1042:source\bsw\TraceRecorder/trcStreamingRecorder.c **** 			{
 3758              		.loc 1 1042 0
 3759 003e 8146     		mov	r9, r0
 3760 0040 80B1     		cbz	r0, .L295
1044:source\bsw\TraceRecorder/trcStreamingRecorder.c **** 				event->base.EventCount = (uint16_t)eventCounter;
 3761              		.loc 1 1044 0
 3762 0042 44F44054 		orr	r4, r4, #12288
 3763 0046 0480     		strh	r4, [r0]	@ movhi
1045:source\bsw\TraceRecorder/trcStreamingRecorder.c **** 				event->base.TS = prvGetTimestamp32();
 3764              		.loc 1 1045 0
 3765 0048 084B     		ldr	r3, .L297
 3766 004a B3F86C36 		ldrh	r3, [r3, #1644]
 3767 004e 4380     		strh	r3, [r0, #2]	@ movhi
1046:source\bsw\TraceRecorder/trcStreamingRecorder.c **** 				event->param1 = (uint32_t)param1;
 3768              		.loc 1 1046 0
 3769 0050 FFF7FEFF 		bl	prvGetTimestamp32
 3770              	.LVL343:
 3771 0054 C9F80400 		str	r0, [r9, #4]
1047:source\bsw\TraceRecorder/trcStreamingRecorder.c **** 				event->param2 = param2;
 3772              		.loc 1 1047 0
 3773 0058 C9F80880 		str	r8, [r9, #8]
1048:source\bsw\TraceRecorder/trcStreamingRecorder.c **** 				event->param3 = param3;
 3774              		.loc 1 1048 0
 3775 005c C9F80C70 		str	r7, [r9, #12]
1049:source\bsw\TraceRecorder/trcStreamingRecorder.c **** 				TRC_STREAM_PORT_COMMIT_EVENT(event, sizeof(EventWithParam_3));
 3776              		.loc 1 1049 0
 3777 0060 C9F81060 		str	r6, [r9, #16]
 3778              	.LVL344:
 3779              	.L295:
 3780              	.LBE261:
 3781              	.LBB262:
 3782              	.LBB263:
 3783              		.loc 2 334 0
 3784              		.syntax unified
 3785              	@ 334 "Generated_Source\PSoC5/cmsis_gcc.h" 1
 3786 0064 85F31088 		MSR primask, r5
 3787              	@ 0 "" 2
ARM GAS  C:\Users\robom\AppData\Local\Temp\ccqs2S2W.s 			page 113


 3788              		.thumb
 3789              		.syntax unified
 3790 0068 BDE8F883 		pop	{r3, r4, r5, r6, r7, r8, r9, pc}
 3791              	.LVL345:
 3792              	.L298:
 3793              		.align	2
 3794              	.L297:
 3795 006c 00000000 		.word	.LANCHOR0
 3796              	.LBE263:
 3797              	.LBE262:
 3798              		.cfi_endproc
 3799              	.LFE134:
 3800              		.size	prvTraceStoreEvent3, .-prvTraceStoreEvent3
 3801              		.section	.text.prvTraceStoreEvent,"ax",%progbits
 3802              		.align	2
 3803              		.global	prvTraceStoreEvent
 3804              		.thumb
 3805              		.thumb_func
 3806              		.type	prvTraceStoreEvent, %function
 3807              	prvTraceStoreEvent:
 3808              	.LFB135:
1059:source\bsw\TraceRecorder/trcStreamingRecorder.c **** 	va_list vl;
 3809              		.loc 1 1059 0
 3810              		.cfi_startproc
 3811              		@ args = 4, pretend = 12, frame = 8
 3812              		@ frame_needed = 0, uses_anonymous_args = 1
 3813              	.LVL346:
 3814 0000 0EB4     		push	{r1, r2, r3}
 3815              		.cfi_def_cfa_offset 12
 3816              		.cfi_offset 1, -12
 3817              		.cfi_offset 2, -8
 3818              		.cfi_offset 3, -4
 3819 0002 F0B5     		push	{r4, r5, r6, r7, lr}
 3820              		.cfi_def_cfa_offset 32
 3821              		.cfi_offset 4, -32
 3822              		.cfi_offset 5, -28
 3823              		.cfi_offset 6, -24
 3824              		.cfi_offset 7, -20
 3825              		.cfi_offset 14, -16
 3826 0004 82B0     		sub	sp, sp, #8
 3827              		.cfi_def_cfa_offset 40
 3828 0006 BDF81C70 		ldrh	r7, [sp, #28]
1064:source\bsw\TraceRecorder/trcStreamingRecorder.c **** 
 3829              		.loc 1 1064 0
 3830 000a B7F5805F 		cmp	r7, #4096
 3831 000e 03D3     		bcc	.L300
1064:source\bsw\TraceRecorder/trcStreamingRecorder.c **** 
 3832              		.loc 1 1064 0 is_stmt 0 discriminator 1
 3833 0010 0120     		movs	r0, #1
 3834              	.LVL347:
 3835 0012 FFF7FEFF 		bl	prvTraceError
 3836              	.LVL348:
 3837 0016 2FE0     		b	.L299
 3838              	.LVL349:
 3839              	.L300:
 3840 0018 0446     		mov	r4, r0
 3841              	.LBB264:
ARM GAS  C:\Users\robom\AppData\Local\Temp\ccqs2S2W.s 			page 114


 3842              	.LBB265:
 306:Generated_Source\PSoC5/cmsis_gcc.h ****   return(result);
 3843              		.loc 2 306 0 is_stmt 1
 3844              		.syntax unified
 3845              	@ 306 "Generated_Source\PSoC5/cmsis_gcc.h" 1
 3846 001a EFF31086 		MRS r6, primask
 3847              	@ 0 "" 2
 3848              	.LVL350:
 3849              		.thumb
 3850              		.syntax unified
 3851              	.LBE265:
 3852              	.LBE264:
 3853              	.LBB266:
 3854              	.LBB267:
 3855              		.loc 2 334 0
 3856 001e 0123     		movs	r3, #1
 3857              		.syntax unified
 3858              	@ 334 "Generated_Source\PSoC5/cmsis_gcc.h" 1
 3859 0020 83F31088 		MSR primask, r3
 3860              	@ 0 "" 2
 3861              	.LVL351:
 3862              		.thumb
 3863              		.syntax unified
 3864              	.LBE267:
 3865              	.LBE266:
1068:source\bsw\TraceRecorder/trcStreamingRecorder.c **** 	{
 3866              		.loc 1 1068 0
 3867 0024 174B     		ldr	r3, .L306
 3868 0026 DB69     		ldr	r3, [r3, #28]
 3869 0028 23B3     		cbz	r3, .L302
 3870              	.LBB268:
1070:source\bsw\TraceRecorder/trcStreamingRecorder.c **** 
 3871              		.loc 1 1070 0
 3872 002a 0230     		adds	r0, r0, #2
 3873              	.LVL352:
1072:source\bsw\TraceRecorder/trcStreamingRecorder.c **** 
 3874              		.loc 1 1072 0
 3875 002c 154A     		ldr	r2, .L306
 3876 002e D2F86C36 		ldr	r3, [r2, #1644]
 3877 0032 0133     		adds	r3, r3, #1
 3878 0034 C2F86C36 		str	r3, [r2, #1644]
 3879              	.LBB269:
1075:source\bsw\TraceRecorder/trcStreamingRecorder.c **** 			if (event != NULL)
 3880              		.loc 1 1075 0
 3881 0038 8000     		lsls	r0, r0, #2
 3882 003a FFF7FEFF 		bl	prvPagedEventBufferGetWritePointer
 3883              	.LVL353:
1076:source\bsw\TraceRecorder/trcStreamingRecorder.c **** 			{
 3884              		.loc 1 1076 0
 3885 003e 0546     		mov	r5, r0
 3886 0040 C0B1     		cbz	r0, .L302
1078:source\bsw\TraceRecorder/trcStreamingRecorder.c **** 				event->base.EventCount = (uint16_t)eventCounter;
 3887              		.loc 1 1078 0
 3888 0042 2303     		lsls	r3, r4, #12
 3889 0044 9BB2     		uxth	r3, r3
 3890 0046 1F43     		orrs	r7, r7, r3
 3891 0048 0780     		strh	r7, [r0]	@ movhi
ARM GAS  C:\Users\robom\AppData\Local\Temp\ccqs2S2W.s 			page 115


1079:source\bsw\TraceRecorder/trcStreamingRecorder.c **** 				event->base.TS = prvGetTimestamp32();
 3892              		.loc 1 1079 0
 3893 004a 0E4B     		ldr	r3, .L306
 3894 004c B3F86C36 		ldrh	r3, [r3, #1644]
 3895 0050 4380     		strh	r3, [r0, #2]	@ movhi
1080:source\bsw\TraceRecorder/trcStreamingRecorder.c **** 
 3896              		.loc 1 1080 0
 3897 0052 FFF7FEFF 		bl	prvGetTimestamp32
 3898              	.LVL354:
 3899 0056 6860     		str	r0, [r5, #4]
1082:source\bsw\TraceRecorder/trcStreamingRecorder.c **** 				for (i = 0; i < nParam; i++)
 3900              		.loc 1 1082 0
 3901 0058 08AB     		add	r3, sp, #32
 3902 005a 0193     		str	r3, [sp, #4]
 3903              	.LVL355:
1083:source\bsw\TraceRecorder/trcStreamingRecorder.c **** 				{
 3904              		.loc 1 1083 0
 3905 005c 0023     		movs	r3, #0
 3906 005e 07E0     		b	.L303
 3907              	.LVL356:
 3908              	.L304:
 3909              	.LBB270:
1086:source\bsw\TraceRecorder/trcStreamingRecorder.c **** 				}
 3910              		.loc 1 1086 0 discriminator 3
 3911 0060 019A     		ldr	r2, [sp, #4]
 3912 0062 111D     		adds	r1, r2, #4
 3913 0064 0191     		str	r1, [sp, #4]
 3914 0066 1168     		ldr	r1, [r2]
 3915 0068 9A1C     		adds	r2, r3, #2
 3916 006a 45F82210 		str	r1, [r5, r2, lsl #2]
 3917              	.LBE270:
1083:source\bsw\TraceRecorder/trcStreamingRecorder.c **** 				{
 3918              		.loc 1 1083 0 discriminator 3
 3919 006e 0133     		adds	r3, r3, #1
 3920              	.LVL357:
 3921              	.L303:
1083:source\bsw\TraceRecorder/trcStreamingRecorder.c **** 				{
 3922              		.loc 1 1083 0 is_stmt 0 discriminator 1
 3923 0070 A342     		cmp	r3, r4
 3924 0072 F5DB     		blt	.L304
 3925              	.LVL358:
 3926              	.L302:
 3927              	.LBE269:
 3928              	.LBE268:
 3929              	.LBB271:
 3930              	.LBB272:
 3931              		.loc 2 334 0 is_stmt 1
 3932              		.syntax unified
 3933              	@ 334 "Generated_Source\PSoC5/cmsis_gcc.h" 1
 3934 0074 86F31088 		MSR primask, r6
 3935              	@ 0 "" 2
 3936              	.LVL359:
 3937              		.thumb
 3938              		.syntax unified
 3939              	.L299:
 3940              	.LBE272:
 3941              	.LBE271:
ARM GAS  C:\Users\robom\AppData\Local\Temp\ccqs2S2W.s 			page 116


1095:source\bsw\TraceRecorder/trcStreamingRecorder.c **** 
 3942              		.loc 1 1095 0
 3943 0078 02B0     		add	sp, sp, #8
 3944              		.cfi_def_cfa_offset 32
 3945              		@ sp needed
 3946 007a BDE8F040 		pop	{r4, r5, r6, r7, lr}
 3947              		.cfi_restore 14
 3948              		.cfi_restore 7
 3949              		.cfi_restore 6
 3950              		.cfi_restore 5
 3951              		.cfi_restore 4
 3952              		.cfi_def_cfa_offset 12
 3953 007e 03B0     		add	sp, sp, #12
 3954              		.cfi_restore 3
 3955              		.cfi_restore 2
 3956              		.cfi_restore 1
 3957              		.cfi_def_cfa_offset 0
 3958 0080 7047     		bx	lr
 3959              	.L307:
 3960 0082 00BF     		.align	2
 3961              	.L306:
 3962 0084 00000000 		.word	.LANCHOR0
 3963              		.cfi_endproc
 3964              	.LFE135:
 3965              		.size	prvTraceStoreEvent, .-prvTraceStoreEvent
 3966              		.section	.text.prvTraceStoreTSConfig,"ax",%progbits
 3967              		.align	2
 3968              		.thumb
 3969              		.thumb_func
 3970              		.type	prvTraceStoreTSConfig, %function
 3971              	prvTraceStoreTSConfig:
 3972              	.LFB149:
1633:source\bsw\TraceRecorder/trcStreamingRecorder.c **** 	/* If not overridden using vTraceSetFrequency, use default value */
 3973              		.loc 1 1633 0
 3974              		.cfi_startproc
 3975              		@ args = 0, pretend = 0, frame = 0
 3976              		@ frame_needed = 0, uses_anonymous_args = 0
 3977 0000 00B5     		push	{lr}
 3978              		.cfi_def_cfa_offset 4
 3979              		.cfi_offset 14, -4
 3980 0002 83B0     		sub	sp, sp, #12
 3981              		.cfi_def_cfa_offset 16
1635:source\bsw\TraceRecorder/trcStreamingRecorder.c **** 	{
 3982              		.loc 1 1635 0
 3983 0004 0A4B     		ldr	r3, .L311
 3984 0006 5B68     		ldr	r3, [r3, #4]
 3985 0008 13B9     		cbnz	r3, .L309
1637:source\bsw\TraceRecorder/trcStreamingRecorder.c **** 	}
 3986              		.loc 1 1637 0
 3987 000a 0A4A     		ldr	r2, .L311+4
 3988 000c 084B     		ldr	r3, .L311
 3989 000e 5A60     		str	r2, [r3, #4]
 3990              	.L309:
1652:source\bsw\TraceRecorder/trcStreamingRecorder.c **** 						PSF_EVENT_TS_CONFIG,
 3991              		.loc 1 1652 0
 3992 0010 074B     		ldr	r3, .L311
 3993 0012 5A68     		ldr	r2, [r3, #4]
ARM GAS  C:\Users\robom\AppData\Local\Temp\ccqs2S2W.s 			page 117


 3994 0014 0023     		movs	r3, #0
 3995 0016 0193     		str	r3, [sp, #4]
 3996 0018 0123     		movs	r3, #1
 3997 001a 0093     		str	r3, [sp]
 3998 001c 4FF47A73 		mov	r3, #1000
 3999 0020 0221     		movs	r1, #2
 4000 0022 0420     		movs	r0, #4
 4001 0024 FFF7FEFF 		bl	prvTraceStoreEvent
 4002              	.LVL360:
1659:source\bsw\TraceRecorder/trcStreamingRecorder.c **** 
 4003              		.loc 1 1659 0
 4004 0028 03B0     		add	sp, sp, #12
 4005              		.cfi_def_cfa_offset 4
 4006              		@ sp needed
 4007 002a 5DF804FB 		ldr	pc, [sp], #4
 4008              	.L312:
 4009 002e 00BF     		.align	2
 4010              	.L311:
 4011 0030 00000000 		.word	.LANCHOR0
 4012 0034 00A24A04 		.word	72000000
 4013              		.cfi_endproc
 4014              	.LFE149:
 4015              		.size	prvTraceStoreTSConfig, .-prvTraceStoreTSConfig
 4016              		.section	.text.prvTraceInitCortexM,"ax",%progbits
 4017              		.align	2
 4018              		.global	prvTraceInitCortexM
 4019              		.thumb
 4020              		.thumb_func
 4021              		.type	prvTraceInitCortexM, %function
 4022              	prvTraceInitCortexM:
 4023              	.LFB147:
1560:source\bsw\TraceRecorder/trcStreamingRecorder.c **** 	/* Make sure the DWT registers are unlocked, in case the debugger doesn't do this. */
 4024              		.loc 1 1560 0
 4025              		.cfi_startproc
 4026              		@ args = 0, pretend = 0, frame = 0
 4027              		@ frame_needed = 0, uses_anonymous_args = 0
 4028 0000 08B5     		push	{r3, lr}
 4029              		.cfi_def_cfa_offset 8
 4030              		.cfi_offset 3, -8
 4031              		.cfi_offset 14, -4
1562:source\bsw\TraceRecorder/trcStreamingRecorder.c **** 
 4032              		.loc 1 1562 0
 4033 0002 114A     		ldr	r2, .L318
 4034 0004 114B     		ldr	r3, .L318+4
 4035 0006 1A60     		str	r2, [r3]
1565:source\bsw\TraceRecorder/trcStreamingRecorder.c **** 
 4036              		.loc 1 1565 0
 4037 0008 03F54E43 		add	r3, r3, #52736
 4038 000c 4C33     		adds	r3, r3, #76
 4039 000e 1A68     		ldr	r2, [r3]
 4040 0010 42F08072 		orr	r2, r2, #16777216
 4041 0014 1A60     		str	r2, [r3]
1570:source\bsw\TraceRecorder/trcStreamingRecorder.c **** 		{
 4042              		.loc 1 1570 0
 4043 0016 1B68     		ldr	r3, [r3]
 4044 0018 1BB9     		cbnz	r3, .L314
1582:source\bsw\TraceRecorder/trcStreamingRecorder.c **** 			break;
ARM GAS  C:\Users\robom\AppData\Local\Temp\ccqs2S2W.s 			page 118


 4045              		.loc 1 1582 0
 4046 001a 0320     		movs	r0, #3
 4047 001c FFF7FEFF 		bl	prvTraceError
 4048              	.LVL361:
1583:source\bsw\TraceRecorder/trcStreamingRecorder.c **** 		}
 4049              		.loc 1 1583 0
 4050 0020 08BD     		pop	{r3, pc}
 4051              	.L314:
1587:source\bsw\TraceRecorder/trcStreamingRecorder.c **** 		{
 4052              		.loc 1 1587 0
 4053 0022 0B4B     		ldr	r3, .L318+8
 4054 0024 1B68     		ldr	r3, [r3]
 4055 0026 13F0007F 		tst	r3, #33554432
 4056 002a 03D0     		beq	.L316
1599:source\bsw\TraceRecorder/trcStreamingRecorder.c **** 			break;
 4057              		.loc 1 1599 0
 4058 002c 0420     		movs	r0, #4
 4059 002e FFF7FEFF 		bl	prvTraceError
 4060              	.LVL362:
1600:source\bsw\TraceRecorder/trcStreamingRecorder.c **** 		}
 4061              		.loc 1 1600 0
 4062 0032 08BD     		pop	{r3, pc}
 4063              	.L316:
1604:source\bsw\TraceRecorder/trcStreamingRecorder.c **** 
 4064              		.loc 1 1604 0
 4065 0034 0022     		movs	r2, #0
 4066 0036 074B     		ldr	r3, .L318+12
 4067 0038 1A60     		str	r2, [r3]
1607:source\bsw\TraceRecorder/trcStreamingRecorder.c **** 
 4068              		.loc 1 1607 0
 4069 003a 054A     		ldr	r2, .L318+8
 4070 003c 1368     		ldr	r3, [r2]
 4071 003e 43F00103 		orr	r3, r3, #1
 4072 0042 1360     		str	r3, [r2]
 4073 0044 08BD     		pop	{r3, pc}
 4074              	.L319:
 4075 0046 00BF     		.align	2
 4076              	.L318:
 4077 0048 55CEACC5 		.word	-978530731
 4078 004c B01F00E0 		.word	-536862800
 4079 0050 001000E0 		.word	-536866816
 4080 0054 041000E0 		.word	-536866812
 4081              		.cfi_endproc
 4082              	.LFE147:
 4083              		.size	prvTraceInitCortexM, .-prvTraceInitCortexM
 4084              		.global	CurrentFilterGroup
 4085              		.global	CurrentFilterMask
 4086              		.global	MaxBytesTruncated
 4087              		.global	LongestSymbolName
 4088              		.global	NoRoomForObjectData
 4089              		.global	NoRoomForSymbol
 4090              		.global	EventBuffer
 4091              		.comm	PageInfo,16,4
 4092              		.global	TotalBytesRemaining
 4093              		.global	TotalBytesRemaining_LowWaterMark
 4094              		.global	DroppedEventCounter
 4095              		.global	timestampFrequency
ARM GAS  C:\Users\robom\AppData\Local\Temp\ccqs2S2W.s 			page 119


 4096              		.global	uiTraceTickCount
 4097              		.global	isPendingContextSwitch
 4098              		.global	RecorderEnabled
 4099              		.data
 4100              		.align	2
 4101              		.set	.LANCHOR1,. + 0
 4102              		.type	TotalBytesRemaining, %object
 4103              		.size	TotalBytesRemaining, 4
 4104              	TotalBytesRemaining:
 4105 0000 88130000 		.word	5000
 4106              		.type	lastPage.7783, %object
 4107              		.size	lastPage.7783, 1
 4108              	lastPage.7783:
 4109 0004 FF       		.byte	-1
 4110 0005 00       		.space	1
 4111              		.type	CurrentFilterMask, %object
 4112              		.size	CurrentFilterMask, 2
 4113              	CurrentFilterMask:
 4114 0006 FFFF     		.short	-1
 4115              		.type	CurrentFilterGroup, %object
 4116              		.size	CurrentFilterGroup, 2
 4117              	CurrentFilterGroup:
 4118 0008 0100     		.short	1
 4119 000a 0000     		.space	2
 4120              		.type	currentWritePage.7801, %object
 4121              		.size	currentWritePage.7801, 4
 4122              	currentWritePage.7801:
 4123 000c FFFFFFFF 		.word	-1
 4124              		.type	TotalBytesRemaining_LowWaterMark, %object
 4125              		.size	TotalBytesRemaining_LowWaterMark, 4
 4126              	TotalBytesRemaining_LowWaterMark:
 4127 0010 88130000 		.word	5000
 4128              		.type	ISR_stack_index, %object
 4129              		.size	ISR_stack_index, 1
 4130              	ISR_stack_index:
 4131 0014 FF       		.byte	-1
 4132              		.section	.rodata.str1.4,"aMS",%progbits,1
 4133              		.align	2
 4134              	.LC0:
 4135 0000 45786365 		.ascii	"Exceeded SYMBOL_TABLE_SLOTS (see xTraceGetLastError"
 4135      65646564 
 4135      2053594D 
 4135      424F4C5F 
 4135      5441424C 
 4136 0033 2900     		.ascii	")\000"
 4137 0035 000000   		.space	3
 4138              	.LC1:
 4139 0038 45786365 		.ascii	"Exceeded SYMBOL_MAX_LENGTH (see xTraceGetLastError)"
 4139      65646564 
 4139      2053594D 
 4139      424F4C5F 
 4139      4D41585F 
 4140 006b 00       		.ascii	"\000"
 4141              	.LC2:
 4142 006c 45786365 		.ascii	"Exceeded OBJECT_DATA_SLOTS (see xTraceGetLastError)"
 4142      65646564 
 4142      204F424A 
ARM GAS  C:\Users\robom\AppData\Local\Temp\ccqs2S2W.s 			page 120


 4142      4543545F 
 4142      44415441 
 4143 009f 00       		.ascii	"\000"
 4144              	.LC3:
 4145 00a0 53747269 		.ascii	"String too long (see xTraceGetLastError)\000"
 4145      6E672074 
 4145      6F6F206C 
 4145      6F6E6720 
 4145      28736565 
 4146 00c9 000000   		.space	3
 4147              	.LC4:
 4148 00cc 5452435F 		.ascii	"TRC_STREAM_PORT_READ_DATA returned error (!= 0).\000"
 4148      53545245 
 4148      414D5F50 
 4148      4F52545F 
 4148      52454144 
 4149 00fd 000000   		.space	3
 4150              	.LC5:
 4151 0100 5452435F 		.ascii	"TRC_STREAM_PORT_WRITE_DATA returned error (!= 0).\000"
 4151      53545245 
 4151      414D5F50 
 4151      4F52545F 
 4151      57524954 
 4152 0132 0000     		.space	2
 4153              	.LC6:
 4154 0134 496E7661 		.ascii	"Invalid event code (see xTraceGetLastError)\000"
 4154      6C696420 
 4154      6576656E 
 4154      7420636F 
 4154      64652028 
 4155              	.LC7:
 4156 0160 45786365 		.ascii	"Exceeded ISR nesting (see xTraceGetLastError)\000"
 4156      65646564 
 4156      20495352 
 4156      206E6573 
 4156      74696E67 
 4157 018e 0000     		.space	2
 4158              	.LC8:
 4159 0190 44575420 		.ascii	"DWT not supported (see xTraceGetLastError)\000"
 4159      6E6F7420 
 4159      73757070 
 4159      6F727465 
 4159      64202873 
 4160 01bb 00       		.space	1
 4161              	.LC9:
 4162 01bc 4457545F 		.ascii	"DWT_CYCCNT not supported (see xTraceGetLastError)\000"
 4162      43594343 
 4162      4E54206E 
 4162      6F742073 
 4162      7570706F 
 4163 01ee 0000     		.space	2
 4164              	.LC10:
 4165 01f0 436F756C 		.ascii	"Could not create TzCtrl (see xTraceGetLastError)\000"
 4165      64206E6F 
 4165      74206372 
 4165      65617465 
 4165      20547A43 
ARM GAS  C:\Users\robom\AppData\Local\Temp\ccqs2S2W.s 			page 121


 4166 0221 000000   		.space	3
 4167              	.LC11:
 4168 0224 5265636F 		.ascii	"Recorder stopped in prvTraceError()\000"
 4168      72646572 
 4168      2073746F 
 4168      70706564 
 4168      20696E20 
 4169              		.bss
 4170              		.align	2
 4171              		.set	.LANCHOR0,. + 0
 4172              		.type	EventBuffer, %object
 4173              		.size	EventBuffer, 4
 4174              	EventBuffer:
 4175 0000 00000000 		.space	4
 4176              		.type	timestampFrequency, %object
 4177              		.size	timestampFrequency, 4
 4178              	timestampFrequency:
 4179 0004 00000000 		.space	4
 4180              		.type	errorCode, %object
 4181              		.size	errorCode, 4
 4182              	errorCode:
 4183 0008 00000000 		.space	4
 4184              		.type	NoRoomForSymbol, %object
 4185              		.size	NoRoomForSymbol, 4
 4186              	NoRoomForSymbol:
 4187 000c 00000000 		.space	4
 4188              		.type	LongestSymbolName, %object
 4189              		.size	LongestSymbolName, 4
 4190              	LongestSymbolName:
 4191 0010 00000000 		.space	4
 4192              		.type	NoRoomForObjectData, %object
 4193              		.size	NoRoomForObjectData, 4
 4194              	NoRoomForObjectData:
 4195 0014 00000000 		.space	4
 4196              		.type	MaxBytesTruncated, %object
 4197              		.size	MaxBytesTruncated, 4
 4198              	MaxBytesTruncated:
 4199 0018 00000000 		.space	4
 4200              		.type	RecorderEnabled, %object
 4201              		.size	RecorderEnabled, 4
 4202              	RecorderEnabled:
 4203 001c 00000000 		.space	4
 4204              		.type	firstFreeSymbolTableIndex, %object
 4205              		.size	firstFreeSymbolTableIndex, 4
 4206              	firstFreeSymbolTableIndex:
 4207 0020 00000000 		.space	4
 4208              		.type	symbolTable, %object
 4209              		.size	symbolTable, 1280
 4210              	symbolTable:
 4211 0024 00000000 		.space	1280
 4211      00000000 
 4211      00000000 
 4211      00000000 
 4211      00000000 
 4212              		.type	firstFreeObjectDataTableIndex, %object
 4213              		.size	firstFreeObjectDataTableIndex, 4
 4214              	firstFreeObjectDataTableIndex:
ARM GAS  C:\Users\robom\AppData\Local\Temp\ccqs2S2W.s 			page 122


 4215 0524 00000000 		.space	4
 4216              		.type	objectDataTable, %object
 4217              		.size	objectDataTable, 320
 4218              	objectDataTable:
 4219 0528 00000000 		.space	320
 4219      00000000 
 4219      00000000 
 4219      00000000 
 4219      00000000 
 4220              		.type	DroppedEventCounter, %object
 4221              		.size	DroppedEventCounter, 4
 4222              	DroppedEventCounter:
 4223 0668 00000000 		.space	4
 4224              		.type	eventCounter, %object
 4225              		.size	eventCounter, 4
 4226              	eventCounter:
 4227 066c 00000000 		.space	4
 4228              		.type	uiTraceTickCount, %object
 4229              		.size	uiTraceTickCount, 4
 4230              	uiTraceTickCount:
 4231 0670 00000000 		.space	4
 4232              		.type	SessionCounter, %object
 4233              		.size	SessionCounter, 4
 4234              	SessionCounter:
 4235 0674 00000000 		.space	4
 4236              		.type	isPendingContextSwitch, %object
 4237              		.size	isPendingContextSwitch, 4
 4238              	isPendingContextSwitch:
 4239 0678 00000000 		.space	4
 4240              		.type	ISR_stack, %object
 4241              		.size	ISR_stack, 32
 4242              	ISR_stack:
 4243 067c 00000000 		.space	32
 4243      00000000 
 4243      00000000 
 4243      00000000 
 4243      00000000 
 4244              		.text
 4245              	.Letext0:
 4246              		.file 3 "c:\\program files (x86)\\cypress\\psoc creator\\4.4\\psoc creator\\import\\gnu\\arm\\5.4.
 4247              		.file 4 "c:\\program files (x86)\\cypress\\psoc creator\\4.4\\psoc creator\\import\\gnu\\arm\\5.4.
 4248              		.file 5 "c:\\program files (x86)\\cypress\\psoc creator\\4.4\\psoc creator\\import\\gnu\\arm\\5.4.
 4249              		.file 6 "Generated_Source\\PSoC5/ErikaOS_1_common_ee_types.inc"
 4250              		.file 7 "Generated_Source\\PSoC5/ErikaOS_1_cortex_mx_ee_cpu.inc"
 4251              		.file 8 ".\\source\\bsw\\TraceRecorder\\include/trcRecorder.h"
 4252              		.file 9 "Generated_Source\\PSoC5/ErikaOS_1_ee_oo_intfunc.inc"
 4253              		.file 10 "Generated_Source\\PSoC5/ErikaOS_1_cortex_mx_ee_context.inc"
 4254              		.file 11 "Generated_Source\\PSoC5/ErikaOS_1_common_ee_primitives.inc"
 4255              		.file 12 "Generated_Source\\PSoC5/core_cm3.h"
 4256              		.file 13 ".\\source\\bsw\\TraceRecorder\\streamport/trcStreamingPort.h"
 4257              		.file 14 ".\\source\\bsw\\TraceRecorder\\include/trcKernelPort.h"
 4258              		.file 15 "<built-in>"
 4259              		.section	.debug_info,"",%progbits
 4260              	.Ldebug_info0:
 4261 0000 38210000 		.4byte	0x2138
 4262 0004 0400     		.2byte	0x4
 4263 0006 00000000 		.4byte	.Ldebug_abbrev0
ARM GAS  C:\Users\robom\AppData\Local\Temp\ccqs2S2W.s 			page 123


 4264 000a 04       		.byte	0x4
 4265 000b 01       		.uleb128 0x1
 4266 000c 6F080000 		.4byte	.LASF199
 4267 0010 0C       		.byte	0xc
 4268 0011 E4050000 		.4byte	.LASF200
 4269 0015 45090000 		.4byte	.LASF201
 4270 0019 00000000 		.4byte	.Ldebug_ranges0+0
 4271 001d 00000000 		.4byte	0
 4272 0021 00000000 		.4byte	.Ldebug_line0
 4273 0025 02       		.uleb128 0x2
 4274 0026 49060000 		.4byte	.LASF0
 4275 002a 03       		.byte	0x3
 4276 002b 28       		.byte	0x28
 4277 002c 30000000 		.4byte	0x30
 4278 0030 03       		.uleb128 0x3
 4279 0031 2B020000 		.4byte	.LASF202
 4280 0035 04       		.byte	0x4
 4281 0036 0F       		.byte	0xf
 4282 0037 00       		.byte	0
 4283 0038 47000000 		.4byte	0x47
 4284 003c 04       		.uleb128 0x4
 4285 003d 250B0000 		.4byte	.LASF59
 4286 0041 47000000 		.4byte	0x47
 4287 0045 00       		.byte	0
 4288 0046 00       		.byte	0
 4289 0047 05       		.uleb128 0x5
 4290 0048 04       		.byte	0x4
 4291 0049 02       		.uleb128 0x2
 4292 004a 5D000000 		.4byte	.LASF1
 4293 004e 03       		.byte	0x3
 4294 004f 62       		.byte	0x62
 4295 0050 25000000 		.4byte	0x25
 4296 0054 02       		.uleb128 0x2
 4297 0055 47010000 		.4byte	.LASF2
 4298 0059 04       		.byte	0x4
 4299 005a 1B       		.byte	0x1b
 4300 005b 5F000000 		.4byte	0x5f
 4301 005f 06       		.uleb128 0x6
 4302 0060 01       		.byte	0x1
 4303 0061 06       		.byte	0x6
 4304 0062 A8010000 		.4byte	.LASF4
 4305 0066 02       		.uleb128 0x2
 4306 0067 4C000000 		.4byte	.LASF3
 4307 006b 04       		.byte	0x4
 4308 006c 1D       		.byte	0x1d
 4309 006d 71000000 		.4byte	0x71
 4310 0071 06       		.uleb128 0x6
 4311 0072 01       		.byte	0x1
 4312 0073 08       		.byte	0x8
 4313 0074 98070000 		.4byte	.LASF5
 4314 0078 06       		.uleb128 0x6
 4315 0079 02       		.byte	0x2
 4316 007a 05       		.byte	0x5
 4317 007b 48050000 		.4byte	.LASF6
 4318 007f 02       		.uleb128 0x2
 4319 0080 770A0000 		.4byte	.LASF7
 4320 0084 04       		.byte	0x4
ARM GAS  C:\Users\robom\AppData\Local\Temp\ccqs2S2W.s 			page 124


 4321 0085 2B       		.byte	0x2b
 4322 0086 8A000000 		.4byte	0x8a
 4323 008a 06       		.uleb128 0x6
 4324 008b 02       		.byte	0x2
 4325 008c 07       		.byte	0x7
 4326 008d 3B040000 		.4byte	.LASF8
 4327 0091 02       		.uleb128 0x2
 4328 0092 52050000 		.4byte	.LASF9
 4329 0096 04       		.byte	0x4
 4330 0097 3F       		.byte	0x3f
 4331 0098 9C000000 		.4byte	0x9c
 4332 009c 06       		.uleb128 0x6
 4333 009d 04       		.byte	0x4
 4334 009e 05       		.byte	0x5
 4335 009f 0A020000 		.4byte	.LASF10
 4336 00a3 02       		.uleb128 0x2
 4337 00a4 DB020000 		.4byte	.LASF11
 4338 00a8 04       		.byte	0x4
 4339 00a9 41       		.byte	0x41
 4340 00aa AE000000 		.4byte	0xae
 4341 00ae 06       		.uleb128 0x6
 4342 00af 04       		.byte	0x4
 4343 00b0 07       		.byte	0x7
 4344 00b1 E0030000 		.4byte	.LASF12
 4345 00b5 06       		.uleb128 0x6
 4346 00b6 08       		.byte	0x8
 4347 00b7 05       		.byte	0x5
 4348 00b8 41020000 		.4byte	.LASF13
 4349 00bc 06       		.uleb128 0x6
 4350 00bd 08       		.byte	0x8
 4351 00be 07       		.byte	0x7
 4352 00bf BF000000 		.4byte	.LASF14
 4353 00c3 07       		.uleb128 0x7
 4354 00c4 04       		.byte	0x4
 4355 00c5 05       		.byte	0x5
 4356 00c6 696E7400 		.ascii	"int\000"
 4357 00ca 06       		.uleb128 0x6
 4358 00cb 04       		.byte	0x4
 4359 00cc 07       		.byte	0x7
 4360 00cd 9F030000 		.4byte	.LASF15
 4361 00d1 02       		.uleb128 0x2
 4362 00d2 4F0B0000 		.4byte	.LASF16
 4363 00d6 05       		.byte	0x5
 4364 00d7 14       		.byte	0x14
 4365 00d8 54000000 		.4byte	0x54
 4366 00dc 02       		.uleb128 0x2
 4367 00dd 250C0000 		.4byte	.LASF17
 4368 00e1 05       		.byte	0x5
 4369 00e2 18       		.byte	0x18
 4370 00e3 66000000 		.4byte	0x66
 4371 00e7 02       		.uleb128 0x2
 4372 00e8 4F020000 		.4byte	.LASF18
 4373 00ec 05       		.byte	0x5
 4374 00ed 24       		.byte	0x24
 4375 00ee 7F000000 		.4byte	0x7f
 4376 00f2 02       		.uleb128 0x2
 4377 00f3 90070000 		.4byte	.LASF19
ARM GAS  C:\Users\robom\AppData\Local\Temp\ccqs2S2W.s 			page 125


 4378 00f7 05       		.byte	0x5
 4379 00f8 2C       		.byte	0x2c
 4380 00f9 91000000 		.4byte	0x91
 4381 00fd 02       		.uleb128 0x2
 4382 00fe ED090000 		.4byte	.LASF20
 4383 0102 05       		.byte	0x5
 4384 0103 30       		.byte	0x30
 4385 0104 A3000000 		.4byte	0xa3
 4386 0108 06       		.uleb128 0x6
 4387 0109 08       		.byte	0x8
 4388 010a 04       		.byte	0x4
 4389 010b 14060000 		.4byte	.LASF21
 4390 010f 06       		.uleb128 0x6
 4391 0110 04       		.byte	0x4
 4392 0111 04       		.byte	0x4
 4393 0112 3E070000 		.4byte	.LASF22
 4394 0116 06       		.uleb128 0x6
 4395 0117 08       		.byte	0x8
 4396 0118 04       		.byte	0x4
 4397 0119 58020000 		.4byte	.LASF23
 4398 011d 06       		.uleb128 0x6
 4399 011e 01       		.byte	0x1
 4400 011f 08       		.byte	0x8
 4401 0120 4B0A0000 		.4byte	.LASF24
 4402 0124 06       		.uleb128 0x6
 4403 0125 04       		.byte	0x4
 4404 0126 07       		.byte	0x7
 4405 0127 DB050000 		.4byte	.LASF25
 4406 012b 08       		.uleb128 0x8
 4407 012c 04       		.byte	0x4
 4408 012d 1D010000 		.4byte	0x11d
 4409 0131 08       		.uleb128 0x8
 4410 0132 04       		.byte	0x4
 4411 0133 37010000 		.4byte	0x137
 4412 0137 09       		.uleb128 0x9
 4413 0138 1D010000 		.4byte	0x11d
 4414 013c 02       		.uleb128 0x2
 4415 013d 090C0000 		.4byte	.LASF26
 4416 0141 06       		.byte	0x6
 4417 0142 53       		.byte	0x53
 4418 0143 C3000000 		.4byte	0xc3
 4419 0147 02       		.uleb128 0x2
 4420 0148 39000000 		.4byte	.LASF27
 4421 014c 06       		.byte	0x6
 4422 014d 54       		.byte	0x54
 4423 014e CA000000 		.4byte	0xca
 4424 0152 08       		.uleb128 0x8
 4425 0153 04       		.byte	0x4
 4426 0154 58010000 		.4byte	0x158
 4427 0158 0A       		.uleb128 0xa
 4428 0159 02       		.uleb128 0x2
 4429 015a BC030000 		.4byte	.LASF28
 4430 015e 07       		.byte	0x7
 4431 015f 4D       		.byte	0x4d
 4432 0160 47010000 		.4byte	0x147
 4433 0164 02       		.uleb128 0x2
 4434 0165 540D0000 		.4byte	.LASF29
ARM GAS  C:\Users\robom\AppData\Local\Temp\ccqs2S2W.s 			page 126


 4435 0169 07       		.byte	0x7
 4436 016a 4F       		.byte	0x4f
 4437 016b 47010000 		.4byte	0x147
 4438 016f 02       		.uleb128 0x2
 4439 0170 55030000 		.4byte	.LASF30
 4440 0174 07       		.byte	0x7
 4441 0175 78       		.byte	0x78
 4442 0176 3C010000 		.4byte	0x13c
 4443 017a 0B       		.uleb128 0xb
 4444 017b FD000000 		.4byte	0xfd
 4445 017f 0C       		.uleb128 0xc
 4446 0180 FD000000 		.4byte	0xfd
 4447 0184 8F010000 		.4byte	0x18f
 4448 0188 0D       		.uleb128 0xd
 4449 0189 24010000 		.4byte	0x124
 4450 018d 0E       		.byte	0xe
 4451 018e 00       		.byte	0
 4452 018f 0C       		.uleb128 0xc
 4453 0190 FD000000 		.4byte	0xfd
 4454 0194 9F010000 		.4byte	0x19f
 4455 0198 0D       		.uleb128 0xd
 4456 0199 24010000 		.4byte	0x124
 4457 019d 07       		.byte	0x7
 4458 019e 00       		.byte	0
 4459 019f 02       		.uleb128 0x2
 4460 01a0 560B0000 		.4byte	.LASF31
 4461 01a4 08       		.byte	0x8
 4462 01a5 4F       		.byte	0x4f
 4463 01a6 31010000 		.4byte	0x131
 4464 01aa 02       		.uleb128 0x2
 4465 01ab F0040000 		.4byte	.LASF32
 4466 01af 08       		.byte	0x8
 4467 01b0 50       		.byte	0x50
 4468 01b1 52010000 		.4byte	0x152
 4469 01b5 0E       		.uleb128 0xe
 4470 01b6 08       		.byte	0x8
 4471 01b7 08       		.byte	0x8
 4472 01b8 9406     		.2byte	0x694
 4473 01ba 27020000 		.4byte	0x227
 4474 01be 0F       		.uleb128 0xf
 4475 01bf 490C0000 		.4byte	.LASF33
 4476 01c3 08       		.byte	0x8
 4477 01c4 9606     		.2byte	0x696
 4478 01c6 71000000 		.4byte	0x71
 4479 01ca 00       		.byte	0
 4480 01cb 0F       		.uleb128 0xf
 4481 01cc A6070000 		.4byte	.LASF34
 4482 01d0 08       		.byte	0x8
 4483 01d1 9706     		.2byte	0x697
 4484 01d3 71000000 		.4byte	0x71
 4485 01d7 01       		.byte	0x1
 4486 01d8 0F       		.uleb128 0xf
 4487 01d9 230D0000 		.4byte	.LASF35
 4488 01dd 08       		.byte	0x8
 4489 01de 9806     		.2byte	0x698
 4490 01e0 71000000 		.4byte	0x71
 4491 01e4 02       		.byte	0x2
ARM GAS  C:\Users\robom\AppData\Local\Temp\ccqs2S2W.s 			page 127


 4492 01e5 0F       		.uleb128 0xf
 4493 01e6 AD070000 		.4byte	.LASF36
 4494 01ea 08       		.byte	0x8
 4495 01eb 9906     		.2byte	0x699
 4496 01ed 71000000 		.4byte	0x71
 4497 01f1 03       		.byte	0x3
 4498 01f2 0F       		.uleb128 0xf
 4499 01f3 B4070000 		.4byte	.LASF37
 4500 01f7 08       		.byte	0x8
 4501 01f8 9A06     		.2byte	0x69a
 4502 01fa 71000000 		.4byte	0x71
 4503 01fe 04       		.byte	0x4
 4504 01ff 0F       		.uleb128 0xf
 4505 0200 BB070000 		.4byte	.LASF38
 4506 0204 08       		.byte	0x8
 4507 0205 9B06     		.2byte	0x69b
 4508 0207 71000000 		.4byte	0x71
 4509 020b 05       		.byte	0x5
 4510 020c 0F       		.uleb128 0xf
 4511 020d 29040000 		.4byte	.LASF39
 4512 0211 08       		.byte	0x8
 4513 0212 9C06     		.2byte	0x69c
 4514 0214 71000000 		.4byte	0x71
 4515 0218 06       		.byte	0x6
 4516 0219 0F       		.uleb128 0xf
 4517 021a 13020000 		.4byte	.LASF40
 4518 021e 08       		.byte	0x8
 4519 021f 9D06     		.2byte	0x69d
 4520 0221 71000000 		.4byte	0x71
 4521 0225 07       		.byte	0x7
 4522 0226 00       		.byte	0
 4523 0227 10       		.uleb128 0x10
 4524 0228 79060000 		.4byte	.LASF41
 4525 022c 08       		.byte	0x8
 4526 022d 9E06     		.2byte	0x69e
 4527 022f B5010000 		.4byte	0x1b5
 4528 0233 11       		.uleb128 0x11
 4529 0234 08       		.byte	0x8
 4530 0235 01       		.byte	0x1
 4531 0236 34       		.byte	0x34
 4532 0237 5F020000 		.4byte	0x25f
 4533 023b 12       		.uleb128 0x12
 4534 023c 20060000 		.4byte	.LASF42
 4535 0240 01       		.byte	0x1
 4536 0241 35       		.byte	0x35
 4537 0242 E7000000 		.4byte	0xe7
 4538 0246 00       		.byte	0
 4539 0247 12       		.uleb128 0x12
 4540 0248 1A0B0000 		.4byte	.LASF43
 4541 024c 01       		.byte	0x1
 4542 024d 36       		.byte	0x36
 4543 024e E7000000 		.4byte	0xe7
 4544 0252 02       		.byte	0x2
 4545 0253 13       		.uleb128 0x13
 4546 0254 545300   		.ascii	"TS\000"
 4547 0257 01       		.byte	0x1
 4548 0258 37       		.byte	0x37
ARM GAS  C:\Users\robom\AppData\Local\Temp\ccqs2S2W.s 			page 128


 4549 0259 FD000000 		.4byte	0xfd
 4550 025d 04       		.byte	0x4
 4551 025e 00       		.byte	0
 4552 025f 02       		.uleb128 0x2
 4553 0260 9E010000 		.4byte	.LASF44
 4554 0264 01       		.byte	0x1
 4555 0265 38       		.byte	0x38
 4556 0266 33020000 		.4byte	0x233
 4557 026a 11       		.uleb128 0x11
 4558 026b 0C       		.byte	0xc
 4559 026c 01       		.byte	0x1
 4560 026d 3A       		.byte	0x3a
 4561 026e 8B020000 		.4byte	0x28b
 4562 0272 12       		.uleb128 0x12
 4563 0273 9C050000 		.4byte	.LASF45
 4564 0277 01       		.byte	0x1
 4565 0278 3B       		.byte	0x3b
 4566 0279 5F020000 		.4byte	0x25f
 4567 027d 00       		.byte	0
 4568 027e 12       		.uleb128 0x12
 4569 027f A6070000 		.4byte	.LASF34
 4570 0283 01       		.byte	0x1
 4571 0284 3C       		.byte	0x3c
 4572 0285 FD000000 		.4byte	0xfd
 4573 0289 08       		.byte	0x8
 4574 028a 00       		.byte	0
 4575 028b 02       		.uleb128 0x2
 4576 028c E00C0000 		.4byte	.LASF46
 4577 0290 01       		.byte	0x1
 4578 0291 3D       		.byte	0x3d
 4579 0292 6A020000 		.4byte	0x26a
 4580 0296 11       		.uleb128 0x11
 4581 0297 10       		.byte	0x10
 4582 0298 01       		.byte	0x1
 4583 0299 3F       		.byte	0x3f
 4584 029a C3020000 		.4byte	0x2c3
 4585 029e 12       		.uleb128 0x12
 4586 029f 9C050000 		.4byte	.LASF45
 4587 02a3 01       		.byte	0x1
 4588 02a4 40       		.byte	0x40
 4589 02a5 5F020000 		.4byte	0x25f
 4590 02a9 00       		.byte	0
 4591 02aa 12       		.uleb128 0x12
 4592 02ab A6070000 		.4byte	.LASF34
 4593 02af 01       		.byte	0x1
 4594 02b0 41       		.byte	0x41
 4595 02b1 FD000000 		.4byte	0xfd
 4596 02b5 08       		.byte	0x8
 4597 02b6 12       		.uleb128 0x12
 4598 02b7 230D0000 		.4byte	.LASF35
 4599 02bb 01       		.byte	0x1
 4600 02bc 42       		.byte	0x42
 4601 02bd FD000000 		.4byte	0xfd
 4602 02c1 0C       		.byte	0xc
 4603 02c2 00       		.byte	0
 4604 02c3 02       		.uleb128 0x2
 4605 02c4 64010000 		.4byte	.LASF47
ARM GAS  C:\Users\robom\AppData\Local\Temp\ccqs2S2W.s 			page 129


 4606 02c8 01       		.byte	0x1
 4607 02c9 43       		.byte	0x43
 4608 02ca 96020000 		.4byte	0x296
 4609 02ce 11       		.uleb128 0x11
 4610 02cf 14       		.byte	0x14
 4611 02d0 01       		.byte	0x1
 4612 02d1 45       		.byte	0x45
 4613 02d2 07030000 		.4byte	0x307
 4614 02d6 12       		.uleb128 0x12
 4615 02d7 9C050000 		.4byte	.LASF45
 4616 02db 01       		.byte	0x1
 4617 02dc 46       		.byte	0x46
 4618 02dd 5F020000 		.4byte	0x25f
 4619 02e1 00       		.byte	0
 4620 02e2 12       		.uleb128 0x12
 4621 02e3 A6070000 		.4byte	.LASF34
 4622 02e7 01       		.byte	0x1
 4623 02e8 47       		.byte	0x47
 4624 02e9 FD000000 		.4byte	0xfd
 4625 02ed 08       		.byte	0x8
 4626 02ee 12       		.uleb128 0x12
 4627 02ef 230D0000 		.4byte	.LASF35
 4628 02f3 01       		.byte	0x1
 4629 02f4 48       		.byte	0x48
 4630 02f5 FD000000 		.4byte	0xfd
 4631 02f9 0C       		.byte	0xc
 4632 02fa 12       		.uleb128 0x12
 4633 02fb AD070000 		.4byte	.LASF36
 4634 02ff 01       		.byte	0x1
 4635 0300 49       		.byte	0x49
 4636 0301 FD000000 		.4byte	0xfd
 4637 0305 10       		.byte	0x10
 4638 0306 00       		.byte	0
 4639 0307 02       		.uleb128 0x2
 4640 0308 75010000 		.4byte	.LASF48
 4641 030c 01       		.byte	0x1
 4642 030d 4A       		.byte	0x4a
 4643 030e CE020000 		.4byte	0x2ce
 4644 0312 11       		.uleb128 0x11
 4645 0313 44       		.byte	0x44
 4646 0314 01       		.byte	0x1
 4647 0315 4D       		.byte	0x4d
 4648 0316 33030000 		.4byte	0x333
 4649 031a 12       		.uleb128 0x12
 4650 031b 9C050000 		.4byte	.LASF45
 4651 031f 01       		.byte	0x1
 4652 0320 4F       		.byte	0x4f
 4653 0321 5F020000 		.4byte	0x25f
 4654 0325 00       		.byte	0
 4655 0326 12       		.uleb128 0x12
 4656 0327 00010000 		.4byte	.LASF49
 4657 032b 01       		.byte	0x1
 4658 032c 50       		.byte	0x50
 4659 032d 7F010000 		.4byte	0x17f
 4660 0331 08       		.byte	0x8
 4661 0332 00       		.byte	0
 4662 0333 02       		.uleb128 0x2
ARM GAS  C:\Users\robom\AppData\Local\Temp\ccqs2S2W.s 			page 130


 4663 0334 05010000 		.4byte	.LASF50
 4664 0338 01       		.byte	0x1
 4665 0339 51       		.byte	0x51
 4666 033a 12030000 		.4byte	0x312
 4667 033e 11       		.uleb128 0x11
 4668 033f 14       		.byte	0x14
 4669 0340 01       		.byte	0x1
 4670 0341 53       		.byte	0x53
 4671 0342 A7030000 		.4byte	0x3a7
 4672 0346 13       		.uleb128 0x13
 4673 0347 70736600 		.ascii	"psf\000"
 4674 034b 01       		.byte	0x1
 4675 034c 54       		.byte	0x54
 4676 034d FD000000 		.4byte	0xfd
 4677 0351 00       		.byte	0
 4678 0352 12       		.uleb128 0x12
 4679 0353 AE050000 		.4byte	.LASF51
 4680 0357 01       		.byte	0x1
 4681 0358 55       		.byte	0x55
 4682 0359 E7000000 		.4byte	0xe7
 4683 035d 04       		.byte	0x4
 4684 035e 12       		.uleb128 0x12
 4685 035f BD060000 		.4byte	.LASF52
 4686 0363 01       		.byte	0x1
 4687 0364 56       		.byte	0x56
 4688 0365 E7000000 		.4byte	0xe7
 4689 0369 06       		.byte	0x6
 4690 036a 12       		.uleb128 0x12
 4691 036b E6020000 		.4byte	.LASF53
 4692 036f 01       		.byte	0x1
 4693 0370 57       		.byte	0x57
 4694 0371 FD000000 		.4byte	0xfd
 4695 0375 08       		.byte	0x8
 4696 0376 12       		.uleb128 0x12
 4697 0377 37030000 		.4byte	.LASF54
 4698 037b 01       		.byte	0x1
 4699 037c 58       		.byte	0x58
 4700 037d E7000000 		.4byte	0xe7
 4701 0381 0C       		.byte	0xc
 4702 0382 12       		.uleb128 0x12
 4703 0383 1F020000 		.4byte	.LASF55
 4704 0387 01       		.byte	0x1
 4705 0388 59       		.byte	0x59
 4706 0389 E7000000 		.4byte	0xe7
 4707 038d 0E       		.byte	0xe
 4708 038e 12       		.uleb128 0x12
 4709 038f 1B000000 		.4byte	.LASF56
 4710 0393 01       		.byte	0x1
 4711 0394 5A       		.byte	0x5a
 4712 0395 E7000000 		.4byte	0xe7
 4713 0399 10       		.byte	0x10
 4714 039a 12       		.uleb128 0x12
 4715 039b 030B0000 		.4byte	.LASF57
 4716 039f 01       		.byte	0x1
 4717 03a0 5B       		.byte	0x5b
 4718 03a1 E7000000 		.4byte	0xe7
 4719 03a5 12       		.byte	0x12
ARM GAS  C:\Users\robom\AppData\Local\Temp\ccqs2S2W.s 			page 131


 4720 03a6 00       		.byte	0
 4721 03a7 02       		.uleb128 0x2
 4722 03a8 F50A0000 		.4byte	.LASF58
 4723 03ac 01       		.byte	0x1
 4724 03ad 5C       		.byte	0x5c
 4725 03ae 3E030000 		.4byte	0x33e
 4726 03b2 14       		.uleb128 0x14
 4727 03b3 0005     		.2byte	0x500
 4728 03b5 01       		.byte	0x1
 4729 03b6 6C       		.byte	0x6c
 4730 03b7 D2030000 		.4byte	0x3d2
 4731 03bb 15       		.uleb128 0x15
 4732 03bc C2070000 		.4byte	.LASF60
 4733 03c0 01       		.byte	0x1
 4734 03c1 6E       		.byte	0x6e
 4735 03c2 D2030000 		.4byte	0x3d2
 4736 03c6 15       		.uleb128 0x15
 4737 03c7 D6000000 		.4byte	.LASF61
 4738 03cb 01       		.byte	0x1
 4739 03cc 6F       		.byte	0x6f
 4740 03cd E3030000 		.4byte	0x3e3
 4741 03d1 00       		.byte	0
 4742 03d2 0C       		.uleb128 0xc
 4743 03d3 FD000000 		.4byte	0xfd
 4744 03d7 E3030000 		.4byte	0x3e3
 4745 03db 16       		.uleb128 0x16
 4746 03dc 24010000 		.4byte	0x124
 4747 03e0 3F01     		.2byte	0x13f
 4748 03e2 00       		.byte	0
 4749 03e3 0C       		.uleb128 0xc
 4750 03e4 DC000000 		.4byte	0xdc
 4751 03e8 F4030000 		.4byte	0x3f4
 4752 03ec 16       		.uleb128 0x16
 4753 03ed 24010000 		.4byte	0x124
 4754 03f1 FF04     		.2byte	0x4ff
 4755 03f3 00       		.byte	0
 4756 03f4 17       		.uleb128 0x17
 4757 03f5 0005     		.2byte	0x500
 4758 03f7 01       		.byte	0x1
 4759 03f8 6B       		.byte	0x6b
 4760 03f9 0A040000 		.4byte	0x40a
 4761 03fd 12       		.uleb128 0x12
 4762 03fe 2A0D0000 		.4byte	.LASF62
 4763 0402 01       		.byte	0x1
 4764 0403 70       		.byte	0x70
 4765 0404 B2030000 		.4byte	0x3b2
 4766 0408 00       		.byte	0
 4767 0409 00       		.byte	0
 4768 040a 02       		.uleb128 0x2
 4769 040b 35020000 		.4byte	.LASF63
 4770 040f 01       		.byte	0x1
 4771 0410 71       		.byte	0x71
 4772 0411 F4030000 		.4byte	0x3f4
 4773 0415 14       		.uleb128 0x14
 4774 0416 4001     		.2byte	0x140
 4775 0418 01       		.byte	0x1
 4776 0419 75       		.byte	0x75
ARM GAS  C:\Users\robom\AppData\Local\Temp\ccqs2S2W.s 			page 132


 4777 041a 35040000 		.4byte	0x435
 4778 041e 15       		.uleb128 0x15
 4779 041f 2A010000 		.4byte	.LASF64
 4780 0423 01       		.byte	0x1
 4781 0424 77       		.byte	0x77
 4782 0425 35040000 		.4byte	0x435
 4783 0429 15       		.uleb128 0x15
 4784 042a 8B000000 		.4byte	.LASF65
 4785 042e 01       		.byte	0x1
 4786 042f 78       		.byte	0x78
 4787 0430 45040000 		.4byte	0x445
 4788 0434 00       		.byte	0
 4789 0435 0C       		.uleb128 0xc
 4790 0436 FD000000 		.4byte	0xfd
 4791 043a 45040000 		.4byte	0x445
 4792 043e 0D       		.uleb128 0xd
 4793 043f 24010000 		.4byte	0x124
 4794 0443 4F       		.byte	0x4f
 4795 0444 00       		.byte	0
 4796 0445 0C       		.uleb128 0xc
 4797 0446 DC000000 		.4byte	0xdc
 4798 044a 56040000 		.4byte	0x456
 4799 044e 16       		.uleb128 0x16
 4800 044f 24010000 		.4byte	0x124
 4801 0453 3F01     		.2byte	0x13f
 4802 0455 00       		.byte	0
 4803 0456 17       		.uleb128 0x17
 4804 0457 4001     		.2byte	0x140
 4805 0459 01       		.byte	0x1
 4806 045a 74       		.byte	0x74
 4807 045b 6C040000 		.4byte	0x46c
 4808 045f 12       		.uleb128 0x12
 4809 0460 5C030000 		.4byte	.LASF66
 4810 0464 01       		.byte	0x1
 4811 0465 79       		.byte	0x79
 4812 0466 15040000 		.4byte	0x415
 4813 046a 00       		.byte	0
 4814 046b 00       		.byte	0
 4815 046c 02       		.uleb128 0x2
 4816 046d AC030000 		.4byte	.LASF67
 4817 0471 01       		.byte	0x1
 4818 0472 7A       		.byte	0x7a
 4819 0473 56040000 		.4byte	0x456
 4820 0477 11       		.uleb128 0x11
 4821 0478 08       		.byte	0x8
 4822 0479 01       		.byte	0x1
 4823 047a 7C       		.byte	0x7c
 4824 047b A4040000 		.4byte	0x4a4
 4825 047f 12       		.uleb128 0x12
 4826 0480 F10C0000 		.4byte	.LASF68
 4827 0484 01       		.byte	0x1
 4828 0485 7D       		.byte	0x7d
 4829 0486 E7000000 		.4byte	0xe7
 4830 048a 00       		.byte	0
 4831 048b 12       		.uleb128 0x12
 4832 048c 7C000000 		.4byte	.LASF69
 4833 0490 01       		.byte	0x1
ARM GAS  C:\Users\robom\AppData\Local\Temp\ccqs2S2W.s 			page 133


 4834 0491 7E       		.byte	0x7e
 4835 0492 E7000000 		.4byte	0xe7
 4836 0496 02       		.byte	0x2
 4837 0497 12       		.uleb128 0x12
 4838 0498 C6060000 		.4byte	.LASF70
 4839 049c 01       		.byte	0x1
 4840 049d 7F       		.byte	0x7f
 4841 049e 2B010000 		.4byte	0x12b
 4842 04a2 04       		.byte	0x4
 4843 04a3 00       		.byte	0
 4844 04a4 02       		.uleb128 0x2
 4845 04a5 7F0B0000 		.4byte	.LASF71
 4846 04a9 01       		.byte	0x1
 4847 04aa 80       		.byte	0x80
 4848 04ab 77040000 		.4byte	0x477
 4849 04af 18       		.uleb128 0x18
 4850 04b0 FE060000 		.4byte	.LASF203
 4851 04b4 02       		.byte	0x2
 4852 04b5 4C01     		.2byte	0x14c
 4853 04b7 03       		.byte	0x3
 4854 04b8 C9040000 		.4byte	0x4c9
 4855 04bc 19       		.uleb128 0x19
 4856 04bd D3050000 		.4byte	.LASF204
 4857 04c1 02       		.byte	0x2
 4858 04c2 4C01     		.2byte	0x14c
 4859 04c4 FD000000 		.4byte	0xfd
 4860 04c8 00       		.byte	0
 4861 04c9 1A       		.uleb128 0x1a
 4862 04ca 29030000 		.4byte	.LASF205
 4863 04ce 02       		.byte	0x2
 4864 04cf 2E01     		.2byte	0x12e
 4865 04d1 FD000000 		.4byte	0xfd
 4866 04d5 03       		.byte	0x3
 4867 04d6 E7040000 		.4byte	0x4e7
 4868 04da 1B       		.uleb128 0x1b
 4869 04db 3C0D0000 		.4byte	.LASF76
 4870 04df 02       		.byte	0x2
 4871 04e0 3001     		.2byte	0x130
 4872 04e2 FD000000 		.4byte	0xfd
 4873 04e6 00       		.byte	0
 4874 04e7 1C       		.uleb128 0x1c
 4875 04e8 EE000000 		.4byte	.LASF206
 4876 04ec 01       		.byte	0x1
 4877 04ed 4F06     		.2byte	0x64f
 4878 04ef FD000000 		.4byte	0xfd
 4879 04f3 00000000 		.4byte	.LFB148
 4880 04f7 0C000000 		.4byte	.LFE148-.LFB148
 4881 04fb 01       		.uleb128 0x1
 4882 04fc 9C       		.byte	0x9c
 4883 04fd 1D       		.uleb128 0x1d
 4884 04fe 01030000 		.4byte	.LASF78
 4885 0502 01       		.byte	0x1
 4886 0503 7E06     		.2byte	0x67e
 4887 0505 C3000000 		.4byte	0xc3
 4888 0509 00000000 		.4byte	.LFB150
 4889 050d 44000000 		.4byte	.LFE150-.LFB150
 4890 0511 01       		.uleb128 0x1
ARM GAS  C:\Users\robom\AppData\Local\Temp\ccqs2S2W.s 			page 134


 4891 0512 9C       		.byte	0x9c
 4892 0513 48050000 		.4byte	0x548
 4893 0517 1E       		.uleb128 0x1e
 4894 0518 80050000 		.4byte	.LASF74
 4895 051c 01       		.byte	0x1
 4896 051d 7E06     		.2byte	0x67e
 4897 051f C3000000 		.4byte	0xc3
 4898 0523 00000000 		.4byte	.LLST0
 4899 0527 1F       		.uleb128 0x1f
 4900 0528 A60A0000 		.4byte	.LASF72
 4901 052c 01       		.byte	0x1
 4902 052d 8006     		.2byte	0x680
 4903 052f C3000000 		.4byte	0xc3
 4904 0533 2E000000 		.4byte	.LLST1
 4905 0537 1F       		.uleb128 0x1f
 4906 0538 00000000 		.4byte	.LASF73
 4907 053c 01       		.byte	0x1
 4908 053d 8106     		.2byte	0x681
 4909 053f C3000000 		.4byte	0xc3
 4910 0543 59000000 		.4byte	.LLST2
 4911 0547 00       		.byte	0
 4912 0548 20       		.uleb128 0x20
 4913 0549 15050000 		.4byte	.LASF105
 4914 054d 01       		.byte	0x1
 4915 054e 9306     		.2byte	0x693
 4916 0550 00000000 		.4byte	.LFB151
 4917 0554 48000000 		.4byte	.LFE151-.LFB151
 4918 0558 01       		.uleb128 0x1
 4919 0559 9C       		.byte	0x9c
 4920 055a D1050000 		.4byte	0x5d1
 4921 055e 21       		.uleb128 0x21
 4922 055f 9D0C0000 		.4byte	.LASF75
 4923 0563 01       		.byte	0x1
 4924 0564 9306     		.2byte	0x693
 4925 0566 C3000000 		.4byte	0xc3
 4926 056a 01       		.uleb128 0x1
 4927 056b 50       		.byte	0x50
 4928 056c 1B       		.uleb128 0x1b
 4929 056d A1050000 		.4byte	.LASF77
 4930 0571 01       		.byte	0x1
 4931 0572 9506     		.2byte	0x695
 4932 0574 FD000000 		.4byte	0xfd
 4933 0578 22       		.uleb128 0x22
 4934 0579 C9040000 		.4byte	0x4c9
 4935 057d 02000000 		.4byte	.LBB137
 4936 0581 04000000 		.4byte	.LBE137-.LBB137
 4937 0585 01       		.byte	0x1
 4938 0586 9706     		.2byte	0x697
 4939 0588 9C050000 		.4byte	0x59c
 4940 058c 23       		.uleb128 0x23
 4941 058d 02000000 		.4byte	.LBB138
 4942 0591 04000000 		.4byte	.LBE138-.LBB138
 4943 0595 24       		.uleb128 0x24
 4944 0596 DA040000 		.4byte	0x4da
 4945 059a 00       		.byte	0
 4946 059b 00       		.byte	0
 4947 059c 22       		.uleb128 0x22
ARM GAS  C:\Users\robom\AppData\Local\Temp\ccqs2S2W.s 			page 135


 4948 059d AF040000 		.4byte	0x4af
 4949 05a1 06000000 		.4byte	.LBB139
 4950 05a5 06000000 		.4byte	.LBE139-.LBB139
 4951 05a9 01       		.byte	0x1
 4952 05aa 9706     		.2byte	0x697
 4953 05ac BA050000 		.4byte	0x5ba
 4954 05b0 25       		.uleb128 0x25
 4955 05b1 BC040000 		.4byte	0x4bc
 4956 05b5 8E000000 		.4byte	.LLST3
 4957 05b9 00       		.byte	0
 4958 05ba 26       		.uleb128 0x26
 4959 05bb AF040000 		.4byte	0x4af
 4960 05bf 32000000 		.4byte	.LBB141
 4961 05c3 04000000 		.4byte	.LBE141-.LBB141
 4962 05c7 01       		.byte	0x1
 4963 05c8 9E06     		.2byte	0x69e
 4964 05ca 27       		.uleb128 0x27
 4965 05cb BC040000 		.4byte	0x4bc
 4966 05cf 00       		.byte	0
 4967 05d0 00       		.byte	0
 4968 05d1 1D       		.uleb128 0x1d
 4969 05d2 17090000 		.4byte	.LASF79
 4970 05d6 01       		.byte	0x1
 4971 05d7 A206     		.2byte	0x6a2
 4972 05d9 C3000000 		.4byte	0xc3
 4973 05dd 00000000 		.4byte	.LFB152
 4974 05e1 78000000 		.4byte	.LFE152-.LFB152
 4975 05e5 01       		.uleb128 0x1
 4976 05e6 9C       		.byte	0x9c
 4977 05e7 2E060000 		.4byte	0x62e
 4978 05eb 1E       		.uleb128 0x1e
 4979 05ec E00B0000 		.4byte	.LASF80
 4980 05f0 01       		.byte	0x1
 4981 05f1 A206     		.2byte	0x6a2
 4982 05f3 2E060000 		.4byte	0x62e
 4983 05f7 A2000000 		.4byte	.LLST4
 4984 05fb 28       		.uleb128 0x28
 4985 05fc EE020000 		.4byte	.LASF81
 4986 0600 01       		.byte	0x1
 4987 0601 A406     		.2byte	0x6a4
 4988 0603 D1000000 		.4byte	0xd1
 4989 0607 05       		.uleb128 0x5
 4990 0608 03       		.byte	0x3
 4991 0609 04000000 		.4byte	lastPage.7783
 4992 060d 1F       		.uleb128 0x1f
 4993 060e 00000000 		.4byte	.LASF73
 4994 0612 01       		.byte	0x1
 4995 0613 A506     		.2byte	0x6a5
 4996 0615 C3000000 		.4byte	0xc3
 4997 0619 C3000000 		.4byte	.LLST5
 4998 061d 1F       		.uleb128 0x1f
 4999 061e A60A0000 		.4byte	.LASF72
 5000 0622 01       		.byte	0x1
 5001 0623 A606     		.2byte	0x6a6
 5002 0625 D1000000 		.4byte	0xd1
 5003 0629 F8000000 		.4byte	.LLST6
 5004 062d 00       		.byte	0
ARM GAS  C:\Users\robom\AppData\Local\Temp\ccqs2S2W.s 			page 136


 5005 062e 08       		.uleb128 0x8
 5006 062f 04       		.byte	0x4
 5007 0630 F2000000 		.4byte	0xf2
 5008 0634 29       		.uleb128 0x29
 5009 0635 8C030000 		.4byte	.LASF85
 5010 0639 01       		.byte	0x1
 5011 063a 5F01     		.2byte	0x15f
 5012 063c 00000000 		.4byte	.LFB113
 5013 0640 0C000000 		.4byte	.LFE113-.LFB113
 5014 0644 01       		.uleb128 0x1
 5015 0645 9C       		.byte	0x9c
 5016 0646 59060000 		.4byte	0x659
 5017 064a 21       		.uleb128 0x21
 5018 064b B7040000 		.4byte	.LASF82
 5019 064f 01       		.byte	0x1
 5020 0650 5F01     		.2byte	0x15f
 5021 0652 FD000000 		.4byte	0xfd
 5022 0656 01       		.uleb128 0x1
 5023 0657 50       		.byte	0x50
 5024 0658 00       		.byte	0
 5025 0659 2A       		.uleb128 0x2a
 5026 065a 89050000 		.4byte	.LASF83
 5027 065e 01       		.byte	0x1
 5028 065f 7402     		.2byte	0x274
 5029 0661 31010000 		.4byte	0x131
 5030 0665 00000000 		.4byte	.LFB120
 5031 0669 D8000000 		.4byte	.LFE120-.LFB120
 5032 066d 01       		.uleb128 0x1
 5033 066e 9C       		.byte	0x9c
 5034 066f 2B       		.uleb128 0x2b
 5035 0670 DF010000 		.4byte	.LASF207
 5036 0674 01       		.byte	0x1
 5037 0675 DD02     		.2byte	0x2dd
 5038 0677 00000000 		.4byte	.LFB121
 5039 067b 14000000 		.4byte	.LFE121-.LFB121
 5040 067f 01       		.uleb128 0x1
 5041 0680 9C       		.byte	0x9c
 5042 0681 2A       		.uleb128 0x2a
 5043 0682 7B020000 		.4byte	.LASF84
 5044 0686 01       		.byte	0x1
 5045 0687 0503     		.2byte	0x305
 5046 0689 C3000000 		.4byte	0xc3
 5047 068d 00000000 		.4byte	.LFB123
 5048 0691 0C000000 		.4byte	.LFE123-.LFB123
 5049 0695 01       		.uleb128 0x1
 5050 0696 9C       		.byte	0x9c
 5051 0697 29       		.uleb128 0x29
 5052 0698 880B0000 		.4byte	.LASF86
 5053 069c 01       		.byte	0x1
 5054 069d 0A03     		.2byte	0x30a
 5055 069f 00000000 		.4byte	.LFB124
 5056 06a3 0C000000 		.4byte	.LFE124-.LFB124
 5057 06a7 01       		.uleb128 0x1
 5058 06a8 9C       		.byte	0x9c
 5059 06a9 BC060000 		.4byte	0x6bc
 5060 06ad 21       		.uleb128 0x21
 5061 06ae 6C0C0000 		.4byte	.LASF87
ARM GAS  C:\Users\robom\AppData\Local\Temp\ccqs2S2W.s 			page 137


 5062 06b2 01       		.byte	0x1
 5063 06b3 0A03     		.2byte	0x30a
 5064 06b5 E7000000 		.4byte	0xe7
 5065 06b9 01       		.uleb128 0x1
 5066 06ba 50       		.byte	0x50
 5067 06bb 00       		.byte	0
 5068 06bc 29       		.uleb128 0x29
 5069 06bd 06000000 		.4byte	.LASF88
 5070 06c1 01       		.byte	0x1
 5071 06c2 0F03     		.2byte	0x30f
 5072 06c4 00000000 		.4byte	.LFB125
 5073 06c8 0C000000 		.4byte	.LFE125-.LFB125
 5074 06cc 01       		.uleb128 0x1
 5075 06cd 9C       		.byte	0x9c
 5076 06ce E1060000 		.4byte	0x6e1
 5077 06d2 21       		.uleb128 0x21
 5078 06d3 E90A0000 		.4byte	.LASF89
 5079 06d7 01       		.byte	0x1
 5080 06d8 0F03     		.2byte	0x30f
 5081 06da E7000000 		.4byte	0xe7
 5082 06de 01       		.uleb128 0x1
 5083 06df 50       		.byte	0x50
 5084 06e0 00       		.byte	0
 5085 06e1 29       		.uleb128 0x29
 5086 06e2 36080000 		.4byte	.LASF90
 5087 06e6 01       		.byte	0x1
 5088 06e7 1405     		.2byte	0x514
 5089 06e9 00000000 		.4byte	.LFB139
 5090 06ed 8C000000 		.4byte	.LFE139-.LFB139
 5091 06f1 01       		.uleb128 0x1
 5092 06f2 9C       		.byte	0x9c
 5093 06f3 C0070000 		.4byte	0x7c0
 5094 06f7 1E       		.uleb128 0x1e
 5095 06f8 28060000 		.4byte	.LASF91
 5096 06fc 01       		.byte	0x1
 5097 06fd 1405     		.2byte	0x514
 5098 06ff 52010000 		.4byte	0x152
 5099 0703 16010000 		.4byte	.LLST7
 5100 0707 1E       		.uleb128 0x1e
 5101 0708 24040000 		.4byte	.LASF92
 5102 070c 01       		.byte	0x1
 5103 070d 1405     		.2byte	0x514
 5104 070f 31010000 		.4byte	0x131
 5105 0713 50010000 		.4byte	.LLST8
 5106 0717 2C       		.uleb128 0x2c
 5107 0718 6900     		.ascii	"i\000"
 5108 071a 01       		.byte	0x1
 5109 071b 1605     		.2byte	0x516
 5110 071d FD000000 		.4byte	0xfd
 5111 0721 8A010000 		.4byte	.LLST9
 5112 0725 1F       		.uleb128 0x1f
 5113 0726 86010000 		.4byte	.LASF93
 5114 072a 01       		.byte	0x1
 5115 072b 1705     		.2byte	0x517
 5116 072d FD000000 		.4byte	0xfd
 5117 0731 C0010000 		.4byte	.LLST10
 5118 0735 1F       		.uleb128 0x1f
ARM GAS  C:\Users\robom\AppData\Local\Temp\ccqs2S2W.s 			page 138


 5119 0736 33070000 		.4byte	.LASF94
 5120 073a 01       		.byte	0x1
 5121 073b 1805     		.2byte	0x518
 5122 073d C0070000 		.4byte	0x7c0
 5123 0741 DE010000 		.4byte	.LLST11
 5124 0745 1F       		.uleb128 0x1f
 5125 0746 4A0D0000 		.4byte	.LASF95
 5126 074a 01       		.byte	0x1
 5127 074b 1905     		.2byte	0x519
 5128 074d C6070000 		.4byte	0x7c6
 5129 0751 FD010000 		.4byte	.LLST12
 5130 0755 28       		.uleb128 0x28
 5131 0756 A1050000 		.4byte	.LASF77
 5132 075a 01       		.byte	0x1
 5133 075b 1A05     		.2byte	0x51a
 5134 075d FD000000 		.4byte	0xfd
 5135 0761 01       		.uleb128 0x1
 5136 0762 56       		.byte	0x56
 5137 0763 22       		.uleb128 0x22
 5138 0764 C9040000 		.4byte	0x4c9
 5139 0768 02000000 		.4byte	.LBB143
 5140 076c 04000000 		.4byte	.LBE143-.LBB143
 5141 0770 01       		.byte	0x1
 5142 0771 1C05     		.2byte	0x51c
 5143 0773 87070000 		.4byte	0x787
 5144 0777 23       		.uleb128 0x23
 5145 0778 02000000 		.4byte	.LBB144
 5146 077c 04000000 		.4byte	.LBE144-.LBB144
 5147 0780 24       		.uleb128 0x24
 5148 0781 DA040000 		.4byte	0x4da
 5149 0785 00       		.byte	0
 5150 0786 00       		.byte	0
 5151 0787 22       		.uleb128 0x22
 5152 0788 AF040000 		.4byte	0x4af
 5153 078c 06000000 		.4byte	.LBB145
 5154 0790 06000000 		.4byte	.LBE145-.LBB145
 5155 0794 01       		.byte	0x1
 5156 0795 1C05     		.2byte	0x51c
 5157 0797 A5070000 		.4byte	0x7a5
 5158 079b 25       		.uleb128 0x25
 5159 079c BC040000 		.4byte	0x4bc
 5160 07a0 10020000 		.4byte	.LLST13
 5161 07a4 00       		.byte	0
 5162 07a5 26       		.uleb128 0x26
 5163 07a6 AF040000 		.4byte	0x4af
 5164 07aa 7E000000 		.4byte	.LBB147
 5165 07ae 04000000 		.4byte	.LBE147-.LBB147
 5166 07b2 01       		.byte	0x1
 5167 07b3 5205     		.2byte	0x552
 5168 07b5 25       		.uleb128 0x25
 5169 07b6 BC040000 		.4byte	0x4bc
 5170 07ba 24020000 		.4byte	.LLST14
 5171 07be 00       		.byte	0
 5172 07bf 00       		.byte	0
 5173 07c0 08       		.uleb128 0x8
 5174 07c1 04       		.byte	0x4
 5175 07c2 FD000000 		.4byte	0xfd
ARM GAS  C:\Users\robom\AppData\Local\Temp\ccqs2S2W.s 			page 139


 5176 07c6 08       		.uleb128 0x8
 5177 07c7 04       		.byte	0x4
 5178 07c8 DC000000 		.4byte	0xdc
 5179 07cc 29       		.uleb128 0x29
 5180 07cd A2040000 		.4byte	.LASF96
 5181 07d1 01       		.byte	0x1
 5182 07d2 5605     		.2byte	0x556
 5183 07d4 00000000 		.4byte	.LFB140
 5184 07d8 80000000 		.4byte	.LFE140-.LFB140
 5185 07dc 01       		.uleb128 0x1
 5186 07dd 9C       		.byte	0x9c
 5187 07de 97080000 		.4byte	0x897
 5188 07e2 21       		.uleb128 0x21
 5189 07e3 28060000 		.4byte	.LASF91
 5190 07e7 01       		.byte	0x1
 5191 07e8 5605     		.2byte	0x556
 5192 07ea 47000000 		.4byte	0x47
 5193 07ee 01       		.uleb128 0x1
 5194 07ef 50       		.byte	0x50
 5195 07f0 2C       		.uleb128 0x2c
 5196 07f1 6900     		.ascii	"i\000"
 5197 07f3 01       		.byte	0x1
 5198 07f4 5805     		.2byte	0x558
 5199 07f6 FD000000 		.4byte	0xfd
 5200 07fa 37020000 		.4byte	.LLST15
 5201 07fe 2C       		.uleb128 0x2c
 5202 07ff 6A00     		.ascii	"j\000"
 5203 0801 01       		.byte	0x1
 5204 0802 5805     		.2byte	0x558
 5205 0804 FD000000 		.4byte	0xfd
 5206 0808 6C020000 		.4byte	.LLST16
 5207 080c 2C       		.uleb128 0x2c
 5208 080d 70747200 		.ascii	"ptr\000"
 5209 0811 01       		.byte	0x1
 5210 0812 5905     		.2byte	0x559
 5211 0814 C0070000 		.4byte	0x7c0
 5212 0818 8B020000 		.4byte	.LLST17
 5213 081c 1F       		.uleb128 0x1f
 5214 081d 720B0000 		.4byte	.LASF97
 5215 0821 01       		.byte	0x1
 5216 0822 5905     		.2byte	0x559
 5217 0824 C0070000 		.4byte	0x7c0
 5218 0828 9E020000 		.4byte	.LLST18
 5219 082c 28       		.uleb128 0x28
 5220 082d A1050000 		.4byte	.LASF77
 5221 0831 01       		.byte	0x1
 5222 0832 5A05     		.2byte	0x55a
 5223 0834 FD000000 		.4byte	0xfd
 5224 0838 01       		.uleb128 0x1
 5225 0839 57       		.byte	0x57
 5226 083a 22       		.uleb128 0x22
 5227 083b C9040000 		.4byte	0x4c9
 5228 083f 02000000 		.4byte	.LBB149
 5229 0843 04000000 		.4byte	.LBE149-.LBB149
 5230 0847 01       		.byte	0x1
 5231 0848 5C05     		.2byte	0x55c
 5232 084a 5E080000 		.4byte	0x85e
ARM GAS  C:\Users\robom\AppData\Local\Temp\ccqs2S2W.s 			page 140


 5233 084e 23       		.uleb128 0x23
 5234 084f 02000000 		.4byte	.LBB150
 5235 0853 04000000 		.4byte	.LBE150-.LBB150
 5236 0857 24       		.uleb128 0x24
 5237 0858 DA040000 		.4byte	0x4da
 5238 085c 00       		.byte	0
 5239 085d 00       		.byte	0
 5240 085e 22       		.uleb128 0x22
 5241 085f AF040000 		.4byte	0x4af
 5242 0863 06000000 		.4byte	.LBB151
 5243 0867 06000000 		.4byte	.LBE151-.LBB151
 5244 086b 01       		.byte	0x1
 5245 086c 5C05     		.2byte	0x55c
 5246 086e 7C080000 		.4byte	0x87c
 5247 0872 25       		.uleb128 0x25
 5248 0873 BC040000 		.4byte	0x4bc
 5249 0877 B1020000 		.4byte	.LLST19
 5250 087b 00       		.byte	0
 5251 087c 26       		.uleb128 0x26
 5252 087d AF040000 		.4byte	0x4af
 5253 0881 72000000 		.4byte	.LBB153
 5254 0885 04000000 		.4byte	.LBE153-.LBB153
 5255 0889 01       		.byte	0x1
 5256 088a 7E05     		.2byte	0x57e
 5257 088c 25       		.uleb128 0x25
 5258 088d BC040000 		.4byte	0x4bc
 5259 0891 C5020000 		.4byte	.LLST20
 5260 0895 00       		.byte	0
 5261 0896 00       		.byte	0
 5262 0897 29       		.uleb128 0x29
 5263 0898 94020000 		.4byte	.LASF98
 5264 089c 01       		.byte	0x1
 5265 089d 8205     		.2byte	0x582
 5266 089f 00000000 		.4byte	.LFB141
 5267 08a3 6C000000 		.4byte	.LFE141-.LFB141
 5268 08a7 01       		.uleb128 0x1
 5269 08a8 9C       		.byte	0x9c
 5270 08a9 62090000 		.4byte	0x962
 5271 08ad 21       		.uleb128 0x21
 5272 08ae 28060000 		.4byte	.LASF91
 5273 08b2 01       		.byte	0x1
 5274 08b3 8205     		.2byte	0x582
 5275 08b5 52010000 		.4byte	0x152
 5276 08b9 01       		.uleb128 0x1
 5277 08ba 50       		.byte	0x50
 5278 08bb 21       		.uleb128 0x21
 5279 08bc 00010000 		.4byte	.LASF49
 5280 08c0 01       		.byte	0x1
 5281 08c1 8205     		.2byte	0x582
 5282 08c3 FD000000 		.4byte	0xfd
 5283 08c7 01       		.uleb128 0x1
 5284 08c8 51       		.byte	0x51
 5285 08c9 2C       		.uleb128 0x2c
 5286 08ca 6900     		.ascii	"i\000"
 5287 08cc 01       		.byte	0x1
 5288 08cd 8405     		.2byte	0x584
 5289 08cf FD000000 		.4byte	0xfd
ARM GAS  C:\Users\robom\AppData\Local\Temp\ccqs2S2W.s 			page 141


 5290 08d3 D8020000 		.4byte	.LLST21
 5291 08d7 1F       		.uleb128 0x1f
 5292 08d8 86010000 		.4byte	.LASF93
 5293 08dc 01       		.byte	0x1
 5294 08dd 8505     		.2byte	0x585
 5295 08df FD000000 		.4byte	0xfd
 5296 08e3 F7020000 		.4byte	.LLST22
 5297 08e7 2C       		.uleb128 0x2c
 5298 08e8 70747200 		.ascii	"ptr\000"
 5299 08ec 01       		.byte	0x1
 5300 08ed 8605     		.2byte	0x586
 5301 08ef C0070000 		.4byte	0x7c0
 5302 08f3 20030000 		.4byte	.LLST23
 5303 08f7 28       		.uleb128 0x28
 5304 08f8 A1050000 		.4byte	.LASF77
 5305 08fc 01       		.byte	0x1
 5306 08fd 8705     		.2byte	0x587
 5307 08ff FD000000 		.4byte	0xfd
 5308 0903 01       		.uleb128 0x1
 5309 0904 56       		.byte	0x56
 5310 0905 22       		.uleb128 0x22
 5311 0906 C9040000 		.4byte	0x4c9
 5312 090a 02000000 		.4byte	.LBB155
 5313 090e 04000000 		.4byte	.LBE155-.LBB155
 5314 0912 01       		.byte	0x1
 5315 0913 8905     		.2byte	0x589
 5316 0915 29090000 		.4byte	0x929
 5317 0919 23       		.uleb128 0x23
 5318 091a 02000000 		.4byte	.LBB156
 5319 091e 04000000 		.4byte	.LBE156-.LBB156
 5320 0922 24       		.uleb128 0x24
 5321 0923 DA040000 		.4byte	0x4da
 5322 0927 00       		.byte	0
 5323 0928 00       		.byte	0
 5324 0929 22       		.uleb128 0x22
 5325 092a AF040000 		.4byte	0x4af
 5326 092e 06000000 		.4byte	.LBB157
 5327 0932 06000000 		.4byte	.LBE157-.LBB157
 5328 0936 01       		.byte	0x1
 5329 0937 8905     		.2byte	0x589
 5330 0939 47090000 		.4byte	0x947
 5331 093d 25       		.uleb128 0x25
 5332 093e BC040000 		.4byte	0x4bc
 5333 0942 3F030000 		.4byte	.LLST24
 5334 0946 00       		.byte	0
 5335 0947 26       		.uleb128 0x26
 5336 0948 AF040000 		.4byte	0x4af
 5337 094c 60000000 		.4byte	.LBB159
 5338 0950 04000000 		.4byte	.LBE159-.LBB159
 5339 0954 01       		.byte	0x1
 5340 0955 AA05     		.2byte	0x5aa
 5341 0957 25       		.uleb128 0x25
 5342 0958 BC040000 		.4byte	0x4bc
 5343 095c 53030000 		.4byte	.LLST25
 5344 0960 00       		.byte	0
 5345 0961 00       		.byte	0
 5346 0962 29       		.uleb128 0x29
ARM GAS  C:\Users\robom\AppData\Local\Temp\ccqs2S2W.s 			page 142


 5347 0963 320A0000 		.4byte	.LASF99
 5348 0967 01       		.byte	0x1
 5349 0968 AE05     		.2byte	0x5ae
 5350 096a 00000000 		.4byte	.LFB142
 5351 096e 8C000000 		.4byte	.LFE142-.LFB142
 5352 0972 01       		.uleb128 0x1
 5353 0973 9C       		.byte	0x9c
 5354 0974 2D0A0000 		.4byte	0xa2d
 5355 0978 21       		.uleb128 0x21
 5356 0979 28060000 		.4byte	.LASF91
 5357 097d 01       		.byte	0x1
 5358 097e AE05     		.2byte	0x5ae
 5359 0980 47000000 		.4byte	0x47
 5360 0984 01       		.uleb128 0x1
 5361 0985 50       		.byte	0x50
 5362 0986 2C       		.uleb128 0x2c
 5363 0987 6900     		.ascii	"i\000"
 5364 0989 01       		.byte	0x1
 5365 098a B005     		.2byte	0x5b0
 5366 098c FD000000 		.4byte	0xfd
 5367 0990 66030000 		.4byte	.LLST26
 5368 0994 2C       		.uleb128 0x2c
 5369 0995 6A00     		.ascii	"j\000"
 5370 0997 01       		.byte	0x1
 5371 0998 B005     		.2byte	0x5b0
 5372 099a FD000000 		.4byte	0xfd
 5373 099e 9B030000 		.4byte	.LLST27
 5374 09a2 2C       		.uleb128 0x2c
 5375 09a3 70747200 		.ascii	"ptr\000"
 5376 09a7 01       		.byte	0x1
 5377 09a8 B105     		.2byte	0x5b1
 5378 09aa C0070000 		.4byte	0x7c0
 5379 09ae BA030000 		.4byte	.LLST28
 5380 09b2 1F       		.uleb128 0x1f
 5381 09b3 720B0000 		.4byte	.LASF97
 5382 09b7 01       		.byte	0x1
 5383 09b8 B105     		.2byte	0x5b1
 5384 09ba C0070000 		.4byte	0x7c0
 5385 09be CD030000 		.4byte	.LLST29
 5386 09c2 28       		.uleb128 0x28
 5387 09c3 A1050000 		.4byte	.LASF77
 5388 09c7 01       		.byte	0x1
 5389 09c8 B205     		.2byte	0x5b2
 5390 09ca FD000000 		.4byte	0xfd
 5391 09ce 01       		.uleb128 0x1
 5392 09cf 57       		.byte	0x57
 5393 09d0 22       		.uleb128 0x22
 5394 09d1 C9040000 		.4byte	0x4c9
 5395 09d5 02000000 		.4byte	.LBB161
 5396 09d9 04000000 		.4byte	.LBE161-.LBB161
 5397 09dd 01       		.byte	0x1
 5398 09de B405     		.2byte	0x5b4
 5399 09e0 F4090000 		.4byte	0x9f4
 5400 09e4 23       		.uleb128 0x23
 5401 09e5 02000000 		.4byte	.LBB162
 5402 09e9 04000000 		.4byte	.LBE162-.LBB162
 5403 09ed 24       		.uleb128 0x24
ARM GAS  C:\Users\robom\AppData\Local\Temp\ccqs2S2W.s 			page 143


 5404 09ee DA040000 		.4byte	0x4da
 5405 09f2 00       		.byte	0
 5406 09f3 00       		.byte	0
 5407 09f4 22       		.uleb128 0x22
 5408 09f5 AF040000 		.4byte	0x4af
 5409 09f9 06000000 		.4byte	.LBB163
 5410 09fd 06000000 		.4byte	.LBE163-.LBB163
 5411 0a01 01       		.byte	0x1
 5412 0a02 B405     		.2byte	0x5b4
 5413 0a04 120A0000 		.4byte	0xa12
 5414 0a08 25       		.uleb128 0x25
 5415 0a09 BC040000 		.4byte	0x4bc
 5416 0a0d E0030000 		.4byte	.LLST30
 5417 0a11 00       		.byte	0
 5418 0a12 26       		.uleb128 0x26
 5419 0a13 AF040000 		.4byte	0x4af
 5420 0a17 80000000 		.4byte	.LBB165
 5421 0a1b 04000000 		.4byte	.LBE165-.LBB165
 5422 0a1f 01       		.byte	0x1
 5423 0a20 D605     		.2byte	0x5d6
 5424 0a22 25       		.uleb128 0x25
 5425 0a23 BC040000 		.4byte	0x4bc
 5426 0a27 F4030000 		.4byte	.LLST31
 5427 0a2b 00       		.byte	0
 5428 0a2c 00       		.byte	0
 5429 0a2d 2D       		.uleb128 0x2d
 5430 0a2e EA0B0000 		.4byte	.LASF101
 5431 0a32 01       		.byte	0x1
 5432 0a33 DA05     		.2byte	0x5da
 5433 0a35 C3000000 		.4byte	0xc3
 5434 0a39 00000000 		.4byte	.LFB143
 5435 0a3d 44000000 		.4byte	.LFE143-.LFB143
 5436 0a41 01       		.uleb128 0x1
 5437 0a42 9C       		.byte	0x9c
 5438 0a43 680A0000 		.4byte	0xa68
 5439 0a47 2E       		.uleb128 0x2e
 5440 0a48 636D6400 		.ascii	"cmd\000"
 5441 0a4c 01       		.byte	0x1
 5442 0a4d DA05     		.2byte	0x5da
 5443 0a4f 680A0000 		.4byte	0xa68
 5444 0a53 07040000 		.4byte	.LLST32
 5445 0a57 1F       		.uleb128 0x1f
 5446 0a58 43000000 		.4byte	.LASF100
 5447 0a5c 01       		.byte	0x1
 5448 0a5d DC05     		.2byte	0x5dc
 5449 0a5f E7000000 		.4byte	0xe7
 5450 0a63 73040000 		.4byte	.LLST33
 5451 0a67 00       		.byte	0
 5452 0a68 08       		.uleb128 0x8
 5453 0a69 04       		.byte	0x4
 5454 0a6a 27020000 		.4byte	0x227
 5455 0a6e 2D       		.uleb128 0x2d
 5456 0a6f F2030000 		.4byte	.LASF102
 5457 0a73 01       		.byte	0x1
 5458 0a74 0007     		.2byte	0x700
 5459 0a76 47000000 		.4byte	0x47
 5460 0a7a 00000000 		.4byte	.LFB154
ARM GAS  C:\Users\robom\AppData\Local\Temp\ccqs2S2W.s 			page 144


 5461 0a7e B0000000 		.4byte	.LFE154-.LFB154
 5462 0a82 01       		.uleb128 0x1
 5463 0a83 9C       		.byte	0x9c
 5464 0a84 CB0A0000 		.4byte	0xacb
 5465 0a88 1E       		.uleb128 0x1e
 5466 0a89 1D0A0000 		.4byte	.LASF103
 5467 0a8d 01       		.byte	0x1
 5468 0a8e 0007     		.2byte	0x700
 5469 0a90 C3000000 		.4byte	0xc3
 5470 0a94 EC050000 		.4byte	.LLST34
 5471 0a98 2F       		.uleb128 0x2f
 5472 0a99 72657400 		.ascii	"ret\000"
 5473 0a9d 01       		.byte	0x1
 5474 0a9e 0207     		.2byte	0x702
 5475 0aa0 47000000 		.4byte	0x47
 5476 0aa4 01       		.uleb128 0x1
 5477 0aa5 50       		.byte	0x50
 5478 0aa6 28       		.uleb128 0x28
 5479 0aa7 D3060000 		.4byte	.LASF104
 5480 0aab 01       		.byte	0x1
 5481 0aac 0307     		.2byte	0x703
 5482 0aae C3000000 		.4byte	0xc3
 5483 0ab2 05       		.uleb128 0x5
 5484 0ab3 03       		.byte	0x3
 5485 0ab4 0C000000 		.4byte	currentWritePage.7801
 5486 0ab8 30       		.uleb128 0x30
 5487 0ab9 12000000 		.4byte	.LVL102
 5488 0abd FD040000 		.4byte	0x4fd
 5489 0ac1 30       		.uleb128 0x30
 5490 0ac2 62000000 		.4byte	.LVL104
 5491 0ac6 FD040000 		.4byte	0x4fd
 5492 0aca 00       		.byte	0
 5493 0acb 20       		.uleb128 0x20
 5494 0acc 920A0000 		.4byte	.LASF106
 5495 0ad0 01       		.byte	0x1
 5496 0ad1 8303     		.2byte	0x383
 5497 0ad3 00000000 		.4byte	.LFB129
 5498 0ad7 48000000 		.4byte	.LFE129-.LFB129
 5499 0adb 01       		.uleb128 0x1
 5500 0adc 9C       		.byte	0x9c
 5501 0add 790B0000 		.4byte	0xb79
 5502 0ae1 28       		.uleb128 0x28
 5503 0ae2 A1050000 		.4byte	.LASF77
 5504 0ae6 01       		.byte	0x1
 5505 0ae7 8503     		.2byte	0x385
 5506 0ae9 FD000000 		.4byte	0xfd
 5507 0aed 01       		.uleb128 0x1
 5508 0aee 54       		.byte	0x54
 5509 0aef 22       		.uleb128 0x22
 5510 0af0 C9040000 		.4byte	0x4c9
 5511 0af4 02000000 		.4byte	.LBB167
 5512 0af8 04000000 		.4byte	.LBE167-.LBB167
 5513 0afc 01       		.byte	0x1
 5514 0afd 8703     		.2byte	0x387
 5515 0aff 130B0000 		.4byte	0xb13
 5516 0b03 23       		.uleb128 0x23
 5517 0b04 02000000 		.4byte	.LBB168
ARM GAS  C:\Users\robom\AppData\Local\Temp\ccqs2S2W.s 			page 145


 5518 0b08 04000000 		.4byte	.LBE168-.LBB168
 5519 0b0c 24       		.uleb128 0x24
 5520 0b0d DA040000 		.4byte	0x4da
 5521 0b11 00       		.byte	0
 5522 0b12 00       		.byte	0
 5523 0b13 22       		.uleb128 0x22
 5524 0b14 AF040000 		.4byte	0x4af
 5525 0b18 06000000 		.4byte	.LBB169
 5526 0b1c 06000000 		.4byte	.LBE169-.LBB169
 5527 0b20 01       		.byte	0x1
 5528 0b21 8703     		.2byte	0x387
 5529 0b23 310B0000 		.4byte	0xb31
 5530 0b27 25       		.uleb128 0x25
 5531 0b28 BC040000 		.4byte	0x4bc
 5532 0b2c 18060000 		.4byte	.LLST35
 5533 0b30 00       		.byte	0
 5534 0b31 31       		.uleb128 0x31
 5535 0b32 12000000 		.4byte	.LBB171
 5536 0b36 28000000 		.4byte	.LBE171-.LBB171
 5537 0b3a 5E0B0000 		.4byte	0xb5e
 5538 0b3e 1F       		.uleb128 0x1f
 5539 0b3f 430D0000 		.4byte	.LASF107
 5540 0b43 01       		.byte	0x1
 5541 0b44 8B03     		.2byte	0x38b
 5542 0b46 790B0000 		.4byte	0xb79
 5543 0b4a 2C060000 		.4byte	.LLST36
 5544 0b4e 32       		.uleb128 0x32
 5545 0b4f 18000000 		.4byte	.LVL110
 5546 0b53 6E0A0000 		.4byte	0xa6e
 5547 0b57 33       		.uleb128 0x33
 5548 0b58 01       		.uleb128 0x1
 5549 0b59 50       		.byte	0x50
 5550 0b5a 01       		.uleb128 0x1
 5551 0b5b 44       		.byte	0x44
 5552 0b5c 00       		.byte	0
 5553 0b5d 00       		.byte	0
 5554 0b5e 26       		.uleb128 0x26
 5555 0b5f AF040000 		.4byte	0x4af
 5556 0b63 3A000000 		.4byte	.LBB172
 5557 0b67 0E000000 		.4byte	.LBE172-.LBB172
 5558 0b6b 01       		.byte	0x1
 5559 0b6c 9B03     		.2byte	0x39b
 5560 0b6e 25       		.uleb128 0x25
 5561 0b6f BC040000 		.4byte	0x4bc
 5562 0b73 3F060000 		.4byte	.LLST37
 5563 0b77 00       		.byte	0
 5564 0b78 00       		.byte	0
 5565 0b79 08       		.uleb128 0x8
 5566 0b7a 04       		.byte	0x4
 5567 0b7b A7030000 		.4byte	0x3a7
 5568 0b7f 20       		.uleb128 0x20
 5569 0b80 840C0000 		.4byte	.LASF108
 5570 0b84 01       		.byte	0x1
 5571 0b85 4D03     		.2byte	0x34d
 5572 0b87 00000000 		.4byte	.LFB127
 5573 0b8b 50000000 		.4byte	.LFE127-.LFB127
 5574 0b8f 01       		.uleb128 0x1
ARM GAS  C:\Users\robom\AppData\Local\Temp\ccqs2S2W.s 			page 146


 5575 0b90 9C       		.byte	0x9c
 5576 0b91 4A0C0000 		.4byte	0xc4a
 5577 0b95 2C       		.uleb128 0x2c
 5578 0b96 6900     		.ascii	"i\000"
 5579 0b98 01       		.byte	0x1
 5580 0b99 4F03     		.2byte	0x34f
 5581 0b9b FD000000 		.4byte	0xfd
 5582 0b9f 52060000 		.4byte	.LLST38
 5583 0ba3 2C       		.uleb128 0x2c
 5584 0ba4 6A00     		.ascii	"j\000"
 5585 0ba6 01       		.byte	0x1
 5586 0ba7 5003     		.2byte	0x350
 5587 0ba9 FD000000 		.4byte	0xfd
 5588 0bad 88060000 		.4byte	.LLST39
 5589 0bb1 28       		.uleb128 0x28
 5590 0bb2 A1050000 		.4byte	.LASF77
 5591 0bb6 01       		.byte	0x1
 5592 0bb7 5103     		.2byte	0x351
 5593 0bb9 FD000000 		.4byte	0xfd
 5594 0bbd 01       		.uleb128 0x1
 5595 0bbe 56       		.byte	0x56
 5596 0bbf 22       		.uleb128 0x22
 5597 0bc0 C9040000 		.4byte	0x4c9
 5598 0bc4 02000000 		.4byte	.LBB174
 5599 0bc8 04000000 		.4byte	.LBE174-.LBB174
 5600 0bcc 01       		.byte	0x1
 5601 0bcd 5303     		.2byte	0x353
 5602 0bcf E30B0000 		.4byte	0xbe3
 5603 0bd3 23       		.uleb128 0x23
 5604 0bd4 02000000 		.4byte	.LBB175
 5605 0bd8 04000000 		.4byte	.LBE175-.LBB175
 5606 0bdc 24       		.uleb128 0x24
 5607 0bdd DA040000 		.4byte	0x4da
 5608 0be1 00       		.byte	0
 5609 0be2 00       		.byte	0
 5610 0be3 22       		.uleb128 0x22
 5611 0be4 AF040000 		.4byte	0x4af
 5612 0be8 06000000 		.4byte	.LBB176
 5613 0bec 06000000 		.4byte	.LBE176-.LBB176
 5614 0bf0 01       		.byte	0x1
 5615 0bf1 5303     		.2byte	0x353
 5616 0bf3 010C0000 		.4byte	0xc01
 5617 0bf7 25       		.uleb128 0x25
 5618 0bf8 BC040000 		.4byte	0x4bc
 5619 0bfc BE060000 		.4byte	.LLST40
 5620 0c00 00       		.byte	0
 5621 0c01 31       		.uleb128 0x31
 5622 0c02 14000000 		.4byte	.LBB178
 5623 0c06 24000000 		.4byte	.LBE178-.LBB178
 5624 0c0a 2F0C0000 		.4byte	0xc2f
 5625 0c0e 1F       		.uleb128 0x1f
 5626 0c0f 00010000 		.4byte	.LASF49
 5627 0c13 01       		.byte	0x1
 5628 0c14 5903     		.2byte	0x359
 5629 0c16 C0070000 		.4byte	0x7c0
 5630 0c1a D2060000 		.4byte	.LLST41
 5631 0c1e 32       		.uleb128 0x32
ARM GAS  C:\Users\robom\AppData\Local\Temp\ccqs2S2W.s 			page 147


 5632 0c1f 1A000000 		.4byte	.LVL117
 5633 0c23 6E0A0000 		.4byte	0xa6e
 5634 0c27 33       		.uleb128 0x33
 5635 0c28 01       		.uleb128 0x1
 5636 0c29 50       		.byte	0x50
 5637 0c2a 02       		.uleb128 0x2
 5638 0c2b 08       		.byte	0x8
 5639 0c2c 20       		.byte	0x20
 5640 0c2d 00       		.byte	0
 5641 0c2e 00       		.byte	0
 5642 0c2f 26       		.uleb128 0x26
 5643 0c30 AF040000 		.4byte	0x4af
 5644 0c34 44000000 		.4byte	.LBB179
 5645 0c38 0C000000 		.4byte	.LBE179-.LBB179
 5646 0c3c 01       		.byte	0x1
 5647 0c3d 6403     		.2byte	0x364
 5648 0c3f 25       		.uleb128 0x25
 5649 0c40 BC040000 		.4byte	0x4bc
 5650 0c44 E5060000 		.4byte	.LLST42
 5651 0c48 00       		.byte	0
 5652 0c49 00       		.byte	0
 5653 0c4a 20       		.uleb128 0x20
 5654 0c4b 5C050000 		.4byte	.LASF109
 5655 0c4f 01       		.byte	0x1
 5656 0c50 6803     		.2byte	0x368
 5657 0c52 00000000 		.4byte	.LFB128
 5658 0c56 50000000 		.4byte	.LFE128-.LFB128
 5659 0c5a 01       		.uleb128 0x1
 5660 0c5b 9C       		.byte	0x9c
 5661 0c5c 140D0000 		.4byte	0xd14
 5662 0c60 2C       		.uleb128 0x2c
 5663 0c61 6900     		.ascii	"i\000"
 5664 0c63 01       		.byte	0x1
 5665 0c64 6A03     		.2byte	0x36a
 5666 0c66 FD000000 		.4byte	0xfd
 5667 0c6a F8060000 		.4byte	.LLST43
 5668 0c6e 2C       		.uleb128 0x2c
 5669 0c6f 6A00     		.ascii	"j\000"
 5670 0c71 01       		.byte	0x1
 5671 0c72 6B03     		.2byte	0x36b
 5672 0c74 FD000000 		.4byte	0xfd
 5673 0c78 2E070000 		.4byte	.LLST44
 5674 0c7c 28       		.uleb128 0x28
 5675 0c7d A1050000 		.4byte	.LASF77
 5676 0c81 01       		.byte	0x1
 5677 0c82 6C03     		.2byte	0x36c
 5678 0c84 FD000000 		.4byte	0xfd
 5679 0c88 01       		.uleb128 0x1
 5680 0c89 56       		.byte	0x56
 5681 0c8a 22       		.uleb128 0x22
 5682 0c8b C9040000 		.4byte	0x4c9
 5683 0c8f 02000000 		.4byte	.LBB181
 5684 0c93 04000000 		.4byte	.LBE181-.LBB181
 5685 0c97 01       		.byte	0x1
 5686 0c98 6E03     		.2byte	0x36e
 5687 0c9a AE0C0000 		.4byte	0xcae
 5688 0c9e 23       		.uleb128 0x23
ARM GAS  C:\Users\robom\AppData\Local\Temp\ccqs2S2W.s 			page 148


 5689 0c9f 02000000 		.4byte	.LBB182
 5690 0ca3 04000000 		.4byte	.LBE182-.LBB182
 5691 0ca7 24       		.uleb128 0x24
 5692 0ca8 DA040000 		.4byte	0x4da
 5693 0cac 00       		.byte	0
 5694 0cad 00       		.byte	0
 5695 0cae 22       		.uleb128 0x22
 5696 0caf AF040000 		.4byte	0x4af
 5697 0cb3 06000000 		.4byte	.LBB183
 5698 0cb7 06000000 		.4byte	.LBE183-.LBB183
 5699 0cbb 01       		.byte	0x1
 5700 0cbc 6E03     		.2byte	0x36e
 5701 0cbe CC0C0000 		.4byte	0xccc
 5702 0cc2 25       		.uleb128 0x25
 5703 0cc3 BC040000 		.4byte	0x4bc
 5704 0cc7 64070000 		.4byte	.LLST45
 5705 0ccb 00       		.byte	0
 5706 0ccc 31       		.uleb128 0x31
 5707 0ccd 14000000 		.4byte	.LBB185
 5708 0cd1 26000000 		.4byte	.LBE185-.LBB185
 5709 0cd5 F90C0000 		.4byte	0xcf9
 5710 0cd9 1F       		.uleb128 0x1f
 5711 0cda 00010000 		.4byte	.LASF49
 5712 0cde 01       		.byte	0x1
 5713 0cdf 7403     		.2byte	0x374
 5714 0ce1 C0070000 		.4byte	0x7c0
 5715 0ce5 78070000 		.4byte	.LLST46
 5716 0ce9 32       		.uleb128 0x32
 5717 0cea 1A000000 		.4byte	.LVL132
 5718 0cee 6E0A0000 		.4byte	0xa6e
 5719 0cf2 33       		.uleb128 0x33
 5720 0cf3 01       		.uleb128 0x1
 5721 0cf4 50       		.byte	0x50
 5722 0cf5 01       		.uleb128 0x1
 5723 0cf6 38       		.byte	0x38
 5724 0cf7 00       		.byte	0
 5725 0cf8 00       		.byte	0
 5726 0cf9 26       		.uleb128 0x26
 5727 0cfa AF040000 		.4byte	0x4af
 5728 0cfe 44000000 		.4byte	.LBB186
 5729 0d02 0C000000 		.4byte	.LBE186-.LBB186
 5730 0d06 01       		.byte	0x1
 5731 0d07 7F03     		.2byte	0x37f
 5732 0d09 25       		.uleb128 0x25
 5733 0d0a BC040000 		.4byte	0x4bc
 5734 0d0e 8B070000 		.4byte	.LLST47
 5735 0d12 00       		.byte	0
 5736 0d13 00       		.byte	0
 5737 0d14 29       		.uleb128 0x29
 5738 0d15 2A0B0000 		.4byte	.LASF110
 5739 0d19 01       		.byte	0x1
 5740 0d1a B704     		.2byte	0x4b7
 5741 0d1c 00000000 		.4byte	.LFB138
 5742 0d20 CC000000 		.4byte	.LFE138-.LFB138
 5743 0d24 01       		.uleb128 0x1
 5744 0d25 9C       		.byte	0x9c
 5745 0d26 BE0E0000 		.4byte	0xebe
ARM GAS  C:\Users\robom\AppData\Local\Temp\ccqs2S2W.s 			page 149


 5746 0d2a 1E       		.uleb128 0x1e
 5747 0d2b 15040000 		.4byte	.LASF111
 5748 0d2f 01       		.byte	0x1
 5749 0d30 B704     		.2byte	0x4b7
 5750 0d32 9F010000 		.4byte	0x19f
 5751 0d36 9E070000 		.4byte	.LLST48
 5752 0d3a 2E       		.uleb128 0x2e
 5753 0d3b 73747200 		.ascii	"str\000"
 5754 0d3f 01       		.byte	0x1
 5755 0d40 B804     		.2byte	0x4b8
 5756 0d42 31010000 		.4byte	0x131
 5757 0d46 CA070000 		.4byte	.LLST49
 5758 0d4a 2C       		.uleb128 0x2c
 5759 0d4b 6C656E00 		.ascii	"len\000"
 5760 0d4f 01       		.byte	0x1
 5761 0d50 BA04     		.2byte	0x4ba
 5762 0d52 C3000000 		.4byte	0xc3
 5763 0d56 F6070000 		.4byte	.LLST50
 5764 0d5a 1F       		.uleb128 0x1f
 5765 0d5b 28090000 		.4byte	.LASF112
 5766 0d5f 01       		.byte	0x1
 5767 0d60 BB04     		.2byte	0x4bb
 5768 0d62 C3000000 		.4byte	0xc3
 5769 0d66 15080000 		.4byte	.LLST51
 5770 0d6a 1F       		.uleb128 0x1f
 5771 0d6b 72000000 		.4byte	.LASF113
 5772 0d6f 01       		.byte	0x1
 5773 0d70 BC04     		.2byte	0x4bc
 5774 0d72 C3000000 		.4byte	0xc3
 5775 0d76 4C080000 		.4byte	.LLST52
 5776 0d7a 2C       		.uleb128 0x2c
 5777 0d7b 6900     		.ascii	"i\000"
 5778 0d7d 01       		.byte	0x1
 5779 0d7e BD04     		.2byte	0x4bd
 5780 0d80 C3000000 		.4byte	0xc3
 5781 0d84 5F080000 		.4byte	.LLST53
 5782 0d88 1F       		.uleb128 0x1f
 5783 0d89 44070000 		.4byte	.LASF114
 5784 0d8d 01       		.byte	0x1
 5785 0d8e BE04     		.2byte	0x4be
 5786 0d90 C3000000 		.4byte	0xc3
 5787 0d94 7E080000 		.4byte	.LLST54
 5788 0d98 1F       		.uleb128 0x1f
 5789 0d99 130B0000 		.4byte	.LASF115
 5790 0d9d 01       		.byte	0x1
 5791 0d9e BF04     		.2byte	0x4bf
 5792 0da0 C3000000 		.4byte	0xc3
 5793 0da4 9D080000 		.4byte	.LLST55
 5794 0da8 1F       		.uleb128 0x1f
 5795 0da9 84030000 		.4byte	.LASF116
 5796 0dad 01       		.byte	0x1
 5797 0dae C004     		.2byte	0x4c0
 5798 0db0 E7000000 		.4byte	0xe7
 5799 0db4 BC080000 		.4byte	.LLST56
 5800 0db8 28       		.uleb128 0x28
 5801 0db9 A1050000 		.4byte	.LASF77
 5802 0dbd 01       		.byte	0x1
ARM GAS  C:\Users\robom\AppData\Local\Temp\ccqs2S2W.s 			page 150


 5803 0dbe C104     		.2byte	0x4c1
 5804 0dc0 FD000000 		.4byte	0xfd
 5805 0dc4 01       		.uleb128 0x1
 5806 0dc5 58       		.byte	0x58
 5807 0dc6 31       		.uleb128 0x31
 5808 0dc7 32000000 		.4byte	.LBB188
 5809 0dcb 16000000 		.4byte	.LBE188-.LBB188
 5810 0dcf E40D0000 		.4byte	0xde4
 5811 0dd3 1F       		.uleb128 0x1f
 5812 0dd4 BC0B0000 		.4byte	.LASF117
 5813 0dd8 01       		.byte	0x1
 5814 0dd9 DD04     		.2byte	0x4dd
 5815 0ddb FD000000 		.4byte	0xfd
 5816 0ddf DC080000 		.4byte	.LLST57
 5817 0de3 00       		.byte	0
 5818 0de4 22       		.uleb128 0x22
 5819 0de5 C9040000 		.4byte	0x4c9
 5820 0de9 48000000 		.4byte	.LBB189
 5821 0ded 04000000 		.4byte	.LBE189-.LBB189
 5822 0df1 01       		.byte	0x1
 5823 0df2 E804     		.2byte	0x4e8
 5824 0df4 080E0000 		.4byte	0xe08
 5825 0df8 23       		.uleb128 0x23
 5826 0df9 48000000 		.4byte	.LBB190
 5827 0dfd 04000000 		.4byte	.LBE190-.LBB190
 5828 0e01 24       		.uleb128 0x24
 5829 0e02 DA040000 		.4byte	0x4da
 5830 0e06 00       		.byte	0
 5831 0e07 00       		.byte	0
 5832 0e08 22       		.uleb128 0x22
 5833 0e09 AF040000 		.4byte	0x4af
 5834 0e0d 4C000000 		.4byte	.LBB191
 5835 0e11 06000000 		.4byte	.LBE191-.LBB191
 5836 0e15 01       		.byte	0x1
 5837 0e16 E804     		.2byte	0x4e8
 5838 0e18 260E0000 		.4byte	0xe26
 5839 0e1c 25       		.uleb128 0x25
 5840 0e1d BC040000 		.4byte	0x4bc
 5841 0e21 EF080000 		.4byte	.LLST58
 5842 0e25 00       		.byte	0
 5843 0e26 31       		.uleb128 0x31
 5844 0e27 5C000000 		.4byte	.LBB193
 5845 0e2b 64000000 		.4byte	.LBE193-.LBB193
 5846 0e2f A30E0000 		.4byte	0xea3
 5847 0e33 1B       		.uleb128 0x1b
 5848 0e34 FD080000 		.4byte	.LASF118
 5849 0e38 01       		.byte	0x1
 5850 0e39 EC04     		.2byte	0x4ec
 5851 0e3b C3000000 		.4byte	0xc3
 5852 0e3f 23       		.uleb128 0x23
 5853 0e40 6A000000 		.4byte	.LBB194
 5854 0e44 56000000 		.4byte	.LBE194-.LBB194
 5855 0e48 1F       		.uleb128 0x1f
 5856 0e49 35040000 		.4byte	.LASF119
 5857 0e4d 01       		.byte	0x1
 5858 0e4e F104     		.2byte	0x4f1
 5859 0e50 BE0E0000 		.4byte	0xebe
ARM GAS  C:\Users\robom\AppData\Local\Temp\ccqs2S2W.s 			page 151


 5860 0e54 03090000 		.4byte	.LLST59
 5861 0e58 31       		.uleb128 0x31
 5862 0e59 74000000 		.4byte	.LBB195
 5863 0e5d 4C000000 		.4byte	.LBE195-.LBB195
 5864 0e61 8F0E0000 		.4byte	0xe8f
 5865 0e65 1F       		.uleb128 0x1f
 5866 0e66 5D010000 		.4byte	.LASF120
 5867 0e6a 01       		.byte	0x1
 5868 0e6b F404     		.2byte	0x4f4
 5869 0e6d C0070000 		.4byte	0x7c0
 5870 0e71 2E090000 		.4byte	.LLST60
 5871 0e75 1F       		.uleb128 0x1f
 5872 0e76 A7000000 		.4byte	.LASF121
 5873 0e7a 01       		.byte	0x1
 5874 0e7b F504     		.2byte	0x4f5
 5875 0e7d C6070000 		.4byte	0x7c6
 5876 0e81 4E090000 		.4byte	.LLST61
 5877 0e85 30       		.uleb128 0x30
 5878 0e86 8C000000 		.4byte	.LVL163
 5879 0e8a E7040000 		.4byte	0x4e7
 5880 0e8e 00       		.byte	0
 5881 0e8f 32       		.uleb128 0x32
 5882 0e90 70000000 		.4byte	.LVL160
 5883 0e94 6E0A0000 		.4byte	0xa6e
 5884 0e98 33       		.uleb128 0x33
 5885 0e99 01       		.uleb128 0x1
 5886 0e9a 50       		.byte	0x50
 5887 0e9b 04       		.uleb128 0x4
 5888 0e9c 76       		.byte	0x76
 5889 0e9d 02       		.sleb128 2
 5890 0e9e 32       		.byte	0x32
 5891 0e9f 24       		.byte	0x24
 5892 0ea0 00       		.byte	0
 5893 0ea1 00       		.byte	0
 5894 0ea2 00       		.byte	0
 5895 0ea3 26       		.uleb128 0x26
 5896 0ea4 AF040000 		.4byte	0x4af
 5897 0ea8 C0000000 		.4byte	.LBB196
 5898 0eac 0C000000 		.4byte	.LBE196-.LBB196
 5899 0eb0 01       		.byte	0x1
 5900 0eb1 1005     		.2byte	0x510
 5901 0eb3 25       		.uleb128 0x25
 5902 0eb4 BC040000 		.4byte	0x4bc
 5903 0eb8 61090000 		.4byte	.LLST62
 5904 0ebc 00       		.byte	0
 5905 0ebd 00       		.byte	0
 5906 0ebe 08       		.uleb128 0x8
 5907 0ebf 04       		.byte	0x4
 5908 0ec0 33030000 		.4byte	0x333
 5909 0ec4 29       		.uleb128 0x29
 5910 0ec5 0A0A0000 		.4byte	.LASF122
 5911 0ec9 01       		.byte	0x1
 5912 0eca 8E01     		.2byte	0x18e
 5913 0ecc 00000000 		.4byte	.LFB115
 5914 0ed0 08000000 		.4byte	.LFE115-.LFB115
 5915 0ed4 01       		.uleb128 0x1
 5916 0ed5 9C       		.byte	0x9c
ARM GAS  C:\Users\robom\AppData\Local\Temp\ccqs2S2W.s 			page 152


 5917 0ed6 130F0000 		.4byte	0xf13
 5918 0eda 2E       		.uleb128 0x2e
 5919 0edb 63686E00 		.ascii	"chn\000"
 5920 0edf 01       		.byte	0x1
 5921 0ee0 8E01     		.2byte	0x18e
 5922 0ee2 9F010000 		.4byte	0x19f
 5923 0ee6 74090000 		.4byte	.LLST63
 5924 0eea 2E       		.uleb128 0x2e
 5925 0eeb 73747200 		.ascii	"str\000"
 5926 0eef 01       		.byte	0x1
 5927 0ef0 8E01     		.2byte	0x18e
 5928 0ef2 31010000 		.4byte	0x131
 5929 0ef6 95090000 		.4byte	.LLST64
 5930 0efa 32       		.uleb128 0x32
 5931 0efb 06000000 		.4byte	.LVL173
 5932 0eff 140D0000 		.4byte	0xd14
 5933 0f03 33       		.uleb128 0x33
 5934 0f04 01       		.uleb128 0x1
 5935 0f05 50       		.byte	0x50
 5936 0f06 03       		.uleb128 0x3
 5937 0f07 F3       		.byte	0xf3
 5938 0f08 01       		.uleb128 0x1
 5939 0f09 50       		.byte	0x50
 5940 0f0a 33       		.uleb128 0x33
 5941 0f0b 01       		.uleb128 0x1
 5942 0f0c 51       		.byte	0x51
 5943 0f0d 03       		.uleb128 0x3
 5944 0f0e F3       		.byte	0xf3
 5945 0f0f 01       		.uleb128 0x1
 5946 0f10 51       		.byte	0x51
 5947 0f11 00       		.byte	0
 5948 0f12 00       		.byte	0
 5949 0f13 20       		.uleb128 0x20
 5950 0f14 9C0B0000 		.4byte	.LASF123
 5951 0f18 01       		.byte	0x1
 5952 0f19 9F03     		.2byte	0x39f
 5953 0f1b 00000000 		.4byte	.LFB130
 5954 0f1f 24000000 		.4byte	.LFE130-.LFB130
 5955 0f23 01       		.uleb128 0x1
 5956 0f24 9C       		.byte	0x9c
 5957 0f25 560F0000 		.4byte	0xf56
 5958 0f29 23       		.uleb128 0x23
 5959 0f2a 08000000 		.4byte	.LBB198
 5960 0f2e 1C000000 		.4byte	.LBE198-.LBB198
 5961 0f32 1F       		.uleb128 0x1f
 5962 0f33 EF070000 		.4byte	.LASF124
 5963 0f37 01       		.byte	0x1
 5964 0f38 A303     		.2byte	0x3a3
 5965 0f3a 31010000 		.4byte	0x131
 5966 0f3e B6090000 		.4byte	.LLST65
 5967 0f42 30       		.uleb128 0x30
 5968 0f43 0C000000 		.4byte	.LVL174
 5969 0f47 59060000 		.4byte	0x659
 5970 0f4b 30       		.uleb128 0x30
 5971 0f4c 18000000 		.4byte	.LVL176
 5972 0f50 C40E0000 		.4byte	0xec4
 5973 0f54 00       		.byte	0
ARM GAS  C:\Users\robom\AppData\Local\Temp\ccqs2S2W.s 			page 153


 5974 0f55 00       		.byte	0
 5975 0f56 29       		.uleb128 0x29
 5976 0f57 0C070000 		.4byte	.LASF125
 5977 0f5b 01       		.byte	0x1
 5978 0f5c FD05     		.2byte	0x5fd
 5979 0f5e 00000000 		.4byte	.LFB145
 5980 0f62 18000000 		.4byte	.LFE145-.LFB145
 5981 0f66 01       		.uleb128 0x1
 5982 0f67 9C       		.byte	0x9c
 5983 0f68 860F0000 		.4byte	0xf86
 5984 0f6c 1E       		.uleb128 0x1e
 5985 0f6d 0B0D0000 		.4byte	.LASF126
 5986 0f71 01       		.byte	0x1
 5987 0f72 FD05     		.2byte	0x5fd
 5988 0f74 C3000000 		.4byte	0xc3
 5989 0f78 D4090000 		.4byte	.LLST66
 5990 0f7c 30       		.uleb128 0x30
 5991 0f7d 10000000 		.4byte	.LVL178
 5992 0f81 130F0000 		.4byte	0xf13
 5993 0f85 00       		.byte	0
 5994 0f86 2D       		.uleb128 0x2d
 5995 0f87 2D0C0000 		.4byte	.LASF127
 5996 0f8b 01       		.byte	0x1
 5997 0f8c CA06     		.2byte	0x6ca
 5998 0f8e FD000000 		.4byte	0xfd
 5999 0f92 00000000 		.4byte	.LFB153
 6000 0f96 58000000 		.4byte	.LFE153-.LFB153
 6001 0f9a 01       		.uleb128 0x1
 6002 0f9b 9C       		.byte	0x9c
 6003 0f9c 2B100000 		.4byte	0x102b
 6004 0fa0 1F       		.uleb128 0x1f
 6005 0fa1 D0010000 		.4byte	.LASF128
 6006 0fa5 01       		.byte	0x1
 6007 0fa6 CC06     		.2byte	0x6cc
 6008 0fa8 D1000000 		.4byte	0xd1
 6009 0fac F5090000 		.4byte	.LLST67
 6010 0fb0 1F       		.uleb128 0x1f
 6011 0fb1 08080000 		.4byte	.LASF129
 6012 0fb5 01       		.byte	0x1
 6013 0fb6 CD06     		.2byte	0x6cd
 6014 0fb8 F2000000 		.4byte	0xf2
 6015 0fbc 150A0000 		.4byte	.LLST68
 6016 0fc0 28       		.uleb128 0x28
 6017 0fc1 DB070000 		.4byte	.LASF130
 6018 0fc5 01       		.byte	0x1
 6019 0fc6 CE06     		.2byte	0x6ce
 6020 0fc8 F2000000 		.4byte	0xf2
 6021 0fcc 02       		.uleb128 0x2
 6022 0fcd 91       		.byte	0x91
 6023 0fce 6C       		.sleb128 -20
 6024 0fcf 28       		.uleb128 0x28
 6025 0fd0 820A0000 		.4byte	.LASF131
 6026 0fd4 01       		.byte	0x1
 6027 0fd5 CF06     		.2byte	0x6cf
 6028 0fd7 F2000000 		.4byte	0xf2
 6029 0fdb 02       		.uleb128 0x2
 6030 0fdc 91       		.byte	0x91
ARM GAS  C:\Users\robom\AppData\Local\Temp\ccqs2S2W.s 			page 154


 6031 0fdd 68       		.sleb128 -24
 6032 0fde 34       		.uleb128 0x34
 6033 0fdf 0E000000 		.4byte	.LVL180
 6034 0fe3 D1050000 		.4byte	0x5d1
 6035 0fe7 F20F0000 		.4byte	0xff2
 6036 0feb 33       		.uleb128 0x33
 6037 0fec 01       		.uleb128 0x1
 6038 0fed 50       		.byte	0x50
 6039 0fee 02       		.uleb128 0x2
 6040 0fef 7D       		.byte	0x7d
 6041 0ff0 00       		.sleb128 0
 6042 0ff1 00       		.byte	0
 6043 0ff2 34       		.uleb128 0x34
 6044 0ff3 2E000000 		.4byte	.LVL183
 6045 0ff7 19210000 		.4byte	0x2119
 6046 0ffb 06100000 		.4byte	0x1006
 6047 0fff 33       		.uleb128 0x33
 6048 1000 01       		.uleb128 0x1
 6049 1001 52       		.byte	0x52
 6050 1002 02       		.uleb128 0x2
 6051 1003 91       		.byte	0x91
 6052 1004 6C       		.sleb128 -20
 6053 1005 00       		.byte	0
 6054 1006 34       		.uleb128 0x34
 6055 1007 40000000 		.4byte	.LVL185
 6056 100b 48050000 		.4byte	0x548
 6057 100f 1A100000 		.4byte	0x101a
 6058 1013 33       		.uleb128 0x33
 6059 1014 01       		.uleb128 0x1
 6060 1015 50       		.byte	0x50
 6061 1016 02       		.uleb128 0x2
 6062 1017 75       		.byte	0x75
 6063 1018 00       		.sleb128 0
 6064 1019 00       		.byte	0
 6065 101a 32       		.uleb128 0x32
 6066 101b 4A000000 		.4byte	.LVL186
 6067 101f 560F0000 		.4byte	0xf56
 6068 1023 33       		.uleb128 0x33
 6069 1024 01       		.uleb128 0x1
 6070 1025 50       		.byte	0x50
 6071 1026 02       		.uleb128 0x2
 6072 1027 08       		.byte	0x8
 6073 1028 6A       		.byte	0x6a
 6074 1029 00       		.byte	0
 6075 102a 00       		.byte	0
 6076 102b 29       		.uleb128 0x29
 6077 102c 1E080000 		.4byte	.LASF132
 6078 1030 01       		.byte	0x1
 6079 1031 3607     		.2byte	0x736
 6080 1033 00000000 		.4byte	.LFB155
 6081 1037 48000000 		.4byte	.LFE155-.LFB155
 6082 103b 01       		.uleb128 0x1
 6083 103c 9C       		.byte	0x9c
 6084 103d CA100000 		.4byte	0x10ca
 6085 1041 1E       		.uleb128 0x1e
 6086 1042 74020000 		.4byte	.LASF133
 6087 1046 01       		.byte	0x1
ARM GAS  C:\Users\robom\AppData\Local\Temp\ccqs2S2W.s 			page 155


 6088 1047 3607     		.2byte	0x736
 6089 1049 2B010000 		.4byte	0x12b
 6090 104d 400A0000 		.4byte	.LLST69
 6091 1051 2C       		.uleb128 0x2c
 6092 1052 6900     		.ascii	"i\000"
 6093 1054 01       		.byte	0x1
 6094 1055 3807     		.2byte	0x738
 6095 1057 C3000000 		.4byte	0xc3
 6096 105b 620A0000 		.4byte	.LLST70
 6097 105f 28       		.uleb128 0x28
 6098 1060 A1050000 		.4byte	.LASF77
 6099 1064 01       		.byte	0x1
 6100 1065 3907     		.2byte	0x739
 6101 1067 FD000000 		.4byte	0xfd
 6102 106b 01       		.uleb128 0x1
 6103 106c 55       		.byte	0x55
 6104 106d 22       		.uleb128 0x22
 6105 106e C9040000 		.4byte	0x4c9
 6106 1072 06000000 		.4byte	.LBB199
 6107 1076 04000000 		.4byte	.LBE199-.LBB199
 6108 107a 01       		.byte	0x1
 6109 107b 3D07     		.2byte	0x73d
 6110 107d 91100000 		.4byte	0x1091
 6111 1081 23       		.uleb128 0x23
 6112 1082 06000000 		.4byte	.LBB200
 6113 1086 04000000 		.4byte	.LBE200-.LBB200
 6114 108a 24       		.uleb128 0x24
 6115 108b DA040000 		.4byte	0x4da
 6116 108f 00       		.byte	0
 6117 1090 00       		.byte	0
 6118 1091 22       		.uleb128 0x22
 6119 1092 AF040000 		.4byte	0x4af
 6120 1096 0A000000 		.4byte	.LBB201
 6121 109a 06000000 		.4byte	.LBE201-.LBB201
 6122 109e 01       		.byte	0x1
 6123 109f 3D07     		.2byte	0x73d
 6124 10a1 AF100000 		.4byte	0x10af
 6125 10a5 25       		.uleb128 0x25
 6126 10a6 BC040000 		.4byte	0x4bc
 6127 10aa 810A0000 		.4byte	.LLST71
 6128 10ae 00       		.byte	0
 6129 10af 26       		.uleb128 0x26
 6130 10b0 AF040000 		.4byte	0x4af
 6131 10b4 36000000 		.4byte	.LBB203
 6132 10b8 04000000 		.4byte	.LBE203-.LBB203
 6133 10bc 01       		.byte	0x1
 6134 10bd 4407     		.2byte	0x744
 6135 10bf 25       		.uleb128 0x25
 6136 10c0 BC040000 		.4byte	0x4bc
 6137 10c4 950A0000 		.4byte	.LLST72
 6138 10c8 00       		.byte	0
 6139 10c9 00       		.byte	0
 6140 10ca 20       		.uleb128 0x20
 6141 10cb C1040000 		.4byte	.LASF134
 6142 10cf 01       		.byte	0x1
 6143 10d0 1A03     		.2byte	0x31a
 6144 10d2 00000000 		.4byte	.LFB126
ARM GAS  C:\Users\robom\AppData\Local\Temp\ccqs2S2W.s 			page 156


 6145 10d6 80000000 		.4byte	.LFE126-.LFB126
 6146 10da 01       		.uleb128 0x1
 6147 10db 9C       		.byte	0x9c
 6148 10dc F8110000 		.4byte	0x11f8
 6149 10e0 1E       		.uleb128 0x1e
 6150 10e1 B20B0000 		.4byte	.LASF135
 6151 10e5 01       		.byte	0x1
 6152 10e6 1A03     		.2byte	0x31a
 6153 10e8 FD000000 		.4byte	0xfd
 6154 10ec A80A0000 		.4byte	.LLST73
 6155 10f0 1F       		.uleb128 0x1f
 6156 10f1 B4010000 		.4byte	.LASF136
 6157 10f5 01       		.byte	0x1
 6158 10f6 1C03     		.2byte	0x31c
 6159 10f8 47000000 		.4byte	0x47
 6160 10fc EE0A0000 		.4byte	.LLST74
 6161 1100 28       		.uleb128 0x28
 6162 1101 A1050000 		.4byte	.LASF77
 6163 1105 01       		.byte	0x1
 6164 1106 1E03     		.2byte	0x31e
 6165 1108 FD000000 		.4byte	0xfd
 6166 110c 01       		.uleb128 0x1
 6167 110d 56       		.byte	0x56
 6168 110e 35       		.uleb128 0x35
 6169 110f FC040000 		.4byte	.LASF154
 6170 1113 01       		.byte	0x1
 6171 1114 6602     		.2byte	0x266
 6172 1116 C3000000 		.4byte	0xc3
 6173 111a 20110000 		.4byte	0x1120
 6174 111e 36       		.uleb128 0x36
 6175 111f 00       		.byte	0
 6176 1120 22       		.uleb128 0x22
 6177 1121 C9040000 		.4byte	0x4c9
 6178 1125 12000000 		.4byte	.LBB205
 6179 1129 04000000 		.4byte	.LBE205-.LBB205
 6180 112d 01       		.byte	0x1
 6181 112e 2703     		.2byte	0x327
 6182 1130 44110000 		.4byte	0x1144
 6183 1134 23       		.uleb128 0x23
 6184 1135 12000000 		.4byte	.LBB206
 6185 1139 04000000 		.4byte	.LBE206-.LBB206
 6186 113d 24       		.uleb128 0x24
 6187 113e DA040000 		.4byte	0x4da
 6188 1142 00       		.byte	0
 6189 1143 00       		.byte	0
 6190 1144 22       		.uleb128 0x22
 6191 1145 AF040000 		.4byte	0x4af
 6192 1149 16000000 		.4byte	.LBB207
 6193 114d 06000000 		.4byte	.LBE207-.LBB207
 6194 1151 01       		.byte	0x1
 6195 1152 2703     		.2byte	0x327
 6196 1154 62110000 		.4byte	0x1162
 6197 1158 25       		.uleb128 0x25
 6198 1159 BC040000 		.4byte	0x4bc
 6199 115d 0C0B0000 		.4byte	.LLST75
 6200 1161 00       		.byte	0
 6201 1162 22       		.uleb128 0x22
ARM GAS  C:\Users\robom\AppData\Local\Temp\ccqs2S2W.s 			page 157


 6202 1163 AF040000 		.4byte	0x4af
 6203 1167 6C000000 		.4byte	.LBB209
 6204 116b 14000000 		.4byte	.LBE209-.LBB209
 6205 116f 01       		.byte	0x1
 6206 1170 4903     		.2byte	0x349
 6207 1172 80110000 		.4byte	0x1180
 6208 1176 25       		.uleb128 0x25
 6209 1177 BC040000 		.4byte	0x4bc
 6210 117b 200B0000 		.4byte	.LLST76
 6211 117f 00       		.byte	0
 6212 1180 30       		.uleb128 0x30
 6213 1181 10000000 		.4byte	.LVL198
 6214 1185 24210000 		.4byte	0x2124
 6215 1189 34       		.uleb128 0x34
 6216 118a 2E000000 		.4byte	.LVL204
 6217 118e 2B100000 		.4byte	0x102b
 6218 1192 9D110000 		.4byte	0x119d
 6219 1196 33       		.uleb128 0x33
 6220 1197 01       		.uleb128 0x1
 6221 1198 50       		.byte	0x50
 6222 1199 02       		.uleb128 0x2
 6223 119a 74       		.byte	0x74
 6224 119b 00       		.sleb128 0
 6225 119c 00       		.byte	0
 6226 119d 34       		.uleb128 0x34
 6227 119e 34000000 		.4byte	.LVL205
 6228 11a2 2B100000 		.4byte	0x102b
 6229 11a6 B1110000 		.4byte	0x11b1
 6230 11aa 33       		.uleb128 0x33
 6231 11ab 01       		.uleb128 0x1
 6232 11ac 50       		.byte	0x50
 6233 11ad 02       		.uleb128 0x2
 6234 11ae 74       		.byte	0x74
 6235 11af 00       		.sleb128 0
 6236 11b0 00       		.byte	0
 6237 11b1 30       		.uleb128 0x30
 6238 11b2 46000000 		.4byte	.LVL206
 6239 11b6 CB0A0000 		.4byte	0xacb
 6240 11ba 30       		.uleb128 0x30
 6241 11bb 4A000000 		.4byte	.LVL207
 6242 11bf 7F0B0000 		.4byte	0xb7f
 6243 11c3 30       		.uleb128 0x30
 6244 11c4 4E000000 		.4byte	.LVL208
 6245 11c8 4A0C0000 		.4byte	0xc4a
 6246 11cc 34       		.uleb128 0x34
 6247 11cd 64000000 		.4byte	.LVL209
 6248 11d1 111C0000 		.4byte	0x1c11
 6249 11d5 E5110000 		.4byte	0x11e5
 6250 11d9 33       		.uleb128 0x33
 6251 11da 01       		.uleb128 0x1
 6252 11db 50       		.byte	0x50
 6253 11dc 01       		.uleb128 0x1
 6254 11dd 31       		.byte	0x31
 6255 11de 33       		.uleb128 0x33
 6256 11df 01       		.uleb128 0x1
 6257 11e0 52       		.byte	0x52
 6258 11e1 02       		.uleb128 0x2
ARM GAS  C:\Users\robom\AppData\Local\Temp\ccqs2S2W.s 			page 158


 6259 11e2 75       		.byte	0x75
 6260 11e3 00       		.sleb128 0
 6261 11e4 00       		.byte	0
 6262 11e5 30       		.uleb128 0x30
 6263 11e6 68000000 		.4byte	.LVL210
 6264 11ea 661E0000 		.4byte	0x1e66
 6265 11ee 30       		.uleb128 0x30
 6266 11ef 6C000000 		.4byte	.LVL211
 6267 11f3 130F0000 		.4byte	0xf13
 6268 11f7 00       		.byte	0
 6269 11f8 29       		.uleb128 0x29
 6270 11f9 28070000 		.4byte	.LASF137
 6271 11fd 01       		.byte	0x1
 6272 11fe EB02     		.2byte	0x2eb
 6273 1200 00000000 		.4byte	.LFB122
 6274 1204 0A000000 		.4byte	.LFE122-.LFB122
 6275 1208 01       		.uleb128 0x1
 6276 1209 9C       		.byte	0x9c
 6277 120a 1E120000 		.4byte	0x121e
 6278 120e 32       		.uleb128 0x32
 6279 120f 08000000 		.4byte	.LVL213
 6280 1213 CA100000 		.4byte	0x10ca
 6281 1217 33       		.uleb128 0x33
 6282 1218 01       		.uleb128 0x1
 6283 1219 50       		.byte	0x50
 6284 121a 01       		.uleb128 0x1
 6285 121b 30       		.byte	0x30
 6286 121c 00       		.byte	0
 6287 121d 00       		.byte	0
 6288 121e 29       		.uleb128 0x29
 6289 121f 72030000 		.4byte	.LASF138
 6290 1223 01       		.byte	0x1
 6291 1224 F005     		.2byte	0x5f0
 6292 1226 00000000 		.4byte	.LFB144
 6293 122a 10000000 		.4byte	.LFE144-.LFB144
 6294 122e 01       		.uleb128 0x1
 6295 122f 9C       		.byte	0x9c
 6296 1230 4E120000 		.4byte	0x124e
 6297 1234 2E       		.uleb128 0x2e
 6298 1235 636D6400 		.ascii	"cmd\000"
 6299 1239 01       		.byte	0x1
 6300 123a F005     		.2byte	0x5f0
 6301 123c 680A0000 		.4byte	0xa68
 6302 1240 330B0000 		.4byte	.LLST77
 6303 1244 30       		.uleb128 0x30
 6304 1245 0E000000 		.4byte	.LVL216
 6305 1249 CA100000 		.4byte	0x10ca
 6306 124d 00       		.byte	0
 6307 124e 29       		.uleb128 0x29
 6308 124f 90010000 		.4byte	.LASF139
 6309 1253 01       		.byte	0x1
 6310 1254 0706     		.2byte	0x607
 6311 1256 00000000 		.4byte	.LFB146
 6312 125a 30000000 		.4byte	.LFE146-.LFB146
 6313 125e 01       		.uleb128 0x1
 6314 125f 9C       		.byte	0x9c
 6315 1260 A4120000 		.4byte	0x12a4
ARM GAS  C:\Users\robom\AppData\Local\Temp\ccqs2S2W.s 			page 159


 6316 1264 1E       		.uleb128 0x1e
 6317 1265 0B0D0000 		.4byte	.LASF126
 6318 1269 01       		.byte	0x1
 6319 126a 0706     		.2byte	0x607
 6320 126c C3000000 		.4byte	0xc3
 6321 1270 540B0000 		.4byte	.LLST78
 6322 1274 30       		.uleb128 0x30
 6323 1275 10000000 		.4byte	.LVL218
 6324 1279 130F0000 		.4byte	0xf13
 6325 127d 34       		.uleb128 0x34
 6326 127e 1A000000 		.4byte	.LVL219
 6327 1282 72140000 		.4byte	0x1472
 6328 1286 94120000 		.4byte	0x1294
 6329 128a 33       		.uleb128 0x33
 6330 128b 01       		.uleb128 0x1
 6331 128c 51       		.byte	0x51
 6332 128d 05       		.uleb128 0x5
 6333 128e 03       		.byte	0x3
 6334 128f 24020000 		.4byte	.LC11
 6335 1293 00       		.byte	0
 6336 1294 32       		.uleb128 0x32
 6337 1295 20000000 		.4byte	.LVL220
 6338 1299 CA100000 		.4byte	0x10ca
 6339 129d 33       		.uleb128 0x33
 6340 129e 01       		.uleb128 0x1
 6341 129f 50       		.byte	0x50
 6342 12a0 01       		.uleb128 0x1
 6343 12a1 30       		.byte	0x30
 6344 12a2 00       		.byte	0
 6345 12a3 00       		.byte	0
 6346 12a4 20       		.uleb128 0x20
 6347 12a5 29050000 		.4byte	.LASF140
 6348 12a9 01       		.byte	0x1
 6349 12aa 5704     		.2byte	0x457
 6350 12ac 00000000 		.4byte	.LFB137
 6351 12b0 E8000000 		.4byte	.LFE137-.LFB137
 6352 12b4 01       		.uleb128 0x1
 6353 12b5 9C       		.byte	0x9c
 6354 12b6 6C140000 		.4byte	0x146c
 6355 12ba 1E       		.uleb128 0x1e
 6356 12bb 44070000 		.4byte	.LASF114
 6357 12bf 01       		.byte	0x1
 6358 12c0 5704     		.2byte	0x457
 6359 12c2 C3000000 		.4byte	0xc3
 6360 12c6 750B0000 		.4byte	.LLST79
 6361 12ca 1E       		.uleb128 0x1e
 6362 12cb 84030000 		.4byte	.LASF116
 6363 12cf 01       		.byte	0x1
 6364 12d0 5804     		.2byte	0x458
 6365 12d2 E7000000 		.4byte	0xe7
 6366 12d6 AC0B0000 		.4byte	.LLST80
 6367 12da 1E       		.uleb128 0x1e
 6368 12db 15040000 		.4byte	.LASF111
 6369 12df 01       		.byte	0x1
 6370 12e0 5904     		.2byte	0x459
 6371 12e2 9F010000 		.4byte	0x19f
 6372 12e6 E60B0000 		.4byte	.LLST81
ARM GAS  C:\Users\robom\AppData\Local\Temp\ccqs2S2W.s 			page 160


 6373 12ea 2E       		.uleb128 0x2e
 6374 12eb 6C656E00 		.ascii	"len\000"
 6375 12ef 01       		.byte	0x1
 6376 12f0 5A04     		.2byte	0x45a
 6377 12f2 C3000000 		.4byte	0xc3
 6378 12f6 2B0C0000 		.4byte	.LLST82
 6379 12fa 2E       		.uleb128 0x2e
 6380 12fb 73747200 		.ascii	"str\000"
 6381 12ff 01       		.byte	0x1
 6382 1300 5B04     		.2byte	0x45b
 6383 1302 31010000 		.4byte	0x131
 6384 1306 620C0000 		.4byte	.LLST83
 6385 130a 2E       		.uleb128 0x2e
 6386 130b 766C00   		.ascii	"vl\000"
 6387 130e 01       		.byte	0x1
 6388 130f 5C04     		.2byte	0x45c
 6389 1311 6C140000 		.4byte	0x146c
 6390 1315 8E0C0000 		.4byte	.LLST84
 6391 1319 1F       		.uleb128 0x1f
 6392 131a 28090000 		.4byte	.LASF112
 6393 131e 01       		.byte	0x1
 6394 131f 5E04     		.2byte	0x45e
 6395 1321 C3000000 		.4byte	0xc3
 6396 1325 BA0C0000 		.4byte	.LLST85
 6397 1329 1F       		.uleb128 0x1f
 6398 132a 72000000 		.4byte	.LASF113
 6399 132e 01       		.byte	0x1
 6400 132f 5F04     		.2byte	0x45f
 6401 1331 C3000000 		.4byte	0xc3
 6402 1335 F10C0000 		.4byte	.LLST86
 6403 1339 2C       		.uleb128 0x2c
 6404 133a 6900     		.ascii	"i\000"
 6405 133c 01       		.byte	0x1
 6406 133d 6004     		.2byte	0x460
 6407 133f C3000000 		.4byte	0xc3
 6408 1343 040D0000 		.4byte	.LLST87
 6409 1347 1F       		.uleb128 0x1f
 6410 1348 130B0000 		.4byte	.LASF115
 6411 134c 01       		.byte	0x1
 6412 134d 6104     		.2byte	0x461
 6413 134f C3000000 		.4byte	0xc3
 6414 1353 2E0D0000 		.4byte	.LLST88
 6415 1357 28       		.uleb128 0x28
 6416 1358 A1050000 		.4byte	.LASF77
 6417 135c 01       		.byte	0x1
 6418 135d 6204     		.2byte	0x462
 6419 135f FD000000 		.4byte	0xfd
 6420 1363 01       		.uleb128 0x1
 6421 1364 5B       		.byte	0x5b
 6422 1365 31       		.uleb128 0x31
 6423 1366 38000000 		.4byte	.LBB211
 6424 136a 16000000 		.4byte	.LBE211-.LBB211
 6425 136e 83130000 		.4byte	0x1383
 6426 1372 1F       		.uleb128 0x1f
 6427 1373 BC0B0000 		.4byte	.LASF117
 6428 1377 01       		.byte	0x1
 6429 1378 7904     		.2byte	0x479
ARM GAS  C:\Users\robom\AppData\Local\Temp\ccqs2S2W.s 			page 161


 6430 137a FD000000 		.4byte	0xfd
 6431 137e 4D0D0000 		.4byte	.LLST89
 6432 1382 00       		.byte	0
 6433 1383 22       		.uleb128 0x22
 6434 1384 C9040000 		.4byte	0x4c9
 6435 1388 4E000000 		.4byte	.LBB212
 6436 138c 04000000 		.4byte	.LBE212-.LBB212
 6437 1390 01       		.byte	0x1
 6438 1391 8404     		.2byte	0x484
 6439 1393 A7130000 		.4byte	0x13a7
 6440 1397 23       		.uleb128 0x23
 6441 1398 4E000000 		.4byte	.LBB213
 6442 139c 04000000 		.4byte	.LBE213-.LBB213
 6443 13a0 24       		.uleb128 0x24
 6444 13a1 DA040000 		.4byte	0x4da
 6445 13a5 00       		.byte	0
 6446 13a6 00       		.byte	0
 6447 13a7 22       		.uleb128 0x22
 6448 13a8 AF040000 		.4byte	0x4af
 6449 13ac 52000000 		.4byte	.LBB214
 6450 13b0 06000000 		.4byte	.LBE214-.LBB214
 6451 13b4 01       		.byte	0x1
 6452 13b5 8404     		.2byte	0x484
 6453 13b7 C5130000 		.4byte	0x13c5
 6454 13bb 25       		.uleb128 0x25
 6455 13bc BC040000 		.4byte	0x4bc
 6456 13c0 600D0000 		.4byte	.LLST90
 6457 13c4 00       		.byte	0
 6458 13c5 31       		.uleb128 0x31
 6459 13c6 60000000 		.4byte	.LBB216
 6460 13ca 7C000000 		.4byte	.LBE216-.LBB216
 6461 13ce 3E140000 		.4byte	0x143e
 6462 13d2 1B       		.uleb128 0x1b
 6463 13d3 FD080000 		.4byte	.LASF118
 6464 13d7 01       		.byte	0x1
 6465 13d8 8804     		.2byte	0x488
 6466 13da C3000000 		.4byte	0xc3
 6467 13de 23       		.uleb128 0x23
 6468 13df 6E000000 		.4byte	.LBB217
 6469 13e3 6E000000 		.4byte	.LBE217-.LBB217
 6470 13e7 1F       		.uleb128 0x1f
 6471 13e8 35040000 		.4byte	.LASF119
 6472 13ec 01       		.byte	0x1
 6473 13ed 8D04     		.2byte	0x48d
 6474 13ef BE0E0000 		.4byte	0xebe
 6475 13f3 740D0000 		.4byte	.LLST91
 6476 13f7 31       		.uleb128 0x31
 6477 13f8 76000000 		.4byte	.LBB218
 6478 13fc 66000000 		.4byte	.LBE218-.LBB218
 6479 1400 2A140000 		.4byte	0x142a
 6480 1404 1F       		.uleb128 0x1f
 6481 1405 5D010000 		.4byte	.LASF120
 6482 1409 01       		.byte	0x1
 6483 140a 9004     		.2byte	0x490
 6484 140c C0070000 		.4byte	0x7c0
 6485 1410 920D0000 		.4byte	.LLST92
 6486 1414 1B       		.uleb128 0x1b
ARM GAS  C:\Users\robom\AppData\Local\Temp\ccqs2S2W.s 			page 162


 6487 1415 A7000000 		.4byte	.LASF121
 6488 1419 01       		.byte	0x1
 6489 141a 9104     		.2byte	0x491
 6490 141c C6070000 		.4byte	0x7c6
 6491 1420 30       		.uleb128 0x30
 6492 1421 90000000 		.4byte	.LVL241
 6493 1425 E7040000 		.4byte	0x4e7
 6494 1429 00       		.byte	0
 6495 142a 32       		.uleb128 0x32
 6496 142b 74000000 		.4byte	.LVL239
 6497 142f 6E0A0000 		.4byte	0xa6e
 6498 1433 33       		.uleb128 0x33
 6499 1434 01       		.uleb128 0x1
 6500 1435 50       		.byte	0x50
 6501 1436 04       		.uleb128 0x4
 6502 1437 74       		.byte	0x74
 6503 1438 02       		.sleb128 2
 6504 1439 32       		.byte	0x32
 6505 143a 24       		.byte	0x24
 6506 143b 00       		.byte	0
 6507 143c 00       		.byte	0
 6508 143d 00       		.byte	0
 6509 143e 22       		.uleb128 0x22
 6510 143f AF040000 		.4byte	0x4af
 6511 1443 DC000000 		.4byte	.LBB219
 6512 1447 0C000000 		.4byte	.LBE219-.LBB219
 6513 144b 01       		.byte	0x1
 6514 144c B304     		.2byte	0x4b3
 6515 144e 5C140000 		.4byte	0x145c
 6516 1452 25       		.uleb128 0x25
 6517 1453 BC040000 		.4byte	0x4bc
 6518 1457 A50D0000 		.4byte	.LLST93
 6519 145b 00       		.byte	0
 6520 145c 32       		.uleb128 0x32
 6521 145d 12000000 		.4byte	.LVL224
 6522 1461 4E120000 		.4byte	0x124e
 6523 1465 33       		.uleb128 0x33
 6524 1466 01       		.uleb128 0x1
 6525 1467 50       		.byte	0x50
 6526 1468 01       		.uleb128 0x1
 6527 1469 31       		.byte	0x31
 6528 146a 00       		.byte	0
 6529 146b 00       		.byte	0
 6530 146c 08       		.uleb128 0x8
 6531 146d 04       		.byte	0x4
 6532 146e 49000000 		.4byte	0x49
 6533 1472 29       		.uleb128 0x29
 6534 1473 FC0B0000 		.4byte	.LASF141
 6535 1477 01       		.byte	0x1
 6536 1478 C101     		.2byte	0x1c1
 6537 147a 00000000 		.4byte	.LFB116
 6538 147e 66000000 		.4byte	.LFE116-.LFB116
 6539 1482 01       		.uleb128 0x1
 6540 1483 9C       		.byte	0x9c
 6541 1484 31150000 		.4byte	0x1531
 6542 1488 2E       		.uleb128 0x2e
 6543 1489 63686E00 		.ascii	"chn\000"
ARM GAS  C:\Users\robom\AppData\Local\Temp\ccqs2S2W.s 			page 163


 6544 148d 01       		.byte	0x1
 6545 148e C101     		.2byte	0x1c1
 6546 1490 9F010000 		.4byte	0x19f
 6547 1494 B80D0000 		.4byte	.LLST94
 6548 1498 37       		.uleb128 0x37
 6549 1499 666D7400 		.ascii	"fmt\000"
 6550 149d 01       		.byte	0x1
 6551 149e C101     		.2byte	0x1c1
 6552 14a0 31010000 		.4byte	0x131
 6553 14a4 02       		.uleb128 0x2
 6554 14a5 91       		.byte	0x91
 6555 14a6 74       		.sleb128 -12
 6556 14a7 36       		.uleb128 0x36
 6557 14a8 2F       		.uleb128 0x2f
 6558 14a9 766C00   		.ascii	"vl\000"
 6559 14ac 01       		.byte	0x1
 6560 14ad C301     		.2byte	0x1c3
 6561 14af 49000000 		.4byte	0x49
 6562 14b3 02       		.uleb128 0x2
 6563 14b4 91       		.byte	0x91
 6564 14b5 5C       		.sleb128 -36
 6565 14b6 2C       		.uleb128 0x2c
 6566 14b7 6900     		.ascii	"i\000"
 6567 14b9 01       		.byte	0x1
 6568 14ba C401     		.2byte	0x1c4
 6569 14bc C3000000 		.4byte	0xc3
 6570 14c0 080E0000 		.4byte	.LLST95
 6571 14c4 1F       		.uleb128 0x1f
 6572 14c5 44070000 		.4byte	.LASF114
 6573 14c9 01       		.byte	0x1
 6574 14ca C601     		.2byte	0x1c6
 6575 14cc C3000000 		.4byte	0xc3
 6576 14d0 480E0000 		.4byte	.LLST96
 6577 14d4 34       		.uleb128 0x34
 6578 14d5 46000000 		.4byte	.LVL259
 6579 14d9 A4120000 		.4byte	0x12a4
 6580 14dd 04150000 		.4byte	0x1504
 6581 14e1 33       		.uleb128 0x33
 6582 14e2 01       		.uleb128 0x1
 6583 14e3 50       		.byte	0x50
 6584 14e4 02       		.uleb128 0x2
 6585 14e5 76       		.byte	0x76
 6586 14e6 00       		.sleb128 0
 6587 14e7 33       		.uleb128 0x33
 6588 14e8 01       		.uleb128 0x1
 6589 14e9 51       		.byte	0x51
 6590 14ea 03       		.uleb128 0x3
 6591 14eb 76       		.byte	0x76
 6592 14ec 9101     		.sleb128 145
 6593 14ee 33       		.uleb128 0x33
 6594 14ef 01       		.uleb128 0x1
 6595 14f0 52       		.byte	0x52
 6596 14f1 03       		.uleb128 0x3
 6597 14f2 F3       		.byte	0xf3
 6598 14f3 01       		.uleb128 0x1
 6599 14f4 50       		.byte	0x50
 6600 14f5 33       		.uleb128 0x33
ARM GAS  C:\Users\robom\AppData\Local\Temp\ccqs2S2W.s 			page 164


 6601 14f6 02       		.uleb128 0x2
 6602 14f7 7D       		.byte	0x7d
 6603 14f8 00       		.sleb128 0
 6604 14f9 02       		.uleb128 0x2
 6605 14fa 75       		.byte	0x75
 6606 14fb 00       		.sleb128 0
 6607 14fc 33       		.uleb128 0x33
 6608 14fd 02       		.uleb128 0x2
 6609 14fe 7D       		.byte	0x7d
 6610 14ff 04       		.sleb128 4
 6611 1500 02       		.uleb128 0x2
 6612 1501 91       		.byte	0x91
 6613 1502 44       		.sleb128 -60
 6614 1503 00       		.byte	0
 6615 1504 32       		.uleb128 0x32
 6616 1505 5C000000 		.4byte	.LVL262
 6617 1509 A4120000 		.4byte	0x12a4
 6618 150d 33       		.uleb128 0x33
 6619 150e 01       		.uleb128 0x1
 6620 150f 50       		.byte	0x50
 6621 1510 02       		.uleb128 0x2
 6622 1511 76       		.byte	0x76
 6623 1512 00       		.sleb128 0
 6624 1513 33       		.uleb128 0x33
 6625 1514 01       		.uleb128 0x1
 6626 1515 51       		.byte	0x51
 6627 1516 03       		.uleb128 0x3
 6628 1517 76       		.byte	0x76
 6629 1518 9001     		.sleb128 144
 6630 151a 33       		.uleb128 0x33
 6631 151b 01       		.uleb128 0x1
 6632 151c 52       		.byte	0x52
 6633 151d 03       		.uleb128 0x3
 6634 151e F3       		.byte	0xf3
 6635 151f 01       		.uleb128 0x1
 6636 1520 50       		.byte	0x50
 6637 1521 33       		.uleb128 0x33
 6638 1522 02       		.uleb128 0x2
 6639 1523 7D       		.byte	0x7d
 6640 1524 00       		.sleb128 0
 6641 1525 02       		.uleb128 0x2
 6642 1526 75       		.byte	0x75
 6643 1527 00       		.sleb128 0
 6644 1528 33       		.uleb128 0x33
 6645 1529 02       		.uleb128 0x2
 6646 152a 7D       		.byte	0x7d
 6647 152b 04       		.sleb128 4
 6648 152c 02       		.uleb128 0x2
 6649 152d 91       		.byte	0x91
 6650 152e 44       		.sleb128 -60
 6651 152f 00       		.byte	0
 6652 1530 00       		.byte	0
 6653 1531 29       		.uleb128 0x29
 6654 1532 D7040000 		.4byte	.LASF142
 6655 1536 01       		.byte	0x1
 6656 1537 4A04     		.2byte	0x44a
 6657 1539 00000000 		.4byte	.LFB136
ARM GAS  C:\Users\robom\AppData\Local\Temp\ccqs2S2W.s 			page 165


 6658 153d 32000000 		.4byte	.LFE136-.LFB136
 6659 1541 01       		.uleb128 0x1
 6660 1542 9C       		.byte	0x9c
 6661 1543 B3150000 		.4byte	0x15b3
 6662 1547 1E       		.uleb128 0x1e
 6663 1548 44070000 		.4byte	.LASF114
 6664 154c 01       		.byte	0x1
 6665 154d 4A04     		.2byte	0x44a
 6666 154f C3000000 		.4byte	0xc3
 6667 1553 670E0000 		.4byte	.LLST97
 6668 1557 1E       		.uleb128 0x1e
 6669 1558 84030000 		.4byte	.LASF116
 6670 155c 01       		.byte	0x1
 6671 155d 4A04     		.2byte	0x44a
 6672 155f E7000000 		.4byte	0xe7
 6673 1563 880E0000 		.4byte	.LLST98
 6674 1567 37       		.uleb128 0x37
 6675 1568 73747200 		.ascii	"str\000"
 6676 156c 01       		.byte	0x1
 6677 156d 4A04     		.2byte	0x44a
 6678 156f 31010000 		.4byte	0x131
 6679 1573 02       		.uleb128 0x2
 6680 1574 91       		.byte	0x91
 6681 1575 78       		.sleb128 -8
 6682 1576 36       		.uleb128 0x36
 6683 1577 2C       		.uleb128 0x2c
 6684 1578 6C656E00 		.ascii	"len\000"
 6685 157c 01       		.byte	0x1
 6686 157d 4C04     		.2byte	0x44c
 6687 157f C3000000 		.4byte	0xc3
 6688 1583 A90E0000 		.4byte	.LLST99
 6689 1587 2F       		.uleb128 0x2f
 6690 1588 766C00   		.ascii	"vl\000"
 6691 158b 01       		.byte	0x1
 6692 158c 4D04     		.2byte	0x44d
 6693 158e 49000000 		.4byte	0x49
 6694 1592 02       		.uleb128 0x2
 6695 1593 91       		.byte	0x91
 6696 1594 64       		.sleb128 -28
 6697 1595 32       		.uleb128 0x32
 6698 1596 28000000 		.4byte	.LVL268
 6699 159a A4120000 		.4byte	0x12a4
 6700 159e 33       		.uleb128 0x33
 6701 159f 01       		.uleb128 0x1
 6702 15a0 52       		.byte	0x52
 6703 15a1 01       		.uleb128 0x1
 6704 15a2 30       		.byte	0x30
 6705 15a3 33       		.uleb128 0x33
 6706 15a4 02       		.uleb128 0x2
 6707 15a5 7D       		.byte	0x7d
 6708 15a6 00       		.sleb128 0
 6709 15a7 02       		.uleb128 0x2
 6710 15a8 74       		.byte	0x74
 6711 15a9 00       		.sleb128 0
 6712 15aa 33       		.uleb128 0x33
 6713 15ab 02       		.uleb128 0x2
 6714 15ac 7D       		.byte	0x7d
ARM GAS  C:\Users\robom\AppData\Local\Temp\ccqs2S2W.s 			page 166


 6715 15ad 04       		.sleb128 4
 6716 15ae 02       		.uleb128 0x2
 6717 15af 91       		.byte	0x91
 6718 15b0 54       		.sleb128 -44
 6719 15b1 00       		.byte	0
 6720 15b2 00       		.byte	0
 6721 15b3 29       		.uleb128 0x29
 6722 15b4 C4030000 		.4byte	.LASF143
 6723 15b8 01       		.byte	0x1
 6724 15b9 4C01     		.2byte	0x14c
 6725 15bb 00000000 		.4byte	.LFB112
 6726 15bf 18000000 		.4byte	.LFE112-.LFB112
 6727 15c3 01       		.uleb128 0x1
 6728 15c4 9C       		.byte	0x9c
 6729 15c5 24160000 		.4byte	0x1624
 6730 15c9 1E       		.uleb128 0x1e
 6731 15ca 56000000 		.4byte	.LASF144
 6732 15ce 01       		.byte	0x1
 6733 15cf 4C01     		.2byte	0x14c
 6734 15d1 47000000 		.4byte	0x47
 6735 15d5 C80E0000 		.4byte	.LLST100
 6736 15d9 1E       		.uleb128 0x1e
 6737 15da 24040000 		.4byte	.LASF92
 6738 15de 01       		.byte	0x1
 6739 15df 4C01     		.2byte	0x14c
 6740 15e1 31010000 		.4byte	0x131
 6741 15e5 E60E0000 		.4byte	.LLST101
 6742 15e9 34       		.uleb128 0x34
 6743 15ea 0A000000 		.4byte	.LVL270
 6744 15ee E1060000 		.4byte	0x6e1
 6745 15f2 03160000 		.4byte	0x1603
 6746 15f6 33       		.uleb128 0x33
 6747 15f7 01       		.uleb128 0x1
 6748 15f8 50       		.byte	0x50
 6749 15f9 02       		.uleb128 0x2
 6750 15fa 75       		.byte	0x75
 6751 15fb 00       		.sleb128 0
 6752 15fc 33       		.uleb128 0x33
 6753 15fd 01       		.uleb128 0x1
 6754 15fe 51       		.byte	0x51
 6755 15ff 02       		.uleb128 0x2
 6756 1600 74       		.byte	0x74
 6757 1601 00       		.sleb128 0
 6758 1602 00       		.byte	0
 6759 1603 32       		.uleb128 0x32
 6760 1604 16000000 		.4byte	.LVL271
 6761 1608 31150000 		.4byte	0x1531
 6762 160c 33       		.uleb128 0x33
 6763 160d 01       		.uleb128 0x1
 6764 160e 50       		.byte	0x50
 6765 160f 01       		.uleb128 0x1
 6766 1610 31       		.byte	0x31
 6767 1611 33       		.uleb128 0x33
 6768 1612 01       		.uleb128 0x1
 6769 1613 51       		.byte	0x51
 6770 1614 01       		.uleb128 0x1
 6771 1615 33       		.byte	0x33
ARM GAS  C:\Users\robom\AppData\Local\Temp\ccqs2S2W.s 			page 167


 6772 1616 33       		.uleb128 0x33
 6773 1617 01       		.uleb128 0x1
 6774 1618 52       		.byte	0x52
 6775 1619 02       		.uleb128 0x2
 6776 161a 74       		.byte	0x74
 6777 161b 00       		.sleb128 0
 6778 161c 33       		.uleb128 0x33
 6779 161d 01       		.uleb128 0x1
 6780 161e 53       		.byte	0x53
 6781 161f 02       		.uleb128 0x2
 6782 1620 75       		.byte	0x75
 6783 1621 00       		.sleb128 0
 6784 1622 00       		.byte	0
 6785 1623 00       		.byte	0
 6786 1624 2D       		.uleb128 0x2d
 6787 1625 D40A0000 		.4byte	.LASF145
 6788 1629 01       		.byte	0x1
 6789 162a 6B01     		.2byte	0x16b
 6790 162c 9F010000 		.4byte	0x19f
 6791 1630 00000000 		.4byte	.LFB114
 6792 1634 1A000000 		.4byte	.LFE114-.LFB114
 6793 1638 01       		.uleb128 0x1
 6794 1639 9C       		.byte	0x9c
 6795 163a 89160000 		.4byte	0x1689
 6796 163e 1E       		.uleb128 0x1e
 6797 163f 24040000 		.4byte	.LASF92
 6798 1643 01       		.byte	0x1
 6799 1644 6B01     		.2byte	0x16b
 6800 1646 31010000 		.4byte	0x131
 6801 164a 040F0000 		.4byte	.LLST102
 6802 164e 34       		.uleb128 0x34
 6803 164f 0A000000 		.4byte	.LVL273
 6804 1653 E1060000 		.4byte	0x6e1
 6805 1657 68160000 		.4byte	0x1668
 6806 165b 33       		.uleb128 0x33
 6807 165c 01       		.uleb128 0x1
 6808 165d 50       		.byte	0x50
 6809 165e 02       		.uleb128 0x2
 6810 165f 74       		.byte	0x74
 6811 1660 00       		.sleb128 0
 6812 1661 33       		.uleb128 0x33
 6813 1662 01       		.uleb128 0x1
 6814 1663 51       		.byte	0x51
 6815 1664 02       		.uleb128 0x2
 6816 1665 74       		.byte	0x74
 6817 1666 00       		.sleb128 0
 6818 1667 00       		.byte	0
 6819 1668 32       		.uleb128 0x32
 6820 1669 16000000 		.4byte	.LVL274
 6821 166d 31150000 		.4byte	0x1531
 6822 1671 33       		.uleb128 0x33
 6823 1672 01       		.uleb128 0x1
 6824 1673 50       		.byte	0x50
 6825 1674 01       		.uleb128 0x1
 6826 1675 31       		.byte	0x31
 6827 1676 33       		.uleb128 0x33
 6828 1677 01       		.uleb128 0x1
ARM GAS  C:\Users\robom\AppData\Local\Temp\ccqs2S2W.s 			page 168


 6829 1678 51       		.byte	0x51
 6830 1679 01       		.uleb128 0x1
 6831 167a 33       		.byte	0x33
 6832 167b 33       		.uleb128 0x33
 6833 167c 01       		.uleb128 0x1
 6834 167d 52       		.byte	0x52
 6835 167e 02       		.uleb128 0x2
 6836 167f 74       		.byte	0x74
 6837 1680 00       		.sleb128 0
 6838 1681 33       		.uleb128 0x33
 6839 1682 01       		.uleb128 0x1
 6840 1683 53       		.byte	0x53
 6841 1684 02       		.uleb128 0x2
 6842 1685 74       		.byte	0x74
 6843 1686 00       		.sleb128 0
 6844 1687 00       		.byte	0
 6845 1688 00       		.byte	0
 6846 1689 2D       		.uleb128 0x2d
 6847 168a C90C0000 		.4byte	.LASF146
 6848 168e 01       		.byte	0x1
 6849 168f F701     		.2byte	0x1f7
 6850 1691 AA010000 		.4byte	0x1aa
 6851 1695 00000000 		.4byte	.LFB117
 6852 1699 28000000 		.4byte	.LFE117-.LFB117
 6853 169d 01       		.uleb128 0x1
 6854 169e 9C       		.byte	0x9c
 6855 169f 1F170000 		.4byte	0x171f
 6856 16a3 1E       		.uleb128 0x1e
 6857 16a4 24040000 		.4byte	.LASF92
 6858 16a8 01       		.byte	0x1
 6859 16a9 F701     		.2byte	0x1f7
 6860 16ab 31010000 		.4byte	0x131
 6861 16af 220F0000 		.4byte	.LLST103
 6862 16b3 1E       		.uleb128 0x1e
 6863 16b4 500A0000 		.4byte	.LASF147
 6864 16b8 01       		.byte	0x1
 6865 16b9 F701     		.2byte	0x1f7
 6866 16bb DC000000 		.4byte	0xdc
 6867 16bf 400F0000 		.4byte	.LLST104
 6868 16c3 34       		.uleb128 0x34
 6869 16c4 0C000000 		.4byte	.LVL276
 6870 16c8 97080000 		.4byte	0x897
 6871 16cc DD160000 		.4byte	0x16dd
 6872 16d0 33       		.uleb128 0x33
 6873 16d1 01       		.uleb128 0x1
 6874 16d2 50       		.byte	0x50
 6875 16d3 02       		.uleb128 0x2
 6876 16d4 74       		.byte	0x74
 6877 16d5 00       		.sleb128 0
 6878 16d6 33       		.uleb128 0x33
 6879 16d7 01       		.uleb128 0x1
 6880 16d8 51       		.byte	0x51
 6881 16d9 02       		.uleb128 0x2
 6882 16da 75       		.byte	0x75
 6883 16db 00       		.sleb128 0
 6884 16dc 00       		.byte	0
 6885 16dd 34       		.uleb128 0x34
ARM GAS  C:\Users\robom\AppData\Local\Temp\ccqs2S2W.s 			page 169


 6886 16de 1A000000 		.4byte	.LVL277
 6887 16e2 31150000 		.4byte	0x1531
 6888 16e6 08170000 		.4byte	0x1708
 6889 16ea 33       		.uleb128 0x33
 6890 16eb 01       		.uleb128 0x1
 6891 16ec 50       		.byte	0x50
 6892 16ed 01       		.uleb128 0x1
 6893 16ee 32       		.byte	0x32
 6894 16ef 33       		.uleb128 0x33
 6895 16f0 01       		.uleb128 0x1
 6896 16f1 51       		.byte	0x51
 6897 16f2 01       		.uleb128 0x1
 6898 16f3 37       		.byte	0x37
 6899 16f4 33       		.uleb128 0x33
 6900 16f5 01       		.uleb128 0x1
 6901 16f6 52       		.byte	0x52
 6902 16f7 02       		.uleb128 0x2
 6903 16f8 74       		.byte	0x74
 6904 16f9 00       		.sleb128 0
 6905 16fa 33       		.uleb128 0x33
 6906 16fb 01       		.uleb128 0x1
 6907 16fc 53       		.byte	0x53
 6908 16fd 02       		.uleb128 0x2
 6909 16fe 74       		.byte	0x74
 6910 16ff 00       		.sleb128 0
 6911 1700 33       		.uleb128 0x33
 6912 1701 02       		.uleb128 0x2
 6913 1702 7D       		.byte	0x7d
 6914 1703 00       		.sleb128 0
 6915 1704 02       		.uleb128 0x2
 6916 1705 75       		.byte	0x75
 6917 1706 00       		.sleb128 0
 6918 1707 00       		.byte	0
 6919 1708 32       		.uleb128 0x32
 6920 1709 22000000 		.4byte	.LVL278
 6921 170d E1060000 		.4byte	0x6e1
 6922 1711 33       		.uleb128 0x33
 6923 1712 01       		.uleb128 0x1
 6924 1713 50       		.byte	0x50
 6925 1714 02       		.uleb128 0x2
 6926 1715 74       		.byte	0x74
 6927 1716 00       		.sleb128 0
 6928 1717 33       		.uleb128 0x33
 6929 1718 01       		.uleb128 0x1
 6930 1719 51       		.byte	0x51
 6931 171a 02       		.uleb128 0x2
 6932 171b 74       		.byte	0x74
 6933 171c 00       		.sleb128 0
 6934 171d 00       		.byte	0
 6935 171e 00       		.byte	0
 6936 171f 29       		.uleb128 0x29
 6937 1720 66040000 		.4byte	.LASF148
 6938 1724 01       		.byte	0x1
 6939 1725 AD03     		.2byte	0x3ad
 6940 1727 00000000 		.4byte	.LFB131
 6941 172b 54000000 		.4byte	.LFE131-.LFB131
 6942 172f 01       		.uleb128 0x1
ARM GAS  C:\Users\robom\AppData\Local\Temp\ccqs2S2W.s 			page 170


 6943 1730 9C       		.byte	0x9c
 6944 1731 FD170000 		.4byte	0x17fd
 6945 1735 1E       		.uleb128 0x1e
 6946 1736 84030000 		.4byte	.LASF116
 6947 173a 01       		.byte	0x1
 6948 173b AD03     		.2byte	0x3ad
 6949 173d E7000000 		.4byte	0xe7
 6950 1741 610F0000 		.4byte	.LLST105
 6951 1745 28       		.uleb128 0x28
 6952 1746 A1050000 		.4byte	.LASF77
 6953 174a 01       		.byte	0x1
 6954 174b AF03     		.2byte	0x3af
 6955 174d FD000000 		.4byte	0xfd
 6956 1751 01       		.uleb128 0x1
 6957 1752 55       		.byte	0x55
 6958 1753 22       		.uleb128 0x22
 6959 1754 C9040000 		.4byte	0x4c9
 6960 1758 12000000 		.4byte	.LBB221
 6961 175c 04000000 		.4byte	.LBE221-.LBB221
 6962 1760 01       		.byte	0x1
 6963 1761 B303     		.2byte	0x3b3
 6964 1763 77170000 		.4byte	0x1777
 6965 1767 23       		.uleb128 0x23
 6966 1768 12000000 		.4byte	.LBB222
 6967 176c 04000000 		.4byte	.LBE222-.LBB222
 6968 1770 24       		.uleb128 0x24
 6969 1771 DA040000 		.4byte	0x4da
 6970 1775 00       		.byte	0
 6971 1776 00       		.byte	0
 6972 1777 22       		.uleb128 0x22
 6973 1778 AF040000 		.4byte	0x4af
 6974 177c 16000000 		.4byte	.LBB223
 6975 1780 06000000 		.4byte	.LBE223-.LBB223
 6976 1784 01       		.byte	0x1
 6977 1785 B303     		.2byte	0x3b3
 6978 1787 95170000 		.4byte	0x1795
 6979 178b 25       		.uleb128 0x25
 6980 178c BC040000 		.4byte	0x4bc
 6981 1790 9B0F0000 		.4byte	.LLST106
 6982 1794 00       		.byte	0
 6983 1795 31       		.uleb128 0x31
 6984 1796 2E000000 		.4byte	.LBB225
 6985 179a 1A000000 		.4byte	.LBE225-.LBB225
 6986 179e CF170000 		.4byte	0x17cf
 6987 17a2 1F       		.uleb128 0x1f
 6988 17a3 35040000 		.4byte	.LASF119
 6989 17a7 01       		.byte	0x1
 6990 17a8 BA03     		.2byte	0x3ba
 6991 17aa FD170000 		.4byte	0x17fd
 6992 17ae AF0F0000 		.4byte	.LLST107
 6993 17b2 34       		.uleb128 0x34
 6994 17b3 34000000 		.4byte	.LVL286
 6995 17b7 6E0A0000 		.4byte	0xa6e
 6996 17bb C5170000 		.4byte	0x17c5
 6997 17bf 33       		.uleb128 0x33
 6998 17c0 01       		.uleb128 0x1
 6999 17c1 50       		.byte	0x50
ARM GAS  C:\Users\robom\AppData\Local\Temp\ccqs2S2W.s 			page 171


 7000 17c2 01       		.uleb128 0x1
 7001 17c3 38       		.byte	0x38
 7002 17c4 00       		.byte	0
 7003 17c5 30       		.uleb128 0x30
 7004 17c6 46000000 		.4byte	.LVL287
 7005 17ca E7040000 		.4byte	0x4e7
 7006 17ce 00       		.byte	0
 7007 17cf 22       		.uleb128 0x22
 7008 17d0 AF040000 		.4byte	0x4af
 7009 17d4 48000000 		.4byte	.LBB226
 7010 17d8 0C000000 		.4byte	.LBE226-.LBB226
 7011 17dc 01       		.byte	0x1
 7012 17dd C403     		.2byte	0x3c4
 7013 17df ED170000 		.4byte	0x17ed
 7014 17e3 25       		.uleb128 0x25
 7015 17e4 BC040000 		.4byte	0x4bc
 7016 17e8 CD0F0000 		.4byte	.LLST108
 7017 17ec 00       		.byte	0
 7018 17ed 32       		.uleb128 0x32
 7019 17ee 0E000000 		.4byte	.LVL281
 7020 17f2 4E120000 		.4byte	0x124e
 7021 17f6 33       		.uleb128 0x33
 7022 17f7 01       		.uleb128 0x1
 7023 17f8 50       		.byte	0x50
 7024 17f9 01       		.uleb128 0x1
 7025 17fa 31       		.byte	0x31
 7026 17fb 00       		.byte	0
 7027 17fc 00       		.byte	0
 7028 17fd 08       		.uleb128 0x8
 7029 17fe 04       		.byte	0x4
 7030 17ff 5F020000 		.4byte	0x25f
 7031 1803 29       		.uleb128 0x29
 7032 1804 E4060000 		.4byte	.LASF149
 7033 1808 01       		.byte	0x1
 7034 1809 2F01     		.2byte	0x12f
 7035 180b 00000000 		.4byte	.LFB110
 7036 180f 0A000000 		.4byte	.LFE110-.LFB110
 7037 1813 01       		.uleb128 0x1
 7038 1814 9C       		.byte	0x9c
 7039 1815 2A180000 		.4byte	0x182a
 7040 1819 32       		.uleb128 0x32
 7041 181a 08000000 		.4byte	.LVL290
 7042 181e 1F170000 		.4byte	0x171f
 7043 1822 33       		.uleb128 0x33
 7044 1823 01       		.uleb128 0x1
 7045 1824 50       		.byte	0x50
 7046 1825 02       		.uleb128 0x2
 7047 1826 08       		.byte	0x8
 7048 1827 3D       		.byte	0x3d
 7049 1828 00       		.byte	0
 7050 1829 00       		.byte	0
 7051 182a 29       		.uleb128 0x29
 7052 182b 510C0000 		.4byte	.LASF150
 7053 182f 01       		.byte	0x1
 7054 1830 3F01     		.2byte	0x13f
 7055 1832 00000000 		.4byte	.LFB111
 7056 1836 0A000000 		.4byte	.LFE111-.LFB111
ARM GAS  C:\Users\robom\AppData\Local\Temp\ccqs2S2W.s 			page 172


 7057 183a 01       		.uleb128 0x1
 7058 183b 9C       		.byte	0x9c
 7059 183c 51180000 		.4byte	0x1851
 7060 1840 32       		.uleb128 0x32
 7061 1841 08000000 		.4byte	.LVL291
 7062 1845 1F170000 		.4byte	0x171f
 7063 1849 33       		.uleb128 0x33
 7064 184a 01       		.uleb128 0x1
 7065 184b 50       		.byte	0x50
 7066 184c 02       		.uleb128 0x2
 7067 184d 08       		.byte	0x8
 7068 184e 3C       		.byte	0x3c
 7069 184f 00       		.byte	0
 7070 1850 00       		.byte	0
 7071 1851 29       		.uleb128 0x29
 7072 1852 7A040000 		.4byte	.LASF151
 7073 1856 01       		.byte	0x1
 7074 1857 C803     		.2byte	0x3c8
 7075 1859 00000000 		.4byte	.LFB132
 7076 185d 5C000000 		.4byte	.LFE132-.LFB132
 7077 1861 01       		.uleb128 0x1
 7078 1862 9C       		.byte	0x9c
 7079 1863 3F190000 		.4byte	0x193f
 7080 1867 1E       		.uleb128 0x1e
 7081 1868 84030000 		.4byte	.LASF116
 7082 186c 01       		.byte	0x1
 7083 186d C803     		.2byte	0x3c8
 7084 186f E7000000 		.4byte	0xe7
 7085 1873 E00F0000 		.4byte	.LLST109
 7086 1877 1E       		.uleb128 0x1e
 7087 1878 A6070000 		.4byte	.LASF34
 7088 187c 01       		.byte	0x1
 7089 187d C803     		.2byte	0x3c8
 7090 187f FD000000 		.4byte	0xfd
 7091 1883 1A100000 		.4byte	.LLST110
 7092 1887 28       		.uleb128 0x28
 7093 1888 A1050000 		.4byte	.LASF77
 7094 188c 01       		.byte	0x1
 7095 188d CA03     		.2byte	0x3ca
 7096 188f FD000000 		.4byte	0xfd
 7097 1893 01       		.uleb128 0x1
 7098 1894 55       		.byte	0x55
 7099 1895 22       		.uleb128 0x22
 7100 1896 C9040000 		.4byte	0x4c9
 7101 189a 14000000 		.4byte	.LBB228
 7102 189e 04000000 		.4byte	.LBE228-.LBB228
 7103 18a2 01       		.byte	0x1
 7104 18a3 CE03     		.2byte	0x3ce
 7105 18a5 B9180000 		.4byte	0x18b9
 7106 18a9 23       		.uleb128 0x23
 7107 18aa 14000000 		.4byte	.LBB229
 7108 18ae 04000000 		.4byte	.LBE229-.LBB229
 7109 18b2 24       		.uleb128 0x24
 7110 18b3 DA040000 		.4byte	0x4da
 7111 18b7 00       		.byte	0
 7112 18b8 00       		.byte	0
 7113 18b9 22       		.uleb128 0x22
ARM GAS  C:\Users\robom\AppData\Local\Temp\ccqs2S2W.s 			page 173


 7114 18ba AF040000 		.4byte	0x4af
 7115 18be 18000000 		.4byte	.LBB230
 7116 18c2 06000000 		.4byte	.LBE230-.LBB230
 7117 18c6 01       		.byte	0x1
 7118 18c7 CE03     		.2byte	0x3ce
 7119 18c9 D7180000 		.4byte	0x18d7
 7120 18cd 25       		.uleb128 0x25
 7121 18ce BC040000 		.4byte	0x4bc
 7122 18d2 5F100000 		.4byte	.LLST111
 7123 18d6 00       		.byte	0
 7124 18d7 31       		.uleb128 0x31
 7125 18d8 30000000 		.4byte	.LBB232
 7126 18dc 20000000 		.4byte	.LBE232-.LBB232
 7127 18e0 11190000 		.4byte	0x1911
 7128 18e4 1F       		.uleb128 0x1f
 7129 18e5 35040000 		.4byte	.LASF119
 7130 18e9 01       		.byte	0x1
 7131 18ea D503     		.2byte	0x3d5
 7132 18ec 3F190000 		.4byte	0x193f
 7133 18f0 73100000 		.4byte	.LLST112
 7134 18f4 34       		.uleb128 0x34
 7135 18f5 36000000 		.4byte	.LVL299
 7136 18f9 6E0A0000 		.4byte	0xa6e
 7137 18fd 07190000 		.4byte	0x1907
 7138 1901 33       		.uleb128 0x33
 7139 1902 01       		.uleb128 0x1
 7140 1903 50       		.byte	0x50
 7141 1904 01       		.uleb128 0x1
 7142 1905 3C       		.byte	0x3c
 7143 1906 00       		.byte	0
 7144 1907 30       		.uleb128 0x30
 7145 1908 4C000000 		.4byte	.LVL300
 7146 190c E7040000 		.4byte	0x4e7
 7147 1910 00       		.byte	0
 7148 1911 22       		.uleb128 0x22
 7149 1912 AF040000 		.4byte	0x4af
 7150 1916 50000000 		.4byte	.LBB233
 7151 191a 0C000000 		.4byte	.LBE233-.LBB233
 7152 191e 01       		.byte	0x1
 7153 191f E003     		.2byte	0x3e0
 7154 1921 2F190000 		.4byte	0x192f
 7155 1925 25       		.uleb128 0x25
 7156 1926 BC040000 		.4byte	0x4bc
 7157 192a 91100000 		.4byte	.LLST113
 7158 192e 00       		.byte	0
 7159 192f 32       		.uleb128 0x32
 7160 1930 0E000000 		.4byte	.LVL294
 7161 1934 4E120000 		.4byte	0x124e
 7162 1938 33       		.uleb128 0x33
 7163 1939 01       		.uleb128 0x1
 7164 193a 50       		.byte	0x50
 7165 193b 01       		.uleb128 0x1
 7166 193c 31       		.byte	0x31
 7167 193d 00       		.byte	0
 7168 193e 00       		.byte	0
 7169 193f 08       		.uleb128 0x8
 7170 1940 04       		.byte	0x4
ARM GAS  C:\Users\robom\AppData\Local\Temp\ccqs2S2W.s 			page 174


 7171 1941 8B020000 		.4byte	0x28b
 7172 1945 29       		.uleb128 0x29
 7173 1946 AD000000 		.4byte	.LASF152
 7174 194a 01       		.byte	0x1
 7175 194b 4A02     		.2byte	0x24a
 7176 194d 00000000 		.4byte	.LFB119
 7177 1951 64000000 		.4byte	.LFE119-.LFB119
 7178 1955 01       		.uleb128 0x1
 7179 1956 9C       		.byte	0x9c
 7180 1957 301A0000 		.4byte	0x1a30
 7181 195b 1E       		.uleb128 0x1e
 7182 195c 5F020000 		.4byte	.LASF153
 7183 1960 01       		.byte	0x1
 7184 1961 4A02     		.2byte	0x24a
 7185 1963 C3000000 		.4byte	0xc3
 7186 1967 A4100000 		.4byte	.LLST114
 7187 196b 28       		.uleb128 0x28
 7188 196c A1050000 		.4byte	.LASF77
 7189 1970 01       		.byte	0x1
 7190 1971 4C02     		.2byte	0x24c
 7191 1973 FD000000 		.4byte	0xfd
 7192 1977 01       		.uleb128 0x1
 7193 1978 54       		.byte	0x54
 7194 1979 22       		.uleb128 0x22
 7195 197a C9040000 		.4byte	0x4c9
 7196 197e 02000000 		.4byte	.LBB235
 7197 1982 04000000 		.4byte	.LBE235-.LBB235
 7198 1986 01       		.byte	0x1
 7199 1987 4E02     		.2byte	0x24e
 7200 1989 9D190000 		.4byte	0x199d
 7201 198d 23       		.uleb128 0x23
 7202 198e 02000000 		.4byte	.LBB236
 7203 1992 04000000 		.4byte	.LBE236-.LBB236
 7204 1996 24       		.uleb128 0x24
 7205 1997 DA040000 		.4byte	0x4da
 7206 199b 00       		.byte	0
 7207 199c 00       		.byte	0
 7208 199d 22       		.uleb128 0x22
 7209 199e AF040000 		.4byte	0x4af
 7210 19a2 06000000 		.4byte	.LBB237
 7211 19a6 06000000 		.4byte	.LBE237-.LBB237
 7212 19aa 01       		.byte	0x1
 7213 19ab 4E02     		.2byte	0x24e
 7214 19ad BB190000 		.4byte	0x19bb
 7215 19b1 25       		.uleb128 0x25
 7216 19b2 BC040000 		.4byte	0x4bc
 7217 19b6 C5100000 		.4byte	.LLST115
 7218 19ba 00       		.byte	0
 7219 19bb 31       		.uleb128 0x31
 7220 19bc 4A000000 		.4byte	.LBB239
 7221 19c0 0C000000 		.4byte	.LBE239-.LBB239
 7222 19c4 F4190000 		.4byte	0x19f4
 7223 19c8 35       		.uleb128 0x35
 7224 19c9 FC040000 		.4byte	.LASF154
 7225 19cd 01       		.byte	0x1
 7226 19ce 6602     		.2byte	0x266
 7227 19d0 C3000000 		.4byte	0xc3
ARM GAS  C:\Users\robom\AppData\Local\Temp\ccqs2S2W.s 			page 175


 7228 19d4 DA190000 		.4byte	0x19da
 7229 19d8 36       		.uleb128 0x36
 7230 19d9 00       		.byte	0
 7231 19da 30       		.uleb128 0x30
 7232 19db 4E000000 		.4byte	.LVL309
 7233 19df 24210000 		.4byte	0x2124
 7234 19e3 32       		.uleb128 0x32
 7235 19e4 56000000 		.4byte	.LVL310
 7236 19e8 51180000 		.4byte	0x1851
 7237 19ec 33       		.uleb128 0x33
 7238 19ed 01       		.uleb128 0x1
 7239 19ee 50       		.byte	0x50
 7240 19ef 02       		.uleb128 0x2
 7241 19f0 08       		.byte	0x8
 7242 19f1 36       		.byte	0x36
 7243 19f2 00       		.byte	0
 7244 19f3 00       		.byte	0
 7245 19f4 22       		.uleb128 0x22
 7246 19f5 AF040000 		.4byte	0x4af
 7247 19f9 56000000 		.4byte	.LBB240
 7248 19fd 0E000000 		.4byte	.LBE240-.LBB240
 7249 1a01 01       		.byte	0x1
 7250 1a02 6B02     		.2byte	0x26b
 7251 1a04 121A0000 		.4byte	0x1a12
 7252 1a08 25       		.uleb128 0x25
 7253 1a09 BC040000 		.4byte	0x4bc
 7254 1a0d D9100000 		.4byte	.LLST116
 7255 1a11 00       		.byte	0
 7256 1a12 34       		.uleb128 0x34
 7257 1a13 3A000000 		.4byte	.LVL307
 7258 1a17 51180000 		.4byte	0x1851
 7259 1a1b 261A0000 		.4byte	0x1a26
 7260 1a1f 33       		.uleb128 0x33
 7261 1a20 01       		.uleb128 0x1
 7262 1a21 50       		.byte	0x50
 7263 1a22 02       		.uleb128 0x2
 7264 1a23 08       		.byte	0x8
 7265 1a24 34       		.byte	0x34
 7266 1a25 00       		.byte	0
 7267 1a26 30       		.uleb128 0x30
 7268 1a27 48000000 		.4byte	.LVL308
 7269 1a2b 30210000 		.4byte	0x2130
 7270 1a2f 00       		.byte	0
 7271 1a30 29       		.uleb128 0x29
 7272 1a31 F6090000 		.4byte	.LASF155
 7273 1a35 01       		.byte	0x1
 7274 1a36 1802     		.2byte	0x218
 7275 1a38 00000000 		.4byte	.LFB118
 7276 1a3c 58000000 		.4byte	.LFE118-.LFB118
 7277 1a40 01       		.uleb128 0x1
 7278 1a41 9C       		.byte	0x9c
 7279 1a42 0D1B0000 		.4byte	0x1b0d
 7280 1a46 1E       		.uleb128 0x1e
 7281 1a47 79050000 		.4byte	.LASF156
 7282 1a4b 01       		.byte	0x1
 7283 1a4c 1802     		.2byte	0x218
 7284 1a4e AA010000 		.4byte	0x1aa
ARM GAS  C:\Users\robom\AppData\Local\Temp\ccqs2S2W.s 			page 176


 7285 1a52 EC100000 		.4byte	.LLST117
 7286 1a56 28       		.uleb128 0x28
 7287 1a57 A1050000 		.4byte	.LASF77
 7288 1a5b 01       		.byte	0x1
 7289 1a5c 1A02     		.2byte	0x21a
 7290 1a5e FD000000 		.4byte	0xfd
 7291 1a62 01       		.uleb128 0x1
 7292 1a63 54       		.byte	0x54
 7293 1a64 22       		.uleb128 0x22
 7294 1a65 C9040000 		.4byte	0x4c9
 7295 1a69 02000000 		.4byte	.LBB242
 7296 1a6d 04000000 		.4byte	.LBE242-.LBB242
 7297 1a71 01       		.byte	0x1
 7298 1a72 1C02     		.2byte	0x21c
 7299 1a74 881A0000 		.4byte	0x1a88
 7300 1a78 23       		.uleb128 0x23
 7301 1a79 02000000 		.4byte	.LBB243
 7302 1a7d 04000000 		.4byte	.LBE243-.LBB243
 7303 1a81 24       		.uleb128 0x24
 7304 1a82 DA040000 		.4byte	0x4da
 7305 1a86 00       		.byte	0
 7306 1a87 00       		.byte	0
 7307 1a88 22       		.uleb128 0x22
 7308 1a89 AF040000 		.4byte	0x4af
 7309 1a8d 06000000 		.4byte	.LBB244
 7310 1a91 06000000 		.4byte	.LBE244-.LBB244
 7311 1a95 01       		.byte	0x1
 7312 1a96 1C02     		.2byte	0x21c
 7313 1a98 A61A0000 		.4byte	0x1aa6
 7314 1a9c 25       		.uleb128 0x25
 7315 1a9d BC040000 		.4byte	0x4bc
 7316 1aa1 31110000 		.4byte	.LLST118
 7317 1aa5 00       		.byte	0
 7318 1aa6 22       		.uleb128 0x22
 7319 1aa7 AF040000 		.4byte	0x4af
 7320 1aab 3E000000 		.4byte	.LBB246
 7321 1aaf 06000000 		.4byte	.LBE246-.LBB246
 7322 1ab3 01       		.byte	0x1
 7323 1ab4 2A02     		.2byte	0x22a
 7324 1ab6 C41A0000 		.4byte	0x1ac4
 7325 1aba 25       		.uleb128 0x25
 7326 1abb BC040000 		.4byte	0x4bc
 7327 1abf 45110000 		.4byte	.LLST119
 7328 1ac3 00       		.byte	0
 7329 1ac4 22       		.uleb128 0x22
 7330 1ac5 AF040000 		.4byte	0x4af
 7331 1ac9 44000000 		.4byte	.LBB248
 7332 1acd 04000000 		.4byte	.LBE248-.LBB248
 7333 1ad1 01       		.byte	0x1
 7334 1ad2 2E02     		.2byte	0x22e
 7335 1ad4 E21A0000 		.4byte	0x1ae2
 7336 1ad8 25       		.uleb128 0x25
 7337 1ad9 BC040000 		.4byte	0x4bc
 7338 1add 58110000 		.4byte	.LLST120
 7339 1ae1 00       		.byte	0
 7340 1ae2 34       		.uleb128 0x34
 7341 1ae3 3E000000 		.4byte	.LVL316
ARM GAS  C:\Users\robom\AppData\Local\Temp\ccqs2S2W.s 			page 177


 7342 1ae7 51180000 		.4byte	0x1851
 7343 1aeb FD1A0000 		.4byte	0x1afd
 7344 1aef 33       		.uleb128 0x33
 7345 1af0 01       		.uleb128 0x1
 7346 1af1 50       		.byte	0x50
 7347 1af2 02       		.uleb128 0x2
 7348 1af3 08       		.byte	0x8
 7349 1af4 33       		.byte	0x33
 7350 1af5 33       		.uleb128 0x33
 7351 1af6 01       		.uleb128 0x1
 7352 1af7 51       		.byte	0x51
 7353 1af8 03       		.uleb128 0x3
 7354 1af9 F3       		.byte	0xf3
 7355 1afa 01       		.uleb128 0x1
 7356 1afb 50       		.byte	0x50
 7357 1afc 00       		.byte	0
 7358 1afd 32       		.uleb128 0x32
 7359 1afe 4E000000 		.4byte	.LVL320
 7360 1b02 4E120000 		.4byte	0x124e
 7361 1b06 33       		.uleb128 0x33
 7362 1b07 01       		.uleb128 0x1
 7363 1b08 50       		.byte	0x50
 7364 1b09 01       		.uleb128 0x1
 7365 1b0a 32       		.byte	0x32
 7366 1b0b 00       		.byte	0
 7367 1b0c 00       		.byte	0
 7368 1b0d 29       		.uleb128 0x29
 7369 1b0e 8E040000 		.4byte	.LASF157
 7370 1b12 01       		.byte	0x1
 7371 1b13 E403     		.2byte	0x3e4
 7372 1b15 00000000 		.4byte	.LFB133
 7373 1b19 6C000000 		.4byte	.LFE133-.LFB133
 7374 1b1d 01       		.uleb128 0x1
 7375 1b1e 9C       		.byte	0x9c
 7376 1b1f 0B1C0000 		.4byte	0x1c0b
 7377 1b23 1E       		.uleb128 0x1e
 7378 1b24 84030000 		.4byte	.LASF116
 7379 1b28 01       		.byte	0x1
 7380 1b29 E403     		.2byte	0x3e4
 7381 1b2b E7000000 		.4byte	0xe7
 7382 1b2f 6B110000 		.4byte	.LLST121
 7383 1b33 1E       		.uleb128 0x1e
 7384 1b34 A6070000 		.4byte	.LASF34
 7385 1b38 01       		.byte	0x1
 7386 1b39 E403     		.2byte	0x3e4
 7387 1b3b FD000000 		.4byte	0xfd
 7388 1b3f A5110000 		.4byte	.LLST122
 7389 1b43 1E       		.uleb128 0x1e
 7390 1b44 230D0000 		.4byte	.LASF35
 7391 1b48 01       		.byte	0x1
 7392 1b49 E403     		.2byte	0x3e4
 7393 1b4b FD000000 		.4byte	0xfd
 7394 1b4f EA110000 		.4byte	.LLST123
 7395 1b53 28       		.uleb128 0x28
 7396 1b54 A1050000 		.4byte	.LASF77
 7397 1b58 01       		.byte	0x1
 7398 1b59 E603     		.2byte	0x3e6
ARM GAS  C:\Users\robom\AppData\Local\Temp\ccqs2S2W.s 			page 178


 7399 1b5b FD000000 		.4byte	0xfd
 7400 1b5f 01       		.uleb128 0x1
 7401 1b60 55       		.byte	0x55
 7402 1b61 22       		.uleb128 0x22
 7403 1b62 C9040000 		.4byte	0x4c9
 7404 1b66 1A000000 		.4byte	.LBB250
 7405 1b6a 04000000 		.4byte	.LBE250-.LBB250
 7406 1b6e 01       		.byte	0x1
 7407 1b6f EA03     		.2byte	0x3ea
 7408 1b71 851B0000 		.4byte	0x1b85
 7409 1b75 23       		.uleb128 0x23
 7410 1b76 1A000000 		.4byte	.LBB251
 7411 1b7a 04000000 		.4byte	.LBE251-.LBB251
 7412 1b7e 24       		.uleb128 0x24
 7413 1b7f DA040000 		.4byte	0x4da
 7414 1b83 00       		.byte	0
 7415 1b84 00       		.byte	0
 7416 1b85 22       		.uleb128 0x22
 7417 1b86 AF040000 		.4byte	0x4af
 7418 1b8a 1E000000 		.4byte	.LBB252
 7419 1b8e 06000000 		.4byte	.LBE252-.LBB252
 7420 1b92 01       		.byte	0x1
 7421 1b93 EA03     		.2byte	0x3ea
 7422 1b95 A31B0000 		.4byte	0x1ba3
 7423 1b99 25       		.uleb128 0x25
 7424 1b9a BC040000 		.4byte	0x4bc
 7425 1b9e 2F120000 		.4byte	.LLST124
 7426 1ba2 00       		.byte	0
 7427 1ba3 31       		.uleb128 0x31
 7428 1ba4 36000000 		.4byte	.LBB254
 7429 1ba8 28000000 		.4byte	.LBE254-.LBB254
 7430 1bac DD1B0000 		.4byte	0x1bdd
 7431 1bb0 1F       		.uleb128 0x1f
 7432 1bb1 35040000 		.4byte	.LASF119
 7433 1bb5 01       		.byte	0x1
 7434 1bb6 F103     		.2byte	0x3f1
 7435 1bb8 0B1C0000 		.4byte	0x1c0b
 7436 1bbc 43120000 		.4byte	.LLST125
 7437 1bc0 34       		.uleb128 0x34
 7438 1bc1 3C000000 		.4byte	.LVL329
 7439 1bc5 6E0A0000 		.4byte	0xa6e
 7440 1bc9 D31B0000 		.4byte	0x1bd3
 7441 1bcd 33       		.uleb128 0x33
 7442 1bce 01       		.uleb128 0x1
 7443 1bcf 50       		.byte	0x50
 7444 1bd0 01       		.uleb128 0x1
 7445 1bd1 40       		.byte	0x40
 7446 1bd2 00       		.byte	0
 7447 1bd3 30       		.uleb128 0x30
 7448 1bd4 52000000 		.4byte	.LVL330
 7449 1bd8 E7040000 		.4byte	0x4e7
 7450 1bdc 00       		.byte	0
 7451 1bdd 22       		.uleb128 0x22
 7452 1bde AF040000 		.4byte	0x4af
 7453 1be2 5E000000 		.4byte	.LBB255
 7454 1be6 0E000000 		.4byte	.LBE255-.LBB255
 7455 1bea 01       		.byte	0x1
ARM GAS  C:\Users\robom\AppData\Local\Temp\ccqs2S2W.s 			page 179


 7456 1beb FD03     		.2byte	0x3fd
 7457 1bed FB1B0000 		.4byte	0x1bfb
 7458 1bf1 25       		.uleb128 0x25
 7459 1bf2 BC040000 		.4byte	0x4bc
 7460 1bf6 61120000 		.4byte	.LLST126
 7461 1bfa 00       		.byte	0
 7462 1bfb 32       		.uleb128 0x32
 7463 1bfc 10000000 		.4byte	.LVL323
 7464 1c00 4E120000 		.4byte	0x124e
 7465 1c04 33       		.uleb128 0x33
 7466 1c05 01       		.uleb128 0x1
 7467 1c06 50       		.byte	0x50
 7468 1c07 01       		.uleb128 0x1
 7469 1c08 31       		.byte	0x31
 7470 1c09 00       		.byte	0
 7471 1c0a 00       		.byte	0
 7472 1c0b 08       		.uleb128 0x8
 7473 1c0c 04       		.byte	0x4
 7474 1c0d C3020000 		.4byte	0x2c3
 7475 1c11 29       		.uleb128 0x29
 7476 1c12 C00A0000 		.4byte	.LASF158
 7477 1c16 01       		.byte	0x1
 7478 1c17 0104     		.2byte	0x401
 7479 1c19 00000000 		.4byte	.LFB134
 7480 1c1d 70000000 		.4byte	.LFE134-.LFB134
 7481 1c21 01       		.uleb128 0x1
 7482 1c22 9C       		.byte	0x9c
 7483 1c23 1F1D0000 		.4byte	0x1d1f
 7484 1c27 1E       		.uleb128 0x1e
 7485 1c28 84030000 		.4byte	.LASF116
 7486 1c2c 01       		.byte	0x1
 7487 1c2d 0104     		.2byte	0x401
 7488 1c2f E7000000 		.4byte	0xe7
 7489 1c33 74120000 		.4byte	.LLST127
 7490 1c37 1E       		.uleb128 0x1e
 7491 1c38 A6070000 		.4byte	.LASF34
 7492 1c3c 01       		.byte	0x1
 7493 1c3d 0204     		.2byte	0x402
 7494 1c3f FD000000 		.4byte	0xfd
 7495 1c43 AE120000 		.4byte	.LLST128
 7496 1c47 1E       		.uleb128 0x1e
 7497 1c48 230D0000 		.4byte	.LASF35
 7498 1c4c 01       		.byte	0x1
 7499 1c4d 0304     		.2byte	0x403
 7500 1c4f FD000000 		.4byte	0xfd
 7501 1c53 F3120000 		.4byte	.LLST129
 7502 1c57 1E       		.uleb128 0x1e
 7503 1c58 AD070000 		.4byte	.LASF36
 7504 1c5c 01       		.byte	0x1
 7505 1c5d 0404     		.2byte	0x404
 7506 1c5f FD000000 		.4byte	0xfd
 7507 1c63 38130000 		.4byte	.LLST130
 7508 1c67 28       		.uleb128 0x28
 7509 1c68 A1050000 		.4byte	.LASF77
 7510 1c6c 01       		.byte	0x1
 7511 1c6d 0604     		.2byte	0x406
 7512 1c6f FD000000 		.4byte	0xfd
ARM GAS  C:\Users\robom\AppData\Local\Temp\ccqs2S2W.s 			page 180


 7513 1c73 01       		.uleb128 0x1
 7514 1c74 55       		.byte	0x55
 7515 1c75 22       		.uleb128 0x22
 7516 1c76 C9040000 		.4byte	0x4c9
 7517 1c7a 1C000000 		.4byte	.LBB257
 7518 1c7e 04000000 		.4byte	.LBE257-.LBB257
 7519 1c82 01       		.byte	0x1
 7520 1c83 0A04     		.2byte	0x40a
 7521 1c85 991C0000 		.4byte	0x1c99
 7522 1c89 23       		.uleb128 0x23
 7523 1c8a 1C000000 		.4byte	.LBB258
 7524 1c8e 04000000 		.4byte	.LBE258-.LBB258
 7525 1c92 24       		.uleb128 0x24
 7526 1c93 DA040000 		.4byte	0x4da
 7527 1c97 00       		.byte	0
 7528 1c98 00       		.byte	0
 7529 1c99 22       		.uleb128 0x22
 7530 1c9a AF040000 		.4byte	0x4af
 7531 1c9e 20000000 		.4byte	.LBB259
 7532 1ca2 06000000 		.4byte	.LBE259-.LBB259
 7533 1ca6 01       		.byte	0x1
 7534 1ca7 0A04     		.2byte	0x40a
 7535 1ca9 B71C0000 		.4byte	0x1cb7
 7536 1cad 25       		.uleb128 0x25
 7537 1cae BC040000 		.4byte	0x4bc
 7538 1cb2 7D130000 		.4byte	.LLST131
 7539 1cb6 00       		.byte	0
 7540 1cb7 31       		.uleb128 0x31
 7541 1cb8 38000000 		.4byte	.LBB261
 7542 1cbc 2C000000 		.4byte	.LBE261-.LBB261
 7543 1cc0 F11C0000 		.4byte	0x1cf1
 7544 1cc4 1F       		.uleb128 0x1f
 7545 1cc5 35040000 		.4byte	.LASF119
 7546 1cc9 01       		.byte	0x1
 7547 1cca 1104     		.2byte	0x411
 7548 1ccc 1F1D0000 		.4byte	0x1d1f
 7549 1cd0 91130000 		.4byte	.LLST132
 7550 1cd4 34       		.uleb128 0x34
 7551 1cd5 3E000000 		.4byte	.LVL342
 7552 1cd9 6E0A0000 		.4byte	0xa6e
 7553 1cdd E71C0000 		.4byte	0x1ce7
 7554 1ce1 33       		.uleb128 0x33
 7555 1ce2 01       		.uleb128 0x1
 7556 1ce3 50       		.byte	0x50
 7557 1ce4 01       		.uleb128 0x1
 7558 1ce5 44       		.byte	0x44
 7559 1ce6 00       		.byte	0
 7560 1ce7 30       		.uleb128 0x30
 7561 1ce8 54000000 		.4byte	.LVL343
 7562 1cec E7040000 		.4byte	0x4e7
 7563 1cf0 00       		.byte	0
 7564 1cf1 22       		.uleb128 0x22
 7565 1cf2 AF040000 		.4byte	0x4af
 7566 1cf6 64000000 		.4byte	.LBB262
 7567 1cfa 0C000000 		.4byte	.LBE262-.LBB262
 7568 1cfe 01       		.byte	0x1
 7569 1cff 1E04     		.2byte	0x41e
ARM GAS  C:\Users\robom\AppData\Local\Temp\ccqs2S2W.s 			page 181


 7570 1d01 0F1D0000 		.4byte	0x1d0f
 7571 1d05 25       		.uleb128 0x25
 7572 1d06 BC040000 		.4byte	0x4bc
 7573 1d0a AF130000 		.4byte	.LLST133
 7574 1d0e 00       		.byte	0
 7575 1d0f 32       		.uleb128 0x32
 7576 1d10 10000000 		.4byte	.LVL335
 7577 1d14 4E120000 		.4byte	0x124e
 7578 1d18 33       		.uleb128 0x33
 7579 1d19 01       		.uleb128 0x1
 7580 1d1a 50       		.byte	0x50
 7581 1d1b 01       		.uleb128 0x1
 7582 1d1c 31       		.byte	0x31
 7583 1d1d 00       		.byte	0
 7584 1d1e 00       		.byte	0
 7585 1d1f 08       		.uleb128 0x8
 7586 1d20 04       		.byte	0x4
 7587 1d21 07030000 		.4byte	0x307
 7588 1d25 29       		.uleb128 0x29
 7589 1d26 F80C0000 		.4byte	.LASF159
 7590 1d2a 01       		.byte	0x1
 7591 1d2b 2204     		.2byte	0x422
 7592 1d2d 00000000 		.4byte	.LFB135
 7593 1d31 88000000 		.4byte	.LFE135-.LFB135
 7594 1d35 01       		.uleb128 0x1
 7595 1d36 9C       		.byte	0x9c
 7596 1d37 661E0000 		.4byte	0x1e66
 7597 1d3b 1E       		.uleb128 0x1e
 7598 1d3c 160A0000 		.4byte	.LASF160
 7599 1d40 01       		.byte	0x1
 7600 1d41 2204     		.2byte	0x422
 7601 1d43 C3000000 		.4byte	0xc3
 7602 1d47 C2130000 		.4byte	.LLST134
 7603 1d4b 21       		.uleb128 0x21
 7604 1d4c 84030000 		.4byte	.LASF116
 7605 1d50 01       		.byte	0x1
 7606 1d51 2204     		.2byte	0x422
 7607 1d53 E7000000 		.4byte	0xe7
 7608 1d57 02       		.uleb128 0x2
 7609 1d58 91       		.byte	0x91
 7610 1d59 74       		.sleb128 -12
 7611 1d5a 36       		.uleb128 0x36
 7612 1d5b 2F       		.uleb128 0x2f
 7613 1d5c 766C00   		.ascii	"vl\000"
 7614 1d5f 01       		.byte	0x1
 7615 1d60 2404     		.2byte	0x424
 7616 1d62 49000000 		.4byte	0x49
 7617 1d66 02       		.uleb128 0x2
 7618 1d67 91       		.byte	0x91
 7619 1d68 5C       		.sleb128 -36
 7620 1d69 2C       		.uleb128 0x2c
 7621 1d6a 6900     		.ascii	"i\000"
 7622 1d6c 01       		.byte	0x1
 7623 1d6d 2504     		.2byte	0x425
 7624 1d6f C3000000 		.4byte	0xc3
 7625 1d73 07140000 		.4byte	.LLST135
 7626 1d77 28       		.uleb128 0x28
ARM GAS  C:\Users\robom\AppData\Local\Temp\ccqs2S2W.s 			page 182


 7627 1d78 A1050000 		.4byte	.LASF77
 7628 1d7c 01       		.byte	0x1
 7629 1d7d 2604     		.2byte	0x426
 7630 1d7f FD000000 		.4byte	0xfd
 7631 1d83 01       		.uleb128 0x1
 7632 1d84 56       		.byte	0x56
 7633 1d85 22       		.uleb128 0x22
 7634 1d86 C9040000 		.4byte	0x4c9
 7635 1d8a 1A000000 		.4byte	.LBB264
 7636 1d8e 04000000 		.4byte	.LBE264-.LBB264
 7637 1d92 01       		.byte	0x1
 7638 1d93 2A04     		.2byte	0x42a
 7639 1d95 A91D0000 		.4byte	0x1da9
 7640 1d99 23       		.uleb128 0x23
 7641 1d9a 1A000000 		.4byte	.LBB265
 7642 1d9e 04000000 		.4byte	.LBE265-.LBB265
 7643 1da2 24       		.uleb128 0x24
 7644 1da3 DA040000 		.4byte	0x4da
 7645 1da7 00       		.byte	0
 7646 1da8 00       		.byte	0
 7647 1da9 22       		.uleb128 0x22
 7648 1daa AF040000 		.4byte	0x4af
 7649 1dae 1E000000 		.4byte	.LBB266
 7650 1db2 06000000 		.4byte	.LBE266-.LBB266
 7651 1db6 01       		.byte	0x1
 7652 1db7 2A04     		.2byte	0x42a
 7653 1db9 C71D0000 		.4byte	0x1dc7
 7654 1dbd 25       		.uleb128 0x25
 7655 1dbe BC040000 		.4byte	0x4bc
 7656 1dc2 26140000 		.4byte	.LLST136
 7657 1dc6 00       		.byte	0
 7658 1dc7 31       		.uleb128 0x31
 7659 1dc8 2A000000 		.4byte	.LBB268
 7660 1dcc 4A000000 		.4byte	.LBE268-.LBB268
 7661 1dd0 381E0000 		.4byte	0x1e38
 7662 1dd4 1B       		.uleb128 0x1b
 7663 1dd5 FD080000 		.4byte	.LASF118
 7664 1dd9 01       		.byte	0x1
 7665 1dda 2E04     		.2byte	0x42e
 7666 1ddc C3000000 		.4byte	0xc3
 7667 1de0 23       		.uleb128 0x23
 7668 1de1 38000000 		.4byte	.LBB269
 7669 1de5 3C000000 		.4byte	.LBE269-.LBB269
 7670 1de9 1F       		.uleb128 0x1f
 7671 1dea 35040000 		.4byte	.LASF119
 7672 1dee 01       		.byte	0x1
 7673 1def 3304     		.2byte	0x433
 7674 1df1 BE0E0000 		.4byte	0xebe
 7675 1df5 3A140000 		.4byte	.LLST137
 7676 1df9 31       		.uleb128 0x31
 7677 1dfa 60000000 		.4byte	.LBB270
 7678 1dfe 0E000000 		.4byte	.LBE270-.LBB270
 7679 1e02 171E0000 		.4byte	0x1e17
 7680 1e06 2C       		.uleb128 0x2c
 7681 1e07 746D7000 		.ascii	"tmp\000"
 7682 1e0b 01       		.byte	0x1
 7683 1e0c 3D04     		.2byte	0x43d
ARM GAS  C:\Users\robom\AppData\Local\Temp\ccqs2S2W.s 			page 183


 7684 1e0e C0070000 		.4byte	0x7c0
 7685 1e12 58140000 		.4byte	.LLST138
 7686 1e16 00       		.byte	0
 7687 1e17 34       		.uleb128 0x34
 7688 1e18 3E000000 		.4byte	.LVL353
 7689 1e1c 6E0A0000 		.4byte	0xa6e
 7690 1e20 2D1E0000 		.4byte	0x1e2d
 7691 1e24 33       		.uleb128 0x33
 7692 1e25 01       		.uleb128 0x1
 7693 1e26 50       		.byte	0x50
 7694 1e27 04       		.uleb128 0x4
 7695 1e28 74       		.byte	0x74
 7696 1e29 02       		.sleb128 2
 7697 1e2a 32       		.byte	0x32
 7698 1e2b 24       		.byte	0x24
 7699 1e2c 00       		.byte	0
 7700 1e2d 30       		.uleb128 0x30
 7701 1e2e 56000000 		.4byte	.LVL354
 7702 1e32 E7040000 		.4byte	0x4e7
 7703 1e36 00       		.byte	0
 7704 1e37 00       		.byte	0
 7705 1e38 22       		.uleb128 0x22
 7706 1e39 AF040000 		.4byte	0x4af
 7707 1e3d 74000000 		.4byte	.LBB271
 7708 1e41 04000000 		.4byte	.LBE271-.LBB271
 7709 1e45 01       		.byte	0x1
 7710 1e46 4604     		.2byte	0x446
 7711 1e48 561E0000 		.4byte	0x1e56
 7712 1e4c 25       		.uleb128 0x25
 7713 1e4d BC040000 		.4byte	0x4bc
 7714 1e51 72140000 		.4byte	.LLST139
 7715 1e55 00       		.byte	0
 7716 1e56 32       		.uleb128 0x32
 7717 1e57 16000000 		.4byte	.LVL348
 7718 1e5b 4E120000 		.4byte	0x124e
 7719 1e5f 33       		.uleb128 0x33
 7720 1e60 01       		.uleb128 0x1
 7721 1e61 50       		.byte	0x50
 7722 1e62 01       		.uleb128 0x1
 7723 1e63 31       		.byte	0x31
 7724 1e64 00       		.byte	0
 7725 1e65 00       		.byte	0
 7726 1e66 20       		.uleb128 0x20
 7727 1e67 2F090000 		.4byte	.LASF161
 7728 1e6b 01       		.byte	0x1
 7729 1e6c 6006     		.2byte	0x660
 7730 1e6e 00000000 		.4byte	.LFB149
 7731 1e72 38000000 		.4byte	.LFE149-.LFB149
 7732 1e76 01       		.uleb128 0x1
 7733 1e77 9C       		.byte	0x9c
 7734 1e78 A41E0000 		.4byte	0x1ea4
 7735 1e7c 32       		.uleb128 0x32
 7736 1e7d 28000000 		.4byte	.LVL360
 7737 1e81 251D0000 		.4byte	0x1d25
 7738 1e85 33       		.uleb128 0x33
 7739 1e86 01       		.uleb128 0x1
 7740 1e87 50       		.byte	0x50
ARM GAS  C:\Users\robom\AppData\Local\Temp\ccqs2S2W.s 			page 184


 7741 1e88 01       		.uleb128 0x1
 7742 1e89 34       		.byte	0x34
 7743 1e8a 33       		.uleb128 0x33
 7744 1e8b 01       		.uleb128 0x1
 7745 1e8c 51       		.byte	0x51
 7746 1e8d 01       		.uleb128 0x1
 7747 1e8e 32       		.byte	0x32
 7748 1e8f 33       		.uleb128 0x33
 7749 1e90 01       		.uleb128 0x1
 7750 1e91 53       		.byte	0x53
 7751 1e92 03       		.uleb128 0x3
 7752 1e93 0A       		.byte	0xa
 7753 1e94 E803     		.2byte	0x3e8
 7754 1e96 33       		.uleb128 0x33
 7755 1e97 02       		.uleb128 0x2
 7756 1e98 7D       		.byte	0x7d
 7757 1e99 00       		.sleb128 0
 7758 1e9a 01       		.uleb128 0x1
 7759 1e9b 31       		.byte	0x31
 7760 1e9c 33       		.uleb128 0x33
 7761 1e9d 02       		.uleb128 0x2
 7762 1e9e 7D       		.byte	0x7d
 7763 1e9f 04       		.sleb128 4
 7764 1ea0 01       		.uleb128 0x1
 7765 1ea1 30       		.byte	0x30
 7766 1ea2 00       		.byte	0
 7767 1ea3 00       		.byte	0
 7768 1ea4 29       		.uleb128 0x29
 7769 1ea5 16010000 		.4byte	.LASF162
 7770 1ea9 01       		.byte	0x1
 7771 1eaa 1706     		.2byte	0x617
 7772 1eac 00000000 		.4byte	.LFB147
 7773 1eb0 58000000 		.4byte	.LFE147-.LFB147
 7774 1eb4 01       		.uleb128 0x1
 7775 1eb5 9C       		.byte	0x9c
 7776 1eb6 DD1E0000 		.4byte	0x1edd
 7777 1eba 34       		.uleb128 0x34
 7778 1ebb 20000000 		.4byte	.LVL361
 7779 1ebf 4E120000 		.4byte	0x124e
 7780 1ec3 CD1E0000 		.4byte	0x1ecd
 7781 1ec7 33       		.uleb128 0x33
 7782 1ec8 01       		.uleb128 0x1
 7783 1ec9 50       		.byte	0x50
 7784 1eca 01       		.uleb128 0x1
 7785 1ecb 33       		.byte	0x33
 7786 1ecc 00       		.byte	0
 7787 1ecd 32       		.uleb128 0x32
 7788 1ece 32000000 		.4byte	.LVL362
 7789 1ed2 4E120000 		.4byte	0x124e
 7790 1ed6 33       		.uleb128 0x33
 7791 1ed7 01       		.uleb128 0x1
 7792 1ed8 50       		.byte	0x50
 7793 1ed9 01       		.uleb128 0x1
 7794 1eda 34       		.byte	0x34
 7795 1edb 00       		.byte	0
 7796 1edc 00       		.byte	0
 7797 1edd 38       		.uleb128 0x38
ARM GAS  C:\Users\robom\AppData\Local\Temp\ccqs2S2W.s 			page 185


 7798 1ede 1C070000 		.4byte	.LASF163
 7799 1ee2 01       		.byte	0x1
 7800 1ee3 8F       		.byte	0x8f
 7801 1ee4 0A040000 		.4byte	0x40a
 7802 1ee8 05       		.uleb128 0x5
 7803 1ee9 03       		.byte	0x3
 7804 1eea 24000000 		.4byte	symbolTable
 7805 1eee 38       		.uleb128 0x38
 7806 1eef A3060000 		.4byte	.LASF164
 7807 1ef3 01       		.byte	0x1
 7808 1ef4 92       		.byte	0x92
 7809 1ef5 FD000000 		.4byte	0xfd
 7810 1ef9 05       		.uleb128 0x5
 7811 1efa 03       		.byte	0x3
 7812 1efb 20000000 		.4byte	firstFreeSymbolTableIndex
 7813 1eff 38       		.uleb128 0x38
 7814 1f00 F0010000 		.4byte	.LASF165
 7815 1f04 01       		.byte	0x1
 7816 1f05 95       		.byte	0x95
 7817 1f06 6C040000 		.4byte	0x46c
 7818 1f0a 05       		.uleb128 0x5
 7819 1f0b 03       		.byte	0x3
 7820 1f0c 28050000 		.4byte	objectDataTable
 7821 1f10 38       		.uleb128 0x38
 7822 1f11 590A0000 		.4byte	.LASF166
 7823 1f15 01       		.byte	0x1
 7824 1f16 98       		.byte	0x98
 7825 1f17 FD000000 		.4byte	0xfd
 7826 1f1b 05       		.uleb128 0x5
 7827 1f1c 03       		.byte	0x3
 7828 1f1d 24050000 		.4byte	firstFreeObjectDataTableIndex
 7829 1f21 38       		.uleb128 0x38
 7830 1f22 F7020000 		.4byte	.LASF167
 7831 1f26 01       		.byte	0x1
 7832 1f27 9B       		.byte	0x9b
 7833 1f28 8F010000 		.4byte	0x18f
 7834 1f2c 05       		.uleb128 0x5
 7835 1f2d 03       		.byte	0x3
 7836 1f2e 7C060000 		.4byte	ISR_stack
 7837 1f32 38       		.uleb128 0x38
 7838 1f33 C0010000 		.4byte	.LASF168
 7839 1f37 01       		.byte	0x1
 7840 1f38 9E       		.byte	0x9e
 7841 1f39 D1000000 		.4byte	0xd1
 7842 1f3d 05       		.uleb128 0x5
 7843 1f3e 03       		.byte	0x3
 7844 1f3f 14000000 		.4byte	ISR_stack_index
 7845 1f43 38       		.uleb128 0x38
 7846 1f44 00020000 		.4byte	.LASF169
 7847 1f48 01       		.byte	0x1
 7848 1f49 A1       		.byte	0xa1
 7849 1f4a C3000000 		.4byte	0xc3
 7850 1f4e 05       		.uleb128 0x5
 7851 1f4f 03       		.byte	0x3
 7852 1f50 08000000 		.4byte	errorCode
 7853 1f54 38       		.uleb128 0x38
 7854 1f55 2A000000 		.4byte	.LASF170
ARM GAS  C:\Users\robom\AppData\Local\Temp\ccqs2S2W.s 			page 186


 7855 1f59 01       		.byte	0x1
 7856 1f5a A4       		.byte	0xa4
 7857 1f5b FD000000 		.4byte	0xfd
 7858 1f5f 05       		.uleb128 0x5
 7859 1f60 03       		.byte	0x3
 7860 1f61 74060000 		.4byte	SessionCounter
 7861 1f65 39       		.uleb128 0x39
 7862 1f66 AB020000 		.4byte	.LASF171
 7863 1f6a 01       		.byte	0x1
 7864 1f6b AA       		.byte	0xaa
 7865 1f6c 741F0000 		.4byte	0x1f74
 7866 1f70 00465350 		.4byte	0x50534600
 7867 1f74 09       		.uleb128 0x9
 7868 1f75 FD000000 		.4byte	0xfd
 7869 1f79 3A       		.uleb128 0x3a
 7870 1f7a A70C0000 		.4byte	.LASF172
 7871 1f7e 01       		.byte	0x1
 7872 1f7f AD       		.byte	0xad
 7873 1f80 851F0000 		.4byte	0x1f85
 7874 1f84 04       		.byte	0x4
 7875 1f85 09       		.uleb128 0x9
 7876 1f86 E7000000 		.4byte	0xe7
 7877 1f8a 38       		.uleb128 0x38
 7878 1f8b 65000000 		.4byte	.LASF173
 7879 1f8f 01       		.byte	0x1
 7880 1f90 B0       		.byte	0xb0
 7881 1f91 FD000000 		.4byte	0xfd
 7882 1f95 05       		.uleb128 0x5
 7883 1f96 03       		.byte	0x3
 7884 1f97 6C060000 		.4byte	eventCounter
 7885 1f9b 3B       		.uleb128 0x3b
 7886 1f9c 4E040000 		.4byte	.LASF174
 7887 1fa0 09       		.byte	0x9
 7888 1fa1 40       		.byte	0x40
 7889 1fa2 59010000 		.4byte	0x159
 7890 1fa6 3B       		.uleb128 0x3b
 7891 1fa7 30060000 		.4byte	.LASF175
 7892 1fab 09       		.byte	0x9
 7893 1fac 47       		.byte	0x47
 7894 1fad 64010000 		.4byte	0x164
 7895 1fb1 3B       		.uleb128 0x3b
 7896 1fb2 90060000 		.4byte	.LASF176
 7897 1fb6 09       		.byte	0x9
 7898 1fb7 4A       		.byte	0x4a
 7899 1fb8 59010000 		.4byte	0x159
 7900 1fbc 3B       		.uleb128 0x3b
 7901 1fbd C2020000 		.4byte	.LASF177
 7902 1fc1 0A       		.byte	0xa
 7903 1fc2 48       		.byte	0x48
 7904 1fc3 6F010000 		.4byte	0x16f
 7905 1fc7 3B       		.uleb128 0x3b
 7906 1fc8 CB0B0000 		.4byte	.LASF178
 7907 1fcc 0B       		.byte	0xb
 7908 1fcd 44       		.byte	0x44
 7909 1fce 59010000 		.4byte	0x159
 7910 1fd2 3C       		.uleb128 0x3c
 7911 1fd3 50010000 		.4byte	.LASF179
ARM GAS  C:\Users\robom\AppData\Local\Temp\ccqs2S2W.s 			page 187


 7912 1fd7 0C       		.byte	0xc
 7913 1fd8 1207     		.2byte	0x712
 7914 1fda DE1F0000 		.4byte	0x1fde
 7915 1fde 0B       		.uleb128 0xb
 7916 1fdf F2000000 		.4byte	0xf2
 7917 1fe3 0C       		.uleb128 0xc
 7918 1fe4 1D010000 		.4byte	0x11d
 7919 1fe8 F41F0000 		.4byte	0x1ff4
 7920 1fec 16       		.uleb128 0x16
 7921 1fed 24010000 		.4byte	0x124
 7922 1ff1 8713     		.2byte	0x1387
 7923 1ff3 00       		.byte	0
 7924 1ff4 3B       		.uleb128 0x3b
 7925 1ff5 770C0000 		.4byte	.LASF180
 7926 1ff9 0D       		.byte	0xd
 7927 1ffa 7D       		.byte	0x7d
 7928 1ffb E31F0000 		.4byte	0x1fe3
 7929 1fff 3D       		.uleb128 0x3d
 7930 2000 F6070000 		.4byte	.LASF181
 7931 2004 01       		.byte	0x1
 7932 2005 F2       		.byte	0xf2
 7933 2006 E7000000 		.4byte	0xe7
 7934 200a 05       		.uleb128 0x5
 7935 200b 03       		.byte	0x3
 7936 200c 00000000 		.4byte	CurrentFilterMask
 7937 2010 3D       		.uleb128 0x3d
 7938 2011 120C0000 		.4byte	.LASF182
 7939 2015 01       		.byte	0x1
 7940 2016 F4       		.byte	0xf4
 7941 2017 E7000000 		.4byte	0xe7
 7942 201b 05       		.uleb128 0x5
 7943 201c 03       		.byte	0x3
 7944 201d 00000000 		.4byte	CurrentFilterGroup
 7945 2021 3D       		.uleb128 0x3d
 7946 2022 130D0000 		.4byte	.LASF183
 7947 2026 01       		.byte	0x1
 7948 2027 A7       		.byte	0xa7
 7949 2028 FD000000 		.4byte	0xfd
 7950 202c 05       		.uleb128 0x5
 7951 202d 03       		.byte	0x3
 7952 202e 00000000 		.4byte	RecorderEnabled
 7953 2032 3B       		.uleb128 0x3b
 7954 2033 17030000 		.4byte	.LASF184
 7955 2037 01       		.byte	0x1
 7956 2038 B3       		.byte	0xb3
 7957 2039 2B010000 		.4byte	0x12b
 7958 203d 3D       		.uleb128 0x3d
 7959 203e 79070000 		.4byte	.LASF185
 7960 2042 01       		.byte	0x1
 7961 2043 B7       		.byte	0xb7
 7962 2044 F2000000 		.4byte	0xf2
 7963 2048 05       		.uleb128 0x5
 7964 2049 03       		.byte	0x3
 7965 204a 00000000 		.4byte	isPendingContextSwitch
 7966 204e 3D       		.uleb128 0x3d
 7967 204f 4A070000 		.4byte	.LASF186
 7968 2053 01       		.byte	0x1
ARM GAS  C:\Users\robom\AppData\Local\Temp\ccqs2S2W.s 			page 188


 7969 2054 B9       		.byte	0xb9
 7970 2055 FD000000 		.4byte	0xfd
 7971 2059 05       		.uleb128 0x5
 7972 205a 03       		.byte	0x3
 7973 205b 00000000 		.4byte	uiTraceTickCount
 7974 205f 3D       		.uleb128 0x3d
 7975 2060 42030000 		.4byte	.LASF187
 7976 2064 01       		.byte	0x1
 7977 2065 BA       		.byte	0xba
 7978 2066 FD000000 		.4byte	0xfd
 7979 206a 05       		.uleb128 0x5
 7980 206b 03       		.byte	0x3
 7981 206c 00000000 		.4byte	timestampFrequency
 7982 2070 3D       		.uleb128 0x3d
 7983 2071 B50C0000 		.4byte	.LASF188
 7984 2075 01       		.byte	0x1
 7985 2076 BB       		.byte	0xbb
 7986 2077 FD000000 		.4byte	0xfd
 7987 207b 05       		.uleb128 0x5
 7988 207c 03       		.byte	0x3
 7989 207d 00000000 		.4byte	DroppedEventCounter
 7990 2081 3D       		.uleb128 0x3d
 7991 2082 58060000 		.4byte	.LASF189
 7992 2086 01       		.byte	0x1
 7993 2087 BC       		.byte	0xbc
 7994 2088 FD000000 		.4byte	0xfd
 7995 208c 05       		.uleb128 0x5
 7996 208d 03       		.byte	0x3
 7997 208e 00000000 		.4byte	TotalBytesRemaining_LowWaterMark
 7998 2092 3D       		.uleb128 0x3d
 7999 2093 AC0A0000 		.4byte	.LASF190
 8000 2097 01       		.byte	0x1
 8001 2098 BD       		.byte	0xbd
 8002 2099 FD000000 		.4byte	0xfd
 8003 209d 05       		.uleb128 0x5
 8004 209e 03       		.byte	0x3
 8005 209f 00000000 		.4byte	TotalBytesRemaining
 8006 20a3 0C       		.uleb128 0xc
 8007 20a4 A4040000 		.4byte	0x4a4
 8008 20a8 B3200000 		.4byte	0x20b3
 8009 20ac 0D       		.uleb128 0xd
 8010 20ad 24010000 		.4byte	0x124
 8011 20b1 01       		.byte	0x1
 8012 20b2 00       		.byte	0
 8013 20b3 3D       		.uleb128 0x3d
 8014 20b4 290A0000 		.4byte	.LASF191
 8015 20b8 01       		.byte	0x1
 8016 20b9 BF       		.byte	0xbf
 8017 20ba A3200000 		.4byte	0x20a3
 8018 20be 05       		.uleb128 0x5
 8019 20bf 03       		.byte	0x3
 8020 20c0 00000000 		.4byte	PageInfo
 8021 20c4 3D       		.uleb128 0x3d
 8022 20c5 5B070000 		.4byte	.LASF192
 8023 20c9 01       		.byte	0x1
 8024 20ca C1       		.byte	0xc1
 8025 20cb 2B010000 		.4byte	0x12b
ARM GAS  C:\Users\robom\AppData\Local\Temp\ccqs2S2W.s 			page 189


 8026 20cf 05       		.uleb128 0x5
 8027 20d0 03       		.byte	0x3
 8028 20d1 00000000 		.4byte	EventBuffer
 8029 20d5 3D       		.uleb128 0x3d
 8030 20d6 07090000 		.4byte	.LASF193
 8031 20da 01       		.byte	0x1
 8032 20db D0       		.byte	0xd0
 8033 20dc 7A010000 		.4byte	0x17a
 8034 20e0 05       		.uleb128 0x5
 8035 20e1 03       		.byte	0x3
 8036 20e2 00000000 		.4byte	NoRoomForSymbol
 8037 20e6 3D       		.uleb128 0x3d
 8038 20e7 49080000 		.4byte	.LASF194
 8039 20eb 01       		.byte	0x1
 8040 20ec DC       		.byte	0xdc
 8041 20ed 7A010000 		.4byte	0x17a
 8042 20f1 05       		.uleb128 0x5
 8043 20f2 03       		.byte	0x3
 8044 20f3 00000000 		.4byte	NoRoomForObjectData
 8045 20f7 3D       		.uleb128 0x3d
 8046 20f8 5D080000 		.4byte	.LASF195
 8047 20fc 01       		.byte	0x1
 8048 20fd E5       		.byte	0xe5
 8049 20fe 7A010000 		.4byte	0x17a
 8050 2102 05       		.uleb128 0x5
 8051 2103 03       		.byte	0x3
 8052 2104 00000000 		.4byte	LongestSymbolName
 8053 2108 3D       		.uleb128 0x3d
 8054 2109 67070000 		.4byte	.LASF196
 8055 210d 01       		.byte	0x1
 8056 210e F0       		.byte	0xf0
 8057 210f 7A010000 		.4byte	0x17a
 8058 2113 05       		.uleb128 0x5
 8059 2114 03       		.byte	0x3
 8060 2115 00000000 		.4byte	MaxBytesTruncated
 8061 2119 3E       		.uleb128 0x3e
 8062 211a 620B0000 		.4byte	.LASF197
 8063 211e 620B0000 		.4byte	.LASF197
 8064 2122 0D       		.byte	0xd
 8065 2123 70       		.byte	0x70
 8066 2124 3F       		.uleb128 0x3f
 8067 2125 FC040000 		.4byte	.LASF154
 8068 2129 FC040000 		.4byte	.LASF154
 8069 212d 01       		.byte	0x1
 8070 212e 6602     		.2byte	0x266
 8071 2130 3E       		.uleb128 0x3e
 8072 2131 B6050000 		.4byte	.LASF198
 8073 2135 B6050000 		.4byte	.LASF198
 8074 2139 0E       		.byte	0xe
 8075 213a CF       		.byte	0xcf
 8076 213b 00       		.byte	0
 8077              		.section	.debug_abbrev,"",%progbits
 8078              	.Ldebug_abbrev0:
 8079 0000 01       		.uleb128 0x1
 8080 0001 11       		.uleb128 0x11
 8081 0002 01       		.byte	0x1
 8082 0003 25       		.uleb128 0x25
ARM GAS  C:\Users\robom\AppData\Local\Temp\ccqs2S2W.s 			page 190


 8083 0004 0E       		.uleb128 0xe
 8084 0005 13       		.uleb128 0x13
 8085 0006 0B       		.uleb128 0xb
 8086 0007 03       		.uleb128 0x3
 8087 0008 0E       		.uleb128 0xe
 8088 0009 1B       		.uleb128 0x1b
 8089 000a 0E       		.uleb128 0xe
 8090 000b 55       		.uleb128 0x55
 8091 000c 17       		.uleb128 0x17
 8092 000d 11       		.uleb128 0x11
 8093 000e 01       		.uleb128 0x1
 8094 000f 10       		.uleb128 0x10
 8095 0010 17       		.uleb128 0x17
 8096 0011 00       		.byte	0
 8097 0012 00       		.byte	0
 8098 0013 02       		.uleb128 0x2
 8099 0014 16       		.uleb128 0x16
 8100 0015 00       		.byte	0
 8101 0016 03       		.uleb128 0x3
 8102 0017 0E       		.uleb128 0xe
 8103 0018 3A       		.uleb128 0x3a
 8104 0019 0B       		.uleb128 0xb
 8105 001a 3B       		.uleb128 0x3b
 8106 001b 0B       		.uleb128 0xb
 8107 001c 49       		.uleb128 0x49
 8108 001d 13       		.uleb128 0x13
 8109 001e 00       		.byte	0
 8110 001f 00       		.byte	0
 8111 0020 03       		.uleb128 0x3
 8112 0021 13       		.uleb128 0x13
 8113 0022 01       		.byte	0x1
 8114 0023 03       		.uleb128 0x3
 8115 0024 0E       		.uleb128 0xe
 8116 0025 0B       		.uleb128 0xb
 8117 0026 0B       		.uleb128 0xb
 8118 0027 3A       		.uleb128 0x3a
 8119 0028 0B       		.uleb128 0xb
 8120 0029 3B       		.uleb128 0x3b
 8121 002a 0B       		.uleb128 0xb
 8122 002b 01       		.uleb128 0x1
 8123 002c 13       		.uleb128 0x13
 8124 002d 00       		.byte	0
 8125 002e 00       		.byte	0
 8126 002f 04       		.uleb128 0x4
 8127 0030 0D       		.uleb128 0xd
 8128 0031 00       		.byte	0
 8129 0032 03       		.uleb128 0x3
 8130 0033 0E       		.uleb128 0xe
 8131 0034 49       		.uleb128 0x49
 8132 0035 13       		.uleb128 0x13
 8133 0036 38       		.uleb128 0x38
 8134 0037 0B       		.uleb128 0xb
 8135 0038 34       		.uleb128 0x34
 8136 0039 19       		.uleb128 0x19
 8137 003a 00       		.byte	0
 8138 003b 00       		.byte	0
 8139 003c 05       		.uleb128 0x5
ARM GAS  C:\Users\robom\AppData\Local\Temp\ccqs2S2W.s 			page 191


 8140 003d 0F       		.uleb128 0xf
 8141 003e 00       		.byte	0
 8142 003f 0B       		.uleb128 0xb
 8143 0040 0B       		.uleb128 0xb
 8144 0041 00       		.byte	0
 8145 0042 00       		.byte	0
 8146 0043 06       		.uleb128 0x6
 8147 0044 24       		.uleb128 0x24
 8148 0045 00       		.byte	0
 8149 0046 0B       		.uleb128 0xb
 8150 0047 0B       		.uleb128 0xb
 8151 0048 3E       		.uleb128 0x3e
 8152 0049 0B       		.uleb128 0xb
 8153 004a 03       		.uleb128 0x3
 8154 004b 0E       		.uleb128 0xe
 8155 004c 00       		.byte	0
 8156 004d 00       		.byte	0
 8157 004e 07       		.uleb128 0x7
 8158 004f 24       		.uleb128 0x24
 8159 0050 00       		.byte	0
 8160 0051 0B       		.uleb128 0xb
 8161 0052 0B       		.uleb128 0xb
 8162 0053 3E       		.uleb128 0x3e
 8163 0054 0B       		.uleb128 0xb
 8164 0055 03       		.uleb128 0x3
 8165 0056 08       		.uleb128 0x8
 8166 0057 00       		.byte	0
 8167 0058 00       		.byte	0
 8168 0059 08       		.uleb128 0x8
 8169 005a 0F       		.uleb128 0xf
 8170 005b 00       		.byte	0
 8171 005c 0B       		.uleb128 0xb
 8172 005d 0B       		.uleb128 0xb
 8173 005e 49       		.uleb128 0x49
 8174 005f 13       		.uleb128 0x13
 8175 0060 00       		.byte	0
 8176 0061 00       		.byte	0
 8177 0062 09       		.uleb128 0x9
 8178 0063 26       		.uleb128 0x26
 8179 0064 00       		.byte	0
 8180 0065 49       		.uleb128 0x49
 8181 0066 13       		.uleb128 0x13
 8182 0067 00       		.byte	0
 8183 0068 00       		.byte	0
 8184 0069 0A       		.uleb128 0xa
 8185 006a 26       		.uleb128 0x26
 8186 006b 00       		.byte	0
 8187 006c 00       		.byte	0
 8188 006d 00       		.byte	0
 8189 006e 0B       		.uleb128 0xb
 8190 006f 35       		.uleb128 0x35
 8191 0070 00       		.byte	0
 8192 0071 49       		.uleb128 0x49
 8193 0072 13       		.uleb128 0x13
 8194 0073 00       		.byte	0
 8195 0074 00       		.byte	0
 8196 0075 0C       		.uleb128 0xc
ARM GAS  C:\Users\robom\AppData\Local\Temp\ccqs2S2W.s 			page 192


 8197 0076 01       		.uleb128 0x1
 8198 0077 01       		.byte	0x1
 8199 0078 49       		.uleb128 0x49
 8200 0079 13       		.uleb128 0x13
 8201 007a 01       		.uleb128 0x1
 8202 007b 13       		.uleb128 0x13
 8203 007c 00       		.byte	0
 8204 007d 00       		.byte	0
 8205 007e 0D       		.uleb128 0xd
 8206 007f 21       		.uleb128 0x21
 8207 0080 00       		.byte	0
 8208 0081 49       		.uleb128 0x49
 8209 0082 13       		.uleb128 0x13
 8210 0083 2F       		.uleb128 0x2f
 8211 0084 0B       		.uleb128 0xb
 8212 0085 00       		.byte	0
 8213 0086 00       		.byte	0
 8214 0087 0E       		.uleb128 0xe
 8215 0088 13       		.uleb128 0x13
 8216 0089 01       		.byte	0x1
 8217 008a 0B       		.uleb128 0xb
 8218 008b 0B       		.uleb128 0xb
 8219 008c 3A       		.uleb128 0x3a
 8220 008d 0B       		.uleb128 0xb
 8221 008e 3B       		.uleb128 0x3b
 8222 008f 05       		.uleb128 0x5
 8223 0090 01       		.uleb128 0x1
 8224 0091 13       		.uleb128 0x13
 8225 0092 00       		.byte	0
 8226 0093 00       		.byte	0
 8227 0094 0F       		.uleb128 0xf
 8228 0095 0D       		.uleb128 0xd
 8229 0096 00       		.byte	0
 8230 0097 03       		.uleb128 0x3
 8231 0098 0E       		.uleb128 0xe
 8232 0099 3A       		.uleb128 0x3a
 8233 009a 0B       		.uleb128 0xb
 8234 009b 3B       		.uleb128 0x3b
 8235 009c 05       		.uleb128 0x5
 8236 009d 49       		.uleb128 0x49
 8237 009e 13       		.uleb128 0x13
 8238 009f 38       		.uleb128 0x38
 8239 00a0 0B       		.uleb128 0xb
 8240 00a1 00       		.byte	0
 8241 00a2 00       		.byte	0
 8242 00a3 10       		.uleb128 0x10
 8243 00a4 16       		.uleb128 0x16
 8244 00a5 00       		.byte	0
 8245 00a6 03       		.uleb128 0x3
 8246 00a7 0E       		.uleb128 0xe
 8247 00a8 3A       		.uleb128 0x3a
 8248 00a9 0B       		.uleb128 0xb
 8249 00aa 3B       		.uleb128 0x3b
 8250 00ab 05       		.uleb128 0x5
 8251 00ac 49       		.uleb128 0x49
 8252 00ad 13       		.uleb128 0x13
 8253 00ae 00       		.byte	0
ARM GAS  C:\Users\robom\AppData\Local\Temp\ccqs2S2W.s 			page 193


 8254 00af 00       		.byte	0
 8255 00b0 11       		.uleb128 0x11
 8256 00b1 13       		.uleb128 0x13
 8257 00b2 01       		.byte	0x1
 8258 00b3 0B       		.uleb128 0xb
 8259 00b4 0B       		.uleb128 0xb
 8260 00b5 3A       		.uleb128 0x3a
 8261 00b6 0B       		.uleb128 0xb
 8262 00b7 3B       		.uleb128 0x3b
 8263 00b8 0B       		.uleb128 0xb
 8264 00b9 01       		.uleb128 0x1
 8265 00ba 13       		.uleb128 0x13
 8266 00bb 00       		.byte	0
 8267 00bc 00       		.byte	0
 8268 00bd 12       		.uleb128 0x12
 8269 00be 0D       		.uleb128 0xd
 8270 00bf 00       		.byte	0
 8271 00c0 03       		.uleb128 0x3
 8272 00c1 0E       		.uleb128 0xe
 8273 00c2 3A       		.uleb128 0x3a
 8274 00c3 0B       		.uleb128 0xb
 8275 00c4 3B       		.uleb128 0x3b
 8276 00c5 0B       		.uleb128 0xb
 8277 00c6 49       		.uleb128 0x49
 8278 00c7 13       		.uleb128 0x13
 8279 00c8 38       		.uleb128 0x38
 8280 00c9 0B       		.uleb128 0xb
 8281 00ca 00       		.byte	0
 8282 00cb 00       		.byte	0
 8283 00cc 13       		.uleb128 0x13
 8284 00cd 0D       		.uleb128 0xd
 8285 00ce 00       		.byte	0
 8286 00cf 03       		.uleb128 0x3
 8287 00d0 08       		.uleb128 0x8
 8288 00d1 3A       		.uleb128 0x3a
 8289 00d2 0B       		.uleb128 0xb
 8290 00d3 3B       		.uleb128 0x3b
 8291 00d4 0B       		.uleb128 0xb
 8292 00d5 49       		.uleb128 0x49
 8293 00d6 13       		.uleb128 0x13
 8294 00d7 38       		.uleb128 0x38
 8295 00d8 0B       		.uleb128 0xb
 8296 00d9 00       		.byte	0
 8297 00da 00       		.byte	0
 8298 00db 14       		.uleb128 0x14
 8299 00dc 17       		.uleb128 0x17
 8300 00dd 01       		.byte	0x1
 8301 00de 0B       		.uleb128 0xb
 8302 00df 05       		.uleb128 0x5
 8303 00e0 3A       		.uleb128 0x3a
 8304 00e1 0B       		.uleb128 0xb
 8305 00e2 3B       		.uleb128 0x3b
 8306 00e3 0B       		.uleb128 0xb
 8307 00e4 01       		.uleb128 0x1
 8308 00e5 13       		.uleb128 0x13
 8309 00e6 00       		.byte	0
 8310 00e7 00       		.byte	0
ARM GAS  C:\Users\robom\AppData\Local\Temp\ccqs2S2W.s 			page 194


 8311 00e8 15       		.uleb128 0x15
 8312 00e9 0D       		.uleb128 0xd
 8313 00ea 00       		.byte	0
 8314 00eb 03       		.uleb128 0x3
 8315 00ec 0E       		.uleb128 0xe
 8316 00ed 3A       		.uleb128 0x3a
 8317 00ee 0B       		.uleb128 0xb
 8318 00ef 3B       		.uleb128 0x3b
 8319 00f0 0B       		.uleb128 0xb
 8320 00f1 49       		.uleb128 0x49
 8321 00f2 13       		.uleb128 0x13
 8322 00f3 00       		.byte	0
 8323 00f4 00       		.byte	0
 8324 00f5 16       		.uleb128 0x16
 8325 00f6 21       		.uleb128 0x21
 8326 00f7 00       		.byte	0
 8327 00f8 49       		.uleb128 0x49
 8328 00f9 13       		.uleb128 0x13
 8329 00fa 2F       		.uleb128 0x2f
 8330 00fb 05       		.uleb128 0x5
 8331 00fc 00       		.byte	0
 8332 00fd 00       		.byte	0
 8333 00fe 17       		.uleb128 0x17
 8334 00ff 13       		.uleb128 0x13
 8335 0100 01       		.byte	0x1
 8336 0101 0B       		.uleb128 0xb
 8337 0102 05       		.uleb128 0x5
 8338 0103 3A       		.uleb128 0x3a
 8339 0104 0B       		.uleb128 0xb
 8340 0105 3B       		.uleb128 0x3b
 8341 0106 0B       		.uleb128 0xb
 8342 0107 01       		.uleb128 0x1
 8343 0108 13       		.uleb128 0x13
 8344 0109 00       		.byte	0
 8345 010a 00       		.byte	0
 8346 010b 18       		.uleb128 0x18
 8347 010c 2E       		.uleb128 0x2e
 8348 010d 01       		.byte	0x1
 8349 010e 03       		.uleb128 0x3
 8350 010f 0E       		.uleb128 0xe
 8351 0110 3A       		.uleb128 0x3a
 8352 0111 0B       		.uleb128 0xb
 8353 0112 3B       		.uleb128 0x3b
 8354 0113 05       		.uleb128 0x5
 8355 0114 27       		.uleb128 0x27
 8356 0115 19       		.uleb128 0x19
 8357 0116 20       		.uleb128 0x20
 8358 0117 0B       		.uleb128 0xb
 8359 0118 01       		.uleb128 0x1
 8360 0119 13       		.uleb128 0x13
 8361 011a 00       		.byte	0
 8362 011b 00       		.byte	0
 8363 011c 19       		.uleb128 0x19
 8364 011d 05       		.uleb128 0x5
 8365 011e 00       		.byte	0
 8366 011f 03       		.uleb128 0x3
 8367 0120 0E       		.uleb128 0xe
ARM GAS  C:\Users\robom\AppData\Local\Temp\ccqs2S2W.s 			page 195


 8368 0121 3A       		.uleb128 0x3a
 8369 0122 0B       		.uleb128 0xb
 8370 0123 3B       		.uleb128 0x3b
 8371 0124 05       		.uleb128 0x5
 8372 0125 49       		.uleb128 0x49
 8373 0126 13       		.uleb128 0x13
 8374 0127 00       		.byte	0
 8375 0128 00       		.byte	0
 8376 0129 1A       		.uleb128 0x1a
 8377 012a 2E       		.uleb128 0x2e
 8378 012b 01       		.byte	0x1
 8379 012c 03       		.uleb128 0x3
 8380 012d 0E       		.uleb128 0xe
 8381 012e 3A       		.uleb128 0x3a
 8382 012f 0B       		.uleb128 0xb
 8383 0130 3B       		.uleb128 0x3b
 8384 0131 05       		.uleb128 0x5
 8385 0132 27       		.uleb128 0x27
 8386 0133 19       		.uleb128 0x19
 8387 0134 49       		.uleb128 0x49
 8388 0135 13       		.uleb128 0x13
 8389 0136 20       		.uleb128 0x20
 8390 0137 0B       		.uleb128 0xb
 8391 0138 01       		.uleb128 0x1
 8392 0139 13       		.uleb128 0x13
 8393 013a 00       		.byte	0
 8394 013b 00       		.byte	0
 8395 013c 1B       		.uleb128 0x1b
 8396 013d 34       		.uleb128 0x34
 8397 013e 00       		.byte	0
 8398 013f 03       		.uleb128 0x3
 8399 0140 0E       		.uleb128 0xe
 8400 0141 3A       		.uleb128 0x3a
 8401 0142 0B       		.uleb128 0xb
 8402 0143 3B       		.uleb128 0x3b
 8403 0144 05       		.uleb128 0x5
 8404 0145 49       		.uleb128 0x49
 8405 0146 13       		.uleb128 0x13
 8406 0147 00       		.byte	0
 8407 0148 00       		.byte	0
 8408 0149 1C       		.uleb128 0x1c
 8409 014a 2E       		.uleb128 0x2e
 8410 014b 00       		.byte	0
 8411 014c 03       		.uleb128 0x3
 8412 014d 0E       		.uleb128 0xe
 8413 014e 3A       		.uleb128 0x3a
 8414 014f 0B       		.uleb128 0xb
 8415 0150 3B       		.uleb128 0x3b
 8416 0151 05       		.uleb128 0x5
 8417 0152 27       		.uleb128 0x27
 8418 0153 19       		.uleb128 0x19
 8419 0154 49       		.uleb128 0x49
 8420 0155 13       		.uleb128 0x13
 8421 0156 11       		.uleb128 0x11
 8422 0157 01       		.uleb128 0x1
 8423 0158 12       		.uleb128 0x12
 8424 0159 06       		.uleb128 0x6
ARM GAS  C:\Users\robom\AppData\Local\Temp\ccqs2S2W.s 			page 196


 8425 015a 40       		.uleb128 0x40
 8426 015b 18       		.uleb128 0x18
 8427 015c 9742     		.uleb128 0x2117
 8428 015e 19       		.uleb128 0x19
 8429 015f 00       		.byte	0
 8430 0160 00       		.byte	0
 8431 0161 1D       		.uleb128 0x1d
 8432 0162 2E       		.uleb128 0x2e
 8433 0163 01       		.byte	0x1
 8434 0164 03       		.uleb128 0x3
 8435 0165 0E       		.uleb128 0xe
 8436 0166 3A       		.uleb128 0x3a
 8437 0167 0B       		.uleb128 0xb
 8438 0168 3B       		.uleb128 0x3b
 8439 0169 05       		.uleb128 0x5
 8440 016a 27       		.uleb128 0x27
 8441 016b 19       		.uleb128 0x19
 8442 016c 49       		.uleb128 0x49
 8443 016d 13       		.uleb128 0x13
 8444 016e 11       		.uleb128 0x11
 8445 016f 01       		.uleb128 0x1
 8446 0170 12       		.uleb128 0x12
 8447 0171 06       		.uleb128 0x6
 8448 0172 40       		.uleb128 0x40
 8449 0173 18       		.uleb128 0x18
 8450 0174 9742     		.uleb128 0x2117
 8451 0176 19       		.uleb128 0x19
 8452 0177 01       		.uleb128 0x1
 8453 0178 13       		.uleb128 0x13
 8454 0179 00       		.byte	0
 8455 017a 00       		.byte	0
 8456 017b 1E       		.uleb128 0x1e
 8457 017c 05       		.uleb128 0x5
 8458 017d 00       		.byte	0
 8459 017e 03       		.uleb128 0x3
 8460 017f 0E       		.uleb128 0xe
 8461 0180 3A       		.uleb128 0x3a
 8462 0181 0B       		.uleb128 0xb
 8463 0182 3B       		.uleb128 0x3b
 8464 0183 05       		.uleb128 0x5
 8465 0184 49       		.uleb128 0x49
 8466 0185 13       		.uleb128 0x13
 8467 0186 02       		.uleb128 0x2
 8468 0187 17       		.uleb128 0x17
 8469 0188 00       		.byte	0
 8470 0189 00       		.byte	0
 8471 018a 1F       		.uleb128 0x1f
 8472 018b 34       		.uleb128 0x34
 8473 018c 00       		.byte	0
 8474 018d 03       		.uleb128 0x3
 8475 018e 0E       		.uleb128 0xe
 8476 018f 3A       		.uleb128 0x3a
 8477 0190 0B       		.uleb128 0xb
 8478 0191 3B       		.uleb128 0x3b
 8479 0192 05       		.uleb128 0x5
 8480 0193 49       		.uleb128 0x49
 8481 0194 13       		.uleb128 0x13
ARM GAS  C:\Users\robom\AppData\Local\Temp\ccqs2S2W.s 			page 197


 8482 0195 02       		.uleb128 0x2
 8483 0196 17       		.uleb128 0x17
 8484 0197 00       		.byte	0
 8485 0198 00       		.byte	0
 8486 0199 20       		.uleb128 0x20
 8487 019a 2E       		.uleb128 0x2e
 8488 019b 01       		.byte	0x1
 8489 019c 03       		.uleb128 0x3
 8490 019d 0E       		.uleb128 0xe
 8491 019e 3A       		.uleb128 0x3a
 8492 019f 0B       		.uleb128 0xb
 8493 01a0 3B       		.uleb128 0x3b
 8494 01a1 05       		.uleb128 0x5
 8495 01a2 27       		.uleb128 0x27
 8496 01a3 19       		.uleb128 0x19
 8497 01a4 11       		.uleb128 0x11
 8498 01a5 01       		.uleb128 0x1
 8499 01a6 12       		.uleb128 0x12
 8500 01a7 06       		.uleb128 0x6
 8501 01a8 40       		.uleb128 0x40
 8502 01a9 18       		.uleb128 0x18
 8503 01aa 9742     		.uleb128 0x2117
 8504 01ac 19       		.uleb128 0x19
 8505 01ad 01       		.uleb128 0x1
 8506 01ae 13       		.uleb128 0x13
 8507 01af 00       		.byte	0
 8508 01b0 00       		.byte	0
 8509 01b1 21       		.uleb128 0x21
 8510 01b2 05       		.uleb128 0x5
 8511 01b3 00       		.byte	0
 8512 01b4 03       		.uleb128 0x3
 8513 01b5 0E       		.uleb128 0xe
 8514 01b6 3A       		.uleb128 0x3a
 8515 01b7 0B       		.uleb128 0xb
 8516 01b8 3B       		.uleb128 0x3b
 8517 01b9 05       		.uleb128 0x5
 8518 01ba 49       		.uleb128 0x49
 8519 01bb 13       		.uleb128 0x13
 8520 01bc 02       		.uleb128 0x2
 8521 01bd 18       		.uleb128 0x18
 8522 01be 00       		.byte	0
 8523 01bf 00       		.byte	0
 8524 01c0 22       		.uleb128 0x22
 8525 01c1 1D       		.uleb128 0x1d
 8526 01c2 01       		.byte	0x1
 8527 01c3 31       		.uleb128 0x31
 8528 01c4 13       		.uleb128 0x13
 8529 01c5 11       		.uleb128 0x11
 8530 01c6 01       		.uleb128 0x1
 8531 01c7 12       		.uleb128 0x12
 8532 01c8 06       		.uleb128 0x6
 8533 01c9 58       		.uleb128 0x58
 8534 01ca 0B       		.uleb128 0xb
 8535 01cb 59       		.uleb128 0x59
 8536 01cc 05       		.uleb128 0x5
 8537 01cd 01       		.uleb128 0x1
 8538 01ce 13       		.uleb128 0x13
ARM GAS  C:\Users\robom\AppData\Local\Temp\ccqs2S2W.s 			page 198


 8539 01cf 00       		.byte	0
 8540 01d0 00       		.byte	0
 8541 01d1 23       		.uleb128 0x23
 8542 01d2 0B       		.uleb128 0xb
 8543 01d3 01       		.byte	0x1
 8544 01d4 11       		.uleb128 0x11
 8545 01d5 01       		.uleb128 0x1
 8546 01d6 12       		.uleb128 0x12
 8547 01d7 06       		.uleb128 0x6
 8548 01d8 00       		.byte	0
 8549 01d9 00       		.byte	0
 8550 01da 24       		.uleb128 0x24
 8551 01db 34       		.uleb128 0x34
 8552 01dc 00       		.byte	0
 8553 01dd 31       		.uleb128 0x31
 8554 01de 13       		.uleb128 0x13
 8555 01df 00       		.byte	0
 8556 01e0 00       		.byte	0
 8557 01e1 25       		.uleb128 0x25
 8558 01e2 05       		.uleb128 0x5
 8559 01e3 00       		.byte	0
 8560 01e4 31       		.uleb128 0x31
 8561 01e5 13       		.uleb128 0x13
 8562 01e6 02       		.uleb128 0x2
 8563 01e7 17       		.uleb128 0x17
 8564 01e8 00       		.byte	0
 8565 01e9 00       		.byte	0
 8566 01ea 26       		.uleb128 0x26
 8567 01eb 1D       		.uleb128 0x1d
 8568 01ec 01       		.byte	0x1
 8569 01ed 31       		.uleb128 0x31
 8570 01ee 13       		.uleb128 0x13
 8571 01ef 11       		.uleb128 0x11
 8572 01f0 01       		.uleb128 0x1
 8573 01f1 12       		.uleb128 0x12
 8574 01f2 06       		.uleb128 0x6
 8575 01f3 58       		.uleb128 0x58
 8576 01f4 0B       		.uleb128 0xb
 8577 01f5 59       		.uleb128 0x59
 8578 01f6 05       		.uleb128 0x5
 8579 01f7 00       		.byte	0
 8580 01f8 00       		.byte	0
 8581 01f9 27       		.uleb128 0x27
 8582 01fa 05       		.uleb128 0x5
 8583 01fb 00       		.byte	0
 8584 01fc 31       		.uleb128 0x31
 8585 01fd 13       		.uleb128 0x13
 8586 01fe 00       		.byte	0
 8587 01ff 00       		.byte	0
 8588 0200 28       		.uleb128 0x28
 8589 0201 34       		.uleb128 0x34
 8590 0202 00       		.byte	0
 8591 0203 03       		.uleb128 0x3
 8592 0204 0E       		.uleb128 0xe
 8593 0205 3A       		.uleb128 0x3a
 8594 0206 0B       		.uleb128 0xb
 8595 0207 3B       		.uleb128 0x3b
ARM GAS  C:\Users\robom\AppData\Local\Temp\ccqs2S2W.s 			page 199


 8596 0208 05       		.uleb128 0x5
 8597 0209 49       		.uleb128 0x49
 8598 020a 13       		.uleb128 0x13
 8599 020b 02       		.uleb128 0x2
 8600 020c 18       		.uleb128 0x18
 8601 020d 00       		.byte	0
 8602 020e 00       		.byte	0
 8603 020f 29       		.uleb128 0x29
 8604 0210 2E       		.uleb128 0x2e
 8605 0211 01       		.byte	0x1
 8606 0212 3F       		.uleb128 0x3f
 8607 0213 19       		.uleb128 0x19
 8608 0214 03       		.uleb128 0x3
 8609 0215 0E       		.uleb128 0xe
 8610 0216 3A       		.uleb128 0x3a
 8611 0217 0B       		.uleb128 0xb
 8612 0218 3B       		.uleb128 0x3b
 8613 0219 05       		.uleb128 0x5
 8614 021a 27       		.uleb128 0x27
 8615 021b 19       		.uleb128 0x19
 8616 021c 11       		.uleb128 0x11
 8617 021d 01       		.uleb128 0x1
 8618 021e 12       		.uleb128 0x12
 8619 021f 06       		.uleb128 0x6
 8620 0220 40       		.uleb128 0x40
 8621 0221 18       		.uleb128 0x18
 8622 0222 9742     		.uleb128 0x2117
 8623 0224 19       		.uleb128 0x19
 8624 0225 01       		.uleb128 0x1
 8625 0226 13       		.uleb128 0x13
 8626 0227 00       		.byte	0
 8627 0228 00       		.byte	0
 8628 0229 2A       		.uleb128 0x2a
 8629 022a 2E       		.uleb128 0x2e
 8630 022b 00       		.byte	0
 8631 022c 3F       		.uleb128 0x3f
 8632 022d 19       		.uleb128 0x19
 8633 022e 03       		.uleb128 0x3
 8634 022f 0E       		.uleb128 0xe
 8635 0230 3A       		.uleb128 0x3a
 8636 0231 0B       		.uleb128 0xb
 8637 0232 3B       		.uleb128 0x3b
 8638 0233 05       		.uleb128 0x5
 8639 0234 27       		.uleb128 0x27
 8640 0235 19       		.uleb128 0x19
 8641 0236 49       		.uleb128 0x49
 8642 0237 13       		.uleb128 0x13
 8643 0238 11       		.uleb128 0x11
 8644 0239 01       		.uleb128 0x1
 8645 023a 12       		.uleb128 0x12
 8646 023b 06       		.uleb128 0x6
 8647 023c 40       		.uleb128 0x40
 8648 023d 18       		.uleb128 0x18
 8649 023e 9742     		.uleb128 0x2117
 8650 0240 19       		.uleb128 0x19
 8651 0241 00       		.byte	0
 8652 0242 00       		.byte	0
ARM GAS  C:\Users\robom\AppData\Local\Temp\ccqs2S2W.s 			page 200


 8653 0243 2B       		.uleb128 0x2b
 8654 0244 2E       		.uleb128 0x2e
 8655 0245 00       		.byte	0
 8656 0246 3F       		.uleb128 0x3f
 8657 0247 19       		.uleb128 0x19
 8658 0248 03       		.uleb128 0x3
 8659 0249 0E       		.uleb128 0xe
 8660 024a 3A       		.uleb128 0x3a
 8661 024b 0B       		.uleb128 0xb
 8662 024c 3B       		.uleb128 0x3b
 8663 024d 05       		.uleb128 0x5
 8664 024e 27       		.uleb128 0x27
 8665 024f 19       		.uleb128 0x19
 8666 0250 11       		.uleb128 0x11
 8667 0251 01       		.uleb128 0x1
 8668 0252 12       		.uleb128 0x12
 8669 0253 06       		.uleb128 0x6
 8670 0254 40       		.uleb128 0x40
 8671 0255 18       		.uleb128 0x18
 8672 0256 9742     		.uleb128 0x2117
 8673 0258 19       		.uleb128 0x19
 8674 0259 00       		.byte	0
 8675 025a 00       		.byte	0
 8676 025b 2C       		.uleb128 0x2c
 8677 025c 34       		.uleb128 0x34
 8678 025d 00       		.byte	0
 8679 025e 03       		.uleb128 0x3
 8680 025f 08       		.uleb128 0x8
 8681 0260 3A       		.uleb128 0x3a
 8682 0261 0B       		.uleb128 0xb
 8683 0262 3B       		.uleb128 0x3b
 8684 0263 05       		.uleb128 0x5
 8685 0264 49       		.uleb128 0x49
 8686 0265 13       		.uleb128 0x13
 8687 0266 02       		.uleb128 0x2
 8688 0267 17       		.uleb128 0x17
 8689 0268 00       		.byte	0
 8690 0269 00       		.byte	0
 8691 026a 2D       		.uleb128 0x2d
 8692 026b 2E       		.uleb128 0x2e
 8693 026c 01       		.byte	0x1
 8694 026d 3F       		.uleb128 0x3f
 8695 026e 19       		.uleb128 0x19
 8696 026f 03       		.uleb128 0x3
 8697 0270 0E       		.uleb128 0xe
 8698 0271 3A       		.uleb128 0x3a
 8699 0272 0B       		.uleb128 0xb
 8700 0273 3B       		.uleb128 0x3b
 8701 0274 05       		.uleb128 0x5
 8702 0275 27       		.uleb128 0x27
 8703 0276 19       		.uleb128 0x19
 8704 0277 49       		.uleb128 0x49
 8705 0278 13       		.uleb128 0x13
 8706 0279 11       		.uleb128 0x11
 8707 027a 01       		.uleb128 0x1
 8708 027b 12       		.uleb128 0x12
 8709 027c 06       		.uleb128 0x6
ARM GAS  C:\Users\robom\AppData\Local\Temp\ccqs2S2W.s 			page 201


 8710 027d 40       		.uleb128 0x40
 8711 027e 18       		.uleb128 0x18
 8712 027f 9742     		.uleb128 0x2117
 8713 0281 19       		.uleb128 0x19
 8714 0282 01       		.uleb128 0x1
 8715 0283 13       		.uleb128 0x13
 8716 0284 00       		.byte	0
 8717 0285 00       		.byte	0
 8718 0286 2E       		.uleb128 0x2e
 8719 0287 05       		.uleb128 0x5
 8720 0288 00       		.byte	0
 8721 0289 03       		.uleb128 0x3
 8722 028a 08       		.uleb128 0x8
 8723 028b 3A       		.uleb128 0x3a
 8724 028c 0B       		.uleb128 0xb
 8725 028d 3B       		.uleb128 0x3b
 8726 028e 05       		.uleb128 0x5
 8727 028f 49       		.uleb128 0x49
 8728 0290 13       		.uleb128 0x13
 8729 0291 02       		.uleb128 0x2
 8730 0292 17       		.uleb128 0x17
 8731 0293 00       		.byte	0
 8732 0294 00       		.byte	0
 8733 0295 2F       		.uleb128 0x2f
 8734 0296 34       		.uleb128 0x34
 8735 0297 00       		.byte	0
 8736 0298 03       		.uleb128 0x3
 8737 0299 08       		.uleb128 0x8
 8738 029a 3A       		.uleb128 0x3a
 8739 029b 0B       		.uleb128 0xb
 8740 029c 3B       		.uleb128 0x3b
 8741 029d 05       		.uleb128 0x5
 8742 029e 49       		.uleb128 0x49
 8743 029f 13       		.uleb128 0x13
 8744 02a0 02       		.uleb128 0x2
 8745 02a1 18       		.uleb128 0x18
 8746 02a2 00       		.byte	0
 8747 02a3 00       		.byte	0
 8748 02a4 30       		.uleb128 0x30
 8749 02a5 898201   		.uleb128 0x4109
 8750 02a8 00       		.byte	0
 8751 02a9 11       		.uleb128 0x11
 8752 02aa 01       		.uleb128 0x1
 8753 02ab 31       		.uleb128 0x31
 8754 02ac 13       		.uleb128 0x13
 8755 02ad 00       		.byte	0
 8756 02ae 00       		.byte	0
 8757 02af 31       		.uleb128 0x31
 8758 02b0 0B       		.uleb128 0xb
 8759 02b1 01       		.byte	0x1
 8760 02b2 11       		.uleb128 0x11
 8761 02b3 01       		.uleb128 0x1
 8762 02b4 12       		.uleb128 0x12
 8763 02b5 06       		.uleb128 0x6
 8764 02b6 01       		.uleb128 0x1
 8765 02b7 13       		.uleb128 0x13
 8766 02b8 00       		.byte	0
ARM GAS  C:\Users\robom\AppData\Local\Temp\ccqs2S2W.s 			page 202


 8767 02b9 00       		.byte	0
 8768 02ba 32       		.uleb128 0x32
 8769 02bb 898201   		.uleb128 0x4109
 8770 02be 01       		.byte	0x1
 8771 02bf 11       		.uleb128 0x11
 8772 02c0 01       		.uleb128 0x1
 8773 02c1 31       		.uleb128 0x31
 8774 02c2 13       		.uleb128 0x13
 8775 02c3 00       		.byte	0
 8776 02c4 00       		.byte	0
 8777 02c5 33       		.uleb128 0x33
 8778 02c6 8A8201   		.uleb128 0x410a
 8779 02c9 00       		.byte	0
 8780 02ca 02       		.uleb128 0x2
 8781 02cb 18       		.uleb128 0x18
 8782 02cc 9142     		.uleb128 0x2111
 8783 02ce 18       		.uleb128 0x18
 8784 02cf 00       		.byte	0
 8785 02d0 00       		.byte	0
 8786 02d1 34       		.uleb128 0x34
 8787 02d2 898201   		.uleb128 0x4109
 8788 02d5 01       		.byte	0x1
 8789 02d6 11       		.uleb128 0x11
 8790 02d7 01       		.uleb128 0x1
 8791 02d8 31       		.uleb128 0x31
 8792 02d9 13       		.uleb128 0x13
 8793 02da 01       		.uleb128 0x1
 8794 02db 13       		.uleb128 0x13
 8795 02dc 00       		.byte	0
 8796 02dd 00       		.byte	0
 8797 02de 35       		.uleb128 0x35
 8798 02df 2E       		.uleb128 0x2e
 8799 02e0 01       		.byte	0x1
 8800 02e1 3F       		.uleb128 0x3f
 8801 02e2 19       		.uleb128 0x19
 8802 02e3 03       		.uleb128 0x3
 8803 02e4 0E       		.uleb128 0xe
 8804 02e5 3A       		.uleb128 0x3a
 8805 02e6 0B       		.uleb128 0xb
 8806 02e7 3B       		.uleb128 0x3b
 8807 02e8 05       		.uleb128 0x5
 8808 02e9 49       		.uleb128 0x49
 8809 02ea 13       		.uleb128 0x13
 8810 02eb 3C       		.uleb128 0x3c
 8811 02ec 19       		.uleb128 0x19
 8812 02ed 01       		.uleb128 0x1
 8813 02ee 13       		.uleb128 0x13
 8814 02ef 00       		.byte	0
 8815 02f0 00       		.byte	0
 8816 02f1 36       		.uleb128 0x36
 8817 02f2 18       		.uleb128 0x18
 8818 02f3 00       		.byte	0
 8819 02f4 00       		.byte	0
 8820 02f5 00       		.byte	0
 8821 02f6 37       		.uleb128 0x37
 8822 02f7 05       		.uleb128 0x5
 8823 02f8 00       		.byte	0
ARM GAS  C:\Users\robom\AppData\Local\Temp\ccqs2S2W.s 			page 203


 8824 02f9 03       		.uleb128 0x3
 8825 02fa 08       		.uleb128 0x8
 8826 02fb 3A       		.uleb128 0x3a
 8827 02fc 0B       		.uleb128 0xb
 8828 02fd 3B       		.uleb128 0x3b
 8829 02fe 05       		.uleb128 0x5
 8830 02ff 49       		.uleb128 0x49
 8831 0300 13       		.uleb128 0x13
 8832 0301 02       		.uleb128 0x2
 8833 0302 18       		.uleb128 0x18
 8834 0303 00       		.byte	0
 8835 0304 00       		.byte	0
 8836 0305 38       		.uleb128 0x38
 8837 0306 34       		.uleb128 0x34
 8838 0307 00       		.byte	0
 8839 0308 03       		.uleb128 0x3
 8840 0309 0E       		.uleb128 0xe
 8841 030a 3A       		.uleb128 0x3a
 8842 030b 0B       		.uleb128 0xb
 8843 030c 3B       		.uleb128 0x3b
 8844 030d 0B       		.uleb128 0xb
 8845 030e 49       		.uleb128 0x49
 8846 030f 13       		.uleb128 0x13
 8847 0310 02       		.uleb128 0x2
 8848 0311 18       		.uleb128 0x18
 8849 0312 00       		.byte	0
 8850 0313 00       		.byte	0
 8851 0314 39       		.uleb128 0x39
 8852 0315 34       		.uleb128 0x34
 8853 0316 00       		.byte	0
 8854 0317 03       		.uleb128 0x3
 8855 0318 0E       		.uleb128 0xe
 8856 0319 3A       		.uleb128 0x3a
 8857 031a 0B       		.uleb128 0xb
 8858 031b 3B       		.uleb128 0x3b
 8859 031c 0B       		.uleb128 0xb
 8860 031d 49       		.uleb128 0x49
 8861 031e 13       		.uleb128 0x13
 8862 031f 1C       		.uleb128 0x1c
 8863 0320 06       		.uleb128 0x6
 8864 0321 00       		.byte	0
 8865 0322 00       		.byte	0
 8866 0323 3A       		.uleb128 0x3a
 8867 0324 34       		.uleb128 0x34
 8868 0325 00       		.byte	0
 8869 0326 03       		.uleb128 0x3
 8870 0327 0E       		.uleb128 0xe
 8871 0328 3A       		.uleb128 0x3a
 8872 0329 0B       		.uleb128 0xb
 8873 032a 3B       		.uleb128 0x3b
 8874 032b 0B       		.uleb128 0xb
 8875 032c 49       		.uleb128 0x49
 8876 032d 13       		.uleb128 0x13
 8877 032e 1C       		.uleb128 0x1c
 8878 032f 0B       		.uleb128 0xb
 8879 0330 00       		.byte	0
 8880 0331 00       		.byte	0
ARM GAS  C:\Users\robom\AppData\Local\Temp\ccqs2S2W.s 			page 204


 8881 0332 3B       		.uleb128 0x3b
 8882 0333 34       		.uleb128 0x34
 8883 0334 00       		.byte	0
 8884 0335 03       		.uleb128 0x3
 8885 0336 0E       		.uleb128 0xe
 8886 0337 3A       		.uleb128 0x3a
 8887 0338 0B       		.uleb128 0xb
 8888 0339 3B       		.uleb128 0x3b
 8889 033a 0B       		.uleb128 0xb
 8890 033b 49       		.uleb128 0x49
 8891 033c 13       		.uleb128 0x13
 8892 033d 3F       		.uleb128 0x3f
 8893 033e 19       		.uleb128 0x19
 8894 033f 3C       		.uleb128 0x3c
 8895 0340 19       		.uleb128 0x19
 8896 0341 00       		.byte	0
 8897 0342 00       		.byte	0
 8898 0343 3C       		.uleb128 0x3c
 8899 0344 34       		.uleb128 0x34
 8900 0345 00       		.byte	0
 8901 0346 03       		.uleb128 0x3
 8902 0347 0E       		.uleb128 0xe
 8903 0348 3A       		.uleb128 0x3a
 8904 0349 0B       		.uleb128 0xb
 8905 034a 3B       		.uleb128 0x3b
 8906 034b 05       		.uleb128 0x5
 8907 034c 49       		.uleb128 0x49
 8908 034d 13       		.uleb128 0x13
 8909 034e 3F       		.uleb128 0x3f
 8910 034f 19       		.uleb128 0x19
 8911 0350 3C       		.uleb128 0x3c
 8912 0351 19       		.uleb128 0x19
 8913 0352 00       		.byte	0
 8914 0353 00       		.byte	0
 8915 0354 3D       		.uleb128 0x3d
 8916 0355 34       		.uleb128 0x34
 8917 0356 00       		.byte	0
 8918 0357 03       		.uleb128 0x3
 8919 0358 0E       		.uleb128 0xe
 8920 0359 3A       		.uleb128 0x3a
 8921 035a 0B       		.uleb128 0xb
 8922 035b 3B       		.uleb128 0x3b
 8923 035c 0B       		.uleb128 0xb
 8924 035d 49       		.uleb128 0x49
 8925 035e 13       		.uleb128 0x13
 8926 035f 3F       		.uleb128 0x3f
 8927 0360 19       		.uleb128 0x19
 8928 0361 02       		.uleb128 0x2
 8929 0362 18       		.uleb128 0x18
 8930 0363 00       		.byte	0
 8931 0364 00       		.byte	0
 8932 0365 3E       		.uleb128 0x3e
 8933 0366 2E       		.uleb128 0x2e
 8934 0367 00       		.byte	0
 8935 0368 3F       		.uleb128 0x3f
 8936 0369 19       		.uleb128 0x19
 8937 036a 3C       		.uleb128 0x3c
ARM GAS  C:\Users\robom\AppData\Local\Temp\ccqs2S2W.s 			page 205


 8938 036b 19       		.uleb128 0x19
 8939 036c 6E       		.uleb128 0x6e
 8940 036d 0E       		.uleb128 0xe
 8941 036e 03       		.uleb128 0x3
 8942 036f 0E       		.uleb128 0xe
 8943 0370 3A       		.uleb128 0x3a
 8944 0371 0B       		.uleb128 0xb
 8945 0372 3B       		.uleb128 0x3b
 8946 0373 0B       		.uleb128 0xb
 8947 0374 00       		.byte	0
 8948 0375 00       		.byte	0
 8949 0376 3F       		.uleb128 0x3f
 8950 0377 2E       		.uleb128 0x2e
 8951 0378 00       		.byte	0
 8952 0379 3F       		.uleb128 0x3f
 8953 037a 19       		.uleb128 0x19
 8954 037b 3C       		.uleb128 0x3c
 8955 037c 19       		.uleb128 0x19
 8956 037d 6E       		.uleb128 0x6e
 8957 037e 0E       		.uleb128 0xe
 8958 037f 03       		.uleb128 0x3
 8959 0380 0E       		.uleb128 0xe
 8960 0381 3A       		.uleb128 0x3a
 8961 0382 0B       		.uleb128 0xb
 8962 0383 3B       		.uleb128 0x3b
 8963 0384 05       		.uleb128 0x5
 8964 0385 00       		.byte	0
 8965 0386 00       		.byte	0
 8966 0387 00       		.byte	0
 8967              		.section	.debug_loc,"",%progbits
 8968              	.Ldebug_loc0:
 8969              	.LLST0:
 8970 0000 00000000 		.4byte	.LVL0
 8971 0004 02000000 		.4byte	.LVL1
 8972 0008 0100     		.2byte	0x1
 8973 000a 50       		.byte	0x50
 8974 000b 02000000 		.4byte	.LVL1
 8975 000f 06000000 		.4byte	.LVL2
 8976 0013 0300     		.2byte	0x3
 8977 0015 70       		.byte	0x70
 8978 0016 7F       		.sleb128 -1
 8979 0017 9F       		.byte	0x9f
 8980 0018 06000000 		.4byte	.LVL2
 8981 001c 44000000 		.4byte	.LFE150
 8982 0020 0400     		.2byte	0x4
 8983 0022 F3       		.byte	0xf3
 8984 0023 01       		.uleb128 0x1
 8985 0024 50       		.byte	0x50
 8986 0025 9F       		.byte	0x9f
 8987 0026 00000000 		.4byte	0
 8988 002a 00000000 		.4byte	0
 8989              	.LLST1:
 8990 002e 10000000 		.4byte	.LVL3
 8991 0032 16000000 		.4byte	.LVL5
 8992 0036 0100     		.2byte	0x1
 8993 0038 50       		.byte	0x50
 8994 0039 16000000 		.4byte	.LVL5
ARM GAS  C:\Users\robom\AppData\Local\Temp\ccqs2S2W.s 			page 206


 8995 003d 1A000000 		.4byte	.LVL6
 8996 0041 0300     		.2byte	0x3
 8997 0043 70       		.byte	0x70
 8998 0044 7F       		.sleb128 -1
 8999 0045 9F       		.byte	0x9f
 9000 0046 24000000 		.4byte	.LVL7
 9001 004a 3A000000 		.4byte	.LVL11
 9002 004e 0100     		.2byte	0x1
 9003 0050 50       		.byte	0x50
 9004 0051 00000000 		.4byte	0
 9005 0055 00000000 		.4byte	0
 9006              	.LLST2:
 9007 0059 00000000 		.4byte	.LVL0
 9008 005d 14000000 		.4byte	.LVL4
 9009 0061 0200     		.2byte	0x2
 9010 0063 30       		.byte	0x30
 9011 0064 9F       		.byte	0x9f
 9012 0065 14000000 		.4byte	.LVL4
 9013 0069 26000000 		.4byte	.LVL8
 9014 006d 0100     		.2byte	0x1
 9015 006f 51       		.byte	0x51
 9016 0070 26000000 		.4byte	.LVL8
 9017 0074 30000000 		.4byte	.LVL9
 9018 0078 0100     		.2byte	0x1
 9019 007a 53       		.byte	0x53
 9020 007b 30000000 		.4byte	.LVL9
 9021 007f 34000000 		.4byte	.LVL10
 9022 0083 0100     		.2byte	0x1
 9023 0085 51       		.byte	0x51
 9024 0086 00000000 		.4byte	0
 9025 008a 00000000 		.4byte	0
 9026              	.LLST3:
 9027 008e 06000000 		.4byte	.LVL13
 9028 0092 0C000000 		.4byte	.LVL14
 9029 0096 0200     		.2byte	0x2
 9030 0098 31       		.byte	0x31
 9031 0099 9F       		.byte	0x9f
 9032 009a 00000000 		.4byte	0
 9033 009e 00000000 		.4byte	0
 9034              	.LLST4:
 9035 00a2 00000000 		.4byte	.LVL15
 9036 00a6 68000000 		.4byte	.LVL25
 9037 00aa 0100     		.2byte	0x1
 9038 00ac 50       		.byte	0x50
 9039 00ad 68000000 		.4byte	.LVL25
 9040 00b1 78000000 		.4byte	.LFE152
 9041 00b5 0400     		.2byte	0x4
 9042 00b7 F3       		.byte	0xf3
 9043 00b8 01       		.uleb128 0x1
 9044 00b9 50       		.byte	0x50
 9045 00ba 9F       		.byte	0x9f
 9046 00bb 00000000 		.4byte	0
 9047 00bf 00000000 		.4byte	0
 9048              	.LLST5:
 9049 00c3 02000000 		.4byte	.LVL16
 9050 00c7 1E000000 		.4byte	.LVL18
 9051 00cb 0200     		.2byte	0x2
ARM GAS  C:\Users\robom\AppData\Local\Temp\ccqs2S2W.s 			page 207


 9052 00cd 30       		.byte	0x30
 9053 00ce 9F       		.byte	0x9f
 9054 00cf 1E000000 		.4byte	.LVL18
 9055 00d3 32000000 		.4byte	.LVL21
 9056 00d7 0100     		.2byte	0x1
 9057 00d9 55       		.byte	0x55
 9058 00da 32000000 		.4byte	.LVL21
 9059 00de 40000000 		.4byte	.LVL22
 9060 00e2 0100     		.2byte	0x1
 9061 00e4 51       		.byte	0x51
 9062 00e5 40000000 		.4byte	.LVL22
 9063 00e9 44000000 		.4byte	.LVL23
 9064 00ed 0100     		.2byte	0x1
 9065 00ef 55       		.byte	0x55
 9066 00f0 00000000 		.4byte	0
 9067 00f4 00000000 		.4byte	0
 9068              	.LLST6:
 9069 00f8 1A000000 		.4byte	.LVL17
 9070 00fc 22000000 		.4byte	.LVL19
 9071 0100 0100     		.2byte	0x1
 9072 0102 53       		.byte	0x53
 9073 0103 30000000 		.4byte	.LVL20
 9074 0107 60000000 		.4byte	.LVL24
 9075 010b 0100     		.2byte	0x1
 9076 010d 53       		.byte	0x53
 9077 010e 00000000 		.4byte	0
 9078 0112 00000000 		.4byte	0
 9079              	.LLST7:
 9080 0116 00000000 		.4byte	.LVL29
 9081 011a 44000000 		.4byte	.LVL37
 9082 011e 0100     		.2byte	0x1
 9083 0120 50       		.byte	0x50
 9084 0121 44000000 		.4byte	.LVL37
 9085 0125 76000000 		.4byte	.LVL42
 9086 0129 0400     		.2byte	0x4
 9087 012b F3       		.byte	0xf3
 9088 012c 01       		.uleb128 0x1
 9089 012d 50       		.byte	0x50
 9090 012e 9F       		.byte	0x9f
 9091 012f 76000000 		.4byte	.LVL42
 9092 0133 7E000000 		.4byte	.LVL44
 9093 0137 0100     		.2byte	0x1
 9094 0139 50       		.byte	0x50
 9095 013a 7E000000 		.4byte	.LVL44
 9096 013e 8C000000 		.4byte	.LFE139
 9097 0142 0400     		.2byte	0x4
 9098 0144 F3       		.byte	0xf3
 9099 0145 01       		.uleb128 0x1
 9100 0146 50       		.byte	0x50
 9101 0147 9F       		.byte	0x9f
 9102 0148 00000000 		.4byte	0
 9103 014c 00000000 		.4byte	0
 9104              	.LLST8:
 9105 0150 00000000 		.4byte	.LVL29
 9106 0154 60000000 		.4byte	.LVL40
 9107 0158 0100     		.2byte	0x1
 9108 015a 51       		.byte	0x51
ARM GAS  C:\Users\robom\AppData\Local\Temp\ccqs2S2W.s 			page 208


 9109 015b 60000000 		.4byte	.LVL40
 9110 015f 76000000 		.4byte	.LVL42
 9111 0163 0400     		.2byte	0x4
 9112 0165 F3       		.byte	0xf3
 9113 0166 01       		.uleb128 0x1
 9114 0167 51       		.byte	0x51
 9115 0168 9F       		.byte	0x9f
 9116 0169 76000000 		.4byte	.LVL42
 9117 016d 7E000000 		.4byte	.LVL44
 9118 0171 0100     		.2byte	0x1
 9119 0173 51       		.byte	0x51
 9120 0174 7E000000 		.4byte	.LVL44
 9121 0178 8C000000 		.4byte	.LFE139
 9122 017c 0400     		.2byte	0x4
 9123 017e F3       		.byte	0xf3
 9124 017f 01       		.uleb128 0x1
 9125 0180 51       		.byte	0x51
 9126 0181 9F       		.byte	0x9f
 9127 0182 00000000 		.4byte	0
 9128 0186 00000000 		.4byte	0
 9129              	.LLST9:
 9130 018a 10000000 		.4byte	.LVL32
 9131 018e 14000000 		.4byte	.LVL33
 9132 0192 0200     		.2byte	0x2
 9133 0194 30       		.byte	0x30
 9134 0195 9F       		.byte	0x9f
 9135 0196 14000000 		.4byte	.LVL33
 9136 019a 2A000000 		.4byte	.LVL35
 9137 019e 0100     		.2byte	0x1
 9138 01a0 52       		.byte	0x52
 9139 01a1 40000000 		.4byte	.LVL36
 9140 01a5 44000000 		.4byte	.LVL37
 9141 01a9 0200     		.2byte	0x2
 9142 01ab 30       		.byte	0x30
 9143 01ac 9F       		.byte	0x9f
 9144 01ad 44000000 		.4byte	.LVL37
 9145 01b1 72000000 		.4byte	.LVL41
 9146 01b5 0100     		.2byte	0x1
 9147 01b7 53       		.byte	0x53
 9148 01b8 00000000 		.4byte	0
 9149 01bc 00000000 		.4byte	0
 9150              	.LLST10:
 9151 01c0 10000000 		.4byte	.LVL32
 9152 01c4 2A000000 		.4byte	.LVL35
 9153 01c8 0100     		.2byte	0x1
 9154 01ca 55       		.byte	0x55
 9155 01cb 2A000000 		.4byte	.LVL35
 9156 01cf 78000000 		.4byte	.LVL43
 9157 01d3 0100     		.2byte	0x1
 9158 01d5 52       		.byte	0x52
 9159 01d6 00000000 		.4byte	0
 9160 01da 00000000 		.4byte	0
 9161              	.LLST11:
 9162 01de 14000000 		.4byte	.LVL33
 9163 01e2 24000000 		.4byte	.LVL34
 9164 01e6 0D00     		.2byte	0xd
 9165 01e8 72       		.byte	0x72
ARM GAS  C:\Users\robom\AppData\Local\Temp\ccqs2S2W.s 			page 209


 9166 01e9 00       		.sleb128 0
 9167 01ea 32       		.byte	0x32
 9168 01eb 25       		.byte	0x25
 9169 01ec 32       		.byte	0x32
 9170 01ed 24       		.byte	0x24
 9171 01ee 03       		.byte	0x3
 9172 01ef 24000000 		.4byte	symbolTable
 9173 01f3 22       		.byte	0x22
 9174 01f4 9F       		.byte	0x9f
 9175 01f5 00000000 		.4byte	0
 9176 01f9 00000000 		.4byte	0
 9177              	.LLST12:
 9178 01fd 40000000 		.4byte	.LVL36
 9179 0201 76000000 		.4byte	.LVL42
 9180 0205 0100     		.2byte	0x1
 9181 0207 54       		.byte	0x54
 9182 0208 00000000 		.4byte	0
 9183 020c 00000000 		.4byte	0
 9184              	.LLST13:
 9185 0210 06000000 		.4byte	.LVL30
 9186 0214 0C000000 		.4byte	.LVL31
 9187 0218 0200     		.2byte	0x2
 9188 021a 31       		.byte	0x31
 9189 021b 9F       		.byte	0x9f
 9190 021c 00000000 		.4byte	0
 9191 0220 00000000 		.4byte	0
 9192              	.LLST14:
 9193 0224 7E000000 		.4byte	.LVL44
 9194 0228 82000000 		.4byte	.LVL45
 9195 022c 0100     		.2byte	0x1
 9196 022e 56       		.byte	0x56
 9197 022f 00000000 		.4byte	0
 9198 0233 00000000 		.4byte	0
 9199              	.LLST15:
 9200 0237 0C000000 		.4byte	.LVL48
 9201 023b 10000000 		.4byte	.LVL49
 9202 023f 0200     		.2byte	0x2
 9203 0241 30       		.byte	0x30
 9204 0242 9F       		.byte	0x9f
 9205 0243 10000000 		.4byte	.LVL49
 9206 0247 3A000000 		.4byte	.LVL52
 9207 024b 0100     		.2byte	0x1
 9208 024d 52       		.byte	0x52
 9209 024e 54000000 		.4byte	.LVL55
 9210 0252 5E000000 		.4byte	.LVL56
 9211 0256 0100     		.2byte	0x1
 9212 0258 52       		.byte	0x52
 9213 0259 68000000 		.4byte	.LVL57
 9214 025d 72000000 		.4byte	.LVL59
 9215 0261 0100     		.2byte	0x1
 9216 0263 52       		.byte	0x52
 9217 0264 00000000 		.4byte	0
 9218 0268 00000000 		.4byte	0
 9219              	.LLST16:
 9220 026c 36000000 		.4byte	.LVL51
 9221 0270 3A000000 		.4byte	.LVL52
 9222 0274 0200     		.2byte	0x2
ARM GAS  C:\Users\robom\AppData\Local\Temp\ccqs2S2W.s 			page 210


 9223 0276 30       		.byte	0x30
 9224 0277 9F       		.byte	0x9f
 9225 0278 3A000000 		.4byte	.LVL52
 9226 027c 4A000000 		.4byte	.LVL54
 9227 0280 0100     		.2byte	0x1
 9228 0282 53       		.byte	0x53
 9229 0283 00000000 		.4byte	0
 9230 0287 00000000 		.4byte	0
 9231              	.LLST17:
 9232 028b 1C000000 		.4byte	.LVL50
 9233 028f 6A000000 		.4byte	.LVL58
 9234 0293 0100     		.2byte	0x1
 9235 0295 56       		.byte	0x56
 9236 0296 00000000 		.4byte	0
 9237 029a 00000000 		.4byte	0
 9238              	.LLST18:
 9239 029e 36000000 		.4byte	.LVL51
 9240 02a2 54000000 		.4byte	.LVL55
 9241 02a6 0100     		.2byte	0x1
 9242 02a8 51       		.byte	0x51
 9243 02a9 00000000 		.4byte	0
 9244 02ad 00000000 		.4byte	0
 9245              	.LLST19:
 9246 02b1 06000000 		.4byte	.LVL47
 9247 02b5 0C000000 		.4byte	.LVL48
 9248 02b9 0200     		.2byte	0x2
 9249 02bb 31       		.byte	0x31
 9250 02bc 9F       		.byte	0x9f
 9251 02bd 00000000 		.4byte	0
 9252 02c1 00000000 		.4byte	0
 9253              	.LLST20:
 9254 02c5 72000000 		.4byte	.LVL59
 9255 02c9 76000000 		.4byte	.LVL60
 9256 02cd 0100     		.2byte	0x1
 9257 02cf 57       		.byte	0x57
 9258 02d0 00000000 		.4byte	0
 9259 02d4 00000000 		.4byte	0
 9260              	.LLST21:
 9261 02d8 12000000 		.4byte	.LVL64
 9262 02dc 16000000 		.4byte	.LVL65
 9263 02e0 0200     		.2byte	0x2
 9264 02e2 30       		.byte	0x30
 9265 02e3 9F       		.byte	0x9f
 9266 02e4 16000000 		.4byte	.LVL65
 9267 02e8 2E000000 		.4byte	.LVL67
 9268 02ec 0100     		.2byte	0x1
 9269 02ee 53       		.byte	0x53
 9270 02ef 00000000 		.4byte	0
 9271 02f3 00000000 		.4byte	0
 9272              	.LLST22:
 9273 02f7 12000000 		.4byte	.LVL64
 9274 02fb 2E000000 		.4byte	.LVL67
 9275 02ff 0100     		.2byte	0x1
 9276 0301 55       		.byte	0x55
 9277 0302 2E000000 		.4byte	.LVL67
 9278 0306 52000000 		.4byte	.LVL68
 9279 030a 0100     		.2byte	0x1
ARM GAS  C:\Users\robom\AppData\Local\Temp\ccqs2S2W.s 			page 211


 9280 030c 53       		.byte	0x53
 9281 030d 58000000 		.4byte	.LVL69
 9282 0311 5C000000 		.4byte	.LVL70
 9283 0315 0100     		.2byte	0x1
 9284 0317 53       		.byte	0x53
 9285 0318 00000000 		.4byte	0
 9286 031c 00000000 		.4byte	0
 9287              	.LLST23:
 9288 0320 16000000 		.4byte	.LVL65
 9289 0324 28000000 		.4byte	.LVL66
 9290 0328 0D00     		.2byte	0xd
 9291 032a 73       		.byte	0x73
 9292 032b 00       		.sleb128 0
 9293 032c 32       		.byte	0x32
 9294 032d 25       		.byte	0x25
 9295 032e 32       		.byte	0x32
 9296 032f 24       		.byte	0x24
 9297 0330 03       		.byte	0x3
 9298 0331 28050000 		.4byte	objectDataTable
 9299 0335 22       		.byte	0x22
 9300 0336 9F       		.byte	0x9f
 9301 0337 00000000 		.4byte	0
 9302 033b 00000000 		.4byte	0
 9303              	.LLST24:
 9304 033f 06000000 		.4byte	.LVL62
 9305 0343 0C000000 		.4byte	.LVL63
 9306 0347 0200     		.2byte	0x2
 9307 0349 31       		.byte	0x31
 9308 034a 9F       		.byte	0x9f
 9309 034b 00000000 		.4byte	0
 9310 034f 00000000 		.4byte	0
 9311              	.LLST25:
 9312 0353 60000000 		.4byte	.LVL71
 9313 0357 64000000 		.4byte	.LVL72
 9314 035b 0100     		.2byte	0x1
 9315 035d 56       		.byte	0x56
 9316 035e 00000000 		.4byte	0
 9317 0362 00000000 		.4byte	0
 9318              	.LLST26:
 9319 0366 0C000000 		.4byte	.LVL75
 9320 036a 10000000 		.4byte	.LVL76
 9321 036e 0200     		.2byte	0x2
 9322 0370 30       		.byte	0x30
 9323 0371 9F       		.byte	0x9f
 9324 0372 10000000 		.4byte	.LVL76
 9325 0376 36000000 		.4byte	.LVL78
 9326 037a 0100     		.2byte	0x1
 9327 037c 52       		.byte	0x52
 9328 037d 5A000000 		.4byte	.LVL83
 9329 0381 66000000 		.4byte	.LVL84
 9330 0385 0100     		.2byte	0x1
 9331 0387 52       		.byte	0x52
 9332 0388 74000000 		.4byte	.LVL85
 9333 038c 80000000 		.4byte	.LVL87
 9334 0390 0100     		.2byte	0x1
 9335 0392 52       		.byte	0x52
 9336 0393 00000000 		.4byte	0
ARM GAS  C:\Users\robom\AppData\Local\Temp\ccqs2S2W.s 			page 212


 9337 0397 00000000 		.4byte	0
 9338              	.LLST27:
 9339 039b 3A000000 		.4byte	.LVL79
 9340 039f 3E000000 		.4byte	.LVL80
 9341 03a3 0200     		.2byte	0x2
 9342 03a5 30       		.byte	0x30
 9343 03a6 9F       		.byte	0x9f
 9344 03a7 3E000000 		.4byte	.LVL80
 9345 03ab 4E000000 		.4byte	.LVL82
 9346 03af 0100     		.2byte	0x1
 9347 03b1 53       		.byte	0x53
 9348 03b2 00000000 		.4byte	0
 9349 03b6 00000000 		.4byte	0
 9350              	.LLST28:
 9351 03ba 1C000000 		.4byte	.LVL77
 9352 03be 76000000 		.4byte	.LVL86
 9353 03c2 0100     		.2byte	0x1
 9354 03c4 56       		.byte	0x56
 9355 03c5 00000000 		.4byte	0
 9356 03c9 00000000 		.4byte	0
 9357              	.LLST29:
 9358 03cd 3A000000 		.4byte	.LVL79
 9359 03d1 5A000000 		.4byte	.LVL83
 9360 03d5 0100     		.2byte	0x1
 9361 03d7 52       		.byte	0x52
 9362 03d8 00000000 		.4byte	0
 9363 03dc 00000000 		.4byte	0
 9364              	.LLST30:
 9365 03e0 06000000 		.4byte	.LVL74
 9366 03e4 0C000000 		.4byte	.LVL75
 9367 03e8 0200     		.2byte	0x2
 9368 03ea 31       		.byte	0x31
 9369 03eb 9F       		.byte	0x9f
 9370 03ec 00000000 		.4byte	0
 9371 03f0 00000000 		.4byte	0
 9372              	.LLST31:
 9373 03f4 80000000 		.4byte	.LVL87
 9374 03f8 84000000 		.4byte	.LVL88
 9375 03fc 0100     		.2byte	0x1
 9376 03fe 57       		.byte	0x57
 9377 03ff 00000000 		.4byte	0
 9378 0403 00000000 		.4byte	0
 9379              	.LLST32:
 9380 0407 00000000 		.4byte	.LVL89
 9381 040b 34000000 		.4byte	.LVL92
 9382 040f 0100     		.2byte	0x1
 9383 0411 50       		.byte	0x50
 9384 0412 34000000 		.4byte	.LVL92
 9385 0416 36000000 		.4byte	.LVL93
 9386 041a 0400     		.2byte	0x4
 9387 041c F3       		.byte	0xf3
 9388 041d 01       		.uleb128 0x1
 9389 041e 50       		.byte	0x50
 9390 041f 9F       		.byte	0x9f
 9391 0420 36000000 		.4byte	.LVL93
 9392 0424 38000000 		.4byte	.LVL94
 9393 0428 0100     		.2byte	0x1
ARM GAS  C:\Users\robom\AppData\Local\Temp\ccqs2S2W.s 			page 213


 9394 042a 50       		.byte	0x50
 9395 042b 38000000 		.4byte	.LVL94
 9396 042f 3A000000 		.4byte	.LVL95
 9397 0433 0400     		.2byte	0x4
 9398 0435 F3       		.byte	0xf3
 9399 0436 01       		.uleb128 0x1
 9400 0437 50       		.byte	0x50
 9401 0438 9F       		.byte	0x9f
 9402 0439 3A000000 		.4byte	.LVL95
 9403 043d 3C000000 		.4byte	.LVL96
 9404 0441 0100     		.2byte	0x1
 9405 0443 50       		.byte	0x50
 9406 0444 3C000000 		.4byte	.LVL96
 9407 0448 3E000000 		.4byte	.LVL97
 9408 044c 0400     		.2byte	0x4
 9409 044e F3       		.byte	0xf3
 9410 044f 01       		.uleb128 0x1
 9411 0450 50       		.byte	0x50
 9412 0451 9F       		.byte	0x9f
 9413 0452 3E000000 		.4byte	.LVL97
 9414 0456 40000000 		.4byte	.LVL98
 9415 045a 0100     		.2byte	0x1
 9416 045c 50       		.byte	0x50
 9417 045d 40000000 		.4byte	.LVL98
 9418 0461 44000000 		.4byte	.LFE143
 9419 0465 0400     		.2byte	0x4
 9420 0467 F3       		.byte	0xf3
 9421 0468 01       		.uleb128 0x1
 9422 0469 50       		.byte	0x50
 9423 046a 9F       		.byte	0x9f
 9424 046b 00000000 		.4byte	0
 9425 046f 00000000 		.4byte	0
 9426              	.LLST33:
 9427 0473 1E000000 		.4byte	.LVL90
 9428 0477 2A000000 		.4byte	.LVL91
 9429 047b 0100     		.2byte	0x1
 9430 047d 53       		.byte	0x53
 9431 047e 2A000000 		.4byte	.LVL91
 9432 0482 34000000 		.4byte	.LVL92
 9433 0486 2100     		.2byte	0x21
 9434 0488 70       		.byte	0x70
 9435 0489 01       		.sleb128 1
 9436 048a 94       		.byte	0x94
 9437 048b 01       		.byte	0x1
 9438 048c 08       		.byte	0x8
 9439 048d FF       		.byte	0xff
 9440 048e 1A       		.byte	0x1a
 9441 048f 70       		.byte	0x70
 9442 0490 05       		.sleb128 5
 9443 0491 94       		.byte	0x94
 9444 0492 01       		.byte	0x1
 9445 0493 08       		.byte	0x8
 9446 0494 FF       		.byte	0xff
 9447 0495 1A       		.byte	0x1a
 9448 0496 22       		.byte	0x22
 9449 0497 71       		.byte	0x71
 9450 0498 00       		.sleb128 0
ARM GAS  C:\Users\robom\AppData\Local\Temp\ccqs2S2W.s 			page 214


 9451 0499 22       		.byte	0x22
 9452 049a 74       		.byte	0x74
 9453 049b 00       		.sleb128 0
 9454 049c 22       		.byte	0x22
 9455 049d 75       		.byte	0x75
 9456 049e 00       		.sleb128 0
 9457 049f 22       		.byte	0x22
 9458 04a0 76       		.byte	0x76
 9459 04a1 00       		.sleb128 0
 9460 04a2 22       		.byte	0x22
 9461 04a3 0A       		.byte	0xa
 9462 04a4 FFFF     		.2byte	0xffff
 9463 04a6 1A       		.byte	0x1a
 9464 04a7 20       		.byte	0x20
 9465 04a8 9F       		.byte	0x9f
 9466 04a9 34000000 		.4byte	.LVL92
 9467 04ad 36000000 		.4byte	.LVL93
 9468 04b1 2700     		.2byte	0x27
 9469 04b3 F3       		.byte	0xf3
 9470 04b4 01       		.uleb128 0x1
 9471 04b5 50       		.byte	0x50
 9472 04b6 23       		.byte	0x23
 9473 04b7 01       		.uleb128 0x1
 9474 04b8 94       		.byte	0x94
 9475 04b9 01       		.byte	0x1
 9476 04ba 08       		.byte	0x8
 9477 04bb FF       		.byte	0xff
 9478 04bc 1A       		.byte	0x1a
 9479 04bd F3       		.byte	0xf3
 9480 04be 01       		.uleb128 0x1
 9481 04bf 50       		.byte	0x50
 9482 04c0 23       		.byte	0x23
 9483 04c1 05       		.uleb128 0x5
 9484 04c2 94       		.byte	0x94
 9485 04c3 01       		.byte	0x1
 9486 04c4 08       		.byte	0x8
 9487 04c5 FF       		.byte	0xff
 9488 04c6 1A       		.byte	0x1a
 9489 04c7 22       		.byte	0x22
 9490 04c8 71       		.byte	0x71
 9491 04c9 00       		.sleb128 0
 9492 04ca 22       		.byte	0x22
 9493 04cb 74       		.byte	0x74
 9494 04cc 00       		.sleb128 0
 9495 04cd 22       		.byte	0x22
 9496 04ce 75       		.byte	0x75
 9497 04cf 00       		.sleb128 0
 9498 04d0 22       		.byte	0x22
 9499 04d1 76       		.byte	0x76
 9500 04d2 00       		.sleb128 0
 9501 04d3 22       		.byte	0x22
 9502 04d4 0A       		.byte	0xa
 9503 04d5 FFFF     		.2byte	0xffff
 9504 04d7 1A       		.byte	0x1a
 9505 04d8 20       		.byte	0x20
 9506 04d9 9F       		.byte	0x9f
 9507 04da 36000000 		.4byte	.LVL93
ARM GAS  C:\Users\robom\AppData\Local\Temp\ccqs2S2W.s 			page 215


 9508 04de 3A000000 		.4byte	.LVL95
 9509 04e2 0100     		.2byte	0x1
 9510 04e4 53       		.byte	0x53
 9511 04e5 3A000000 		.4byte	.LVL95
 9512 04e9 3C000000 		.4byte	.LVL96
 9513 04ed 2100     		.2byte	0x21
 9514 04ef 70       		.byte	0x70
 9515 04f0 01       		.sleb128 1
 9516 04f1 94       		.byte	0x94
 9517 04f2 01       		.byte	0x1
 9518 04f3 08       		.byte	0x8
 9519 04f4 FF       		.byte	0xff
 9520 04f5 1A       		.byte	0x1a
 9521 04f6 70       		.byte	0x70
 9522 04f7 05       		.sleb128 5
 9523 04f8 94       		.byte	0x94
 9524 04f9 01       		.byte	0x1
 9525 04fa 08       		.byte	0x8
 9526 04fb FF       		.byte	0xff
 9527 04fc 1A       		.byte	0x1a
 9528 04fd 22       		.byte	0x22
 9529 04fe 71       		.byte	0x71
 9530 04ff 00       		.sleb128 0
 9531 0500 22       		.byte	0x22
 9532 0501 74       		.byte	0x74
 9533 0502 00       		.sleb128 0
 9534 0503 22       		.byte	0x22
 9535 0504 75       		.byte	0x75
 9536 0505 00       		.sleb128 0
 9537 0506 22       		.byte	0x22
 9538 0507 76       		.byte	0x76
 9539 0508 00       		.sleb128 0
 9540 0509 22       		.byte	0x22
 9541 050a 0A       		.byte	0xa
 9542 050b FFFF     		.2byte	0xffff
 9543 050d 1A       		.byte	0x1a
 9544 050e 20       		.byte	0x20
 9545 050f 9F       		.byte	0x9f
 9546 0510 3C000000 		.4byte	.LVL96
 9547 0514 3E000000 		.4byte	.LVL97
 9548 0518 2700     		.2byte	0x27
 9549 051a F3       		.byte	0xf3
 9550 051b 01       		.uleb128 0x1
 9551 051c 50       		.byte	0x50
 9552 051d 23       		.byte	0x23
 9553 051e 01       		.uleb128 0x1
 9554 051f 94       		.byte	0x94
 9555 0520 01       		.byte	0x1
 9556 0521 08       		.byte	0x8
 9557 0522 FF       		.byte	0xff
 9558 0523 1A       		.byte	0x1a
 9559 0524 F3       		.byte	0xf3
 9560 0525 01       		.uleb128 0x1
 9561 0526 50       		.byte	0x50
 9562 0527 23       		.byte	0x23
 9563 0528 05       		.uleb128 0x5
 9564 0529 94       		.byte	0x94
ARM GAS  C:\Users\robom\AppData\Local\Temp\ccqs2S2W.s 			page 216


 9565 052a 01       		.byte	0x1
 9566 052b 08       		.byte	0x8
 9567 052c FF       		.byte	0xff
 9568 052d 1A       		.byte	0x1a
 9569 052e 22       		.byte	0x22
 9570 052f 71       		.byte	0x71
 9571 0530 00       		.sleb128 0
 9572 0531 22       		.byte	0x22
 9573 0532 74       		.byte	0x74
 9574 0533 00       		.sleb128 0
 9575 0534 22       		.byte	0x22
 9576 0535 75       		.byte	0x75
 9577 0536 00       		.sleb128 0
 9578 0537 22       		.byte	0x22
 9579 0538 76       		.byte	0x76
 9580 0539 00       		.sleb128 0
 9581 053a 22       		.byte	0x22
 9582 053b 0A       		.byte	0xa
 9583 053c FFFF     		.2byte	0xffff
 9584 053e 1A       		.byte	0x1a
 9585 053f 20       		.byte	0x20
 9586 0540 9F       		.byte	0x9f
 9587 0541 3E000000 		.4byte	.LVL97
 9588 0545 40000000 		.4byte	.LVL98
 9589 0549 2100     		.2byte	0x21
 9590 054b 70       		.byte	0x70
 9591 054c 01       		.sleb128 1
 9592 054d 94       		.byte	0x94
 9593 054e 01       		.byte	0x1
 9594 054f 08       		.byte	0x8
 9595 0550 FF       		.byte	0xff
 9596 0551 1A       		.byte	0x1a
 9597 0552 70       		.byte	0x70
 9598 0553 05       		.sleb128 5
 9599 0554 94       		.byte	0x94
 9600 0555 01       		.byte	0x1
 9601 0556 08       		.byte	0x8
 9602 0557 FF       		.byte	0xff
 9603 0558 1A       		.byte	0x1a
 9604 0559 22       		.byte	0x22
 9605 055a 71       		.byte	0x71
 9606 055b 00       		.sleb128 0
 9607 055c 22       		.byte	0x22
 9608 055d 74       		.byte	0x74
 9609 055e 00       		.sleb128 0
 9610 055f 22       		.byte	0x22
 9611 0560 75       		.byte	0x75
 9612 0561 00       		.sleb128 0
 9613 0562 22       		.byte	0x22
 9614 0563 76       		.byte	0x76
 9615 0564 00       		.sleb128 0
 9616 0565 22       		.byte	0x22
 9617 0566 0A       		.byte	0xa
 9618 0567 FFFF     		.2byte	0xffff
 9619 0569 1A       		.byte	0x1a
 9620 056a 20       		.byte	0x20
 9621 056b 9F       		.byte	0x9f
ARM GAS  C:\Users\robom\AppData\Local\Temp\ccqs2S2W.s 			page 217


 9622 056c 40000000 		.4byte	.LVL98
 9623 0570 42000000 		.4byte	.LVL99
 9624 0574 2700     		.2byte	0x27
 9625 0576 F3       		.byte	0xf3
 9626 0577 01       		.uleb128 0x1
 9627 0578 50       		.byte	0x50
 9628 0579 23       		.byte	0x23
 9629 057a 01       		.uleb128 0x1
 9630 057b 94       		.byte	0x94
 9631 057c 01       		.byte	0x1
 9632 057d 08       		.byte	0x8
 9633 057e FF       		.byte	0xff
 9634 057f 1A       		.byte	0x1a
 9635 0580 F3       		.byte	0xf3
 9636 0581 01       		.uleb128 0x1
 9637 0582 50       		.byte	0x50
 9638 0583 23       		.byte	0x23
 9639 0584 05       		.uleb128 0x5
 9640 0585 94       		.byte	0x94
 9641 0586 01       		.byte	0x1
 9642 0587 08       		.byte	0x8
 9643 0588 FF       		.byte	0xff
 9644 0589 1A       		.byte	0x1a
 9645 058a 22       		.byte	0x22
 9646 058b 71       		.byte	0x71
 9647 058c 00       		.sleb128 0
 9648 058d 22       		.byte	0x22
 9649 058e 74       		.byte	0x74
 9650 058f 00       		.sleb128 0
 9651 0590 22       		.byte	0x22
 9652 0591 75       		.byte	0x75
 9653 0592 00       		.sleb128 0
 9654 0593 22       		.byte	0x22
 9655 0594 76       		.byte	0x76
 9656 0595 00       		.sleb128 0
 9657 0596 22       		.byte	0x22
 9658 0597 0A       		.byte	0xa
 9659 0598 FFFF     		.2byte	0xffff
 9660 059a 1A       		.byte	0x1a
 9661 059b 20       		.byte	0x20
 9662 059c 9F       		.byte	0x9f
 9663 059d 42000000 		.4byte	.LVL99
 9664 05a1 44000000 		.4byte	.LFE143
 9665 05a5 3D00     		.2byte	0x3d
 9666 05a7 F3       		.byte	0xf3
 9667 05a8 01       		.uleb128 0x1
 9668 05a9 50       		.byte	0x50
 9669 05aa 23       		.byte	0x23
 9670 05ab 01       		.uleb128 0x1
 9671 05ac 94       		.byte	0x94
 9672 05ad 01       		.byte	0x1
 9673 05ae 08       		.byte	0x8
 9674 05af FF       		.byte	0xff
 9675 05b0 1A       		.byte	0x1a
 9676 05b1 F3       		.byte	0xf3
 9677 05b2 01       		.uleb128 0x1
 9678 05b3 50       		.byte	0x50
ARM GAS  C:\Users\robom\AppData\Local\Temp\ccqs2S2W.s 			page 218


 9679 05b4 23       		.byte	0x23
 9680 05b5 05       		.uleb128 0x5
 9681 05b6 94       		.byte	0x94
 9682 05b7 01       		.byte	0x1
 9683 05b8 08       		.byte	0x8
 9684 05b9 FF       		.byte	0xff
 9685 05ba 1A       		.byte	0x1a
 9686 05bb 22       		.byte	0x22
 9687 05bc F3       		.byte	0xf3
 9688 05bd 01       		.uleb128 0x1
 9689 05be 50       		.byte	0x50
 9690 05bf 23       		.byte	0x23
 9691 05c0 03       		.uleb128 0x3
 9692 05c1 94       		.byte	0x94
 9693 05c2 01       		.byte	0x1
 9694 05c3 08       		.byte	0x8
 9695 05c4 FF       		.byte	0xff
 9696 05c5 1A       		.byte	0x1a
 9697 05c6 22       		.byte	0x22
 9698 05c7 F3       		.byte	0xf3
 9699 05c8 01       		.uleb128 0x1
 9700 05c9 50       		.byte	0x50
 9701 05ca 94       		.byte	0x94
 9702 05cb 01       		.byte	0x1
 9703 05cc 08       		.byte	0x8
 9704 05cd FF       		.byte	0xff
 9705 05ce 1A       		.byte	0x1a
 9706 05cf 22       		.byte	0x22
 9707 05d0 F3       		.byte	0xf3
 9708 05d1 01       		.uleb128 0x1
 9709 05d2 50       		.byte	0x50
 9710 05d3 23       		.byte	0x23
 9711 05d4 02       		.uleb128 0x2
 9712 05d5 94       		.byte	0x94
 9713 05d6 01       		.byte	0x1
 9714 05d7 08       		.byte	0x8
 9715 05d8 FF       		.byte	0xff
 9716 05d9 1A       		.byte	0x1a
 9717 05da 22       		.byte	0x22
 9718 05db 71       		.byte	0x71
 9719 05dc 00       		.sleb128 0
 9720 05dd 22       		.byte	0x22
 9721 05de 0A       		.byte	0xa
 9722 05df FFFF     		.2byte	0xffff
 9723 05e1 1A       		.byte	0x1a
 9724 05e2 20       		.byte	0x20
 9725 05e3 9F       		.byte	0x9f
 9726 05e4 00000000 		.4byte	0
 9727 05e8 00000000 		.4byte	0
 9728              	.LLST34:
 9729 05ec 00000000 		.4byte	.LVL100
 9730 05f0 08000000 		.4byte	.LVL101
 9731 05f4 0100     		.2byte	0x1
 9732 05f6 50       		.byte	0x50
 9733 05f7 08000000 		.4byte	.LVL101
 9734 05fb 94000000 		.4byte	.LVL107
 9735 05ff 0100     		.2byte	0x1
ARM GAS  C:\Users\robom\AppData\Local\Temp\ccqs2S2W.s 			page 219


 9736 0601 54       		.byte	0x54
 9737 0602 94000000 		.4byte	.LVL107
 9738 0606 B0000000 		.4byte	.LFE154
 9739 060a 0400     		.2byte	0x4
 9740 060c F3       		.byte	0xf3
 9741 060d 01       		.uleb128 0x1
 9742 060e 50       		.byte	0x50
 9743 060f 9F       		.byte	0x9f
 9744 0610 00000000 		.4byte	0
 9745 0614 00000000 		.4byte	0
 9746              	.LLST35:
 9747 0618 06000000 		.4byte	.LVL108
 9748 061c 0C000000 		.4byte	.LVL109
 9749 0620 0200     		.2byte	0x2
 9750 0622 31       		.byte	0x31
 9751 0623 9F       		.byte	0x9f
 9752 0624 00000000 		.4byte	0
 9753 0628 00000000 		.4byte	0
 9754              	.LLST36:
 9755 062c 18000000 		.4byte	.LVL110
 9756 0630 3A000000 		.4byte	.LVL111
 9757 0634 0100     		.2byte	0x1
 9758 0636 50       		.byte	0x50
 9759 0637 00000000 		.4byte	0
 9760 063b 00000000 		.4byte	0
 9761              	.LLST37:
 9762 063f 3A000000 		.4byte	.LVL111
 9763 0643 3E000000 		.4byte	.LVL112
 9764 0647 0100     		.2byte	0x1
 9765 0649 54       		.byte	0x54
 9766 064a 00000000 		.4byte	0
 9767 064e 00000000 		.4byte	0
 9768              	.LLST38:
 9769 0652 02000000 		.4byte	.LVL113
 9770 0656 14000000 		.4byte	.LVL116
 9771 065a 0200     		.2byte	0x2
 9772 065c 30       		.byte	0x30
 9773 065d 9F       		.byte	0x9f
 9774 065e 14000000 		.4byte	.LVL116
 9775 0662 3C000000 		.4byte	.LVL124
 9776 0666 0100     		.2byte	0x1
 9777 0668 54       		.byte	0x54
 9778 0669 3C000000 		.4byte	.LVL124
 9779 066d 3E000000 		.4byte	.LVL125
 9780 0671 0200     		.2byte	0x2
 9781 0673 30       		.byte	0x30
 9782 0674 9F       		.byte	0x9f
 9783 0675 3E000000 		.4byte	.LVL125
 9784 0679 44000000 		.4byte	.LVL126
 9785 067d 0100     		.2byte	0x1
 9786 067f 54       		.byte	0x54
 9787 0680 00000000 		.4byte	0
 9788 0684 00000000 		.4byte	0
 9789              	.LLST39:
 9790 0688 02000000 		.4byte	.LVL113
 9791 068c 14000000 		.4byte	.LVL116
 9792 0690 0200     		.2byte	0x2
ARM GAS  C:\Users\robom\AppData\Local\Temp\ccqs2S2W.s 			page 220


 9793 0692 30       		.byte	0x30
 9794 0693 9F       		.byte	0x9f
 9795 0694 20000000 		.4byte	.LVL118
 9796 0698 32000000 		.4byte	.LVL120
 9797 069c 0100     		.2byte	0x1
 9798 069e 53       		.byte	0x53
 9799 069f 34000000 		.4byte	.LVL121
 9800 06a3 38000000 		.4byte	.LVL122
 9801 06a7 0100     		.2byte	0x1
 9802 06a9 53       		.byte	0x53
 9803 06aa 3C000000 		.4byte	.LVL124
 9804 06ae 3E000000 		.4byte	.LVL125
 9805 06b2 0200     		.2byte	0x2
 9806 06b4 30       		.byte	0x30
 9807 06b5 9F       		.byte	0x9f
 9808 06b6 00000000 		.4byte	0
 9809 06ba 00000000 		.4byte	0
 9810              	.LLST40:
 9811 06be 06000000 		.4byte	.LVL114
 9812 06c2 0C000000 		.4byte	.LVL115
 9813 06c6 0200     		.2byte	0x2
 9814 06c8 31       		.byte	0x31
 9815 06c9 9F       		.byte	0x9f
 9816 06ca 00000000 		.4byte	0
 9817 06ce 00000000 		.4byte	0
 9818              	.LLST41:
 9819 06d2 1A000000 		.4byte	.LVL117
 9820 06d6 3C000000 		.4byte	.LVL124
 9821 06da 0100     		.2byte	0x1
 9822 06dc 50       		.byte	0x50
 9823 06dd 00000000 		.4byte	0
 9824 06e1 00000000 		.4byte	0
 9825              	.LLST42:
 9826 06e5 44000000 		.4byte	.LVL126
 9827 06e9 48000000 		.4byte	.LVL127
 9828 06ed 0100     		.2byte	0x1
 9829 06ef 56       		.byte	0x56
 9830 06f0 00000000 		.4byte	0
 9831 06f4 00000000 		.4byte	0
 9832              	.LLST43:
 9833 06f8 02000000 		.4byte	.LVL128
 9834 06fc 14000000 		.4byte	.LVL131
 9835 0700 0200     		.2byte	0x2
 9836 0702 30       		.byte	0x30
 9837 0703 9F       		.byte	0x9f
 9838 0704 14000000 		.4byte	.LVL131
 9839 0708 3E000000 		.4byte	.LVL139
 9840 070c 0100     		.2byte	0x1
 9841 070e 54       		.byte	0x54
 9842 070f 3E000000 		.4byte	.LVL139
 9843 0713 40000000 		.4byte	.LVL140
 9844 0717 0200     		.2byte	0x2
 9845 0719 30       		.byte	0x30
 9846 071a 9F       		.byte	0x9f
 9847 071b 40000000 		.4byte	.LVL140
 9848 071f 44000000 		.4byte	.LVL141
 9849 0723 0100     		.2byte	0x1
ARM GAS  C:\Users\robom\AppData\Local\Temp\ccqs2S2W.s 			page 221


 9850 0725 54       		.byte	0x54
 9851 0726 00000000 		.4byte	0
 9852 072a 00000000 		.4byte	0
 9853              	.LLST44:
 9854 072e 02000000 		.4byte	.LVL128
 9855 0732 14000000 		.4byte	.LVL131
 9856 0736 0200     		.2byte	0x2
 9857 0738 30       		.byte	0x30
 9858 0739 9F       		.byte	0x9f
 9859 073a 20000000 		.4byte	.LVL133
 9860 073e 34000000 		.4byte	.LVL135
 9861 0742 0100     		.2byte	0x1
 9862 0744 53       		.byte	0x53
 9863 0745 36000000 		.4byte	.LVL136
 9864 0749 3A000000 		.4byte	.LVL137
 9865 074d 0100     		.2byte	0x1
 9866 074f 53       		.byte	0x53
 9867 0750 3E000000 		.4byte	.LVL139
 9868 0754 40000000 		.4byte	.LVL140
 9869 0758 0200     		.2byte	0x2
 9870 075a 30       		.byte	0x30
 9871 075b 9F       		.byte	0x9f
 9872 075c 00000000 		.4byte	0
 9873 0760 00000000 		.4byte	0
 9874              	.LLST45:
 9875 0764 06000000 		.4byte	.LVL129
 9876 0768 0C000000 		.4byte	.LVL130
 9877 076c 0200     		.2byte	0x2
 9878 076e 31       		.byte	0x31
 9879 076f 9F       		.byte	0x9f
 9880 0770 00000000 		.4byte	0
 9881 0774 00000000 		.4byte	0
 9882              	.LLST46:
 9883 0778 1A000000 		.4byte	.LVL132
 9884 077c 3E000000 		.4byte	.LVL139
 9885 0780 0100     		.2byte	0x1
 9886 0782 50       		.byte	0x50
 9887 0783 00000000 		.4byte	0
 9888 0787 00000000 		.4byte	0
 9889              	.LLST47:
 9890 078b 44000000 		.4byte	.LVL141
 9891 078f 48000000 		.4byte	.LVL142
 9892 0793 0100     		.2byte	0x1
 9893 0795 56       		.byte	0x56
 9894 0796 00000000 		.4byte	0
 9895 079a 00000000 		.4byte	0
 9896              	.LLST48:
 9897 079e 00000000 		.4byte	.LVL143
 9898 07a2 5E000000 		.4byte	.LVL159
 9899 07a6 0100     		.2byte	0x1
 9900 07a8 50       		.byte	0x50
 9901 07a9 5E000000 		.4byte	.LVL159
 9902 07ad C0000000 		.4byte	.LVL170
 9903 07b1 0100     		.2byte	0x1
 9904 07b3 5B       		.byte	0x5b
 9905 07b4 C0000000 		.4byte	.LVL170
 9906 07b8 CC000000 		.4byte	.LFE138
ARM GAS  C:\Users\robom\AppData\Local\Temp\ccqs2S2W.s 			page 222


 9907 07bc 0400     		.2byte	0x4
 9908 07be F3       		.byte	0xf3
 9909 07bf 01       		.uleb128 0x1
 9910 07c0 50       		.byte	0x50
 9911 07c1 9F       		.byte	0x9f
 9912 07c2 00000000 		.4byte	0
 9913 07c6 00000000 		.4byte	0
 9914              	.LLST49:
 9915 07ca 00000000 		.4byte	.LVL143
 9916 07ce 6F000000 		.4byte	.LVL160-1
 9917 07d2 0100     		.2byte	0x1
 9918 07d4 51       		.byte	0x51
 9919 07d5 6F000000 		.4byte	.LVL160-1
 9920 07d9 C0000000 		.4byte	.LVL170
 9921 07dd 0100     		.2byte	0x1
 9922 07df 55       		.byte	0x55
 9923 07e0 C0000000 		.4byte	.LVL170
 9924 07e4 CC000000 		.4byte	.LFE138
 9925 07e8 0400     		.2byte	0x4
 9926 07ea F3       		.byte	0xf3
 9927 07eb 01       		.uleb128 0x1
 9928 07ec 51       		.byte	0x51
 9929 07ed 9F       		.byte	0x9f
 9930 07ee 00000000 		.4byte	0
 9931 07f2 00000000 		.4byte	0
 9932              	.LLST50:
 9933 07f6 04000000 		.4byte	.LVL144
 9934 07fa 08000000 		.4byte	.LVL145
 9935 07fe 0200     		.2byte	0x2
 9936 0800 30       		.byte	0x30
 9937 0801 9F       		.byte	0x9f
 9938 0802 08000000 		.4byte	.LVL145
 9939 0806 BA000000 		.4byte	.LVL169
 9940 080a 0100     		.2byte	0x1
 9941 080c 54       		.byte	0x54
 9942 080d 00000000 		.4byte	0
 9943 0811 00000000 		.4byte	0
 9944              	.LLST51:
 9945 0815 2E000000 		.4byte	.LVL150
 9946 0819 34000000 		.4byte	.LVL151
 9947 081d 0100     		.2byte	0x1
 9948 081f 56       		.byte	0x56
 9949 0820 34000000 		.4byte	.LVL151
 9950 0824 36000000 		.4byte	.LVL152
 9951 0828 0300     		.2byte	0x3
 9952 082a 76       		.byte	0x76
 9953 082b 0F       		.sleb128 15
 9954 082c 9F       		.byte	0x9f
 9955 082d 42000000 		.4byte	.LVL154
 9956 0831 48000000 		.4byte	.LVL156
 9957 0835 0200     		.2byte	0x2
 9958 0837 3F       		.byte	0x3f
 9959 0838 9F       		.byte	0x9f
 9960 0839 48000000 		.4byte	.LVL156
 9961 083d 76000000 		.4byte	.LVL161
 9962 0841 0100     		.2byte	0x1
 9963 0843 56       		.byte	0x56
ARM GAS  C:\Users\robom\AppData\Local\Temp\ccqs2S2W.s 			page 223


 9964 0844 00000000 		.4byte	0
 9965 0848 00000000 		.4byte	0
 9966              	.LLST52:
 9967 084c 1A000000 		.4byte	.LVL147
 9968 0850 2E000000 		.4byte	.LVL150
 9969 0854 0100     		.2byte	0x1
 9970 0856 56       		.byte	0x56
 9971 0857 00000000 		.4byte	0
 9972 085b 00000000 		.4byte	0
 9973              	.LLST53:
 9974 085f 9E000000 		.4byte	.LVL165
 9975 0863 A2000000 		.4byte	.LVL166
 9976 0867 0200     		.2byte	0x2
 9977 0869 30       		.byte	0x30
 9978 086a 9F       		.byte	0x9f
 9979 086b A2000000 		.4byte	.LVL166
 9980 086f B4000000 		.4byte	.LVL168
 9981 0873 0100     		.2byte	0x1
 9982 0875 53       		.byte	0x53
 9983 0876 00000000 		.4byte	0
 9984 087a 00000000 		.4byte	0
 9985              	.LLST54:
 9986 087e 04000000 		.4byte	.LVL144
 9987 0882 2A000000 		.4byte	.LVL148
 9988 0886 0200     		.2byte	0x2
 9989 0888 30       		.byte	0x30
 9990 0889 9F       		.byte	0x9f
 9991 088a 2A000000 		.4byte	.LVL148
 9992 088e 38000000 		.4byte	.LVL153
 9993 0892 0100     		.2byte	0x1
 9994 0894 53       		.byte	0x53
 9995 0895 00000000 		.4byte	0
 9996 0899 00000000 		.4byte	0
 9997              	.LLST55:
 9998 089d 04000000 		.4byte	.LVL144
 9999 08a1 2C000000 		.4byte	.LVL149
 10000 08a5 0200     		.2byte	0x2
 10001 08a7 30       		.byte	0x30
 10002 08a8 9F       		.byte	0x9f
 10003 08a9 2C000000 		.4byte	.LVL149
 10004 08ad C8000000 		.4byte	.LVL171
 10005 08b1 0100     		.2byte	0x1
 10006 08b3 57       		.byte	0x57
 10007 08b4 00000000 		.4byte	0
 10008 08b8 00000000 		.4byte	0
 10009              	.LLST56:
 10010 08bc 04000000 		.4byte	.LVL144
 10011 08c0 2A000000 		.4byte	.LVL148
 10012 08c4 0300     		.2byte	0x3
 10013 08c6 08       		.byte	0x8
 10014 08c7 90       		.byte	0x90
 10015 08c8 9F       		.byte	0x9f
 10016 08c9 2A000000 		.4byte	.LVL148
 10017 08cd 7C000000 		.4byte	.LVL162
 10018 08d1 0100     		.2byte	0x1
 10019 08d3 5A       		.byte	0x5a
 10020 08d4 00000000 		.4byte	0
ARM GAS  C:\Users\robom\AppData\Local\Temp\ccqs2S2W.s 			page 224


 10021 08d8 00000000 		.4byte	0
 10022              	.LLST57:
 10023 08dc 36000000 		.4byte	.LVL152
 10024 08e0 48000000 		.4byte	.LVL156
 10025 08e4 0100     		.2byte	0x1
 10026 08e6 56       		.byte	0x56
 10027 08e7 00000000 		.4byte	0
 10028 08eb 00000000 		.4byte	0
 10029              	.LLST58:
 10030 08ef 4C000000 		.4byte	.LVL157
 10031 08f3 52000000 		.4byte	.LVL158
 10032 08f7 0200     		.2byte	0x2
 10033 08f9 31       		.byte	0x31
 10034 08fa 9F       		.byte	0x9f
 10035 08fb 00000000 		.4byte	0
 10036 08ff 00000000 		.4byte	0
 10037              	.LLST59:
 10038 0903 70000000 		.4byte	.LVL160
 10039 0907 8B000000 		.4byte	.LVL163-1
 10040 090b 0100     		.2byte	0x1
 10041 090d 50       		.byte	0x50
 10042 090e 8B000000 		.4byte	.LVL163-1
 10043 0912 9E000000 		.4byte	.LVL165
 10044 0916 0100     		.2byte	0x1
 10045 0918 59       		.byte	0x59
 10046 0919 9E000000 		.4byte	.LVL165
 10047 091d C0000000 		.4byte	.LVL170
 10048 0921 0300     		.2byte	0x3
 10049 0923 79       		.byte	0x79
 10050 0924 78       		.sleb128 -8
 10051 0925 9F       		.byte	0x9f
 10052 0926 00000000 		.4byte	0
 10053 092a 00000000 		.4byte	0
 10054              	.LLST60:
 10055 092e 90000000 		.4byte	.LVL164
 10056 0932 9E000000 		.4byte	.LVL165
 10057 0936 0300     		.2byte	0x3
 10058 0938 79       		.byte	0x79
 10059 0939 08       		.sleb128 8
 10060 093a 9F       		.byte	0x9f
 10061 093b 9E000000 		.4byte	.LVL165
 10062 093f C0000000 		.4byte	.LVL170
 10063 0943 0100     		.2byte	0x1
 10064 0945 59       		.byte	0x59
 10065 0946 00000000 		.4byte	0
 10066 094a 00000000 		.4byte	0
 10067              	.LLST61:
 10068 094e 9E000000 		.4byte	.LVL165
 10069 0952 C0000000 		.4byte	.LVL170
 10070 0956 0100     		.2byte	0x1
 10071 0958 59       		.byte	0x59
 10072 0959 00000000 		.4byte	0
 10073 095d 00000000 		.4byte	0
 10074              	.LLST62:
 10075 0961 C0000000 		.4byte	.LVL170
 10076 0965 C8000000 		.4byte	.LVL171
 10077 0969 0100     		.2byte	0x1
ARM GAS  C:\Users\robom\AppData\Local\Temp\ccqs2S2W.s 			page 225


 10078 096b 58       		.byte	0x58
 10079 096c 00000000 		.4byte	0
 10080 0970 00000000 		.4byte	0
 10081              	.LLST63:
 10082 0974 00000000 		.4byte	.LVL172
 10083 0978 05000000 		.4byte	.LVL173-1
 10084 097c 0100     		.2byte	0x1
 10085 097e 50       		.byte	0x50
 10086 097f 05000000 		.4byte	.LVL173-1
 10087 0983 08000000 		.4byte	.LFE115
 10088 0987 0400     		.2byte	0x4
 10089 0989 F3       		.byte	0xf3
 10090 098a 01       		.uleb128 0x1
 10091 098b 50       		.byte	0x50
 10092 098c 9F       		.byte	0x9f
 10093 098d 00000000 		.4byte	0
 10094 0991 00000000 		.4byte	0
 10095              	.LLST64:
 10096 0995 00000000 		.4byte	.LVL172
 10097 0999 05000000 		.4byte	.LVL173-1
 10098 099d 0100     		.2byte	0x1
 10099 099f 51       		.byte	0x51
 10100 09a0 05000000 		.4byte	.LVL173-1
 10101 09a4 08000000 		.4byte	.LFE115
 10102 09a8 0400     		.2byte	0x4
 10103 09aa F3       		.byte	0xf3
 10104 09ab 01       		.uleb128 0x1
 10105 09ac 51       		.byte	0x51
 10106 09ad 9F       		.byte	0x9f
 10107 09ae 00000000 		.4byte	0
 10108 09b2 00000000 		.4byte	0
 10109              	.LLST65:
 10110 09b6 0C000000 		.4byte	.LVL174
 10111 09ba 14000000 		.4byte	.LVL175
 10112 09be 0100     		.2byte	0x1
 10113 09c0 50       		.byte	0x50
 10114 09c1 14000000 		.4byte	.LVL175
 10115 09c5 17000000 		.4byte	.LVL176-1
 10116 09c9 0100     		.2byte	0x1
 10117 09cb 51       		.byte	0x51
 10118 09cc 00000000 		.4byte	0
 10119 09d0 00000000 		.4byte	0
 10120              	.LLST66:
 10121 09d4 00000000 		.4byte	.LVL177
 10122 09d8 0F000000 		.4byte	.LVL178-1
 10123 09dc 0100     		.2byte	0x1
 10124 09de 50       		.byte	0x50
 10125 09df 0F000000 		.4byte	.LVL178-1
 10126 09e3 18000000 		.4byte	.LFE145
 10127 09e7 0400     		.2byte	0x4
 10128 09e9 F3       		.byte	0xf3
 10129 09ea 01       		.uleb128 0x1
 10130 09eb 50       		.byte	0x50
 10131 09ec 9F       		.byte	0x9f
 10132 09ed 00000000 		.4byte	0
 10133 09f1 00000000 		.4byte	0
 10134              	.LLST67:
ARM GAS  C:\Users\robom\AppData\Local\Temp\ccqs2S2W.s 			page 226


 10135 09f5 04000000 		.4byte	.LVL179
 10136 09f9 10000000 		.4byte	.LVL181
 10137 09fd 0300     		.2byte	0x3
 10138 09ff 09       		.byte	0x9
 10139 0a00 FF       		.byte	0xff
 10140 0a01 9F       		.byte	0x9f
 10141 0a02 10000000 		.4byte	.LVL181
 10142 0a06 54000000 		.4byte	.LVL189
 10143 0a0a 0100     		.2byte	0x1
 10144 0a0c 55       		.byte	0x55
 10145 0a0d 00000000 		.4byte	0
 10146 0a11 00000000 		.4byte	0
 10147              	.LLST68:
 10148 0a15 04000000 		.4byte	.LVL179
 10149 0a19 16000000 		.4byte	.LVL182
 10150 0a1d 0200     		.2byte	0x2
 10151 0a1f 30       		.byte	0x30
 10152 0a20 9F       		.byte	0x9f
 10153 0a21 16000000 		.4byte	.LVL182
 10154 0a25 4E000000 		.4byte	.LVL187
 10155 0a29 0100     		.2byte	0x1
 10156 0a2b 54       		.byte	0x54
 10157 0a2c 4E000000 		.4byte	.LVL187
 10158 0a30 50000000 		.4byte	.LVL188
 10159 0a34 0200     		.2byte	0x2
 10160 0a36 30       		.byte	0x30
 10161 0a37 9F       		.byte	0x9f
 10162 0a38 00000000 		.4byte	0
 10163 0a3c 00000000 		.4byte	0
 10164              	.LLST69:
 10165 0a40 00000000 		.4byte	.LVL190
 10166 0a44 14000000 		.4byte	.LVL193
 10167 0a48 0100     		.2byte	0x1
 10168 0a4a 50       		.byte	0x50
 10169 0a4b 14000000 		.4byte	.LVL193
 10170 0a4f 48000000 		.4byte	.LFE155
 10171 0a53 0500     		.2byte	0x5
 10172 0a55 03       		.byte	0x3
 10173 0a56 00000000 		.4byte	EventBuffer
 10174 0a5a 00000000 		.4byte	0
 10175 0a5e 00000000 		.4byte	0
 10176              	.LLST70:
 10177 0a62 10000000 		.4byte	.LVL192
 10178 0a66 14000000 		.4byte	.LVL193
 10179 0a6a 0200     		.2byte	0x2
 10180 0a6c 30       		.byte	0x30
 10181 0a6d 9F       		.byte	0x9f
 10182 0a6e 14000000 		.4byte	.LVL193
 10183 0a72 48000000 		.4byte	.LFE155
 10184 0a76 0100     		.2byte	0x1
 10185 0a78 53       		.byte	0x53
 10186 0a79 00000000 		.4byte	0
 10187 0a7d 00000000 		.4byte	0
 10188              	.LLST71:
 10189 0a81 0A000000 		.4byte	.LVL191
 10190 0a85 10000000 		.4byte	.LVL192
 10191 0a89 0200     		.2byte	0x2
ARM GAS  C:\Users\robom\AppData\Local\Temp\ccqs2S2W.s 			page 227


 10192 0a8b 31       		.byte	0x31
 10193 0a8c 9F       		.byte	0x9f
 10194 0a8d 00000000 		.4byte	0
 10195 0a91 00000000 		.4byte	0
 10196              	.LLST72:
 10197 0a95 36000000 		.4byte	.LVL195
 10198 0a99 3A000000 		.4byte	.LVL196
 10199 0a9d 0100     		.2byte	0x1
 10200 0a9f 55       		.byte	0x55
 10201 0aa0 00000000 		.4byte	0
 10202 0aa4 00000000 		.4byte	0
 10203              	.LLST73:
 10204 0aa8 00000000 		.4byte	.LVL197
 10205 0aac 0F000000 		.4byte	.LVL198-1
 10206 0ab0 0100     		.2byte	0x1
 10207 0ab2 50       		.byte	0x50
 10208 0ab3 0F000000 		.4byte	.LVL198-1
 10209 0ab7 28000000 		.4byte	.LVL203
 10210 0abb 0100     		.2byte	0x1
 10211 0abd 54       		.byte	0x54
 10212 0abe 28000000 		.4byte	.LVL203
 10213 0ac2 2D000000 		.4byte	.LVL204-1
 10214 0ac6 0500     		.2byte	0x5
 10215 0ac8 03       		.byte	0x3
 10216 0ac9 00000000 		.4byte	RecorderEnabled
 10217 0acd 2D000000 		.4byte	.LVL204-1
 10218 0ad1 72000000 		.4byte	.LVL212
 10219 0ad5 0400     		.2byte	0x4
 10220 0ad7 F3       		.byte	0xf3
 10221 0ad8 01       		.uleb128 0x1
 10222 0ad9 50       		.byte	0x50
 10223 0ada 9F       		.byte	0x9f
 10224 0adb 72000000 		.4byte	.LVL212
 10225 0adf 80000000 		.4byte	.LFE126
 10226 0ae3 0100     		.2byte	0x1
 10227 0ae5 50       		.byte	0x50
 10228 0ae6 00000000 		.4byte	0
 10229 0aea 00000000 		.4byte	0
 10230              	.LLST74:
 10231 0aee 12000000 		.4byte	.LVL199
 10232 0af2 24000000 		.4byte	.LVL202
 10233 0af6 0100     		.2byte	0x1
 10234 0af8 50       		.byte	0x50
 10235 0af9 24000000 		.4byte	.LVL202
 10236 0afd 72000000 		.4byte	.LVL212
 10237 0b01 0100     		.2byte	0x1
 10238 0b03 55       		.byte	0x55
 10239 0b04 00000000 		.4byte	0
 10240 0b08 00000000 		.4byte	0
 10241              	.LLST75:
 10242 0b0c 16000000 		.4byte	.LVL200
 10243 0b10 1C000000 		.4byte	.LVL201
 10244 0b14 0200     		.2byte	0x2
 10245 0b16 31       		.byte	0x31
 10246 0b17 9F       		.byte	0x9f
 10247 0b18 00000000 		.4byte	0
 10248 0b1c 00000000 		.4byte	0
ARM GAS  C:\Users\robom\AppData\Local\Temp\ccqs2S2W.s 			page 228


 10249              	.LLST76:
 10250 0b20 6C000000 		.4byte	.LVL211
 10251 0b24 72000000 		.4byte	.LVL212
 10252 0b28 0100     		.2byte	0x1
 10253 0b2a 56       		.byte	0x56
 10254 0b2b 00000000 		.4byte	0
 10255 0b2f 00000000 		.4byte	0
 10256              	.LLST77:
 10257 0b33 00000000 		.4byte	.LVL214
 10258 0b37 0A000000 		.4byte	.LVL215
 10259 0b3b 0100     		.2byte	0x1
 10260 0b3d 50       		.byte	0x50
 10261 0b3e 0A000000 		.4byte	.LVL215
 10262 0b42 10000000 		.4byte	.LFE144
 10263 0b46 0400     		.2byte	0x4
 10264 0b48 F3       		.byte	0xf3
 10265 0b49 01       		.uleb128 0x1
 10266 0b4a 50       		.byte	0x50
 10267 0b4b 9F       		.byte	0x9f
 10268 0b4c 00000000 		.4byte	0
 10269 0b50 00000000 		.4byte	0
 10270              	.LLST78:
 10271 0b54 00000000 		.4byte	.LVL217
 10272 0b58 0F000000 		.4byte	.LVL218-1
 10273 0b5c 0100     		.2byte	0x1
 10274 0b5e 50       		.byte	0x50
 10275 0b5f 0F000000 		.4byte	.LVL218-1
 10276 0b63 30000000 		.4byte	.LFE146
 10277 0b67 0400     		.2byte	0x4
 10278 0b69 F3       		.byte	0xf3
 10279 0b6a 01       		.uleb128 0x1
 10280 0b6b 50       		.byte	0x50
 10281 0b6c 9F       		.byte	0x9f
 10282 0b6d 00000000 		.4byte	0
 10283 0b71 00000000 		.4byte	0
 10284              	.LLST79:
 10285 0b75 00000000 		.4byte	.LVL221
 10286 0b79 0E000000 		.4byte	.LVL223
 10287 0b7d 0100     		.2byte	0x1
 10288 0b7f 50       		.byte	0x50
 10289 0b80 0E000000 		.4byte	.LVL223
 10290 0b84 16000000 		.4byte	.LVL225
 10291 0b88 0400     		.2byte	0x4
 10292 0b8a F3       		.byte	0xf3
 10293 0b8b 01       		.uleb128 0x1
 10294 0b8c 50       		.byte	0x50
 10295 0b8d 9F       		.byte	0x9f
 10296 0b8e 16000000 		.4byte	.LVL225
 10297 0b92 2E000000 		.4byte	.LVL227
 10298 0b96 0100     		.2byte	0x1
 10299 0b98 50       		.byte	0x50
 10300 0b99 2E000000 		.4byte	.LVL227
 10301 0b9d E4000000 		.4byte	.LVL251
 10302 0ba1 0100     		.2byte	0x1
 10303 0ba3 55       		.byte	0x55
 10304 0ba4 00000000 		.4byte	0
 10305 0ba8 00000000 		.4byte	0
ARM GAS  C:\Users\robom\AppData\Local\Temp\ccqs2S2W.s 			page 229


 10306              	.LLST80:
 10307 0bac 00000000 		.4byte	.LVL221
 10308 0bb0 11000000 		.4byte	.LVL224-1
 10309 0bb4 0100     		.2byte	0x1
 10310 0bb6 51       		.byte	0x51
 10311 0bb7 11000000 		.4byte	.LVL224-1
 10312 0bbb 16000000 		.4byte	.LVL225
 10313 0bbf 0400     		.2byte	0x4
 10314 0bc1 F3       		.byte	0xf3
 10315 0bc2 01       		.uleb128 0x1
 10316 0bc3 51       		.byte	0x51
 10317 0bc4 9F       		.byte	0x9f
 10318 0bc5 16000000 		.4byte	.LVL225
 10319 0bc9 73000000 		.4byte	.LVL239-1
 10320 0bcd 0100     		.2byte	0x1
 10321 0bcf 51       		.byte	0x51
 10322 0bd0 73000000 		.4byte	.LVL239-1
 10323 0bd4 E8000000 		.4byte	.LFE137
 10324 0bd8 0400     		.2byte	0x4
 10325 0bda F3       		.byte	0xf3
 10326 0bdb 01       		.uleb128 0x1
 10327 0bdc 51       		.byte	0x51
 10328 0bdd 9F       		.byte	0x9f
 10329 0bde 00000000 		.4byte	0
 10330 0be2 00000000 		.4byte	0
 10331              	.LLST81:
 10332 0be6 00000000 		.4byte	.LVL221
 10333 0bea 11000000 		.4byte	.LVL224-1
 10334 0bee 0100     		.2byte	0x1
 10335 0bf0 52       		.byte	0x52
 10336 0bf1 11000000 		.4byte	.LVL224-1
 10337 0bf5 16000000 		.4byte	.LVL225
 10338 0bf9 0400     		.2byte	0x4
 10339 0bfb F3       		.byte	0xf3
 10340 0bfc 01       		.uleb128 0x1
 10341 0bfd 52       		.byte	0x52
 10342 0bfe 9F       		.byte	0x9f
 10343 0bff 16000000 		.4byte	.LVL225
 10344 0c03 64000000 		.4byte	.LVL238
 10345 0c07 0100     		.2byte	0x1
 10346 0c09 52       		.byte	0x52
 10347 0c0a 64000000 		.4byte	.LVL238
 10348 0c0e E4000000 		.4byte	.LVL251
 10349 0c12 0100     		.2byte	0x1
 10350 0c14 58       		.byte	0x58
 10351 0c15 E4000000 		.4byte	.LVL251
 10352 0c19 E8000000 		.4byte	.LFE137
 10353 0c1d 0400     		.2byte	0x4
 10354 0c1f F3       		.byte	0xf3
 10355 0c20 01       		.uleb128 0x1
 10356 0c21 52       		.byte	0x52
 10357 0c22 9F       		.byte	0x9f
 10358 0c23 00000000 		.4byte	0
 10359 0c27 00000000 		.4byte	0
 10360              	.LLST82:
 10361 0c2b 00000000 		.4byte	.LVL221
 10362 0c2f 11000000 		.4byte	.LVL224-1
ARM GAS  C:\Users\robom\AppData\Local\Temp\ccqs2S2W.s 			page 230


 10363 0c33 0100     		.2byte	0x1
 10364 0c35 53       		.byte	0x53
 10365 0c36 11000000 		.4byte	.LVL224-1
 10366 0c3a 16000000 		.4byte	.LVL225
 10367 0c3e 0400     		.2byte	0x4
 10368 0c40 F3       		.byte	0xf3
 10369 0c41 01       		.uleb128 0x1
 10370 0c42 53       		.byte	0x53
 10371 0c43 9F       		.byte	0x9f
 10372 0c44 16000000 		.4byte	.LVL225
 10373 0c48 3E000000 		.4byte	.LVL232
 10374 0c4c 0100     		.2byte	0x1
 10375 0c4e 53       		.byte	0x53
 10376 0c4f 3E000000 		.4byte	.LVL232
 10377 0c53 D8000000 		.4byte	.LVL249
 10378 0c57 0100     		.2byte	0x1
 10379 0c59 56       		.byte	0x56
 10380 0c5a 00000000 		.4byte	0
 10381 0c5e 00000000 		.4byte	0
 10382              	.LLST83:
 10383 0c62 00000000 		.4byte	.LVL221
 10384 0c66 16000000 		.4byte	.LVL225
 10385 0c6a 0200     		.2byte	0x2
 10386 0c6c 91       		.byte	0x91
 10387 0c6d 00       		.sleb128 0
 10388 0c6e 16000000 		.4byte	.LVL225
 10389 0c72 E4000000 		.4byte	.LVL251
 10390 0c76 0200     		.2byte	0x2
 10391 0c78 91       		.byte	0x91
 10392 0c79 00       		.sleb128 0
 10393 0c7a E4000000 		.4byte	.LVL251
 10394 0c7e E8000000 		.4byte	.LFE137
 10395 0c82 0200     		.2byte	0x2
 10396 0c84 7D       		.byte	0x7d
 10397 0c85 00       		.sleb128 0
 10398 0c86 00000000 		.4byte	0
 10399 0c8a 00000000 		.4byte	0
 10400              	.LLST84:
 10401 0c8e 00000000 		.4byte	.LVL221
 10402 0c92 16000000 		.4byte	.LVL225
 10403 0c96 0200     		.2byte	0x2
 10404 0c98 91       		.byte	0x91
 10405 0c99 04       		.sleb128 4
 10406 0c9a 16000000 		.4byte	.LVL225
 10407 0c9e E4000000 		.4byte	.LVL251
 10408 0ca2 0200     		.2byte	0x2
 10409 0ca4 91       		.byte	0x91
 10410 0ca5 04       		.sleb128 4
 10411 0ca6 E4000000 		.4byte	.LVL251
 10412 0caa E8000000 		.4byte	.LFE137
 10413 0cae 0200     		.2byte	0x2
 10414 0cb0 7D       		.byte	0x7d
 10415 0cb1 04       		.sleb128 4
 10416 0cb2 00000000 		.4byte	0
 10417 0cb6 00000000 		.4byte	0
 10418              	.LLST85:
 10419 0cba 34000000 		.4byte	.LVL229
ARM GAS  C:\Users\robom\AppData\Local\Temp\ccqs2S2W.s 			page 231


 10420 0cbe 3A000000 		.4byte	.LVL230
 10421 0cc2 0100     		.2byte	0x1
 10422 0cc4 54       		.byte	0x54
 10423 0cc5 3A000000 		.4byte	.LVL230
 10424 0cc9 3C000000 		.4byte	.LVL231
 10425 0ccd 0300     		.2byte	0x3
 10426 0ccf 74       		.byte	0x74
 10427 0cd0 0F       		.sleb128 15
 10428 0cd1 9F       		.byte	0x9f
 10429 0cd2 48000000 		.4byte	.LVL233
 10430 0cd6 4E000000 		.4byte	.LVL235
 10431 0cda 0200     		.2byte	0x2
 10432 0cdc 3F       		.byte	0x3f
 10433 0cdd 9F       		.byte	0x9f
 10434 0cde 4E000000 		.4byte	.LVL235
 10435 0ce2 78000000 		.4byte	.LVL240
 10436 0ce6 0100     		.2byte	0x1
 10437 0ce8 54       		.byte	0x54
 10438 0ce9 00000000 		.4byte	0
 10439 0ced 00000000 		.4byte	0
 10440              	.LLST86:
 10441 0cf1 26000000 		.4byte	.LVL226
 10442 0cf5 34000000 		.4byte	.LVL229
 10443 0cf9 0100     		.2byte	0x1
 10444 0cfb 54       		.byte	0x54
 10445 0cfc 00000000 		.4byte	0
 10446 0d00 00000000 		.4byte	0
 10447              	.LLST87:
 10448 0d04 96000000 		.4byte	.LVL242
 10449 0d08 9A000000 		.4byte	.LVL243
 10450 0d0c 0200     		.2byte	0x2
 10451 0d0e 30       		.byte	0x30
 10452 0d0f 9F       		.byte	0x9f
 10453 0d10 9A000000 		.4byte	.LVL243
 10454 0d14 BC000000 		.4byte	.LVL245
 10455 0d18 0100     		.2byte	0x1
 10456 0d1a 53       		.byte	0x53
 10457 0d1b BE000000 		.4byte	.LVL246
 10458 0d1f D2000000 		.4byte	.LVL248
 10459 0d23 0100     		.2byte	0x1
 10460 0d25 53       		.byte	0x53
 10461 0d26 00000000 		.4byte	0
 10462 0d2a 00000000 		.4byte	0
 10463              	.LLST88:
 10464 0d2e 06000000 		.4byte	.LVL222
 10465 0d32 32000000 		.4byte	.LVL228
 10466 0d36 0200     		.2byte	0x2
 10467 0d38 30       		.byte	0x30
 10468 0d39 9F       		.byte	0x9f
 10469 0d3a 32000000 		.4byte	.LVL228
 10470 0d3e E4000000 		.4byte	.LVL251
 10471 0d42 0100     		.2byte	0x1
 10472 0d44 59       		.byte	0x59
 10473 0d45 00000000 		.4byte	0
 10474 0d49 00000000 		.4byte	0
 10475              	.LLST89:
 10476 0d4d 3C000000 		.4byte	.LVL231
ARM GAS  C:\Users\robom\AppData\Local\Temp\ccqs2S2W.s 			page 232


 10477 0d51 4E000000 		.4byte	.LVL235
 10478 0d55 0100     		.2byte	0x1
 10479 0d57 54       		.byte	0x54
 10480 0d58 00000000 		.4byte	0
 10481 0d5c 00000000 		.4byte	0
 10482              	.LLST90:
 10483 0d60 52000000 		.4byte	.LVL236
 10484 0d64 58000000 		.4byte	.LVL237
 10485 0d68 0200     		.2byte	0x2
 10486 0d6a 31       		.byte	0x31
 10487 0d6b 9F       		.byte	0x9f
 10488 0d6c 00000000 		.4byte	0
 10489 0d70 00000000 		.4byte	0
 10490              	.LLST91:
 10491 0d74 74000000 		.4byte	.LVL239
 10492 0d78 8F000000 		.4byte	.LVL241-1
 10493 0d7c 0100     		.2byte	0x1
 10494 0d7e 50       		.byte	0x50
 10495 0d7f 8F000000 		.4byte	.LVL241-1
 10496 0d83 DC000000 		.4byte	.LVL250
 10497 0d87 0100     		.2byte	0x1
 10498 0d89 54       		.byte	0x54
 10499 0d8a 00000000 		.4byte	0
 10500 0d8e 00000000 		.4byte	0
 10501              	.LLST92:
 10502 0d92 96000000 		.4byte	.LVL242
 10503 0d96 DC000000 		.4byte	.LVL250
 10504 0d9a 0100     		.2byte	0x1
 10505 0d9c 51       		.byte	0x51
 10506 0d9d 00000000 		.4byte	0
 10507 0da1 00000000 		.4byte	0
 10508              	.LLST93:
 10509 0da5 DC000000 		.4byte	.LVL250
 10510 0da9 E4000000 		.4byte	.LVL251
 10511 0dad 0100     		.2byte	0x1
 10512 0daf 5B       		.byte	0x5b
 10513 0db0 00000000 		.4byte	0
 10514 0db4 00000000 		.4byte	0
 10515              	.LLST94:
 10516 0db8 00000000 		.4byte	.LVL252
 10517 0dbc 42000000 		.4byte	.LVL258
 10518 0dc0 0100     		.2byte	0x1
 10519 0dc2 50       		.byte	0x50
 10520 0dc3 42000000 		.4byte	.LVL258
 10521 0dc7 45000000 		.4byte	.LVL259-1
 10522 0dcb 0100     		.2byte	0x1
 10523 0dcd 52       		.byte	0x52
 10524 0dce 45000000 		.4byte	.LVL259-1
 10525 0dd2 48000000 		.4byte	.LVL260
 10526 0dd6 0400     		.2byte	0x4
 10527 0dd8 F3       		.byte	0xf3
 10528 0dd9 01       		.uleb128 0x1
 10529 0dda 50       		.byte	0x50
 10530 0ddb 9F       		.byte	0x9f
 10531 0ddc 48000000 		.4byte	.LVL260
 10532 0de0 58000000 		.4byte	.LVL261
 10533 0de4 0100     		.2byte	0x1
ARM GAS  C:\Users\robom\AppData\Local\Temp\ccqs2S2W.s 			page 233


 10534 0de6 50       		.byte	0x50
 10535 0de7 58000000 		.4byte	.LVL261
 10536 0deb 5B000000 		.4byte	.LVL262-1
 10537 0def 0100     		.2byte	0x1
 10538 0df1 52       		.byte	0x52
 10539 0df2 5B000000 		.4byte	.LVL262-1
 10540 0df6 66000000 		.4byte	.LFE116
 10541 0dfa 0400     		.2byte	0x4
 10542 0dfc F3       		.byte	0xf3
 10543 0dfd 01       		.uleb128 0x1
 10544 0dfe 50       		.byte	0x50
 10545 0dff 9F       		.byte	0x9f
 10546 0e00 00000000 		.4byte	0
 10547 0e04 00000000 		.4byte	0
 10548              	.LLST95:
 10549 0e08 08000000 		.4byte	.LVL253
 10550 0e0c 0E000000 		.4byte	.LVL254
 10551 0e10 0200     		.2byte	0x2
 10552 0e12 30       		.byte	0x30
 10553 0e13 9F       		.byte	0x9f
 10554 0e14 0E000000 		.4byte	.LVL254
 10555 0e18 45000000 		.4byte	.LVL259-1
 10556 0e1c 0100     		.2byte	0x1
 10557 0e1e 53       		.byte	0x53
 10558 0e1f 45000000 		.4byte	.LVL259-1
 10559 0e23 48000000 		.4byte	.LVL260
 10560 0e27 0100     		.2byte	0x1
 10561 0e29 54       		.byte	0x54
 10562 0e2a 48000000 		.4byte	.LVL260
 10563 0e2e 5B000000 		.4byte	.LVL262-1
 10564 0e32 0100     		.2byte	0x1
 10565 0e34 53       		.byte	0x53
 10566 0e35 5B000000 		.4byte	.LVL262-1
 10567 0e39 62000000 		.4byte	.LVL263
 10568 0e3d 0100     		.2byte	0x1
 10569 0e3f 54       		.byte	0x54
 10570 0e40 00000000 		.4byte	0
 10571 0e44 00000000 		.4byte	0
 10572              	.LLST96:
 10573 0e48 08000000 		.4byte	.LVL253
 10574 0e4c 0E000000 		.4byte	.LVL254
 10575 0e50 0200     		.2byte	0x2
 10576 0e52 30       		.byte	0x30
 10577 0e53 9F       		.byte	0x9f
 10578 0e54 0E000000 		.4byte	.LVL254
 10579 0e58 62000000 		.4byte	.LVL263
 10580 0e5c 0100     		.2byte	0x1
 10581 0e5e 56       		.byte	0x56
 10582 0e5f 00000000 		.4byte	0
 10583 0e63 00000000 		.4byte	0
 10584              	.LLST97:
 10585 0e67 00000000 		.4byte	.LVL264
 10586 0e6b 27000000 		.4byte	.LVL268-1
 10587 0e6f 0100     		.2byte	0x1
 10588 0e71 50       		.byte	0x50
 10589 0e72 27000000 		.4byte	.LVL268-1
 10590 0e76 32000000 		.4byte	.LFE136
ARM GAS  C:\Users\robom\AppData\Local\Temp\ccqs2S2W.s 			page 234


 10591 0e7a 0400     		.2byte	0x4
 10592 0e7c F3       		.byte	0xf3
 10593 0e7d 01       		.uleb128 0x1
 10594 0e7e 50       		.byte	0x50
 10595 0e7f 9F       		.byte	0x9f
 10596 0e80 00000000 		.4byte	0
 10597 0e84 00000000 		.4byte	0
 10598              	.LLST98:
 10599 0e88 00000000 		.4byte	.LVL264
 10600 0e8c 27000000 		.4byte	.LVL268-1
 10601 0e90 0100     		.2byte	0x1
 10602 0e92 51       		.byte	0x51
 10603 0e93 27000000 		.4byte	.LVL268-1
 10604 0e97 32000000 		.4byte	.LFE136
 10605 0e9b 0400     		.2byte	0x4
 10606 0e9d F3       		.byte	0xf3
 10607 0e9e 01       		.uleb128 0x1
 10608 0e9f 51       		.byte	0x51
 10609 0ea0 9F       		.byte	0x9f
 10610 0ea1 00000000 		.4byte	0
 10611 0ea5 00000000 		.4byte	0
 10612              	.LLST99:
 10613 0ea9 08000000 		.4byte	.LVL265
 10614 0ead 0C000000 		.4byte	.LVL266
 10615 0eb1 0200     		.2byte	0x2
 10616 0eb3 30       		.byte	0x30
 10617 0eb4 9F       		.byte	0x9f
 10618 0eb5 0C000000 		.4byte	.LVL266
 10619 0eb9 27000000 		.4byte	.LVL268-1
 10620 0ebd 0100     		.2byte	0x1
 10621 0ebf 53       		.byte	0x53
 10622 0ec0 00000000 		.4byte	0
 10623 0ec4 00000000 		.4byte	0
 10624              	.LLST100:
 10625 0ec8 00000000 		.4byte	.LVL269
 10626 0ecc 09000000 		.4byte	.LVL270-1
 10627 0ed0 0100     		.2byte	0x1
 10628 0ed2 50       		.byte	0x50
 10629 0ed3 09000000 		.4byte	.LVL270-1
 10630 0ed7 18000000 		.4byte	.LFE112
 10631 0edb 0100     		.2byte	0x1
 10632 0edd 55       		.byte	0x55
 10633 0ede 00000000 		.4byte	0
 10634 0ee2 00000000 		.4byte	0
 10635              	.LLST101:
 10636 0ee6 00000000 		.4byte	.LVL269
 10637 0eea 09000000 		.4byte	.LVL270-1
 10638 0eee 0100     		.2byte	0x1
 10639 0ef0 51       		.byte	0x51
 10640 0ef1 09000000 		.4byte	.LVL270-1
 10641 0ef5 18000000 		.4byte	.LFE112
 10642 0ef9 0100     		.2byte	0x1
 10643 0efb 54       		.byte	0x54
 10644 0efc 00000000 		.4byte	0
 10645 0f00 00000000 		.4byte	0
 10646              	.LLST102:
 10647 0f04 00000000 		.4byte	.LVL272
ARM GAS  C:\Users\robom\AppData\Local\Temp\ccqs2S2W.s 			page 235


 10648 0f08 09000000 		.4byte	.LVL273-1
 10649 0f0c 0100     		.2byte	0x1
 10650 0f0e 50       		.byte	0x50
 10651 0f0f 09000000 		.4byte	.LVL273-1
 10652 0f13 1A000000 		.4byte	.LFE114
 10653 0f17 0100     		.2byte	0x1
 10654 0f19 54       		.byte	0x54
 10655 0f1a 00000000 		.4byte	0
 10656 0f1e 00000000 		.4byte	0
 10657              	.LLST103:
 10658 0f22 00000000 		.4byte	.LVL275
 10659 0f26 0B000000 		.4byte	.LVL276-1
 10660 0f2a 0100     		.2byte	0x1
 10661 0f2c 50       		.byte	0x50
 10662 0f2d 0B000000 		.4byte	.LVL276-1
 10663 0f31 28000000 		.4byte	.LFE117
 10664 0f35 0100     		.2byte	0x1
 10665 0f37 54       		.byte	0x54
 10666 0f38 00000000 		.4byte	0
 10667 0f3c 00000000 		.4byte	0
 10668              	.LLST104:
 10669 0f40 00000000 		.4byte	.LVL275
 10670 0f44 0B000000 		.4byte	.LVL276-1
 10671 0f48 0100     		.2byte	0x1
 10672 0f4a 51       		.byte	0x51
 10673 0f4b 0B000000 		.4byte	.LVL276-1
 10674 0f4f 28000000 		.4byte	.LFE117
 10675 0f53 0400     		.2byte	0x4
 10676 0f55 F3       		.byte	0xf3
 10677 0f56 01       		.uleb128 0x1
 10678 0f57 51       		.byte	0x51
 10679 0f58 9F       		.byte	0x9f
 10680 0f59 00000000 		.4byte	0
 10681 0f5d 00000000 		.4byte	0
 10682              	.LLST105:
 10683 0f61 00000000 		.4byte	.LVL279
 10684 0f65 0A000000 		.4byte	.LVL280
 10685 0f69 0100     		.2byte	0x1
 10686 0f6b 50       		.byte	0x50
 10687 0f6c 0A000000 		.4byte	.LVL280
 10688 0f70 10000000 		.4byte	.LVL282
 10689 0f74 0400     		.2byte	0x4
 10690 0f76 F3       		.byte	0xf3
 10691 0f77 01       		.uleb128 0x1
 10692 0f78 50       		.byte	0x50
 10693 0f79 9F       		.byte	0x9f
 10694 0f7a 10000000 		.4byte	.LVL282
 10695 0f7e 30000000 		.4byte	.LVL285
 10696 0f82 0100     		.2byte	0x1
 10697 0f84 50       		.byte	0x50
 10698 0f85 30000000 		.4byte	.LVL285
 10699 0f89 54000000 		.4byte	.LFE131
 10700 0f8d 0400     		.2byte	0x4
 10701 0f8f F3       		.byte	0xf3
 10702 0f90 01       		.uleb128 0x1
 10703 0f91 50       		.byte	0x50
 10704 0f92 9F       		.byte	0x9f
ARM GAS  C:\Users\robom\AppData\Local\Temp\ccqs2S2W.s 			page 236


 10705 0f93 00000000 		.4byte	0
 10706 0f97 00000000 		.4byte	0
 10707              	.LLST106:
 10708 0f9b 16000000 		.4byte	.LVL283
 10709 0f9f 1C000000 		.4byte	.LVL284
 10710 0fa3 0200     		.2byte	0x2
 10711 0fa5 31       		.byte	0x31
 10712 0fa6 9F       		.byte	0x9f
 10713 0fa7 00000000 		.4byte	0
 10714 0fab 00000000 		.4byte	0
 10715              	.LLST107:
 10716 0faf 34000000 		.4byte	.LVL286
 10717 0fb3 45000000 		.4byte	.LVL287-1
 10718 0fb7 0100     		.2byte	0x1
 10719 0fb9 50       		.byte	0x50
 10720 0fba 45000000 		.4byte	.LVL287-1
 10721 0fbe 48000000 		.4byte	.LVL288
 10722 0fc2 0100     		.2byte	0x1
 10723 0fc4 56       		.byte	0x56
 10724 0fc5 00000000 		.4byte	0
 10725 0fc9 00000000 		.4byte	0
 10726              	.LLST108:
 10727 0fcd 48000000 		.4byte	.LVL288
 10728 0fd1 4E000000 		.4byte	.LVL289
 10729 0fd5 0100     		.2byte	0x1
 10730 0fd7 55       		.byte	0x55
 10731 0fd8 00000000 		.4byte	0
 10732 0fdc 00000000 		.4byte	0
 10733              	.LLST109:
 10734 0fe0 00000000 		.4byte	.LVL292
 10735 0fe4 0A000000 		.4byte	.LVL293
 10736 0fe8 0100     		.2byte	0x1
 10737 0fea 50       		.byte	0x50
 10738 0feb 0A000000 		.4byte	.LVL293
 10739 0fef 10000000 		.4byte	.LVL295
 10740 0ff3 0400     		.2byte	0x4
 10741 0ff5 F3       		.byte	0xf3
 10742 0ff6 01       		.uleb128 0x1
 10743 0ff7 50       		.byte	0x50
 10744 0ff8 9F       		.byte	0x9f
 10745 0ff9 10000000 		.4byte	.LVL295
 10746 0ffd 32000000 		.4byte	.LVL298
 10747 1001 0100     		.2byte	0x1
 10748 1003 50       		.byte	0x50
 10749 1004 32000000 		.4byte	.LVL298
 10750 1008 5C000000 		.4byte	.LFE132
 10751 100c 0400     		.2byte	0x4
 10752 100e F3       		.byte	0xf3
 10753 100f 01       		.uleb128 0x1
 10754 1010 50       		.byte	0x50
 10755 1011 9F       		.byte	0x9f
 10756 1012 00000000 		.4byte	0
 10757 1016 00000000 		.4byte	0
 10758              	.LLST110:
 10759 101a 00000000 		.4byte	.LVL292
 10760 101e 0D000000 		.4byte	.LVL294-1
 10761 1022 0100     		.2byte	0x1
ARM GAS  C:\Users\robom\AppData\Local\Temp\ccqs2S2W.s 			page 237


 10762 1024 51       		.byte	0x51
 10763 1025 0D000000 		.4byte	.LVL294-1
 10764 1029 10000000 		.4byte	.LVL295
 10765 102d 0400     		.2byte	0x4
 10766 102f F3       		.byte	0xf3
 10767 1030 01       		.uleb128 0x1
 10768 1031 51       		.byte	0x51
 10769 1032 9F       		.byte	0x9f
 10770 1033 10000000 		.4byte	.LVL295
 10771 1037 35000000 		.4byte	.LVL299-1
 10772 103b 0100     		.2byte	0x1
 10773 103d 51       		.byte	0x51
 10774 103e 35000000 		.4byte	.LVL299-1
 10775 1042 56000000 		.4byte	.LVL302
 10776 1046 0100     		.2byte	0x1
 10777 1048 56       		.byte	0x56
 10778 1049 56000000 		.4byte	.LVL302
 10779 104d 5C000000 		.4byte	.LFE132
 10780 1051 0400     		.2byte	0x4
 10781 1053 F3       		.byte	0xf3
 10782 1054 01       		.uleb128 0x1
 10783 1055 51       		.byte	0x51
 10784 1056 9F       		.byte	0x9f
 10785 1057 00000000 		.4byte	0
 10786 105b 00000000 		.4byte	0
 10787              	.LLST111:
 10788 105f 18000000 		.4byte	.LVL296
 10789 1063 1E000000 		.4byte	.LVL297
 10790 1067 0200     		.2byte	0x2
 10791 1069 31       		.byte	0x31
 10792 106a 9F       		.byte	0x9f
 10793 106b 00000000 		.4byte	0
 10794 106f 00000000 		.4byte	0
 10795              	.LLST112:
 10796 1073 36000000 		.4byte	.LVL299
 10797 1077 4B000000 		.4byte	.LVL300-1
 10798 107b 0100     		.2byte	0x1
 10799 107d 50       		.byte	0x50
 10800 107e 4B000000 		.4byte	.LVL300-1
 10801 1082 50000000 		.4byte	.LVL301
 10802 1086 0100     		.2byte	0x1
 10803 1088 57       		.byte	0x57
 10804 1089 00000000 		.4byte	0
 10805 108d 00000000 		.4byte	0
 10806              	.LLST113:
 10807 1091 50000000 		.4byte	.LVL301
 10808 1095 56000000 		.4byte	.LVL302
 10809 1099 0100     		.2byte	0x1
 10810 109b 55       		.byte	0x55
 10811 109c 00000000 		.4byte	0
 10812 10a0 00000000 		.4byte	0
 10813              	.LLST114:
 10814 10a4 00000000 		.4byte	.LVL303
 10815 10a8 14000000 		.4byte	.LVL306
 10816 10ac 0100     		.2byte	0x1
 10817 10ae 50       		.byte	0x50
 10818 10af 14000000 		.4byte	.LVL306
ARM GAS  C:\Users\robom\AppData\Local\Temp\ccqs2S2W.s 			page 238


 10819 10b3 64000000 		.4byte	.LFE119
 10820 10b7 0400     		.2byte	0x4
 10821 10b9 F3       		.byte	0xf3
 10822 10ba 01       		.uleb128 0x1
 10823 10bb 50       		.byte	0x50
 10824 10bc 9F       		.byte	0x9f
 10825 10bd 00000000 		.4byte	0
 10826 10c1 00000000 		.4byte	0
 10827              	.LLST115:
 10828 10c5 06000000 		.4byte	.LVL304
 10829 10c9 0C000000 		.4byte	.LVL305
 10830 10cd 0200     		.2byte	0x2
 10831 10cf 31       		.byte	0x31
 10832 10d0 9F       		.byte	0x9f
 10833 10d1 00000000 		.4byte	0
 10834 10d5 00000000 		.4byte	0
 10835              	.LLST116:
 10836 10d9 56000000 		.4byte	.LVL310
 10837 10dd 5A000000 		.4byte	.LVL311
 10838 10e1 0100     		.2byte	0x1
 10839 10e3 54       		.byte	0x54
 10840 10e4 00000000 		.4byte	0
 10841 10e8 00000000 		.4byte	0
 10842              	.LLST117:
 10843 10ec 00000000 		.4byte	.LVL312
 10844 10f0 3A000000 		.4byte	.LVL315
 10845 10f4 0100     		.2byte	0x1
 10846 10f6 50       		.byte	0x50
 10847 10f7 3A000000 		.4byte	.LVL315
 10848 10fb 3D000000 		.4byte	.LVL316-1
 10849 10ff 0100     		.2byte	0x1
 10850 1101 51       		.byte	0x51
 10851 1102 3D000000 		.4byte	.LVL316-1
 10852 1106 44000000 		.4byte	.LVL317
 10853 110a 0400     		.2byte	0x4
 10854 110c F3       		.byte	0xf3
 10855 110d 01       		.uleb128 0x1
 10856 110e 50       		.byte	0x50
 10857 110f 9F       		.byte	0x9f
 10858 1110 44000000 		.4byte	.LVL317
 10859 1114 4A000000 		.4byte	.LVL319
 10860 1118 0100     		.2byte	0x1
 10861 111a 50       		.byte	0x50
 10862 111b 4A000000 		.4byte	.LVL319
 10863 111f 58000000 		.4byte	.LFE118
 10864 1123 0400     		.2byte	0x4
 10865 1125 F3       		.byte	0xf3
 10866 1126 01       		.uleb128 0x1
 10867 1127 50       		.byte	0x50
 10868 1128 9F       		.byte	0x9f
 10869 1129 00000000 		.4byte	0
 10870 112d 00000000 		.4byte	0
 10871              	.LLST118:
 10872 1131 06000000 		.4byte	.LVL313
 10873 1135 0C000000 		.4byte	.LVL314
 10874 1139 0200     		.2byte	0x2
 10875 113b 31       		.byte	0x31
ARM GAS  C:\Users\robom\AppData\Local\Temp\ccqs2S2W.s 			page 239


 10876 113c 9F       		.byte	0x9f
 10877 113d 00000000 		.4byte	0
 10878 1141 00000000 		.4byte	0
 10879              	.LLST119:
 10880 1145 3E000000 		.4byte	.LVL316
 10881 1149 44000000 		.4byte	.LVL317
 10882 114d 0100     		.2byte	0x1
 10883 114f 54       		.byte	0x54
 10884 1150 00000000 		.4byte	0
 10885 1154 00000000 		.4byte	0
 10886              	.LLST120:
 10887 1158 44000000 		.4byte	.LVL317
 10888 115c 48000000 		.4byte	.LVL318
 10889 1160 0100     		.2byte	0x1
 10890 1162 54       		.byte	0x54
 10891 1163 00000000 		.4byte	0
 10892 1167 00000000 		.4byte	0
 10893              	.LLST121:
 10894 116b 00000000 		.4byte	.LVL321
 10895 116f 0C000000 		.4byte	.LVL322
 10896 1173 0100     		.2byte	0x1
 10897 1175 50       		.byte	0x50
 10898 1176 0C000000 		.4byte	.LVL322
 10899 117a 14000000 		.4byte	.LVL324
 10900 117e 0400     		.2byte	0x4
 10901 1180 F3       		.byte	0xf3
 10902 1181 01       		.uleb128 0x1
 10903 1182 50       		.byte	0x50
 10904 1183 9F       		.byte	0x9f
 10905 1184 14000000 		.4byte	.LVL324
 10906 1188 38000000 		.4byte	.LVL328
 10907 118c 0100     		.2byte	0x1
 10908 118e 50       		.byte	0x50
 10909 118f 38000000 		.4byte	.LVL328
 10910 1193 6C000000 		.4byte	.LFE133
 10911 1197 0400     		.2byte	0x4
 10912 1199 F3       		.byte	0xf3
 10913 119a 01       		.uleb128 0x1
 10914 119b 50       		.byte	0x50
 10915 119c 9F       		.byte	0x9f
 10916 119d 00000000 		.4byte	0
 10917 11a1 00000000 		.4byte	0
 10918              	.LLST122:
 10919 11a5 00000000 		.4byte	.LVL321
 10920 11a9 0F000000 		.4byte	.LVL323-1
 10921 11ad 0100     		.2byte	0x1
 10922 11af 51       		.byte	0x51
 10923 11b0 0F000000 		.4byte	.LVL323-1
 10924 11b4 14000000 		.4byte	.LVL324
 10925 11b8 0400     		.2byte	0x4
 10926 11ba F3       		.byte	0xf3
 10927 11bb 01       		.uleb128 0x1
 10928 11bc 51       		.byte	0x51
 10929 11bd 9F       		.byte	0x9f
 10930 11be 14000000 		.4byte	.LVL324
 10931 11c2 3B000000 		.4byte	.LVL329-1
 10932 11c6 0100     		.2byte	0x1
ARM GAS  C:\Users\robom\AppData\Local\Temp\ccqs2S2W.s 			page 240


 10933 11c8 51       		.byte	0x51
 10934 11c9 3B000000 		.4byte	.LVL329-1
 10935 11cd 66000000 		.4byte	.LVL332
 10936 11d1 0100     		.2byte	0x1
 10937 11d3 57       		.byte	0x57
 10938 11d4 66000000 		.4byte	.LVL332
 10939 11d8 6C000000 		.4byte	.LFE133
 10940 11dc 0400     		.2byte	0x4
 10941 11de F3       		.byte	0xf3
 10942 11df 01       		.uleb128 0x1
 10943 11e0 51       		.byte	0x51
 10944 11e1 9F       		.byte	0x9f
 10945 11e2 00000000 		.4byte	0
 10946 11e6 00000000 		.4byte	0
 10947              	.LLST123:
 10948 11ea 00000000 		.4byte	.LVL321
 10949 11ee 0F000000 		.4byte	.LVL323-1
 10950 11f2 0100     		.2byte	0x1
 10951 11f4 52       		.byte	0x52
 10952 11f5 0F000000 		.4byte	.LVL323-1
 10953 11f9 14000000 		.4byte	.LVL324
 10954 11fd 0400     		.2byte	0x4
 10955 11ff F3       		.byte	0xf3
 10956 1200 01       		.uleb128 0x1
 10957 1201 52       		.byte	0x52
 10958 1202 9F       		.byte	0x9f
 10959 1203 14000000 		.4byte	.LVL324
 10960 1207 2C000000 		.4byte	.LVL327
 10961 120b 0100     		.2byte	0x1
 10962 120d 52       		.byte	0x52
 10963 120e 2C000000 		.4byte	.LVL327
 10964 1212 66000000 		.4byte	.LVL332
 10965 1216 0100     		.2byte	0x1
 10966 1218 56       		.byte	0x56
 10967 1219 66000000 		.4byte	.LVL332
 10968 121d 6C000000 		.4byte	.LFE133
 10969 1221 0400     		.2byte	0x4
 10970 1223 F3       		.byte	0xf3
 10971 1224 01       		.uleb128 0x1
 10972 1225 52       		.byte	0x52
 10973 1226 9F       		.byte	0x9f
 10974 1227 00000000 		.4byte	0
 10975 122b 00000000 		.4byte	0
 10976              	.LLST124:
 10977 122f 1E000000 		.4byte	.LVL325
 10978 1233 24000000 		.4byte	.LVL326
 10979 1237 0200     		.2byte	0x2
 10980 1239 31       		.byte	0x31
 10981 123a 9F       		.byte	0x9f
 10982 123b 00000000 		.4byte	0
 10983 123f 00000000 		.4byte	0
 10984              	.LLST125:
 10985 1243 3C000000 		.4byte	.LVL329
 10986 1247 51000000 		.4byte	.LVL330-1
 10987 124b 0100     		.2byte	0x1
 10988 124d 50       		.byte	0x50
 10989 124e 51000000 		.4byte	.LVL330-1
ARM GAS  C:\Users\robom\AppData\Local\Temp\ccqs2S2W.s 			page 241


 10990 1252 5E000000 		.4byte	.LVL331
 10991 1256 0100     		.2byte	0x1
 10992 1258 58       		.byte	0x58
 10993 1259 00000000 		.4byte	0
 10994 125d 00000000 		.4byte	0
 10995              	.LLST126:
 10996 1261 5E000000 		.4byte	.LVL331
 10997 1265 66000000 		.4byte	.LVL332
 10998 1269 0100     		.2byte	0x1
 10999 126b 55       		.byte	0x55
 11000 126c 00000000 		.4byte	0
 11001 1270 00000000 		.4byte	0
 11002              	.LLST127:
 11003 1274 00000000 		.4byte	.LVL333
 11004 1278 0C000000 		.4byte	.LVL334
 11005 127c 0100     		.2byte	0x1
 11006 127e 50       		.byte	0x50
 11007 127f 0C000000 		.4byte	.LVL334
 11008 1283 14000000 		.4byte	.LVL336
 11009 1287 0400     		.2byte	0x4
 11010 1289 F3       		.byte	0xf3
 11011 128a 01       		.uleb128 0x1
 11012 128b 50       		.byte	0x50
 11013 128c 9F       		.byte	0x9f
 11014 128d 14000000 		.4byte	.LVL336
 11015 1291 3A000000 		.4byte	.LVL341
 11016 1295 0100     		.2byte	0x1
 11017 1297 50       		.byte	0x50
 11018 1298 3A000000 		.4byte	.LVL341
 11019 129c 70000000 		.4byte	.LFE134
 11020 12a0 0400     		.2byte	0x4
 11021 12a2 F3       		.byte	0xf3
 11022 12a3 01       		.uleb128 0x1
 11023 12a4 50       		.byte	0x50
 11024 12a5 9F       		.byte	0x9f
 11025 12a6 00000000 		.4byte	0
 11026 12aa 00000000 		.4byte	0
 11027              	.LLST128:
 11028 12ae 00000000 		.4byte	.LVL333
 11029 12b2 0F000000 		.4byte	.LVL335-1
 11030 12b6 0100     		.2byte	0x1
 11031 12b8 51       		.byte	0x51
 11032 12b9 0F000000 		.4byte	.LVL335-1
 11033 12bd 14000000 		.4byte	.LVL336
 11034 12c1 0400     		.2byte	0x4
 11035 12c3 F3       		.byte	0xf3
 11036 12c4 01       		.uleb128 0x1
 11037 12c5 51       		.byte	0x51
 11038 12c6 9F       		.byte	0x9f
 11039 12c7 14000000 		.4byte	.LVL336
 11040 12cb 3D000000 		.4byte	.LVL342-1
 11041 12cf 0100     		.2byte	0x1
 11042 12d1 51       		.byte	0x51
 11043 12d2 3D000000 		.4byte	.LVL342-1
 11044 12d6 6C000000 		.4byte	.LVL345
 11045 12da 0100     		.2byte	0x1
 11046 12dc 58       		.byte	0x58
ARM GAS  C:\Users\robom\AppData\Local\Temp\ccqs2S2W.s 			page 242


 11047 12dd 6C000000 		.4byte	.LVL345
 11048 12e1 70000000 		.4byte	.LFE134
 11049 12e5 0400     		.2byte	0x4
 11050 12e7 F3       		.byte	0xf3
 11051 12e8 01       		.uleb128 0x1
 11052 12e9 51       		.byte	0x51
 11053 12ea 9F       		.byte	0x9f
 11054 12eb 00000000 		.4byte	0
 11055 12ef 00000000 		.4byte	0
 11056              	.LLST129:
 11057 12f3 00000000 		.4byte	.LVL333
 11058 12f7 0F000000 		.4byte	.LVL335-1
 11059 12fb 0100     		.2byte	0x1
 11060 12fd 52       		.byte	0x52
 11061 12fe 0F000000 		.4byte	.LVL335-1
 11062 1302 14000000 		.4byte	.LVL336
 11063 1306 0400     		.2byte	0x4
 11064 1308 F3       		.byte	0xf3
 11065 1309 01       		.uleb128 0x1
 11066 130a 52       		.byte	0x52
 11067 130b 9F       		.byte	0x9f
 11068 130c 14000000 		.4byte	.LVL336
 11069 1310 2E000000 		.4byte	.LVL340
 11070 1314 0100     		.2byte	0x1
 11071 1316 52       		.byte	0x52
 11072 1317 2E000000 		.4byte	.LVL340
 11073 131b 6C000000 		.4byte	.LVL345
 11074 131f 0100     		.2byte	0x1
 11075 1321 57       		.byte	0x57
 11076 1322 6C000000 		.4byte	.LVL345
 11077 1326 70000000 		.4byte	.LFE134
 11078 132a 0400     		.2byte	0x4
 11079 132c F3       		.byte	0xf3
 11080 132d 01       		.uleb128 0x1
 11081 132e 52       		.byte	0x52
 11082 132f 9F       		.byte	0x9f
 11083 1330 00000000 		.4byte	0
 11084 1334 00000000 		.4byte	0
 11085              	.LLST130:
 11086 1338 00000000 		.4byte	.LVL333
 11087 133c 0F000000 		.4byte	.LVL335-1
 11088 1340 0100     		.2byte	0x1
 11089 1342 53       		.byte	0x53
 11090 1343 0F000000 		.4byte	.LVL335-1
 11091 1347 14000000 		.4byte	.LVL336
 11092 134b 0400     		.2byte	0x4
 11093 134d F3       		.byte	0xf3
 11094 134e 01       		.uleb128 0x1
 11095 134f 53       		.byte	0x53
 11096 1350 9F       		.byte	0x9f
 11097 1351 14000000 		.4byte	.LVL336
 11098 1355 22000000 		.4byte	.LVL338
 11099 1359 0100     		.2byte	0x1
 11100 135b 53       		.byte	0x53
 11101 135c 22000000 		.4byte	.LVL338
 11102 1360 6C000000 		.4byte	.LVL345
 11103 1364 0100     		.2byte	0x1
ARM GAS  C:\Users\robom\AppData\Local\Temp\ccqs2S2W.s 			page 243


 11104 1366 56       		.byte	0x56
 11105 1367 6C000000 		.4byte	.LVL345
 11106 136b 70000000 		.4byte	.LFE134
 11107 136f 0400     		.2byte	0x4
 11108 1371 F3       		.byte	0xf3
 11109 1372 01       		.uleb128 0x1
 11110 1373 53       		.byte	0x53
 11111 1374 9F       		.byte	0x9f
 11112 1375 00000000 		.4byte	0
 11113 1379 00000000 		.4byte	0
 11114              	.LLST131:
 11115 137d 20000000 		.4byte	.LVL337
 11116 1381 26000000 		.4byte	.LVL339
 11117 1385 0200     		.2byte	0x2
 11118 1387 31       		.byte	0x31
 11119 1388 9F       		.byte	0x9f
 11120 1389 00000000 		.4byte	0
 11121 138d 00000000 		.4byte	0
 11122              	.LLST132:
 11123 1391 3E000000 		.4byte	.LVL342
 11124 1395 53000000 		.4byte	.LVL343-1
 11125 1399 0100     		.2byte	0x1
 11126 139b 50       		.byte	0x50
 11127 139c 53000000 		.4byte	.LVL343-1
 11128 13a0 64000000 		.4byte	.LVL344
 11129 13a4 0100     		.2byte	0x1
 11130 13a6 59       		.byte	0x59
 11131 13a7 00000000 		.4byte	0
 11132 13ab 00000000 		.4byte	0
 11133              	.LLST133:
 11134 13af 64000000 		.4byte	.LVL344
 11135 13b3 6C000000 		.4byte	.LVL345
 11136 13b7 0100     		.2byte	0x1
 11137 13b9 55       		.byte	0x55
 11138 13ba 00000000 		.4byte	0
 11139 13be 00000000 		.4byte	0
 11140              	.LLST134:
 11141 13c2 00000000 		.4byte	.LVL346
 11142 13c6 12000000 		.4byte	.LVL347
 11143 13ca 0100     		.2byte	0x1
 11144 13cc 50       		.byte	0x50
 11145 13cd 12000000 		.4byte	.LVL347
 11146 13d1 18000000 		.4byte	.LVL349
 11147 13d5 0400     		.2byte	0x4
 11148 13d7 F3       		.byte	0xf3
 11149 13d8 01       		.uleb128 0x1
 11150 13d9 50       		.byte	0x50
 11151 13da 9F       		.byte	0x9f
 11152 13db 18000000 		.4byte	.LVL349
 11153 13df 2C000000 		.4byte	.LVL352
 11154 13e3 0100     		.2byte	0x1
 11155 13e5 50       		.byte	0x50
 11156 13e6 2C000000 		.4byte	.LVL352
 11157 13ea 78000000 		.4byte	.LVL359
 11158 13ee 0100     		.2byte	0x1
 11159 13f0 54       		.byte	0x54
 11160 13f1 78000000 		.4byte	.LVL359
ARM GAS  C:\Users\robom\AppData\Local\Temp\ccqs2S2W.s 			page 244


 11161 13f5 88000000 		.4byte	.LFE135
 11162 13f9 0400     		.2byte	0x4
 11163 13fb F3       		.byte	0xf3
 11164 13fc 01       		.uleb128 0x1
 11165 13fd 50       		.byte	0x50
 11166 13fe 9F       		.byte	0x9f
 11167 13ff 00000000 		.4byte	0
 11168 1403 00000000 		.4byte	0
 11169              	.LLST135:
 11170 1407 5C000000 		.4byte	.LVL355
 11171 140b 60000000 		.4byte	.LVL356
 11172 140f 0200     		.2byte	0x2
 11173 1411 30       		.byte	0x30
 11174 1412 9F       		.byte	0x9f
 11175 1413 60000000 		.4byte	.LVL356
 11176 1417 74000000 		.4byte	.LVL358
 11177 141b 0100     		.2byte	0x1
 11178 141d 53       		.byte	0x53
 11179 141e 00000000 		.4byte	0
 11180 1422 00000000 		.4byte	0
 11181              	.LLST136:
 11182 1426 1E000000 		.4byte	.LVL350
 11183 142a 24000000 		.4byte	.LVL351
 11184 142e 0200     		.2byte	0x2
 11185 1430 31       		.byte	0x31
 11186 1431 9F       		.byte	0x9f
 11187 1432 00000000 		.4byte	0
 11188 1436 00000000 		.4byte	0
 11189              	.LLST137:
 11190 143a 3E000000 		.4byte	.LVL353
 11191 143e 55000000 		.4byte	.LVL354-1
 11192 1442 0100     		.2byte	0x1
 11193 1444 50       		.byte	0x50
 11194 1445 55000000 		.4byte	.LVL354-1
 11195 1449 74000000 		.4byte	.LVL358
 11196 144d 0100     		.2byte	0x1
 11197 144f 55       		.byte	0x55
 11198 1450 00000000 		.4byte	0
 11199 1454 00000000 		.4byte	0
 11200              	.LLST138:
 11201 1458 60000000 		.4byte	.LVL356
 11202 145c 70000000 		.4byte	.LVL357
 11203 1460 0800     		.2byte	0x8
 11204 1462 73       		.byte	0x73
 11205 1463 02       		.sleb128 2
 11206 1464 32       		.byte	0x32
 11207 1465 24       		.byte	0x24
 11208 1466 75       		.byte	0x75
 11209 1467 00       		.sleb128 0
 11210 1468 22       		.byte	0x22
 11211 1469 9F       		.byte	0x9f
 11212 146a 00000000 		.4byte	0
 11213 146e 00000000 		.4byte	0
 11214              	.LLST139:
 11215 1472 74000000 		.4byte	.LVL358
 11216 1476 78000000 		.4byte	.LVL359
 11217 147a 0100     		.2byte	0x1
ARM GAS  C:\Users\robom\AppData\Local\Temp\ccqs2S2W.s 			page 245


 11218 147c 56       		.byte	0x56
 11219 147d 00000000 		.4byte	0
 11220 1481 00000000 		.4byte	0
 11221              		.section	.debug_aranges,"",%progbits
 11222 0000 84010000 		.4byte	0x184
 11223 0004 0200     		.2byte	0x2
 11224 0006 00000000 		.4byte	.Ldebug_info0
 11225 000a 04       		.byte	0x4
 11226 000b 00       		.byte	0
 11227 000c 0000     		.2byte	0
 11228 000e 0000     		.2byte	0
 11229 0010 00000000 		.4byte	.LFB148
 11230 0014 0C000000 		.4byte	.LFE148-.LFB148
 11231 0018 00000000 		.4byte	.LFB150
 11232 001c 44000000 		.4byte	.LFE150-.LFB150
 11233 0020 00000000 		.4byte	.LFB151
 11234 0024 48000000 		.4byte	.LFE151-.LFB151
 11235 0028 00000000 		.4byte	.LFB152
 11236 002c 78000000 		.4byte	.LFE152-.LFB152
 11237 0030 00000000 		.4byte	.LFB113
 11238 0034 0C000000 		.4byte	.LFE113-.LFB113
 11239 0038 00000000 		.4byte	.LFB120
 11240 003c D8000000 		.4byte	.LFE120-.LFB120
 11241 0040 00000000 		.4byte	.LFB121
 11242 0044 14000000 		.4byte	.LFE121-.LFB121
 11243 0048 00000000 		.4byte	.LFB123
 11244 004c 0C000000 		.4byte	.LFE123-.LFB123
 11245 0050 00000000 		.4byte	.LFB124
 11246 0054 0C000000 		.4byte	.LFE124-.LFB124
 11247 0058 00000000 		.4byte	.LFB125
 11248 005c 0C000000 		.4byte	.LFE125-.LFB125
 11249 0060 00000000 		.4byte	.LFB139
 11250 0064 8C000000 		.4byte	.LFE139-.LFB139
 11251 0068 00000000 		.4byte	.LFB140
 11252 006c 80000000 		.4byte	.LFE140-.LFB140
 11253 0070 00000000 		.4byte	.LFB141
 11254 0074 6C000000 		.4byte	.LFE141-.LFB141
 11255 0078 00000000 		.4byte	.LFB142
 11256 007c 8C000000 		.4byte	.LFE142-.LFB142
 11257 0080 00000000 		.4byte	.LFB143
 11258 0084 44000000 		.4byte	.LFE143-.LFB143
 11259 0088 00000000 		.4byte	.LFB154
 11260 008c B0000000 		.4byte	.LFE154-.LFB154
 11261 0090 00000000 		.4byte	.LFB129
 11262 0094 48000000 		.4byte	.LFE129-.LFB129
 11263 0098 00000000 		.4byte	.LFB127
 11264 009c 50000000 		.4byte	.LFE127-.LFB127
 11265 00a0 00000000 		.4byte	.LFB128
 11266 00a4 50000000 		.4byte	.LFE128-.LFB128
 11267 00a8 00000000 		.4byte	.LFB138
 11268 00ac CC000000 		.4byte	.LFE138-.LFB138
 11269 00b0 00000000 		.4byte	.LFB115
 11270 00b4 08000000 		.4byte	.LFE115-.LFB115
 11271 00b8 00000000 		.4byte	.LFB130
 11272 00bc 24000000 		.4byte	.LFE130-.LFB130
 11273 00c0 00000000 		.4byte	.LFB145
 11274 00c4 18000000 		.4byte	.LFE145-.LFB145
ARM GAS  C:\Users\robom\AppData\Local\Temp\ccqs2S2W.s 			page 246


 11275 00c8 00000000 		.4byte	.LFB153
 11276 00cc 58000000 		.4byte	.LFE153-.LFB153
 11277 00d0 00000000 		.4byte	.LFB155
 11278 00d4 48000000 		.4byte	.LFE155-.LFB155
 11279 00d8 00000000 		.4byte	.LFB126
 11280 00dc 80000000 		.4byte	.LFE126-.LFB126
 11281 00e0 00000000 		.4byte	.LFB122
 11282 00e4 0A000000 		.4byte	.LFE122-.LFB122
 11283 00e8 00000000 		.4byte	.LFB144
 11284 00ec 10000000 		.4byte	.LFE144-.LFB144
 11285 00f0 00000000 		.4byte	.LFB146
 11286 00f4 30000000 		.4byte	.LFE146-.LFB146
 11287 00f8 00000000 		.4byte	.LFB137
 11288 00fc E8000000 		.4byte	.LFE137-.LFB137
 11289 0100 00000000 		.4byte	.LFB116
 11290 0104 66000000 		.4byte	.LFE116-.LFB116
 11291 0108 00000000 		.4byte	.LFB136
 11292 010c 32000000 		.4byte	.LFE136-.LFB136
 11293 0110 00000000 		.4byte	.LFB112
 11294 0114 18000000 		.4byte	.LFE112-.LFB112
 11295 0118 00000000 		.4byte	.LFB114
 11296 011c 1A000000 		.4byte	.LFE114-.LFB114
 11297 0120 00000000 		.4byte	.LFB117
 11298 0124 28000000 		.4byte	.LFE117-.LFB117
 11299 0128 00000000 		.4byte	.LFB131
 11300 012c 54000000 		.4byte	.LFE131-.LFB131
 11301 0130 00000000 		.4byte	.LFB110
 11302 0134 0A000000 		.4byte	.LFE110-.LFB110
 11303 0138 00000000 		.4byte	.LFB111
 11304 013c 0A000000 		.4byte	.LFE111-.LFB111
 11305 0140 00000000 		.4byte	.LFB132
 11306 0144 5C000000 		.4byte	.LFE132-.LFB132
 11307 0148 00000000 		.4byte	.LFB119
 11308 014c 64000000 		.4byte	.LFE119-.LFB119
 11309 0150 00000000 		.4byte	.LFB118
 11310 0154 58000000 		.4byte	.LFE118-.LFB118
 11311 0158 00000000 		.4byte	.LFB133
 11312 015c 6C000000 		.4byte	.LFE133-.LFB133
 11313 0160 00000000 		.4byte	.LFB134
 11314 0164 70000000 		.4byte	.LFE134-.LFB134
 11315 0168 00000000 		.4byte	.LFB135
 11316 016c 88000000 		.4byte	.LFE135-.LFB135
 11317 0170 00000000 		.4byte	.LFB149
 11318 0174 38000000 		.4byte	.LFE149-.LFB149
 11319 0178 00000000 		.4byte	.LFB147
 11320 017c 58000000 		.4byte	.LFE147-.LFB147
 11321 0180 00000000 		.4byte	0
 11322 0184 00000000 		.4byte	0
 11323              		.section	.debug_ranges,"",%progbits
 11324              	.Ldebug_ranges0:
 11325 0000 00000000 		.4byte	.LFB148
 11326 0004 0C000000 		.4byte	.LFE148
 11327 0008 00000000 		.4byte	.LFB150
 11328 000c 44000000 		.4byte	.LFE150
 11329 0010 00000000 		.4byte	.LFB151
 11330 0014 48000000 		.4byte	.LFE151
 11331 0018 00000000 		.4byte	.LFB152
ARM GAS  C:\Users\robom\AppData\Local\Temp\ccqs2S2W.s 			page 247


 11332 001c 78000000 		.4byte	.LFE152
 11333 0020 00000000 		.4byte	.LFB113
 11334 0024 0C000000 		.4byte	.LFE113
 11335 0028 00000000 		.4byte	.LFB120
 11336 002c D8000000 		.4byte	.LFE120
 11337 0030 00000000 		.4byte	.LFB121
 11338 0034 14000000 		.4byte	.LFE121
 11339 0038 00000000 		.4byte	.LFB123
 11340 003c 0C000000 		.4byte	.LFE123
 11341 0040 00000000 		.4byte	.LFB124
 11342 0044 0C000000 		.4byte	.LFE124
 11343 0048 00000000 		.4byte	.LFB125
 11344 004c 0C000000 		.4byte	.LFE125
 11345 0050 00000000 		.4byte	.LFB139
 11346 0054 8C000000 		.4byte	.LFE139
 11347 0058 00000000 		.4byte	.LFB140
 11348 005c 80000000 		.4byte	.LFE140
 11349 0060 00000000 		.4byte	.LFB141
 11350 0064 6C000000 		.4byte	.LFE141
 11351 0068 00000000 		.4byte	.LFB142
 11352 006c 8C000000 		.4byte	.LFE142
 11353 0070 00000000 		.4byte	.LFB143
 11354 0074 44000000 		.4byte	.LFE143
 11355 0078 00000000 		.4byte	.LFB154
 11356 007c B0000000 		.4byte	.LFE154
 11357 0080 00000000 		.4byte	.LFB129
 11358 0084 48000000 		.4byte	.LFE129
 11359 0088 00000000 		.4byte	.LFB127
 11360 008c 50000000 		.4byte	.LFE127
 11361 0090 00000000 		.4byte	.LFB128
 11362 0094 50000000 		.4byte	.LFE128
 11363 0098 00000000 		.4byte	.LFB138
 11364 009c CC000000 		.4byte	.LFE138
 11365 00a0 00000000 		.4byte	.LFB115
 11366 00a4 08000000 		.4byte	.LFE115
 11367 00a8 00000000 		.4byte	.LFB130
 11368 00ac 24000000 		.4byte	.LFE130
 11369 00b0 00000000 		.4byte	.LFB145
 11370 00b4 18000000 		.4byte	.LFE145
 11371 00b8 00000000 		.4byte	.LFB153
 11372 00bc 58000000 		.4byte	.LFE153
 11373 00c0 00000000 		.4byte	.LFB155
 11374 00c4 48000000 		.4byte	.LFE155
 11375 00c8 00000000 		.4byte	.LFB126
 11376 00cc 80000000 		.4byte	.LFE126
 11377 00d0 00000000 		.4byte	.LFB122
 11378 00d4 0A000000 		.4byte	.LFE122
 11379 00d8 00000000 		.4byte	.LFB144
 11380 00dc 10000000 		.4byte	.LFE144
 11381 00e0 00000000 		.4byte	.LFB146
 11382 00e4 30000000 		.4byte	.LFE146
 11383 00e8 00000000 		.4byte	.LFB137
 11384 00ec E8000000 		.4byte	.LFE137
 11385 00f0 00000000 		.4byte	.LFB116
 11386 00f4 66000000 		.4byte	.LFE116
 11387 00f8 00000000 		.4byte	.LFB136
 11388 00fc 32000000 		.4byte	.LFE136
ARM GAS  C:\Users\robom\AppData\Local\Temp\ccqs2S2W.s 			page 248


 11389 0100 00000000 		.4byte	.LFB112
 11390 0104 18000000 		.4byte	.LFE112
 11391 0108 00000000 		.4byte	.LFB114
 11392 010c 1A000000 		.4byte	.LFE114
 11393 0110 00000000 		.4byte	.LFB117
 11394 0114 28000000 		.4byte	.LFE117
 11395 0118 00000000 		.4byte	.LFB131
 11396 011c 54000000 		.4byte	.LFE131
 11397 0120 00000000 		.4byte	.LFB110
 11398 0124 0A000000 		.4byte	.LFE110
 11399 0128 00000000 		.4byte	.LFB111
 11400 012c 0A000000 		.4byte	.LFE111
 11401 0130 00000000 		.4byte	.LFB132
 11402 0134 5C000000 		.4byte	.LFE132
 11403 0138 00000000 		.4byte	.LFB119
 11404 013c 64000000 		.4byte	.LFE119
 11405 0140 00000000 		.4byte	.LFB118
 11406 0144 58000000 		.4byte	.LFE118
 11407 0148 00000000 		.4byte	.LFB133
 11408 014c 6C000000 		.4byte	.LFE133
 11409 0150 00000000 		.4byte	.LFB134
 11410 0154 70000000 		.4byte	.LFE134
 11411 0158 00000000 		.4byte	.LFB135
 11412 015c 88000000 		.4byte	.LFE135
 11413 0160 00000000 		.4byte	.LFB149
 11414 0164 38000000 		.4byte	.LFE149
 11415 0168 00000000 		.4byte	.LFB147
 11416 016c 58000000 		.4byte	.LFE147
 11417 0170 00000000 		.4byte	0
 11418 0174 00000000 		.4byte	0
 11419              		.section	.debug_line,"",%progbits
 11420              	.Ldebug_line0:
 11421 0000 E30A0000 		.section	.debug_str,"MS",%progbits,1
 11421      02003803 
 11421      00000201 
 11421      FB0E0D00 
 11421      01010101 
 11422              	.LASF73:
 11423 0000 636F756E 		.ascii	"count\000"
 11423      7400
 11424              	.LASF88:
 11425 0006 76547261 		.ascii	"vTraceSetFilterGroup\000"
 11425      63655365 
 11425      7446696C 
 11425      74657247 
 11425      726F7570 
 11426              	.LASF56:
 11427 001b 6F626A65 		.ascii	"objectDataSize\000"
 11427      63744461 
 11427      74615369 
 11427      7A6500
 11428              	.LASF170:
 11429 002a 53657373 		.ascii	"SessionCounter\000"
 11429      696F6E43 
 11429      6F756E74 
 11429      657200
 11430              	.LASF27:
ARM GAS  C:\Users\robom\AppData\Local\Temp\ccqs2S2W.s 			page 249


 11431 0039 45455F55 		.ascii	"EE_UINT32\000"
 11431      494E5433 
 11431      3200
 11432              	.LASF100:
 11433 0043 63686563 		.ascii	"checksum\000"
 11433      6B73756D 
 11433      00
 11434              	.LASF3:
 11435 004c 5F5F7569 		.ascii	"__uint8_t\000"
 11435      6E74385F 
 11435      7400
 11436              	.LASF144:
 11437 0056 6F626A65 		.ascii	"object\000"
 11437      637400
 11438              	.LASF1:
 11439 005d 76615F6C 		.ascii	"va_list\000"
 11439      69737400 
 11440              	.LASF173:
 11441 0065 6576656E 		.ascii	"eventCounter\000"
 11441      74436F75 
 11441      6E746572 
 11441      00
 11442              	.LASF113:
 11443 0072 6E537472 		.ascii	"nStrWords\000"
 11443      576F7264 
 11443      7300
 11444              	.LASF69:
 11445 007c 42797465 		.ascii	"BytesRemaining\000"
 11445      7352656D 
 11445      61696E69 
 11445      6E6700
 11446              	.LASF65:
 11447 008b 704F626A 		.ascii	"pObjectDataTableBufferUINT8\000"
 11447      65637444 
 11447      61746154 
 11447      61626C65 
 11447      42756666 
 11448              	.LASF121:
 11449 00a7 64617461 		.ascii	"data8\000"
 11449      3800
 11450              	.LASF152:
 11451 00ad 76547261 		.ascii	"vTraceStoreISREnd\000"
 11451      63655374 
 11451      6F726549 
 11451      5352456E 
 11451      6400
 11452              	.LASF14:
 11453 00bf 6C6F6E67 		.ascii	"long long unsigned int\000"
 11453      206C6F6E 
 11453      6720756E 
 11453      7369676E 
 11453      65642069 
 11454              	.LASF61:
 11455 00d6 7053796D 		.ascii	"pSymbolTableBufferUINT8\000"
 11455      626F6C54 
 11455      61626C65 
 11455      42756666 
ARM GAS  C:\Users\robom\AppData\Local\Temp\ccqs2S2W.s 			page 250


 11455      65725549 
 11456              	.LASF206:
 11457 00ee 70727647 		.ascii	"prvGetTimestamp32\000"
 11457      65745469 
 11457      6D657374 
 11457      616D7033 
 11457      3200
 11458              	.LASF49:
 11459 0100 64617461 		.ascii	"data\000"
 11459      00
 11460              	.LASF50:
 11461 0105 6C617267 		.ascii	"largestEventType\000"
 11461      65737445 
 11461      76656E74 
 11461      54797065 
 11461      00
 11462              	.LASF162:
 11463 0116 70727654 		.ascii	"prvTraceInitCortexM\000"
 11463      72616365 
 11463      496E6974 
 11463      436F7274 
 11463      65784D00 
 11464              	.LASF64:
 11465 012a 704F626A 		.ascii	"pObjectDataTableBufferUINT32\000"
 11465      65637444 
 11465      61746154 
 11465      61626C65 
 11465      42756666 
 11466              	.LASF2:
 11467 0147 5F5F696E 		.ascii	"__int8_t\000"
 11467      74385F74 
 11467      00
 11468              	.LASF179:
 11469 0150 49544D5F 		.ascii	"ITM_RxBuffer\000"
 11469      52784275 
 11469      66666572 
 11469      00
 11470              	.LASF120:
 11471 015d 64617461 		.ascii	"data32\000"
 11471      333200
 11472              	.LASF47:
 11473 0164 4576656E 		.ascii	"EventWithParam_2\000"
 11473      74576974 
 11473      68506172 
 11473      616D5F32 
 11473      00
 11474              	.LASF48:
 11475 0175 4576656E 		.ascii	"EventWithParam_3\000"
 11475      74576974 
 11475      68506172 
 11475      616D5F33 
 11475      00
 11476              	.LASF93:
 11477 0186 666F756E 		.ascii	"foundSlot\000"
 11477      64536C6F 
 11477      7400
 11478              	.LASF139:
ARM GAS  C:\Users\robom\AppData\Local\Temp\ccqs2S2W.s 			page 251


 11479 0190 70727654 		.ascii	"prvTraceError\000"
 11479      72616365 
 11479      4572726F 
 11479      7200
 11480              	.LASF44:
 11481 019e 42617365 		.ascii	"BaseEvent\000"
 11481      4576656E 
 11481      7400
 11482              	.LASF4:
 11483 01a8 7369676E 		.ascii	"signed char\000"
 11483      65642063 
 11483      68617200 
 11484              	.LASF136:
 11485 01b4 63757272 		.ascii	"currentTask\000"
 11485      656E7454 
 11485      61736B00 
 11486              	.LASF168:
 11487 01c0 4953525F 		.ascii	"ISR_stack_index\000"
 11487      73746163 
 11487      6B5F696E 
 11487      64657800 
 11488              	.LASF128:
 11489 01d0 70616765 		.ascii	"pageToTransfer\000"
 11489      546F5472 
 11489      616E7366 
 11489      657200
 11490              	.LASF207:
 11491 01df 76547261 		.ascii	"vTraceClearError\000"
 11491      6365436C 
 11491      65617245 
 11491      72726F72 
 11491      00
 11492              	.LASF165:
 11493 01f0 6F626A65 		.ascii	"objectDataTable\000"
 11493      63744461 
 11493      74615461 
 11493      626C6500 
 11494              	.LASF169:
 11495 0200 6572726F 		.ascii	"errorCode\000"
 11495      72436F64 
 11495      6500
 11496              	.LASF10:
 11497 020a 6C6F6E67 		.ascii	"long int\000"
 11497      20696E74 
 11497      00
 11498              	.LASF40:
 11499 0213 63686563 		.ascii	"checksumMSB\000"
 11499      6B73756D 
 11499      4D534200 
 11500              	.LASF55:
 11501 021f 73796D62 		.ascii	"symbolCount\000"
 11501      6F6C436F 
 11501      756E7400 
 11502              	.LASF202:
 11503 022b 5F5F7661 		.ascii	"__va_list\000"
 11503      5F6C6973 
 11503      7400
ARM GAS  C:\Users\robom\AppData\Local\Temp\ccqs2S2W.s 			page 252


 11504              	.LASF63:
 11505 0235 53796D62 		.ascii	"SymbolTable\000"
 11505      6F6C5461 
 11505      626C6500 
 11506              	.LASF13:
 11507 0241 6C6F6E67 		.ascii	"long long int\000"
 11507      206C6F6E 
 11507      6720696E 
 11507      7400
 11508              	.LASF18:
 11509 024f 75696E74 		.ascii	"uint16_t\000"
 11509      31365F74 
 11509      00
 11510              	.LASF23:
 11511 0258 646F7562 		.ascii	"double\000"
 11511      6C6500
 11512              	.LASF153:
 11513 025f 69735461 		.ascii	"isTaskSwitchRequired\000"
 11513      736B5377 
 11513      69746368 
 11513      52657175 
 11513      69726564 
 11514              	.LASF133:
 11515 0274 62756666 		.ascii	"buffer\000"
 11515      657200
 11516              	.LASF84:
 11517 027b 78547261 		.ascii	"xTraceIsRecordingEnabled\000"
 11517      63654973 
 11517      5265636F 
 11517      7264696E 
 11517      67456E61 
 11518              	.LASF98:
 11519 0294 70727654 		.ascii	"prvTraceSaveObjectData\000"
 11519      72616365 
 11519      53617665 
 11519      4F626A65 
 11519      63744461 
 11520              	.LASF171:
 11521 02ab 50534645 		.ascii	"PSFEndianessIdentifier\000"
 11521      6E646961 
 11521      6E657373 
 11521      4964656E 
 11521      74696669 
 11522              	.LASF177:
 11523 02c2 45455F73 		.ascii	"EE_std_endcycle_next_tid\000"
 11523      74645F65 
 11523      6E646379 
 11523      636C655F 
 11523      6E657874 
 11524              	.LASF11:
 11525 02db 5F5F7569 		.ascii	"__uint32_t\000"
 11525      6E743332 
 11525      5F7400
 11526              	.LASF53:
 11527 02e6 6F707469 		.ascii	"options\000"
 11527      6F6E7300 
 11528              	.LASF81:
ARM GAS  C:\Users\robom\AppData\Local\Temp\ccqs2S2W.s 			page 253


 11529 02ee 6C617374 		.ascii	"lastPage\000"
 11529      50616765 
 11529      00
 11530              	.LASF167:
 11531 02f7 4953525F 		.ascii	"ISR_stack\000"
 11531      73746163 
 11531      6B00
 11532              	.LASF78:
 11533 0301 70727641 		.ascii	"prvAllocateBufferPage\000"
 11533      6C6C6F63 
 11533      61746542 
 11533      75666665 
 11533      72506167 
 11534              	.LASF184:
 11535 0317 74726357 		.ascii	"trcWarningChannel\000"
 11535      61726E69 
 11535      6E674368 
 11535      616E6E65 
 11535      6C00
 11536              	.LASF205:
 11537 0329 5F5F6765 		.ascii	"__get_PRIMASK\000"
 11537      745F5052 
 11537      494D4153 
 11537      4B00
 11538              	.LASF54:
 11539 0337 73796D62 		.ascii	"symbolSize\000"
 11539      6F6C5369 
 11539      7A6500
 11540              	.LASF187:
 11541 0342 74696D65 		.ascii	"timestampFrequency\000"
 11541      7374616D 
 11541      70467265 
 11541      7175656E 
 11541      637900
 11542              	.LASF30:
 11543 0355 45455F54 		.ascii	"EE_TID\000"
 11543      494400
 11544              	.LASF66:
 11545 035c 4F626A65 		.ascii	"ObjectDataTableBuffer\000"
 11545      63744461 
 11545      74615461 
 11545      626C6542 
 11545      75666665 
 11546              	.LASF138:
 11547 0372 70727650 		.ascii	"prvProcessCommand\000"
 11547      726F6365 
 11547      7373436F 
 11547      6D6D616E 
 11547      6400
 11548              	.LASF116:
 11549 0384 6576656E 		.ascii	"eventID\000"
 11549      74494400 
 11550              	.LASF85:
 11551 038c 76547261 		.ascii	"vTraceSetFrequency\000"
 11551      63655365 
 11551      74467265 
 11551      7175656E 
ARM GAS  C:\Users\robom\AppData\Local\Temp\ccqs2S2W.s 			page 254


 11551      637900
 11552              	.LASF15:
 11553 039f 756E7369 		.ascii	"unsigned int\000"
 11553      676E6564 
 11553      20696E74 
 11553      00
 11554              	.LASF67:
 11555 03ac 4F626A65 		.ascii	"ObjectDataTable\000"
 11555      63744461 
 11555      74615461 
 11555      626C6500 
 11556              	.LASF28:
 11557 03bc 45455F55 		.ascii	"EE_UREG\000"
 11557      52454700 
 11558              	.LASF143:
 11559 03c4 76547261 		.ascii	"vTraceStoreKernelObjectName\000"
 11559      63655374 
 11559      6F72654B 
 11559      65726E65 
 11559      6C4F626A 
 11560              	.LASF12:
 11561 03e0 6C6F6E67 		.ascii	"long unsigned int\000"
 11561      20756E73 
 11561      69676E65 
 11561      6420696E 
 11561      7400
 11562              	.LASF102:
 11563 03f2 70727650 		.ascii	"prvPagedEventBufferGetWritePointer\000"
 11563      61676564 
 11563      4576656E 
 11563      74427566 
 11563      66657247 
 11564              	.LASF111:
 11565 0415 75736572 		.ascii	"userEvtChannel\000"
 11565      45767443 
 11565      68616E6E 
 11565      656C00
 11566              	.LASF92:
 11567 0424 6E616D65 		.ascii	"name\000"
 11567      00
 11568              	.LASF39:
 11569 0429 63686563 		.ascii	"checksumLSB\000"
 11569      6B73756D 
 11569      4C534200 
 11570              	.LASF119:
 11571 0435 6576656E 		.ascii	"event\000"
 11571      7400
 11572              	.LASF8:
 11573 043b 73686F72 		.ascii	"short unsigned int\000"
 11573      7420756E 
 11573      7369676E 
 11573      65642069 
 11573      6E7400
 11574              	.LASF174:
 11575 044e 45455F6F 		.ascii	"EE_oo_IRQ_disable_count\000"
 11575      6F5F4952 
 11575      515F6469 
ARM GAS  C:\Users\robom\AppData\Local\Temp\ccqs2S2W.s 			page 255


 11575      7361626C 
 11575      655F636F 
 11576              	.LASF148:
 11577 0466 70727654 		.ascii	"prvTraceStoreEvent0\000"
 11577      72616365 
 11577      53746F72 
 11577      65457665 
 11577      6E743000 
 11578              	.LASF151:
 11579 047a 70727654 		.ascii	"prvTraceStoreEvent1\000"
 11579      72616365 
 11579      53746F72 
 11579      65457665 
 11579      6E743100 
 11580              	.LASF157:
 11581 048e 70727654 		.ascii	"prvTraceStoreEvent2\000"
 11581      72616365 
 11581      53746F72 
 11581      65457665 
 11581      6E743200 
 11582              	.LASF96:
 11583 04a2 70727654 		.ascii	"prvTraceDeleteSymbol\000"
 11583      72616365 
 11583      44656C65 
 11583      74655379 
 11583      6D626F6C 
 11584              	.LASF82:
 11585 04b7 66726571 		.ascii	"frequency\000"
 11585      75656E63 
 11585      7900
 11586              	.LASF134:
 11587 04c1 70727653 		.ascii	"prvSetRecorderEnabled\000"
 11587      65745265 
 11587      636F7264 
 11587      6572456E 
 11587      61626C65 
 11588              	.LASF142:
 11589 04d7 70727654 		.ascii	"prvTraceStoreStringEvent\000"
 11589      72616365 
 11589      53746F72 
 11589      65537472 
 11589      696E6745 
 11590              	.LASF32:
 11591 04f0 74726163 		.ascii	"traceHandle\000"
 11591      6548616E 
 11591      646C6500 
 11592              	.LASF154:
 11593 04fc 70727654 		.ascii	"prvTraceGetCurrentTaskId\000"
 11593      72616365 
 11593      47657443 
 11593      75727265 
 11593      6E745461 
 11594              	.LASF105:
 11595 0515 70727650 		.ascii	"prvPageReadComplete\000"
 11595      61676552 
 11595      65616443 
 11595      6F6D706C 
ARM GAS  C:\Users\robom\AppData\Local\Temp\ccqs2S2W.s 			page 256


 11595      65746500 
 11596              	.LASF140:
 11597 0529 70727654 		.ascii	"prvTraceStoreStringEventHelper\000"
 11597      72616365 
 11597      53746F72 
 11597      65537472 
 11597      696E6745 
 11598              	.LASF6:
 11599 0548 73686F72 		.ascii	"short int\000"
 11599      7420696E 
 11599      7400
 11600              	.LASF9:
 11601 0552 5F5F696E 		.ascii	"__int32_t\000"
 11601      7433325F 
 11601      7400
 11602              	.LASF109:
 11603 055c 70727654 		.ascii	"prvTraceStoreObjectDataTable\000"
 11603      72616365 
 11603      53746F72 
 11603      654F626A 
 11603      65637444 
 11604              	.LASF156:
 11605 0579 68616E64 		.ascii	"handle\000"
 11605      6C6500
 11606              	.LASF74:
 11607 0580 70726576 		.ascii	"prevPage\000"
 11607      50616765 
 11607      00
 11608              	.LASF83:
 11609 0589 78547261 		.ascii	"xTraceGetLastError\000"
 11609      63654765 
 11609      744C6173 
 11609      74457272 
 11609      6F7200
 11610              	.LASF45:
 11611 059c 62617365 		.ascii	"base\000"
 11611      00
 11612              	.LASF77:
 11613 05a1 5F5F6972 		.ascii	"__irq_status\000"
 11613      715F7374 
 11613      61747573 
 11613      00
 11614              	.LASF51:
 11615 05ae 76657273 		.ascii	"version\000"
 11615      696F6E00 
 11616              	.LASF198:
 11617 05b6 70727654 		.ascii	"prvTraceIsSchedulerSuspended\000"
 11617      72616365 
 11617      49735363 
 11617      68656475 
 11617      6C657253 
 11618              	.LASF204:
 11619 05d3 7072694D 		.ascii	"priMask\000"
 11619      61736B00 
 11620              	.LASF25:
 11621 05db 73697A65 		.ascii	"sizetype\000"
 11621      74797065 
ARM GAS  C:\Users\robom\AppData\Local\Temp\ccqs2S2W.s 			page 257


 11621      00
 11622              	.LASF200:
 11623 05e4 736F7572 		.ascii	"source\\bsw\\TraceRecorder\\trcStreamingRecorder.c\000"
 11623      63655C62 
 11623      73775C54 
 11623      72616365 
 11623      5265636F 
 11624              	.LASF21:
 11625 0614 6C6F6E67 		.ascii	"long double\000"
 11625      20646F75 
 11625      626C6500 
 11626              	.LASF42:
 11627 0620 4576656E 		.ascii	"EventID\000"
 11627      74494400 
 11628              	.LASF91:
 11629 0628 61646472 		.ascii	"address\000"
 11629      65737300 
 11630              	.LASF175:
 11631 0630 45455F6F 		.ascii	"EE_oo_IRQ_suspend_status\000"
 11631      6F5F4952 
 11631      515F7375 
 11631      7370656E 
 11631      645F7374 
 11632              	.LASF0:
 11633 0649 5F5F676E 		.ascii	"__gnuc_va_list\000"
 11633      75635F76 
 11633      615F6C69 
 11633      737400
 11634              	.LASF189:
 11635 0658 546F7461 		.ascii	"TotalBytesRemaining_LowWaterMark\000"
 11635      6C427974 
 11635      65735265 
 11635      6D61696E 
 11635      696E675F 
 11636              	.LASF41:
 11637 0679 54726163 		.ascii	"TracealyzerCommandType\000"
 11637      65616C79 
 11637      7A657243 
 11637      6F6D6D61 
 11637      6E645479 
 11638              	.LASF176:
 11639 0690 45455F41 		.ascii	"EE_ApplicationMode\000"
 11639      70706C69 
 11639      63617469 
 11639      6F6E4D6F 
 11639      646500
 11640              	.LASF164:
 11641 06a3 66697273 		.ascii	"firstFreeSymbolTableIndex\000"
 11641      74467265 
 11641      6553796D 
 11641      626F6C54 
 11641      61626C65 
 11642              	.LASF52:
 11643 06bd 706C6174 		.ascii	"platform\000"
 11643      666F726D 
 11643      00
 11644              	.LASF70:
ARM GAS  C:\Users\robom\AppData\Local\Temp\ccqs2S2W.s 			page 258


 11645 06c6 57726974 		.ascii	"WritePointer\000"
 11645      65506F69 
 11645      6E746572 
 11645      00
 11646              	.LASF104:
 11647 06d3 63757272 		.ascii	"currentWritePage\000"
 11647      656E7457 
 11647      72697465 
 11647      50616765 
 11647      00
 11648              	.LASF149:
 11649 06e4 76547261 		.ascii	"vTraceInstanceFinishedNow\000"
 11649      6365496E 
 11649      7374616E 
 11649      63654669 
 11649      6E697368 
 11650              	.LASF203:
 11651 06fe 5F5F7365 		.ascii	"__set_PRIMASK\000"
 11651      745F5052 
 11651      494D4153 
 11651      4B00
 11652              	.LASF125:
 11653 070c 70727654 		.ascii	"prvTraceWarning\000"
 11653      72616365 
 11653      5761726E 
 11653      696E6700 
 11654              	.LASF163:
 11655 071c 73796D62 		.ascii	"symbolTable\000"
 11655      6F6C5461 
 11655      626C6500 
 11656              	.LASF137:
 11657 0728 76547261 		.ascii	"vTraceStop\000"
 11657      63655374 
 11657      6F7000
 11658              	.LASF94:
 11659 0733 70747241 		.ascii	"ptrAddress\000"
 11659      64647265 
 11659      737300
 11660              	.LASF22:
 11661 073e 666C6F61 		.ascii	"float\000"
 11661      7400
 11662              	.LASF114:
 11663 0744 6E417267 		.ascii	"nArgs\000"
 11663      7300
 11664              	.LASF186:
 11665 074a 75695472 		.ascii	"uiTraceTickCount\000"
 11665      61636554 
 11665      69636B43 
 11665      6F756E74 
 11665      00
 11666              	.LASF192:
 11667 075b 4576656E 		.ascii	"EventBuffer\000"
 11667      74427566 
 11667      66657200 
 11668              	.LASF196:
 11669 0767 4D617842 		.ascii	"MaxBytesTruncated\000"
 11669      79746573 
ARM GAS  C:\Users\robom\AppData\Local\Temp\ccqs2S2W.s 			page 259


 11669      5472756E 
 11669      63617465 
 11669      6400
 11670              	.LASF185:
 11671 0779 69735065 		.ascii	"isPendingContextSwitch\000"
 11671      6E64696E 
 11671      67436F6E 
 11671      74657874 
 11671      53776974 
 11672              	.LASF19:
 11673 0790 696E7433 		.ascii	"int32_t\000"
 11673      325F7400 
 11674              	.LASF5:
 11675 0798 756E7369 		.ascii	"unsigned char\000"
 11675      676E6564 
 11675      20636861 
 11675      7200
 11676              	.LASF34:
 11677 07a6 70617261 		.ascii	"param1\000"
 11677      6D3100
 11678              	.LASF36:
 11679 07ad 70617261 		.ascii	"param3\000"
 11679      6D3300
 11680              	.LASF37:
 11681 07b4 70617261 		.ascii	"param4\000"
 11681      6D3400
 11682              	.LASF38:
 11683 07bb 70617261 		.ascii	"param5\000"
 11683      6D3500
 11684              	.LASF60:
 11685 07c2 7053796D 		.ascii	"pSymbolTableBufferUINT32\000"
 11685      626F6C54 
 11685      61626C65 
 11685      42756666 
 11685      65725549 
 11686              	.LASF130:
 11687 07db 62797465 		.ascii	"bytesTransferredNow\000"
 11687      73547261 
 11687      6E736665 
 11687      72726564 
 11687      4E6F7700 
 11688              	.LASF124:
 11689 07ef 65727253 		.ascii	"errStr\000"
 11689      747200
 11690              	.LASF181:
 11691 07f6 43757272 		.ascii	"CurrentFilterMask\000"
 11691      656E7446 
 11691      696C7465 
 11691      724D6173 
 11691      6B00
 11692              	.LASF129:
 11693 0808 62797465 		.ascii	"bytesTransferredTotal\000"
 11693      73547261 
 11693      6E736665 
 11693      72726564 
 11693      546F7461 
 11694              	.LASF132:
ARM GAS  C:\Users\robom\AppData\Local\Temp\ccqs2S2W.s 			page 260


 11695 081e 70727650 		.ascii	"prvPagedEventBufferInit\000"
 11695      61676564 
 11695      4576656E 
 11695      74427566 
 11695      66657249 
 11696              	.LASF90:
 11697 0836 70727654 		.ascii	"prvTraceSaveSymbol\000"
 11697      72616365 
 11697      53617665 
 11697      53796D62 
 11697      6F6C00
 11698              	.LASF194:
 11699 0849 4E6F526F 		.ascii	"NoRoomForObjectData\000"
 11699      6F6D466F 
 11699      724F626A 
 11699      65637444 
 11699      61746100 
 11700              	.LASF195:
 11701 085d 4C6F6E67 		.ascii	"LongestSymbolName\000"
 11701      65737453 
 11701      796D626F 
 11701      6C4E616D 
 11701      6500
 11702              	.LASF199:
 11703 086f 474E5520 		.ascii	"GNU C11 5.4.1 20160609 (release) [ARM/embedded-5-br"
 11703      43313120 
 11703      352E342E 
 11703      31203230 
 11703      31363036 
 11704 08a2 616E6368 		.ascii	"anch revision 237715] -mcpu=cortex-m3 -mthumb -g -O"
 11704      20726576 
 11704      6973696F 
 11704      6E203233 
 11704      37373135 
 11705 08d5 67202D66 		.ascii	"g -ffunction-sections -ffat-lto-objects\000"
 11705      66756E63 
 11705      74696F6E 
 11705      2D736563 
 11705      74696F6E 
 11706              	.LASF118:
 11707 08fd 6576656E 		.ascii	"eventSize\000"
 11707      7453697A 
 11707      6500
 11708              	.LASF193:
 11709 0907 4E6F526F 		.ascii	"NoRoomForSymbol\000"
 11709      6F6D466F 
 11709      7253796D 
 11709      626F6C00 
 11710              	.LASF79:
 11711 0917 70727647 		.ascii	"prvGetBufferPage\000"
 11711      65744275 
 11711      66666572 
 11711      50616765 
 11711      00
 11712              	.LASF112:
 11713 0928 6E576F72 		.ascii	"nWords\000"
 11713      647300
ARM GAS  C:\Users\robom\AppData\Local\Temp\ccqs2S2W.s 			page 261


 11714              	.LASF161:
 11715 092f 70727654 		.ascii	"prvTraceStoreTSConfig\000"
 11715      72616365 
 11715      53746F72 
 11715      65545343 
 11715      6F6E6669 
 11716              	.LASF201:
 11717 0945 433A5C55 		.ascii	"C:\\Users\\robom\\OneDrive\\University\\Darmstadt\\"
 11717      73657273 
 11717      5C726F62 
 11717      6F6D5C4F 
 11717      6E654472 
 11718 0972 41647661 		.ascii	"Advanced Microcontroller Systems and Embedded Opera"
 11718      6E636564 
 11718      204D6963 
 11718      726F636F 
 11718      6E74726F 
 11719 09a5 74696E67 		.ascii	"ting systems\\Embedded Operating Systems\\Workbook\\"
 11719      20737973 
 11719      74656D73 
 11719      5C456D62 
 11719      65646465 
 11720 09d6 72656163 		.ascii	"reaction_game_wb.cydsn\000"
 11720      74696F6E 
 11720      5F67616D 
 11720      655F7762 
 11720      2E637964 
 11721              	.LASF20:
 11722 09ed 75696E74 		.ascii	"uint32_t\000"
 11722      33325F74 
 11722      00
 11723              	.LASF155:
 11724 09f6 76547261 		.ascii	"vTraceStoreISRBegin\000"
 11724      63655374 
 11724      6F726549 
 11724      53524265 
 11724      67696E00 
 11725              	.LASF122:
 11726 0a0a 76547261 		.ascii	"vTracePrint\000"
 11726      63655072 
 11726      696E7400 
 11727              	.LASF160:
 11728 0a16 6E506172 		.ascii	"nParam\000"
 11728      616D00
 11729              	.LASF103:
 11730 0a1d 73697A65 		.ascii	"sizeOfEvent\000"
 11730      4F664576 
 11730      656E7400 
 11731              	.LASF191:
 11732 0a29 50616765 		.ascii	"PageInfo\000"
 11732      496E666F 
 11732      00
 11733              	.LASF99:
 11734 0a32 70727654 		.ascii	"prvTraceDeleteObjectData\000"
 11734      72616365 
 11734      44656C65 
 11734      74654F62 
ARM GAS  C:\Users\robom\AppData\Local\Temp\ccqs2S2W.s 			page 262


 11734      6A656374 
 11735              	.LASF24:
 11736 0a4b 63686172 		.ascii	"char\000"
 11736      00
 11737              	.LASF147:
 11738 0a50 7072696F 		.ascii	"priority\000"
 11738      72697479 
 11738      00
 11739              	.LASF166:
 11740 0a59 66697273 		.ascii	"firstFreeObjectDataTableIndex\000"
 11740      74467265 
 11740      654F626A 
 11740      65637444 
 11740      61746154 
 11741              	.LASF7:
 11742 0a77 5F5F7569 		.ascii	"__uint16_t\000"
 11742      6E743136 
 11742      5F7400
 11743              	.LASF131:
 11744 0a82 62797465 		.ascii	"bytesToTransfer\000"
 11744      73546F54 
 11744      72616E73 
 11744      66657200 
 11745              	.LASF106:
 11746 0a92 70727654 		.ascii	"prvTraceStoreHeader\000"
 11746      72616365 
 11746      53746F72 
 11746      65486561 
 11746      64657200 
 11747              	.LASF72:
 11748 0aa6 696E6465 		.ascii	"index\000"
 11748      7800
 11749              	.LASF190:
 11750 0aac 546F7461 		.ascii	"TotalBytesRemaining\000"
 11750      6C427974 
 11750      65735265 
 11750      6D61696E 
 11750      696E6700 
 11751              	.LASF158:
 11752 0ac0 70727654 		.ascii	"prvTraceStoreEvent3\000"
 11752      72616365 
 11752      53746F72 
 11752      65457665 
 11752      6E743300 
 11753              	.LASF145:
 11754 0ad4 78547261 		.ascii	"xTraceRegisterString\000"
 11754      63655265 
 11754      67697374 
 11754      65725374 
 11754      72696E67 
 11755              	.LASF89:
 11756 0ae9 66696C74 		.ascii	"filterGroup\000"
 11756      65724772 
 11756      6F757000 
 11757              	.LASF58:
 11758 0af5 50534648 		.ascii	"PSFHeaderInfo\000"
 11758      65616465 
ARM GAS  C:\Users\robom\AppData\Local\Temp\ccqs2S2W.s 			page 263


 11758      72496E66 
 11758      6F00
 11759              	.LASF57:
 11760 0b03 6F626A65 		.ascii	"objectDataCount\000"
 11760      63744461 
 11760      7461436F 
 11760      756E7400 
 11761              	.LASF115:
 11762 0b13 6F666673 		.ascii	"offset\000"
 11762      657400
 11763              	.LASF43:
 11764 0b1a 4576656E 		.ascii	"EventCount\000"
 11764      74436F75 
 11764      6E7400
 11765              	.LASF59:
 11766 0b25 5F5F6170 		.ascii	"__ap\000"
 11766      00
 11767              	.LASF110:
 11768 0b2a 70727654 		.ascii	"prvTraceStoreSimpleStringEventHelper\000"
 11768      72616365 
 11768      53746F72 
 11768      6553696D 
 11768      706C6553 
 11769              	.LASF16:
 11770 0b4f 696E7438 		.ascii	"int8_t\000"
 11770      5F7400
 11771              	.LASF31:
 11772 0b56 74726163 		.ascii	"traceString\000"
 11772      65537472 
 11772      696E6700 
 11773              	.LASF197:
 11774 0b62 74726355 		.ascii	"trcUARTTransmit\000"
 11774      41525454 
 11774      72616E73 
 11774      6D697400 
 11775              	.LASF97:
 11776 0b72 6C617374 		.ascii	"lastEntryPtr\000"
 11776      456E7472 
 11776      79507472 
 11776      00
 11777              	.LASF71:
 11778 0b7f 50616765 		.ascii	"PageType\000"
 11778      54797065 
 11778      00
 11779              	.LASF86:
 11780 0b88 76547261 		.ascii	"vTraceSetFilterMask\000"
 11780      63655365 
 11780      7446696C 
 11780      7465724D 
 11780      61736B00 
 11781              	.LASF123:
 11782 0b9c 70727654 		.ascii	"prvTraceStoreWarnings\000"
 11782      72616365 
 11782      53746F72 
 11782      65576172 
 11782      6E696E67 
 11783              	.LASF135:
ARM GAS  C:\Users\robom\AppData\Local\Temp\ccqs2S2W.s 			page 264


 11784 0bb2 6973456E 		.ascii	"isEnabled\000"
 11784      61626C65 
 11784      6400
 11785              	.LASF117:
 11786 0bbc 62797465 		.ascii	"bytesTruncated\000"
 11786      73547275 
 11786      6E636174 
 11786      656400
 11787              	.LASF178:
 11788 0bcb 45455F49 		.ascii	"EE_IRQ_nesting_level\000"
 11788      52515F6E 
 11788      65737469 
 11788      6E675F6C 
 11788      6576656C 
 11789              	.LASF80:
 11790 0be0 62797465 		.ascii	"bytesUsed\000"
 11790      73557365 
 11790      6400
 11791              	.LASF101:
 11792 0bea 70727649 		.ascii	"prvIsValidCommand\000"
 11792      7356616C 
 11792      6964436F 
 11792      6D6D616E 
 11792      6400
 11793              	.LASF141:
 11794 0bfc 76547261 		.ascii	"vTracePrintF\000"
 11794      63655072 
 11794      696E7446 
 11794      00
 11795              	.LASF26:
 11796 0c09 45455F49 		.ascii	"EE_INT32\000"
 11796      4E543332 
 11796      00
 11797              	.LASF182:
 11798 0c12 43757272 		.ascii	"CurrentFilterGroup\000"
 11798      656E7446 
 11798      696C7465 
 11798      7247726F 
 11798      757000
 11799              	.LASF17:
 11800 0c25 75696E74 		.ascii	"uint8_t\000"
 11800      385F7400 
 11801              	.LASF127:
 11802 0c2d 70727650 		.ascii	"prvPagedEventBufferTransfer\000"
 11802      61676564 
 11802      4576656E 
 11802      74427566 
 11802      66657254 
 11803              	.LASF33:
 11804 0c49 636D6443 		.ascii	"cmdCode\000"
 11804      6F646500 
 11805              	.LASF150:
 11806 0c51 76547261 		.ascii	"vTraceInstanceFinishedNext\000"
 11806      6365496E 
 11806      7374616E 
 11806      63654669 
 11806      6E697368 
ARM GAS  C:\Users\robom\AppData\Local\Temp\ccqs2S2W.s 			page 265


 11807              	.LASF87:
 11808 0c6c 66696C74 		.ascii	"filterMask\000"
 11808      65724D61 
 11808      736B00
 11809              	.LASF180:
 11810 0c77 5F547A54 		.ascii	"_TzTraceData\000"
 11810      72616365 
 11810      44617461 
 11810      00
 11811              	.LASF108:
 11812 0c84 70727654 		.ascii	"prvTraceStoreSymbolTable\000"
 11812      72616365 
 11812      53746F72 
 11812      6553796D 
 11812      626F6C54 
 11813              	.LASF75:
 11814 0c9d 70616765 		.ascii	"pageIndex\000"
 11814      496E6465 
 11814      7800
 11815              	.LASF172:
 11816 0ca7 466F726D 		.ascii	"FormatVersion\000"
 11816      61745665 
 11816      7273696F 
 11816      6E00
 11817              	.LASF188:
 11818 0cb5 44726F70 		.ascii	"DroppedEventCounter\000"
 11818      70656445 
 11818      76656E74 
 11818      436F756E 
 11818      74657200 
 11819              	.LASF146:
 11820 0cc9 78547261 		.ascii	"xTraceSetISRProperties\000"
 11820      63655365 
 11820      74495352 
 11820      50726F70 
 11820      65727469 
 11821              	.LASF46:
 11822 0ce0 4576656E 		.ascii	"EventWithParam_1\000"
 11822      74576974 
 11822      68506172 
 11822      616D5F31 
 11822      00
 11823              	.LASF68:
 11824 0cf1 53746174 		.ascii	"Status\000"
 11824      757300
 11825              	.LASF159:
 11826 0cf8 70727654 		.ascii	"prvTraceStoreEvent\000"
 11826      72616365 
 11826      53746F72 
 11826      65457665 
 11826      6E7400
 11827              	.LASF126:
 11828 0d0b 65727243 		.ascii	"errCode\000"
 11828      6F646500 
 11829              	.LASF183:
 11830 0d13 5265636F 		.ascii	"RecorderEnabled\000"
 11830      72646572 
ARM GAS  C:\Users\robom\AppData\Local\Temp\ccqs2S2W.s 			page 266


 11830      456E6162 
 11830      6C656400 
 11831              	.LASF35:
 11832 0d23 70617261 		.ascii	"param2\000"
 11832      6D3200
 11833              	.LASF62:
 11834 0d2a 53796D62 		.ascii	"SymbolTableBuffer\000"
 11834      6F6C5461 
 11834      626C6542 
 11834      75666665 
 11834      7200
 11835              	.LASF76:
 11836 0d3c 72657375 		.ascii	"result\000"
 11836      6C7400
 11837              	.LASF107:
 11838 0d43 68656164 		.ascii	"header\000"
 11838      657200
 11839              	.LASF95:
 11840 0d4a 70747253 		.ascii	"ptrSymbol\000"
 11840      796D626F 
 11840      6C00
 11841              	.LASF29:
 11842 0d54 45455F46 		.ascii	"EE_FREG\000"
 11842      52454700 
 11843              		.ident	"GCC: (GNU Tools for ARM Embedded Processors) 5.4.1 20160609 (release) [ARM/embedded-5-bran
