ARM GAS  C:\Users\MATEOC~1.QUE\AppData\Local\Temp\ccWWTlSx.s 			page 1


   1              		.syntax unified
   2              		.cpu cortex-m3
   3              		.fpu softvfp
   4              		.eabi_attribute 20, 1
   5              		.eabi_attribute 21, 1
   6              		.eabi_attribute 23, 3
   7              		.eabi_attribute 24, 1
   8              		.eabi_attribute 25, 1
   9              		.eabi_attribute 26, 1
  10              		.eabi_attribute 30, 1
  11              		.eabi_attribute 34, 1
  12              		.eabi_attribute 18, 4
  13              		.thumb
  14              		.syntax unified
  15              		.file	"trcStreamingPort.c"
  16              		.text
  17              	.Ltext0:
  18              		.cfi_sections	.debug_frame
  19              		.section	.text.trcUART_init,"ax",%progbits
  20              		.align	2
  21              		.global	trcUART_init
  22              		.thumb
  23              		.thumb_func
  24              		.type	trcUART_init, %function
  25              	trcUART_init:
  26              	.LFB110:
  27              		.file 1 "source\\bsw\\TraceRecorder\\streamport\\trcStreamingPort.c"
   1:source\bsw\TraceRecorder\streamport/trcStreamingPort.c **** /**
   2:source\bsw\TraceRecorder\streamport/trcStreamingPort.c ****  * \file 	trcStreamingPort.c
   3:source\bsw\TraceRecorder\streamport/trcStreamingPort.c ****  * \author	Sandeep Raju 				Hochschule Darmstadt - sandeep.raju@stud.h-da.de
   4:source\bsw\TraceRecorder\streamport/trcStreamingPort.c ****  * \author	Sameera Chilmattur 			Hochschule Darmstadt - sameera.b.r.chilmattur@stud.h-da.de
   5:source\bsw\TraceRecorder\streamport/trcStreamingPort.c ****  * \author	Thomas Barth 				Hochschule Darmstadt - thomas.barth@h-da.de
   6:source\bsw\TraceRecorder\streamport/trcStreamingPort.c ****  * \date 	03.05.2019
   7:source\bsw\TraceRecorder\streamport/trcStreamingPort.c ****  *
   8:source\bsw\TraceRecorder\streamport/trcStreamingPort.c ****  * \brief 	Streaming Port implementation for percepio tracealyzer
   9:source\bsw\TraceRecorder\streamport/trcStreamingPort.c ****  *
  10:source\bsw\TraceRecorder\streamport/trcStreamingPort.c ****  *
  11:source\bsw\TraceRecorder\streamport/trcStreamingPort.c ****  * ----- Changelog -----
  12:source\bsw\TraceRecorder\streamport/trcStreamingPort.c ****  * 
  13:source\bsw\TraceRecorder\streamport/trcStreamingPort.c ****  *
  14:source\bsw\TraceRecorder\streamport/trcStreamingPort.c ****  * \copyright Copyright 2019
  15:source\bsw\TraceRecorder\streamport/trcStreamingPort.c ****  * Department of electrical engineering and information technology, Hochschule Darmstadt - Universi
  16:source\bsw\TraceRecorder\streamport/trcStreamingPort.c ****  * Permission to use, copy, modify, and distribute this software and its documentation for educatio
  17:source\bsw\TraceRecorder\streamport/trcStreamingPort.c ****  * (unless permitted by h_da) and official h_da projects, is hereby granted for enrolled students o
  18:source\bsw\TraceRecorder\streamport/trcStreamingPort.c ****  * this paragraph and the following paragraph appear in all copies, modifications, and distribution
  19:source\bsw\TraceRecorder\streamport/trcStreamingPort.c ****  * Contact Prof.Dr.-Ing. Peter Fromm, peter.fromm@h-da.de, Birkenweg 8 64295 Darmstadt - GERMANY fo
  20:source\bsw\TraceRecorder\streamport/trcStreamingPort.c ****  *
  21:source\bsw\TraceRecorder\streamport/trcStreamingPort.c ****  * \warning This software is a PROTOTYPE version and is not designed or intended for use in product
  22:source\bsw\TraceRecorder\streamport/trcStreamingPort.c ****  * The user represents and warrants that it will NOT use or redistribute the Software for such purp
  23:source\bsw\TraceRecorder\streamport/trcStreamingPort.c ****  * This prototype is for research purposes only. This software is provided "AS IS," without a warra
  24:source\bsw\TraceRecorder\streamport/trcStreamingPort.c ****  */
  25:source\bsw\TraceRecorder\streamport/trcStreamingPort.c **** 
  26:source\bsw\TraceRecorder\streamport/trcStreamingPort.c **** /*=======================[ includes ]==============================================================
  27:source\bsw\TraceRecorder\streamport/trcStreamingPort.c **** #include "trcRecorder.h"
  28:source\bsw\TraceRecorder\streamport/trcStreamingPort.c **** #include "trcStreamingPort.h"
  29:source\bsw\TraceRecorder\streamport/trcStreamingPort.c **** 
  30:source\bsw\TraceRecorder\streamport/trcStreamingPort.c **** /*=======================[ enable ]================================================================
ARM GAS  C:\Users\MATEOC~1.QUE\AppData\Local\Temp\ccWWTlSx.s 			page 2


  31:source\bsw\TraceRecorder\streamport/trcStreamingPort.c **** #if (TRC_USE_TRACEALYZER_RECORDER == 1)
  32:source\bsw\TraceRecorder\streamport/trcStreamingPort.c **** #if(TRC_CFG_RECORDER_MODE == TRC_RECORDER_MODE_STREAMING)
  33:source\bsw\TraceRecorder\streamport/trcStreamingPort.c **** 
  34:source\bsw\TraceRecorder\streamport/trcStreamingPort.c **** /*=======================[ implementation ]========================================================
  35:source\bsw\TraceRecorder\streamport/trcStreamingPort.c ****     
  36:source\bsw\TraceRecorder\streamport/trcStreamingPort.c **** void trcUART_init(void){
  28              		.loc 1 36 0
  29              		.cfi_startproc
  30              		@ args = 0, pretend = 0, frame = 0
  31              		@ frame_needed = 0, uses_anonymous_args = 0
  32 0000 08B5     		push	{r3, lr}
  33              		.cfi_def_cfa_offset 8
  34              		.cfi_offset 3, -8
  35              		.cfi_offset 14, -4
  37:source\bsw\TraceRecorder\streamport/trcStreamingPort.c **** 
  38:source\bsw\TraceRecorder\streamport/trcStreamingPort.c **** #if (TRACEPORT==PORT_UART)
  39:source\bsw\TraceRecorder\streamport/trcStreamingPort.c ****     UART_LOG_Start();
  40:source\bsw\TraceRecorder\streamport/trcStreamingPort.c **** #endif
  41:source\bsw\TraceRecorder\streamport/trcStreamingPort.c **** 
  42:source\bsw\TraceRecorder\streamport/trcStreamingPort.c **** #if (TRACEPORT==PORT_USB)
  43:source\bsw\TraceRecorder\streamport/trcStreamingPort.c ****     //start USB
  44:source\bsw\TraceRecorder\streamport/trcStreamingPort.c ****     USBUART_Start(0, USBUART_5V_OPERATION);
  36              		.loc 1 44 0
  37 0002 0121     		movs	r1, #1
  38 0004 0020     		movs	r0, #0
  39 0006 FFF7FEFF 		bl	USBUART_Start
  40              	.LVL0:
  45:source\bsw\TraceRecorder\streamport/trcStreamingPort.c ****     
  46:source\bsw\TraceRecorder\streamport/trcStreamingPort.c ****     //check if USB is connected
  47:source\bsw\TraceRecorder\streamport/trcStreamingPort.c ****     if(0!=USBUART_GetConfiguration()){
  41              		.loc 1 47 0
  42 000a FFF7FEFF 		bl	USBUART_GetConfiguration
  43              	.LVL1:
  44 000e 08B1     		cbz	r0, .L1
  48:source\bsw\TraceRecorder\streamport/trcStreamingPort.c ****         
  49:source\bsw\TraceRecorder\streamport/trcStreamingPort.c ****         //Init CDC (communications device class)
  50:source\bsw\TraceRecorder\streamport/trcStreamingPort.c ****         USBUART_CDC_Init();
  45              		.loc 1 50 0
  46 0010 FFF7FEFF 		bl	USBUART_CDC_Init
  47              	.LVL2:
  48              	.L1:
  49 0014 08BD     		pop	{r3, pc}
  50              		.cfi_endproc
  51              	.LFE110:
  52              		.size	trcUART_init, .-trcUART_init
  53 0016 00BF     		.section	.text.trcUARTReceive,"ax",%progbits
  54              		.align	2
  55              		.global	trcUARTReceive
  56              		.thumb
  57              		.thumb_func
  58              		.type	trcUARTReceive, %function
  59              	trcUARTReceive:
  60              	.LFB111:
  51:source\bsw\TraceRecorder\streamport/trcStreamingPort.c ****     };
  52:source\bsw\TraceRecorder\streamport/trcStreamingPort.c ****     
  53:source\bsw\TraceRecorder\streamport/trcStreamingPort.c **** #endif
  54:source\bsw\TraceRecorder\streamport/trcStreamingPort.c **** }
ARM GAS  C:\Users\MATEOC~1.QUE\AppData\Local\Temp\ccWWTlSx.s 			page 3


  55:source\bsw\TraceRecorder\streamport/trcStreamingPort.c **** 
  56:source\bsw\TraceRecorder\streamport/trcStreamingPort.c **** int32_t trcUARTReceive(uint8_t* p_data, uint32_t size, int32_t* p_NumBytes){
  61              		.loc 1 56 0
  62              		.cfi_startproc
  63              		@ args = 0, pretend = 0, frame = 0
  64              		@ frame_needed = 0, uses_anonymous_args = 0
  65              	.LVL3:
  66 0000 38B5     		push	{r3, r4, r5, lr}
  67              		.cfi_def_cfa_offset 16
  68              		.cfi_offset 3, -16
  69              		.cfi_offset 4, -12
  70              		.cfi_offset 5, -8
  71              		.cfi_offset 14, -4
  72 0002 0546     		mov	r5, r0
  73 0004 1446     		mov	r4, r2
  57:source\bsw\TraceRecorder\streamport/trcStreamingPort.c ****     
  58:source\bsw\TraceRecorder\streamport/trcStreamingPort.c **** #if (TRACEPORT==PORT_UART)
  59:source\bsw\TraceRecorder\streamport/trcStreamingPort.c ****     //byte iterator
  60:source\bsw\TraceRecorder\streamport/trcStreamingPort.c **** 	uint32_t i;
  61:source\bsw\TraceRecorder\streamport/trcStreamingPort.c ****     
  62:source\bsw\TraceRecorder\streamport/trcStreamingPort.c ****     //read number of bytes waiting in the RX FIFO
  63:source\bsw\TraceRecorder\streamport/trcStreamingPort.c ****     uint32_t bytesInBuffer=UART_LOG_GetRxBufferSize();
  64:source\bsw\TraceRecorder\streamport/trcStreamingPort.c ****    
  65:source\bsw\TraceRecorder\streamport/trcStreamingPort.c ****     //check if there is any data
  66:source\bsw\TraceRecorder\streamport/trcStreamingPort.c **** 	if(bytesInBuffer>0)	{
  67:source\bsw\TraceRecorder\streamport/trcStreamingPort.c ****         
  68:source\bsw\TraceRecorder\streamport/trcStreamingPort.c ****         //check if the number of bytes received exceeds the storage provided by the trace lib
  69:source\bsw\TraceRecorder\streamport/trcStreamingPort.c **** 		if (bytesInBuffer <= size){
  70:source\bsw\TraceRecorder\streamport/trcStreamingPort.c ****             
  71:source\bsw\TraceRecorder\streamport/trcStreamingPort.c ****             //copy bytes from RX FIFO to tracealyzer container
  72:source\bsw\TraceRecorder\streamport/trcStreamingPort.c ****             for(i=0;i<bytesInBuffer;i++)
  73:source\bsw\TraceRecorder\streamport/trcStreamingPort.c ****                 p_data[i]=UART_LOG_GetByte();
  74:source\bsw\TraceRecorder\streamport/trcStreamingPort.c **** 
  75:source\bsw\TraceRecorder\streamport/trcStreamingPort.c ****             //update number of bytes received
  76:source\bsw\TraceRecorder\streamport/trcStreamingPort.c **** 			*p_NumBytes=bytesInBuffer;
  77:source\bsw\TraceRecorder\streamport/trcStreamingPort.c **** 		}
  78:source\bsw\TraceRecorder\streamport/trcStreamingPort.c ****         //number of bytes exceeds memory provided by the trace lib
  79:source\bsw\TraceRecorder\streamport/trcStreamingPort.c **** 		else{
  80:source\bsw\TraceRecorder\streamport/trcStreamingPort.c **** 		            
  81:source\bsw\TraceRecorder\streamport/trcStreamingPort.c ****             //copy bytes from RX FIFO to tracealyzer container
  82:source\bsw\TraceRecorder\streamport/trcStreamingPort.c ****             for(i=0;i<size;i++)
  83:source\bsw\TraceRecorder\streamport/trcStreamingPort.c ****                 p_data[i]=UART_LOG_GetByte();
  84:source\bsw\TraceRecorder\streamport/trcStreamingPort.c ****                 
  85:source\bsw\TraceRecorder\streamport/trcStreamingPort.c ****             //update number of bytes received
  86:source\bsw\TraceRecorder\streamport/trcStreamingPort.c ****             *p_NumBytes=size;
  87:source\bsw\TraceRecorder\streamport/trcStreamingPort.c **** 		}
  88:source\bsw\TraceRecorder\streamport/trcStreamingPort.c **** 	}
  89:source\bsw\TraceRecorder\streamport/trcStreamingPort.c **** 	else{
  90:source\bsw\TraceRecorder\streamport/trcStreamingPort.c **** 		//update number of bytes received
  91:source\bsw\TraceRecorder\streamport/trcStreamingPort.c ****         *p_NumBytes=0;
  92:source\bsw\TraceRecorder\streamport/trcStreamingPort.c **** 	}
  93:source\bsw\TraceRecorder\streamport/trcStreamingPort.c **** #endif   
  94:source\bsw\TraceRecorder\streamport/trcStreamingPort.c ****     
  95:source\bsw\TraceRecorder\streamport/trcStreamingPort.c **** #if (TRACEPORT==PORT_USB)
  96:source\bsw\TraceRecorder\streamport/trcStreamingPort.c ****     //check if the USB state changed
  97:source\bsw\TraceRecorder\streamport/trcStreamingPort.c ****     if (0u != USBUART_IsConfigurationChanged()){
  74              		.loc 1 97 0
ARM GAS  C:\Users\MATEOC~1.QUE\AppData\Local\Temp\ccWWTlSx.s 			page 4


  75 0006 FFF7FEFF 		bl	USBUART_IsConfigurationChanged
  76              	.LVL4:
  77 000a 20B1     		cbz	r0, .L5
  98:source\bsw\TraceRecorder\streamport/trcStreamingPort.c ****         
  99:source\bsw\TraceRecorder\streamport/trcStreamingPort.c ****         // Initialize IN endpoints when device is configured.
 100:source\bsw\TraceRecorder\streamport/trcStreamingPort.c ****         if (0u != USBUART_GetConfiguration()){
  78              		.loc 1 100 0
  79 000c FFF7FEFF 		bl	USBUART_GetConfiguration
  80              	.LVL5:
  81 0010 08B1     		cbz	r0, .L5
 101:source\bsw\TraceRecorder\streamport/trcStreamingPort.c ****             //Enumeration is done, enable OUT endpoint to receive data from host.
 102:source\bsw\TraceRecorder\streamport/trcStreamingPort.c ****             USBUART_CDC_Init();
  82              		.loc 1 102 0
  83 0012 FFF7FEFF 		bl	USBUART_CDC_Init
  84              	.LVL6:
  85              	.L5:
 103:source\bsw\TraceRecorder\streamport/trcStreamingPort.c ****         }
 104:source\bsw\TraceRecorder\streamport/trcStreamingPort.c ****     }
 105:source\bsw\TraceRecorder\streamport/trcStreamingPort.c ****     
 106:source\bsw\TraceRecorder\streamport/trcStreamingPort.c ****     //check if USB is connected
 107:source\bsw\TraceRecorder\streamport/trcStreamingPort.c ****     if(0!=USBUART_GetConfiguration()){
  86              		.loc 1 107 0
  87 0016 FFF7FEFF 		bl	USBUART_GetConfiguration
  88              	.LVL7:
  89 001a 50B1     		cbz	r0, .L6
 108:source\bsw\TraceRecorder\streamport/trcStreamingPort.c ****                 
 109:source\bsw\TraceRecorder\streamport/trcStreamingPort.c ****         //check if there is data waiting for us
 110:source\bsw\TraceRecorder\streamport/trcStreamingPort.c ****         if (0u != USBUART_DataIsReady()){
  90              		.loc 1 110 0
  91 001c FFF7FEFF 		bl	USBUART_DataIsReady
  92              	.LVL8:
  93 0020 20B1     		cbz	r0, .L7
 111:source\bsw\TraceRecorder\streamport/trcStreamingPort.c ****             
 112:source\bsw\TraceRecorder\streamport/trcStreamingPort.c ****             //read bytes from the RX buffer. Partial read is not supported (size argument is ignore
 113:source\bsw\TraceRecorder\streamport/trcStreamingPort.c ****             (void)size;
 114:source\bsw\TraceRecorder\streamport/trcStreamingPort.c ****             *p_NumBytes=USBUART_GetAll(p_data);
  94              		.loc 1 114 0
  95 0022 2846     		mov	r0, r5
  96 0024 FFF7FEFF 		bl	USBUART_GetAll
  97              	.LVL9:
  98 0028 2060     		str	r0, [r4]
  99 002a 04E0     		b	.L8
 100              	.L7:
 115:source\bsw\TraceRecorder\streamport/trcStreamingPort.c ****             
 116:source\bsw\TraceRecorder\streamport/trcStreamingPort.c ****         }else{  //no data
 117:source\bsw\TraceRecorder\streamport/trcStreamingPort.c ****             *p_NumBytes=0;
 101              		.loc 1 117 0
 102 002c 0023     		movs	r3, #0
 103 002e 2360     		str	r3, [r4]
 104 0030 01E0     		b	.L8
 105              	.L6:
 118:source\bsw\TraceRecorder\streamport/trcStreamingPort.c ****         }
 119:source\bsw\TraceRecorder\streamport/trcStreamingPort.c ****     }else{  //USB disconnected
 120:source\bsw\TraceRecorder\streamport/trcStreamingPort.c ****         *p_NumBytes=0;
 106              		.loc 1 120 0
 107 0032 0023     		movs	r3, #0
 108 0034 2360     		str	r3, [r4]
ARM GAS  C:\Users\MATEOC~1.QUE\AppData\Local\Temp\ccWWTlSx.s 			page 5


 109              	.L8:
 121:source\bsw\TraceRecorder\streamport/trcStreamingPort.c ****     }
 122:source\bsw\TraceRecorder\streamport/trcStreamingPort.c **** 
 123:source\bsw\TraceRecorder\streamport/trcStreamingPort.c **** #endif
 124:source\bsw\TraceRecorder\streamport/trcStreamingPort.c ****     
 125:source\bsw\TraceRecorder\streamport/trcStreamingPort.c **** 	return 0;
 126:source\bsw\TraceRecorder\streamport/trcStreamingPort.c **** }
 110              		.loc 1 126 0
 111 0036 0020     		movs	r0, #0
 112 0038 38BD     		pop	{r3, r4, r5, pc}
 113              		.cfi_endproc
 114              	.LFE111:
 115              		.size	trcUARTReceive, .-trcUARTReceive
 116 003a 00BF     		.section	.text.trcUARTTransmit,"ax",%progbits
 117              		.align	2
 118              		.global	trcUARTTransmit
 119              		.thumb
 120              		.thumb_func
 121              		.type	trcUARTTransmit, %function
 122              	trcUARTTransmit:
 123              	.LFB112:
 127:source\bsw\TraceRecorder\streamport/trcStreamingPort.c **** 
 128:source\bsw\TraceRecorder\streamport/trcStreamingPort.c **** int32_t trcUARTTransmit(uint8_t* p_data, uint32_t size, int32_t* p_NumBytes){
 124              		.loc 1 128 0
 125              		.cfi_startproc
 126              		@ args = 0, pretend = 0, frame = 0
 127              		@ frame_needed = 0, uses_anonymous_args = 0
 128              	.LVL10:
 129 0000 70B5     		push	{r4, r5, r6, lr}
 130              		.cfi_def_cfa_offset 16
 131              		.cfi_offset 4, -16
 132              		.cfi_offset 5, -12
 133              		.cfi_offset 6, -8
 134              		.cfi_offset 14, -4
 135 0002 0646     		mov	r6, r0
 136 0004 0D46     		mov	r5, r1
 137 0006 1446     		mov	r4, r2
 129:source\bsw\TraceRecorder\streamport/trcStreamingPort.c ****     
 130:source\bsw\TraceRecorder\streamport/trcStreamingPort.c **** #if (TRACEPORT==PORT_UART)
 131:source\bsw\TraceRecorder\streamport/trcStreamingPort.c ****     //send bytes
 132:source\bsw\TraceRecorder\streamport/trcStreamingPort.c **** 	UART_LOG_PutArray(p_data, size);
 133:source\bsw\TraceRecorder\streamport/trcStreamingPort.c ****     
 134:source\bsw\TraceRecorder\streamport/trcStreamingPort.c ****     //update number of sent bytes
 135:source\bsw\TraceRecorder\streamport/trcStreamingPort.c **** 	*p_NumBytes=size;
 136:source\bsw\TraceRecorder\streamport/trcStreamingPort.c **** #endif
 137:source\bsw\TraceRecorder\streamport/trcStreamingPort.c ****     
 138:source\bsw\TraceRecorder\streamport/trcStreamingPort.c **** #if (TRACEPORT==PORT_USB)
 139:source\bsw\TraceRecorder\streamport/trcStreamingPort.c ****     //check if the USB state changed
 140:source\bsw\TraceRecorder\streamport/trcStreamingPort.c ****     if (0u != USBUART_IsConfigurationChanged()){
 138              		.loc 1 140 0
 139 0008 FFF7FEFF 		bl	USBUART_IsConfigurationChanged
 140              	.LVL11:
 141 000c 20B1     		cbz	r0, .L11
 141:source\bsw\TraceRecorder\streamport/trcStreamingPort.c ****         
 142:source\bsw\TraceRecorder\streamport/trcStreamingPort.c ****         // Initialize IN endpoints when device is configured.
 143:source\bsw\TraceRecorder\streamport/trcStreamingPort.c ****         if (0u != USBUART_GetConfiguration()){
 142              		.loc 1 143 0
ARM GAS  C:\Users\MATEOC~1.QUE\AppData\Local\Temp\ccWWTlSx.s 			page 6


 143 000e FFF7FEFF 		bl	USBUART_GetConfiguration
 144              	.LVL12:
 145 0012 08B1     		cbz	r0, .L11
 144:source\bsw\TraceRecorder\streamport/trcStreamingPort.c ****             //Enumeration is done, enable OUT endpoint to receive data from host.
 145:source\bsw\TraceRecorder\streamport/trcStreamingPort.c ****             USBUART_CDC_Init();
 146              		.loc 1 145 0
 147 0014 FFF7FEFF 		bl	USBUART_CDC_Init
 148              	.LVL13:
 149              	.L11:
 146:source\bsw\TraceRecorder\streamport/trcStreamingPort.c ****         }
 147:source\bsw\TraceRecorder\streamport/trcStreamingPort.c ****     }
 148:source\bsw\TraceRecorder\streamport/trcStreamingPort.c ****     
 149:source\bsw\TraceRecorder\streamport/trcStreamingPort.c ****     //check if USB is connected
 150:source\bsw\TraceRecorder\streamport/trcStreamingPort.c ****     if(0!=USBUART_GetConfiguration()){
 150              		.loc 1 150 0
 151 0018 FFF7FEFF 		bl	USBUART_GetConfiguration
 152              	.LVL14:
 153 001c 80B1     		cbz	r0, .L12
 151:source\bsw\TraceRecorder\streamport/trcStreamingPort.c ****         
 152:source\bsw\TraceRecorder\streamport/trcStreamingPort.c ****         //Init CDC (communications device class)
 153:source\bsw\TraceRecorder\streamport/trcStreamingPort.c ****         USBUART_CDC_Init();
 154              		.loc 1 153 0
 155 001e FFF7FEFF 		bl	USBUART_CDC_Init
 156              	.LVL15:
 154:source\bsw\TraceRecorder\streamport/trcStreamingPort.c ****         
 155:source\bsw\TraceRecorder\streamport/trcStreamingPort.c ****         //check if previous transfers have finished
 156:source\bsw\TraceRecorder\streamport/trcStreamingPort.c ****         if(USBUART_CDCIsReady()!=0){
 157              		.loc 1 156 0
 158 0022 FFF7FEFF 		bl	USBUART_CDCIsReady
 159              	.LVL16:
 160 0026 40B1     		cbz	r0, .L13
 157:source\bsw\TraceRecorder\streamport/trcStreamingPort.c ****             //truncate numer of bytes to be send to 64(limit by USB)
 158:source\bsw\TraceRecorder\streamport/trcStreamingPort.c ****             if(size>64)
 161              		.loc 1 158 0
 162 0028 402D     		cmp	r5, #64
 163 002a 00D9     		bls	.L14
 159:source\bsw\TraceRecorder\streamport/trcStreamingPort.c ****                 size=64;
 164              		.loc 1 159 0
 165 002c 4025     		movs	r5, #64
 166              	.LVL17:
 167              	.L14:
 160:source\bsw\TraceRecorder\streamport/trcStreamingPort.c ****             
 161:source\bsw\TraceRecorder\streamport/trcStreamingPort.c ****             //send data
 162:source\bsw\TraceRecorder\streamport/trcStreamingPort.c ****         	USBUART_PutData(p_data, size);
 168              		.loc 1 162 0
 169 002e A9B2     		uxth	r1, r5
 170 0030 3046     		mov	r0, r6
 171 0032 FFF7FEFF 		bl	USBUART_PutData
 172              	.LVL18:
 163:source\bsw\TraceRecorder\streamport/trcStreamingPort.c ****             
 164:source\bsw\TraceRecorder\streamport/trcStreamingPort.c ****             //update number of sent bytes
 165:source\bsw\TraceRecorder\streamport/trcStreamingPort.c ****         	*p_NumBytes=size;
 173              		.loc 1 165 0
 174 0036 2560     		str	r5, [r4]
 175 0038 04E0     		b	.L15
 176              	.L13:
 166:source\bsw\TraceRecorder\streamport/trcStreamingPort.c ****         }else{ //previous transfer has not been finished yet
ARM GAS  C:\Users\MATEOC~1.QUE\AppData\Local\Temp\ccWWTlSx.s 			page 7


 167:source\bsw\TraceRecorder\streamport/trcStreamingPort.c ****         
 168:source\bsw\TraceRecorder\streamport/trcStreamingPort.c ****             //update number of sent bytes
 169:source\bsw\TraceRecorder\streamport/trcStreamingPort.c ****         	*p_NumBytes=0;
 177              		.loc 1 169 0
 178 003a 0023     		movs	r3, #0
 179 003c 2360     		str	r3, [r4]
 180 003e 01E0     		b	.L15
 181              	.L12:
 170:source\bsw\TraceRecorder\streamport/trcStreamingPort.c ****         }
 171:source\bsw\TraceRecorder\streamport/trcStreamingPort.c ****     }
 172:source\bsw\TraceRecorder\streamport/trcStreamingPort.c ****     else{  //USB disconnected
 173:source\bsw\TraceRecorder\streamport/trcStreamingPort.c ****         *p_NumBytes=0;
 182              		.loc 1 173 0
 183 0040 0023     		movs	r3, #0
 184 0042 2360     		str	r3, [r4]
 185              	.L15:
 174:source\bsw\TraceRecorder\streamport/trcStreamingPort.c ****     }
 175:source\bsw\TraceRecorder\streamport/trcStreamingPort.c **** #endif
 176:source\bsw\TraceRecorder\streamport/trcStreamingPort.c ****     
 177:source\bsw\TraceRecorder\streamport/trcStreamingPort.c ****     //return value is not evaluated
 178:source\bsw\TraceRecorder\streamport/trcStreamingPort.c **** 	return 0;
 179:source\bsw\TraceRecorder\streamport/trcStreamingPort.c **** }
 186              		.loc 1 179 0
 187 0044 0020     		movs	r0, #0
 188 0046 70BD     		pop	{r4, r5, r6, pc}
 189              		.cfi_endproc
 190              	.LFE112:
 191              		.size	trcUARTTransmit, .-trcUARTTransmit
 192              		.text
 193              	.Letext0:
 194              		.file 2 "c:\\program files (x86)\\cypress\\psoc creator\\4.4\\psoc creator\\import\\gnu\\arm\\5.4.
 195              		.file 3 "c:\\program files (x86)\\cypress\\psoc creator\\4.4\\psoc creator\\import\\gnu\\arm\\5.4.
 196              		.file 4 "Generated_Source\\PSoC5/ErikaOS_1_common_ee_types.inc"
 197              		.file 5 "Generated_Source\\PSoC5/ErikaOS_1_cortex_mx_ee_cpu.inc"
 198              		.file 6 "Generated_Source\\PSoC5/ErikaOS_1_ee_oo_intfunc.inc"
 199              		.file 7 "Generated_Source\\PSoC5/ErikaOS_1_cortex_mx_ee_context.inc"
 200              		.file 8 "Generated_Source\\PSoC5/ErikaOS_1_common_ee_primitives.inc"
 201              		.file 9 "Generated_Source\\PSoC5/core_cm3.h"
 202              		.file 10 "Generated_Source\\PSoC5/USBUART.h"
 203              		.file 11 "Generated_Source\\PSoC5/USBUART_cdc.h"