ARM GAS  C:\Users\MATEOC~1.QUE\AppData\Local\Temp\ccKG6PD9.s 			page 1


   1              		.syntax unified
   2              		.cpu cortex-m3
   3              		.fpu softvfp
   4              		.eabi_attribute 20, 1
   5              		.eabi_attribute 21, 1
   6              		.eabi_attribute 23, 3
   7              		.eabi_attribute 24, 1
   8              		.eabi_attribute 25, 1
   9              		.eabi_attribute 26, 1
  10              		.eabi_attribute 30, 1
  11              		.eabi_attribute 34, 1
  12              		.eabi_attribute 18, 4
  13              		.thumb
  14              		.syntax unified
  15              		.file	"cyfitter_cfg.c"
  16              		.text
  17              	.Ltext0:
  18              		.cfi_sections	.debug_frame
  19              		.section	.text.CyClockStartupError,"ax",%progbits
  20              		.align	2
  21              		.thumb
  22              		.thumb_func
  23              		.type	CyClockStartupError, %function
  24              	CyClockStartupError:
  25              	.LFB3:
  26              		.file 1 "Generated_Source\\PSoC5\\cyfitter_cfg.c"
   1:Generated_Source\PSoC5/cyfitter_cfg.c **** 
   2:Generated_Source\PSoC5/cyfitter_cfg.c **** /*******************************************************************************
   3:Generated_Source\PSoC5/cyfitter_cfg.c **** * File Name: cyfitter_cfg.c
   4:Generated_Source\PSoC5/cyfitter_cfg.c **** * 
   5:Generated_Source\PSoC5/cyfitter_cfg.c **** * PSoC Creator  4.4
   6:Generated_Source\PSoC5/cyfitter_cfg.c **** *
   7:Generated_Source\PSoC5/cyfitter_cfg.c **** * Description:
   8:Generated_Source\PSoC5/cyfitter_cfg.c **** * This file contains device initialization code.
   9:Generated_Source\PSoC5/cyfitter_cfg.c **** * Except for the user defined sections in CyClockStartupError(), this file should not be modified.
  10:Generated_Source\PSoC5/cyfitter_cfg.c **** * This file is automatically generated by PSoC Creator.
  11:Generated_Source\PSoC5/cyfitter_cfg.c **** *
  12:Generated_Source\PSoC5/cyfitter_cfg.c **** ********************************************************************************
  13:Generated_Source\PSoC5/cyfitter_cfg.c **** * Copyright (c) 2007-2020 Cypress Semiconductor.  All rights reserved.
  14:Generated_Source\PSoC5/cyfitter_cfg.c **** * You may use this file only in accordance with the license, terms, conditions, 
  15:Generated_Source\PSoC5/cyfitter_cfg.c **** * disclaimers, and limitations in the end user license agreement accompanying 
  16:Generated_Source\PSoC5/cyfitter_cfg.c **** * the software package with which this file was provided.
  17:Generated_Source\PSoC5/cyfitter_cfg.c **** ********************************************************************************/
  18:Generated_Source\PSoC5/cyfitter_cfg.c **** 
  19:Generated_Source\PSoC5/cyfitter_cfg.c **** #include <string.h>
  20:Generated_Source\PSoC5/cyfitter_cfg.c **** #include "cytypes.h"
  21:Generated_Source\PSoC5/cyfitter_cfg.c **** #include "cydevice_trm.h"
  22:Generated_Source\PSoC5/cyfitter_cfg.c **** #include "cyfitter.h"
  23:Generated_Source\PSoC5/cyfitter_cfg.c **** #include "CyLib.h"
  24:Generated_Source\PSoC5/cyfitter_cfg.c **** #include "cyfitter_cfg.h"
  25:Generated_Source\PSoC5/cyfitter_cfg.c **** #include "cyapicallbacks.h"
  26:Generated_Source\PSoC5/cyfitter_cfg.c **** 
  27:Generated_Source\PSoC5/cyfitter_cfg.c **** #define CY_NEED_CYCLOCKSTARTUPERROR 1
  28:Generated_Source\PSoC5/cyfitter_cfg.c **** 
  29:Generated_Source\PSoC5/cyfitter_cfg.c **** 
  30:Generated_Source\PSoC5/cyfitter_cfg.c **** #if defined(__GNUC__) || defined(__ARMCC_VERSION)
  31:Generated_Source\PSoC5/cyfitter_cfg.c ****     #define CYPACKED 
ARM GAS  C:\Users\MATEOC~1.QUE\AppData\Local\Temp\ccKG6PD9.s 			page 2


  32:Generated_Source\PSoC5/cyfitter_cfg.c ****     #define CYPACKED_ATTR __attribute__ ((packed))
  33:Generated_Source\PSoC5/cyfitter_cfg.c ****     #define CYALIGNED __attribute__ ((aligned))
  34:Generated_Source\PSoC5/cyfitter_cfg.c ****     #define CY_CFG_UNUSED __attribute__ ((unused))
  35:Generated_Source\PSoC5/cyfitter_cfg.c ****     #ifndef CY_CFG_SECTION
  36:Generated_Source\PSoC5/cyfitter_cfg.c ****         #define CY_CFG_SECTION __attribute__ ((section(".psocinit")))
  37:Generated_Source\PSoC5/cyfitter_cfg.c ****     #endif
  38:Generated_Source\PSoC5/cyfitter_cfg.c ****     
  39:Generated_Source\PSoC5/cyfitter_cfg.c ****     #if defined(__ARMCC_VERSION)
  40:Generated_Source\PSoC5/cyfitter_cfg.c ****         #define CY_CFG_MEMORY_BARRIER() __memory_changed()
  41:Generated_Source\PSoC5/cyfitter_cfg.c ****     #else
  42:Generated_Source\PSoC5/cyfitter_cfg.c ****         #define CY_CFG_MEMORY_BARRIER() __sync_synchronize()
  43:Generated_Source\PSoC5/cyfitter_cfg.c ****     #endif
  44:Generated_Source\PSoC5/cyfitter_cfg.c ****     
  45:Generated_Source\PSoC5/cyfitter_cfg.c **** #elif defined(__ICCARM__)
  46:Generated_Source\PSoC5/cyfitter_cfg.c ****     #include <intrinsics.h>
  47:Generated_Source\PSoC5/cyfitter_cfg.c **** 
  48:Generated_Source\PSoC5/cyfitter_cfg.c ****     #define CYPACKED __packed
  49:Generated_Source\PSoC5/cyfitter_cfg.c ****     #define CYPACKED_ATTR 
  50:Generated_Source\PSoC5/cyfitter_cfg.c ****     #define CYALIGNED _Pragma("data_alignment=4")
  51:Generated_Source\PSoC5/cyfitter_cfg.c ****     #define CY_CFG_UNUSED _Pragma("diag_suppress=Pe177")
  52:Generated_Source\PSoC5/cyfitter_cfg.c ****     #define CY_CFG_SECTION _Pragma("location=\".psocinit\"")
  53:Generated_Source\PSoC5/cyfitter_cfg.c ****     
  54:Generated_Source\PSoC5/cyfitter_cfg.c ****     #define CY_CFG_MEMORY_BARRIER() __DMB()
  55:Generated_Source\PSoC5/cyfitter_cfg.c ****     
  56:Generated_Source\PSoC5/cyfitter_cfg.c **** #else
  57:Generated_Source\PSoC5/cyfitter_cfg.c ****     #error Unsupported toolchain
  58:Generated_Source\PSoC5/cyfitter_cfg.c **** #endif
  59:Generated_Source\PSoC5/cyfitter_cfg.c **** 
  60:Generated_Source\PSoC5/cyfitter_cfg.c **** #ifndef CYCODE
  61:Generated_Source\PSoC5/cyfitter_cfg.c ****     #define CYCODE
  62:Generated_Source\PSoC5/cyfitter_cfg.c **** #endif
  63:Generated_Source\PSoC5/cyfitter_cfg.c **** #ifndef CYDATA
  64:Generated_Source\PSoC5/cyfitter_cfg.c ****     #define CYDATA
  65:Generated_Source\PSoC5/cyfitter_cfg.c **** #endif
  66:Generated_Source\PSoC5/cyfitter_cfg.c **** #ifndef CYFAR
  67:Generated_Source\PSoC5/cyfitter_cfg.c ****     #define CYFAR
  68:Generated_Source\PSoC5/cyfitter_cfg.c **** #endif
  69:Generated_Source\PSoC5/cyfitter_cfg.c **** #ifndef CYXDATA
  70:Generated_Source\PSoC5/cyfitter_cfg.c ****     #define CYXDATA
  71:Generated_Source\PSoC5/cyfitter_cfg.c **** #endif
  72:Generated_Source\PSoC5/cyfitter_cfg.c **** 
  73:Generated_Source\PSoC5/cyfitter_cfg.c **** 
  74:Generated_Source\PSoC5/cyfitter_cfg.c **** CY_CFG_UNUSED
  75:Generated_Source\PSoC5/cyfitter_cfg.c **** static void CYMEMZERO(void *s, size_t n);
  76:Generated_Source\PSoC5/cyfitter_cfg.c **** CY_CFG_UNUSED
  77:Generated_Source\PSoC5/cyfitter_cfg.c **** static void CYMEMZERO(void *s, size_t n)
  78:Generated_Source\PSoC5/cyfitter_cfg.c **** {
  79:Generated_Source\PSoC5/cyfitter_cfg.c **** 	(void)memset(s, 0, n);
  80:Generated_Source\PSoC5/cyfitter_cfg.c **** }
  81:Generated_Source\PSoC5/cyfitter_cfg.c **** CY_CFG_UNUSED
  82:Generated_Source\PSoC5/cyfitter_cfg.c **** static void CYCONFIGCPY(void *dest, const void *src, size_t n);
  83:Generated_Source\PSoC5/cyfitter_cfg.c **** CY_CFG_UNUSED
  84:Generated_Source\PSoC5/cyfitter_cfg.c **** static void CYCONFIGCPY(void *dest, const void *src, size_t n)
  85:Generated_Source\PSoC5/cyfitter_cfg.c **** {
  86:Generated_Source\PSoC5/cyfitter_cfg.c **** 	(void)memcpy(dest, src, n);
  87:Generated_Source\PSoC5/cyfitter_cfg.c **** }
  88:Generated_Source\PSoC5/cyfitter_cfg.c **** CY_CFG_UNUSED
ARM GAS  C:\Users\MATEOC~1.QUE\AppData\Local\Temp\ccKG6PD9.s 			page 3


  89:Generated_Source\PSoC5/cyfitter_cfg.c **** static void CYCONFIGCPYCODE(void *dest, const void *src, size_t n);
  90:Generated_Source\PSoC5/cyfitter_cfg.c **** CY_CFG_UNUSED
  91:Generated_Source\PSoC5/cyfitter_cfg.c **** static void CYCONFIGCPYCODE(void *dest, const void *src, size_t n)
  92:Generated_Source\PSoC5/cyfitter_cfg.c **** {
  93:Generated_Source\PSoC5/cyfitter_cfg.c **** 	(void)memcpy(dest, src, n);
  94:Generated_Source\PSoC5/cyfitter_cfg.c **** }
  95:Generated_Source\PSoC5/cyfitter_cfg.c **** 
  96:Generated_Source\PSoC5/cyfitter_cfg.c **** 
  97:Generated_Source\PSoC5/cyfitter_cfg.c **** 
  98:Generated_Source\PSoC5/cyfitter_cfg.c **** 
  99:Generated_Source\PSoC5/cyfitter_cfg.c **** /* Clock startup error codes                                                   */
 100:Generated_Source\PSoC5/cyfitter_cfg.c **** #define CYCLOCKSTART_NO_ERROR    0u
 101:Generated_Source\PSoC5/cyfitter_cfg.c **** #define CYCLOCKSTART_XTAL_ERROR  1u
 102:Generated_Source\PSoC5/cyfitter_cfg.c **** #define CYCLOCKSTART_32KHZ_ERROR 2u
 103:Generated_Source\PSoC5/cyfitter_cfg.c **** #define CYCLOCKSTART_PLL_ERROR   3u
 104:Generated_Source\PSoC5/cyfitter_cfg.c **** #define CYCLOCKSTART_FLL_ERROR   4u
 105:Generated_Source\PSoC5/cyfitter_cfg.c **** #define CYCLOCKSTART_WCO_ERROR   5u
 106:Generated_Source\PSoC5/cyfitter_cfg.c **** 
 107:Generated_Source\PSoC5/cyfitter_cfg.c **** 
 108:Generated_Source\PSoC5/cyfitter_cfg.c **** #ifdef CY_NEED_CYCLOCKSTARTUPERROR
 109:Generated_Source\PSoC5/cyfitter_cfg.c **** /*******************************************************************************
 110:Generated_Source\PSoC5/cyfitter_cfg.c **** * Function Name: CyClockStartupError
 111:Generated_Source\PSoC5/cyfitter_cfg.c **** ********************************************************************************
 112:Generated_Source\PSoC5/cyfitter_cfg.c **** * Summary:
 113:Generated_Source\PSoC5/cyfitter_cfg.c **** *  If an error is encountered during clock configuration (crystal startup error,
 114:Generated_Source\PSoC5/cyfitter_cfg.c **** *  PLL lock error, etc.), the system will end up here.  Unless reimplemented by
 115:Generated_Source\PSoC5/cyfitter_cfg.c **** *  the customer, this function will stop in an infinite loop.
 116:Generated_Source\PSoC5/cyfitter_cfg.c **** *
 117:Generated_Source\PSoC5/cyfitter_cfg.c **** * Parameters:
 118:Generated_Source\PSoC5/cyfitter_cfg.c **** *   void
 119:Generated_Source\PSoC5/cyfitter_cfg.c **** *
 120:Generated_Source\PSoC5/cyfitter_cfg.c **** * Return:
 121:Generated_Source\PSoC5/cyfitter_cfg.c **** *   void
 122:Generated_Source\PSoC5/cyfitter_cfg.c **** *
 123:Generated_Source\PSoC5/cyfitter_cfg.c **** *******************************************************************************/
 124:Generated_Source\PSoC5/cyfitter_cfg.c **** CY_CFG_UNUSED
 125:Generated_Source\PSoC5/cyfitter_cfg.c **** static void CyClockStartupError(uint8 errorCode);
 126:Generated_Source\PSoC5/cyfitter_cfg.c **** CY_CFG_UNUSED
 127:Generated_Source\PSoC5/cyfitter_cfg.c **** static void CyClockStartupError(uint8 errorCode)
 128:Generated_Source\PSoC5/cyfitter_cfg.c **** {
  27              		.loc 1 128 0
  28              		.cfi_startproc
  29              		@ Volatile: function does not return.
  30              		@ args = 0, pretend = 0, frame = 0
  31              		@ frame_needed = 0, uses_anonymous_args = 0
  32              		@ link register save eliminated.
  33              	.LVL0:
  34              	.L2:
  35 0000 FEE7     		b	.L2
  36              		.cfi_endproc
  37              	.LFE3:
  38              		.size	CyClockStartupError, .-CyClockStartupError
  39 0002 00BF     		.section	.text.cfg_write_bytes32,"ax",%progbits
  40              		.align	2
  41              		.thumb
  42              		.thumb_func
  43              		.type	cfg_write_bytes32, %function
ARM GAS  C:\Users\MATEOC~1.QUE\AppData\Local\Temp\ccKG6PD9.s 			page 4


  44              	cfg_write_bytes32:
  45              	.LFB4:
 129:Generated_Source\PSoC5/cyfitter_cfg.c ****     /* To remove the compiler warning if errorCode not used.                */
 130:Generated_Source\PSoC5/cyfitter_cfg.c ****     errorCode = errorCode;
 131:Generated_Source\PSoC5/cyfitter_cfg.c **** 
 132:Generated_Source\PSoC5/cyfitter_cfg.c ****     /* If we have a clock startup error (bad MHz crystal, PLL lock, etc.),  */
 133:Generated_Source\PSoC5/cyfitter_cfg.c ****     /* we will end up here to allow the customer to implement something to  */
 134:Generated_Source\PSoC5/cyfitter_cfg.c ****     /* deal with the clock condition.                                       */
 135:Generated_Source\PSoC5/cyfitter_cfg.c **** 
 136:Generated_Source\PSoC5/cyfitter_cfg.c **** #ifdef CY_CFG_CLOCK_STARTUP_ERROR_CALLBACK
 137:Generated_Source\PSoC5/cyfitter_cfg.c ****     CY_CFG_Clock_Startup_ErrorCallback();
 138:Generated_Source\PSoC5/cyfitter_cfg.c **** #else
 139:Generated_Source\PSoC5/cyfitter_cfg.c ****     /*  If not using CY_CFG_CLOCK_STARTUP_ERROR_CALLBACK, place your clock startup code here. */
 140:Generated_Source\PSoC5/cyfitter_cfg.c ****     /* `#START CyClockStartupError` */
 141:Generated_Source\PSoC5/cyfitter_cfg.c **** 
 142:Generated_Source\PSoC5/cyfitter_cfg.c **** 
 143:Generated_Source\PSoC5/cyfitter_cfg.c **** 
 144:Generated_Source\PSoC5/cyfitter_cfg.c ****     /* `#END` */
 145:Generated_Source\PSoC5/cyfitter_cfg.c **** 
 146:Generated_Source\PSoC5/cyfitter_cfg.c ****     while(1) {}
 147:Generated_Source\PSoC5/cyfitter_cfg.c **** #endif /* CY_CFG_CLOCK_STARTUP_ERROR_CALLBACK */
 148:Generated_Source\PSoC5/cyfitter_cfg.c **** }
 149:Generated_Source\PSoC5/cyfitter_cfg.c **** #endif
 150:Generated_Source\PSoC5/cyfitter_cfg.c **** 
 151:Generated_Source\PSoC5/cyfitter_cfg.c **** #define CY_CFG_BASE_ADDR_COUNT 43u
 152:Generated_Source\PSoC5/cyfitter_cfg.c **** CYPACKED typedef struct
 153:Generated_Source\PSoC5/cyfitter_cfg.c **** {
 154:Generated_Source\PSoC5/cyfitter_cfg.c **** 	uint8 offset;
 155:Generated_Source\PSoC5/cyfitter_cfg.c **** 	uint8 value;
 156:Generated_Source\PSoC5/cyfitter_cfg.c **** } CYPACKED_ATTR cy_cfg_addrvalue_t;
 157:Generated_Source\PSoC5/cyfitter_cfg.c **** 
 158:Generated_Source\PSoC5/cyfitter_cfg.c **** #define cy_cfg_addr_table ((const uint32 CYFAR *)0x48000000u)
 159:Generated_Source\PSoC5/cyfitter_cfg.c **** #define cy_cfg_data_table ((const cy_cfg_addrvalue_t CYFAR *)0x480000ACu)
 160:Generated_Source\PSoC5/cyfitter_cfg.c **** 
 161:Generated_Source\PSoC5/cyfitter_cfg.c **** /* UCFG_BCTL0 Address: CYREG_BCTL0_MDCLK_EN Size (bytes): 16 */
 162:Generated_Source\PSoC5/cyfitter_cfg.c **** #define BS_UCFG_BCTL0_VAL ((const uint8 CYFAR *)0x48000DB4u)
 163:Generated_Source\PSoC5/cyfitter_cfg.c **** 
 164:Generated_Source\PSoC5/cyfitter_cfg.c **** /* IOPINS0_0 Address: CYREG_PRT0_DM0 Size (bytes): 8 */
 165:Generated_Source\PSoC5/cyfitter_cfg.c **** #define BS_IOPINS0_0_VAL ((const uint8 CYFAR *)0x48000DC4u)
 166:Generated_Source\PSoC5/cyfitter_cfg.c **** 
 167:Generated_Source\PSoC5/cyfitter_cfg.c **** /* IOPINS0_7 Address: CYREG_PRT12_DR Size (bytes): 10 */
 168:Generated_Source\PSoC5/cyfitter_cfg.c **** #define BS_IOPINS0_7_VAL ((const uint8 CYFAR *)0x48000DCCu)
 169:Generated_Source\PSoC5/cyfitter_cfg.c **** 
 170:Generated_Source\PSoC5/cyfitter_cfg.c **** /* IOPINS0_1 Address: CYREG_PRT1_DM0 Size (bytes): 8 */
 171:Generated_Source\PSoC5/cyfitter_cfg.c **** #define BS_IOPINS0_1_VAL ((const uint8 CYFAR *)0x48000DD8u)
 172:Generated_Source\PSoC5/cyfitter_cfg.c **** 
 173:Generated_Source\PSoC5/cyfitter_cfg.c **** /* IOPINS0_2 Address: CYREG_PRT2_DM0 Size (bytes): 8 */
 174:Generated_Source\PSoC5/cyfitter_cfg.c **** #define BS_IOPINS0_2_VAL ((const uint8 CYFAR *)0x48000DE0u)
 175:Generated_Source\PSoC5/cyfitter_cfg.c **** 
 176:Generated_Source\PSoC5/cyfitter_cfg.c **** /* IOPINS0_3 Address: CYREG_PRT3_DM0 Size (bytes): 8 */
 177:Generated_Source\PSoC5/cyfitter_cfg.c **** #define BS_IOPINS0_3_VAL ((const uint8 CYFAR *)0x48000DE8u)
 178:Generated_Source\PSoC5/cyfitter_cfg.c **** 
 179:Generated_Source\PSoC5/cyfitter_cfg.c **** /* PHUB_CFGMEM1 Address: CYREG_PHUB_CFGMEM1_CFG0 Size (bytes): 4 */
 180:Generated_Source\PSoC5/cyfitter_cfg.c **** #define BS_PHUB_CFGMEM1_VAL ((const uint8 CYFAR *)0x48000DF0u)
 181:Generated_Source\PSoC5/cyfitter_cfg.c **** 
 182:Generated_Source\PSoC5/cyfitter_cfg.c **** 
 183:Generated_Source\PSoC5/cyfitter_cfg.c **** /*******************************************************************************
ARM GAS  C:\Users\MATEOC~1.QUE\AppData\Local\Temp\ccKG6PD9.s 			page 5


 184:Generated_Source\PSoC5/cyfitter_cfg.c **** * Function Name: cfg_write_bytes32
 185:Generated_Source\PSoC5/cyfitter_cfg.c **** ********************************************************************************
 186:Generated_Source\PSoC5/cyfitter_cfg.c **** * Summary:
 187:Generated_Source\PSoC5/cyfitter_cfg.c **** *  This function is used for setting up the chip configuration areas that
 188:Generated_Source\PSoC5/cyfitter_cfg.c **** *  contain relatively sparse data.
 189:Generated_Source\PSoC5/cyfitter_cfg.c **** *
 190:Generated_Source\PSoC5/cyfitter_cfg.c **** * Parameters:
 191:Generated_Source\PSoC5/cyfitter_cfg.c **** *   void
 192:Generated_Source\PSoC5/cyfitter_cfg.c **** *
 193:Generated_Source\PSoC5/cyfitter_cfg.c **** * Return:
 194:Generated_Source\PSoC5/cyfitter_cfg.c **** *   void
 195:Generated_Source\PSoC5/cyfitter_cfg.c **** *
 196:Generated_Source\PSoC5/cyfitter_cfg.c **** *******************************************************************************/
 197:Generated_Source\PSoC5/cyfitter_cfg.c **** static void cfg_write_bytes32(const uint32 addr_table[], const cy_cfg_addrvalue_t data_table[]);
 198:Generated_Source\PSoC5/cyfitter_cfg.c **** static void cfg_write_bytes32(const uint32 addr_table[], const cy_cfg_addrvalue_t data_table[])
 199:Generated_Source\PSoC5/cyfitter_cfg.c **** {
  46              		.loc 1 199 0
  47              		.cfi_startproc
  48              		@ args = 0, pretend = 0, frame = 0
  49              		@ frame_needed = 0, uses_anonymous_args = 0
  50              		@ link register save eliminated.
  51              	.LVL1:
  52              		.loc 1 199 0
  53 0000 F0B4     		push	{r4, r5, r6, r7}
  54              		.cfi_def_cfa_offset 16
  55              		.cfi_offset 4, -16
  56              		.cfi_offset 5, -12
  57              		.cfi_offset 6, -8
  58              		.cfi_offset 7, -4
  59              	.LVL2:
 200:Generated_Source\PSoC5/cyfitter_cfg.c **** 	/* For 32-bit little-endian architectures */
 201:Generated_Source\PSoC5/cyfitter_cfg.c **** 	uint32 i, j = 0u;
  60              		.loc 1 201 0
  61 0002 0022     		movs	r2, #0
 202:Generated_Source\PSoC5/cyfitter_cfg.c **** 	for (i = 0u; i < CY_CFG_BASE_ADDR_COUNT; i++)
  62              		.loc 1 202 0
  63 0004 1746     		mov	r7, r2
  64 0006 11E0     		b	.L4
  65              	.LVL3:
  66              	.L7:
  67              	.LBB2:
 203:Generated_Source\PSoC5/cyfitter_cfg.c **** 	{
 204:Generated_Source\PSoC5/cyfitter_cfg.c **** 		uint32 baseAddr = addr_table[i];
  68              		.loc 1 204 0
  69 0008 50F82760 		ldr	r6, [r0, r7, lsl #2]
  70              	.LVL4:
 205:Generated_Source\PSoC5/cyfitter_cfg.c **** 		uint8 count = (uint8)baseAddr;
  71              		.loc 1 205 0
  72 000c F3B2     		uxtb	r3, r6
  73              	.LVL5:
 206:Generated_Source\PSoC5/cyfitter_cfg.c **** 		baseAddr &= 0xFFFFFF00u;
  74              		.loc 1 206 0
  75 000e 26F0FF06 		bic	r6, r6, #255
  76              	.LVL6:
 207:Generated_Source\PSoC5/cyfitter_cfg.c **** 		while (count != 0u)
  77              		.loc 1 207 0
  78 0012 08E0     		b	.L5
ARM GAS  C:\Users\MATEOC~1.QUE\AppData\Local\Temp\ccKG6PD9.s 			page 6


  79              	.L6:
 208:Generated_Source\PSoC5/cyfitter_cfg.c **** 		{
 209:Generated_Source\PSoC5/cyfitter_cfg.c **** 			CY_SET_REG8((void *)(baseAddr + data_table[j].offset), data_table[j].value);
  80              		.loc 1 209 0
  81 0014 01EB4205 		add	r5, r1, r2, lsl #1
  82 0018 11F81240 		ldrb	r4, [r1, r2, lsl #1]	@ zero_extendqisi2
  83 001c 6D78     		ldrb	r5, [r5, #1]	@ zero_extendqisi2
  84 001e A555     		strb	r5, [r4, r6]
 210:Generated_Source\PSoC5/cyfitter_cfg.c **** 			j++;
  85              		.loc 1 210 0
  86 0020 0132     		adds	r2, r2, #1
  87              	.LVL7:
 211:Generated_Source\PSoC5/cyfitter_cfg.c **** 			count--;
  88              		.loc 1 211 0
  89 0022 013B     		subs	r3, r3, #1
  90              	.LVL8:
  91 0024 DBB2     		uxtb	r3, r3
  92              	.LVL9:
  93              	.L5:
 207:Generated_Source\PSoC5/cyfitter_cfg.c **** 		{
  94              		.loc 1 207 0
  95 0026 002B     		cmp	r3, #0
  96 0028 F4D1     		bne	.L6
  97              	.LBE2:
 202:Generated_Source\PSoC5/cyfitter_cfg.c **** 	{
  98              		.loc 1 202 0 discriminator 2
  99 002a 0137     		adds	r7, r7, #1
 100              	.LVL10:
 101              	.L4:
 202:Generated_Source\PSoC5/cyfitter_cfg.c **** 	{
 102              		.loc 1 202 0 is_stmt 0 discriminator 1
 103 002c 2A2F     		cmp	r7, #42
 104 002e EBD9     		bls	.L7
 212:Generated_Source\PSoC5/cyfitter_cfg.c **** 		}
 213:Generated_Source\PSoC5/cyfitter_cfg.c **** 	}
 214:Generated_Source\PSoC5/cyfitter_cfg.c **** }
 105              		.loc 1 214 0 is_stmt 1
 106 0030 F0BC     		pop	{r4, r5, r6, r7}
 107              		.cfi_restore 7
 108              		.cfi_restore 6
 109              		.cfi_restore 5
 110              		.cfi_restore 4
 111              		.cfi_def_cfa_offset 0
 112              	.LVL11:
 113 0032 7047     		bx	lr
 114              		.cfi_endproc
 115              	.LFE4:
 116              		.size	cfg_write_bytes32, .-cfg_write_bytes32
 117              		.section	.text.ClockSetup,"ax",%progbits
 118              		.align	2
 119              		.thumb
 120              		.thumb_func
 121              		.type	ClockSetup, %function
 122              	ClockSetup:
 123              	.LFB5:
 215:Generated_Source\PSoC5/cyfitter_cfg.c **** 
 216:Generated_Source\PSoC5/cyfitter_cfg.c **** /*******************************************************************************
ARM GAS  C:\Users\MATEOC~1.QUE\AppData\Local\Temp\ccKG6PD9.s 			page 7


 217:Generated_Source\PSoC5/cyfitter_cfg.c **** * Function Name: ClockSetup
 218:Generated_Source\PSoC5/cyfitter_cfg.c **** ********************************************************************************
 219:Generated_Source\PSoC5/cyfitter_cfg.c **** *
 220:Generated_Source\PSoC5/cyfitter_cfg.c **** * Summary:
 221:Generated_Source\PSoC5/cyfitter_cfg.c **** *  Performs the initialization of all of the clocks in the device based on the
 222:Generated_Source\PSoC5/cyfitter_cfg.c **** *  settings in the Clock tab of the DWR.  This includes enabling the requested
 223:Generated_Source\PSoC5/cyfitter_cfg.c **** *  clocks and setting the necessary dividers to produce the desired frequency. 
 224:Generated_Source\PSoC5/cyfitter_cfg.c **** *
 225:Generated_Source\PSoC5/cyfitter_cfg.c **** * Parameters:
 226:Generated_Source\PSoC5/cyfitter_cfg.c **** *  void
 227:Generated_Source\PSoC5/cyfitter_cfg.c **** *
 228:Generated_Source\PSoC5/cyfitter_cfg.c **** * Return:
 229:Generated_Source\PSoC5/cyfitter_cfg.c **** *  void
 230:Generated_Source\PSoC5/cyfitter_cfg.c **** *
 231:Generated_Source\PSoC5/cyfitter_cfg.c **** *******************************************************************************/
 232:Generated_Source\PSoC5/cyfitter_cfg.c **** static void ClockSetup(void);
 233:Generated_Source\PSoC5/cyfitter_cfg.c **** static void ClockSetup(void)
 234:Generated_Source\PSoC5/cyfitter_cfg.c **** {
 124              		.loc 1 234 0
 125              		.cfi_startproc
 126              		@ args = 0, pretend = 0, frame = 0
 127              		@ frame_needed = 0, uses_anonymous_args = 0
 128 0000 38B5     		push	{r3, r4, r5, lr}
 129              		.cfi_def_cfa_offset 16
 130              		.cfi_offset 3, -16
 131              		.cfi_offset 4, -12
 132              		.cfi_offset 5, -8
 133              		.cfi_offset 14, -4
 235:Generated_Source\PSoC5/cyfitter_cfg.c **** 	uint32 timeout;
 236:Generated_Source\PSoC5/cyfitter_cfg.c **** 	uint8 pllLock;
 237:Generated_Source\PSoC5/cyfitter_cfg.c **** 
 238:Generated_Source\PSoC5/cyfitter_cfg.c **** 
 239:Generated_Source\PSoC5/cyfitter_cfg.c **** 	/* Configure Digital Clocks based on settings from Clock DWR */
 240:Generated_Source\PSoC5/cyfitter_cfg.c **** 	CY_SET_XTND_REG16((void CYFAR *)(CYREG_CLKDIST_DCFG0_CFG0), 0x0000u);
 134              		.loc 1 240 0
 135 0002 0024     		movs	r4, #0
 136 0004 2E4B     		ldr	r3, .L15
 137 0006 1C80     		strh	r4, [r3]	@ movhi
 241:Generated_Source\PSoC5/cyfitter_cfg.c **** 	CY_SET_XTND_REG8((void CYFAR *)(CYREG_CLKDIST_DCFG0_CFG0 + 0x2u), 0x58u);
 138              		.loc 1 241 0
 139 0008 5822     		movs	r2, #88
 140 000a 0233     		adds	r3, r3, #2
 141 000c 1A70     		strb	r2, [r3]
 242:Generated_Source\PSoC5/cyfitter_cfg.c **** 	CY_SET_XTND_REG16((void CYFAR *)(CYREG_CLKDIST_DCFG1_CFG0), 0x0008u);
 142              		.loc 1 242 0
 143 000e 0822     		movs	r2, #8
 144 0010 0233     		adds	r3, r3, #2
 145 0012 1A80     		strh	r2, [r3]	@ movhi
 243:Generated_Source\PSoC5/cyfitter_cfg.c **** 	CY_SET_XTND_REG8((void CYFAR *)(CYREG_CLKDIST_DCFG1_CFG0 + 0x2u), 0x18u);
 146              		.loc 1 243 0
 147 0014 1823     		movs	r3, #24
 148 0016 2B4A     		ldr	r2, .L15+4
 149 0018 1370     		strb	r3, [r2]
 244:Generated_Source\PSoC5/cyfitter_cfg.c **** 	CY_SET_XTND_REG16((void CYFAR *)(CYREG_CLKDIST_DCFG2_CFG0), 0x002Cu);
 150              		.loc 1 244 0
 151 001a 2C21     		movs	r1, #44
 152 001c 0232     		adds	r2, r2, #2
ARM GAS  C:\Users\MATEOC~1.QUE\AppData\Local\Temp\ccKG6PD9.s 			page 8


 153 001e 1180     		strh	r1, [r2]	@ movhi
 245:Generated_Source\PSoC5/cyfitter_cfg.c **** 	CY_SET_XTND_REG8((void CYFAR *)(CYREG_CLKDIST_DCFG2_CFG0 + 0x2u), 0x18u);
 154              		.loc 1 245 0
 155 0020 0232     		adds	r2, r2, #2
 156 0022 1370     		strb	r3, [r2]
 246:Generated_Source\PSoC5/cyfitter_cfg.c **** 	CY_SET_XTND_REG16((void CYFAR *)(CYREG_CLKDIST_DCFG3_CFG0), 0x004Du);
 157              		.loc 1 246 0
 158 0024 4D21     		movs	r1, #77
 159 0026 0232     		adds	r2, r2, #2
 160 0028 1180     		strh	r1, [r2]	@ movhi
 247:Generated_Source\PSoC5/cyfitter_cfg.c **** 	CY_SET_XTND_REG8((void CYFAR *)(CYREG_CLKDIST_DCFG3_CFG0 + 0x2u), 0x18u);
 161              		.loc 1 247 0
 162 002a 0232     		adds	r2, r2, #2
 163 002c 1370     		strb	r3, [r2]
 248:Generated_Source\PSoC5/cyfitter_cfg.c **** 	CY_SET_XTND_REG16((void CYFAR *)(CYREG_CLKDIST_DCFG4_CFG0), 0x383Fu);
 164              		.loc 1 248 0
 165 002e 43F63F01 		movw	r1, #14399
 166 0032 0232     		adds	r2, r2, #2
 167 0034 1180     		strh	r1, [r2]	@ movhi
 249:Generated_Source\PSoC5/cyfitter_cfg.c **** 	CY_SET_XTND_REG8((void CYFAR *)(CYREG_CLKDIST_DCFG4_CFG0 + 0x2u), 0x18u);
 168              		.loc 1 249 0
 169 0036 0232     		adds	r2, r2, #2
 170 0038 1370     		strb	r3, [r2]
 250:Generated_Source\PSoC5/cyfitter_cfg.c **** 
 251:Generated_Source\PSoC5/cyfitter_cfg.c **** 	/* Configure ILO based on settings from Clock DWR */
 252:Generated_Source\PSoC5/cyfitter_cfg.c **** 	CY_SET_XTND_REG8((void CYFAR *)(CYREG_SLOWCLK_ILO_CR0), 0x06u);
 171              		.loc 1 252 0
 172 003a 0622     		movs	r2, #6
 173 003c 224B     		ldr	r3, .L15+8
 174 003e 1A70     		strb	r2, [r3]
 253:Generated_Source\PSoC5/cyfitter_cfg.c **** 
 254:Generated_Source\PSoC5/cyfitter_cfg.c **** 	/* Configure IMO based on settings from Clock DWR */
 255:Generated_Source\PSoC5/cyfitter_cfg.c **** 	CY_SET_XTND_REG8((void CYFAR *)(CYREG_FASTCLK_IMO_CR), 0x52u);
 175              		.loc 1 255 0
 176 0040 5222     		movs	r2, #82
 177 0042 A3F58073 		sub	r3, r3, #256
 178 0046 1A70     		strb	r2, [r3]
 256:Generated_Source\PSoC5/cyfitter_cfg.c **** 	CY_SET_XTND_REG8((void CYFAR *)(CYREG_IMO_TR1), (CY_GET_XTND_REG8((void CYFAR *)CYREG_FLSHID_CUST_
 179              		.loc 1 256 0
 180 0048 204B     		ldr	r3, .L15+12
 181 004a 1B78     		ldrb	r3, [r3]	@ zero_extendqisi2
 182 004c DBB2     		uxtb	r3, r3
 183 004e 204A     		ldr	r2, .L15+16
 184 0050 1370     		strb	r3, [r2]
 257:Generated_Source\PSoC5/cyfitter_cfg.c **** 
 258:Generated_Source\PSoC5/cyfitter_cfg.c **** 	/* Configure PLL based on settings from Clock DWR */
 259:Generated_Source\PSoC5/cyfitter_cfg.c **** 	CY_SET_XTND_REG16((void CYFAR *)(CYREG_FASTCLK_PLL_P), 0x0718u);
 185              		.loc 1 259 0
 186 0052 4FF4E362 		mov	r2, #1816
 187 0056 1F4B     		ldr	r3, .L15+20
 188 0058 1A80     		strh	r2, [r3]	@ movhi
 260:Generated_Source\PSoC5/cyfitter_cfg.c **** 	CY_SET_XTND_REG16((void CYFAR *)(CYREG_FASTCLK_PLL_CFG0), 0x2251u);
 189              		.loc 1 260 0
 190 005a 42F25122 		movw	r2, #8785
 191 005e 023B     		subs	r3, r3, #2
 192 0060 1A80     		strh	r2, [r3]	@ movhi
 193              	.LVL12:
ARM GAS  C:\Users\MATEOC~1.QUE\AppData\Local\Temp\ccKG6PD9.s 			page 9


 261:Generated_Source\PSoC5/cyfitter_cfg.c **** 	/* Wait up to 250us for the PLL to lock */
 262:Generated_Source\PSoC5/cyfitter_cfg.c **** 	pllLock = 0u;
 263:Generated_Source\PSoC5/cyfitter_cfg.c **** 	for (timeout = 250u / 10u; (timeout > 0u) && (pllLock != 0x03u); timeout--)
 194              		.loc 1 263 0
 195 0062 1925     		movs	r5, #25
 196 0064 0CE0     		b	.L10
 197              	.LVL13:
 198              	.L12:
 264:Generated_Source\PSoC5/cyfitter_cfg.c **** 	{ 
 265:Generated_Source\PSoC5/cyfitter_cfg.c **** 		pllLock = 0x03u & ((uint8)((uint8)pllLock << 1) | ((CY_GET_XTND_REG8((void CYFAR *)CYREG_FASTCLK_
 199              		.loc 1 265 0 discriminator 4
 200 0066 1C4B     		ldr	r3, .L15+24
 201 0068 1B78     		ldrb	r3, [r3]	@ zero_extendqisi2
 202 006a 03F00103 		and	r3, r3, #1
 203 006e 43EA4404 		orr	r4, r3, r4, lsl #1
 204              	.LVL14:
 205 0072 04F00304 		and	r4, r4, #3
 206              	.LVL15:
 266:Generated_Source\PSoC5/cyfitter_cfg.c **** 		CyDelayCycles(10u * 48u); /* Delay 10us based on 48MHz clock */
 207              		.loc 1 266 0 discriminator 4
 208 0076 4FF4F070 		mov	r0, #480
 209 007a FFF7FEFF 		bl	CyDelayCycles
 210              	.LVL16:
 263:Generated_Source\PSoC5/cyfitter_cfg.c **** 	{ 
 211              		.loc 1 263 0 discriminator 4
 212 007e 013D     		subs	r5, r5, #1
 213              	.LVL17:
 214              	.L10:
 263:Generated_Source\PSoC5/cyfitter_cfg.c **** 	{ 
 215              		.loc 1 263 0 is_stmt 0 discriminator 1
 216 0080 0DB1     		cbz	r5, .L11
 263:Generated_Source\PSoC5/cyfitter_cfg.c **** 	{ 
 217              		.loc 1 263 0 discriminator 3
 218 0082 032C     		cmp	r4, #3
 219 0084 EFD1     		bne	.L12
 220              	.L11:
 267:Generated_Source\PSoC5/cyfitter_cfg.c **** 	}
 268:Generated_Source\PSoC5/cyfitter_cfg.c **** 	/* If we ran out of time the PLL didn't lock so go to the error function */
 269:Generated_Source\PSoC5/cyfitter_cfg.c **** 	if (timeout == 0u)
 221              		.loc 1 269 0 is_stmt 1
 222 0086 15B9     		cbnz	r5, .L13
 270:Generated_Source\PSoC5/cyfitter_cfg.c **** 	{
 271:Generated_Source\PSoC5/cyfitter_cfg.c **** 		CyClockStartupError(CYCLOCKSTART_PLL_ERROR);
 223              		.loc 1 271 0
 224 0088 0320     		movs	r0, #3
 225 008a FFF7FEFF 		bl	CyClockStartupError
 226              	.LVL18:
 227              	.L13:
 272:Generated_Source\PSoC5/cyfitter_cfg.c **** 	}
 273:Generated_Source\PSoC5/cyfitter_cfg.c **** 
 274:Generated_Source\PSoC5/cyfitter_cfg.c **** 	/* Configure Bus/Master Clock based on settings from Clock DWR */
 275:Generated_Source\PSoC5/cyfitter_cfg.c **** 	CY_SET_XTND_REG16((void CYFAR *)(CYREG_CLKDIST_MSTR0), 0x0100u);
 228              		.loc 1 275 0
 229 008e 134A     		ldr	r2, .L15+28
 230 0090 4FF48073 		mov	r3, #256
 231 0094 1380     		strh	r3, [r2]	@ movhi
 276:Generated_Source\PSoC5/cyfitter_cfg.c **** 	CY_SET_XTND_REG8((void CYFAR *)(CYREG_CLKDIST_MSTR0), 0x07u);
ARM GAS  C:\Users\MATEOC~1.QUE\AppData\Local\Temp\ccKG6PD9.s 			page 10


 232              		.loc 1 276 0
 233 0096 0723     		movs	r3, #7
 234 0098 1370     		strb	r3, [r2]
 277:Generated_Source\PSoC5/cyfitter_cfg.c **** 	CY_SET_XTND_REG8((void CYFAR *)(CYREG_CLKDIST_BCFG0), 0x00u);
 235              		.loc 1 277 0
 236 009a 0023     		movs	r3, #0
 237 009c 1049     		ldr	r1, .L15+32
 238 009e 0B70     		strb	r3, [r1]
 278:Generated_Source\PSoC5/cyfitter_cfg.c **** 	CY_SET_XTND_REG8((void CYFAR *)(CYREG_CLKDIST_BCFG2), 0x48u);
 239              		.loc 1 278 0
 240 00a0 4820     		movs	r0, #72
 241 00a2 0231     		adds	r1, r1, #2
 242 00a4 0870     		strb	r0, [r1]
 279:Generated_Source\PSoC5/cyfitter_cfg.c **** 	CY_SET_XTND_REG8((void CYFAR *)(CYREG_CLKDIST_MSTR0), 0x00u);
 243              		.loc 1 279 0
 244 00a6 1370     		strb	r3, [r2]
 280:Generated_Source\PSoC5/cyfitter_cfg.c **** 
 281:Generated_Source\PSoC5/cyfitter_cfg.c **** 	/* Configure USB Clock based on settings from Clock DWR */
 282:Generated_Source\PSoC5/cyfitter_cfg.c **** 	CY_SET_XTND_REG8((void CYFAR *)(CYREG_CLKDIST_UCFG), 0x00u);
 245              		.loc 1 282 0
 246 00a8 0532     		adds	r2, r2, #5
 247 00aa 1370     		strb	r3, [r2]
 283:Generated_Source\PSoC5/cyfitter_cfg.c **** 	CY_SET_XTND_REG8((void CYFAR *)(CYREG_CLKDIST_LD), 0x02u);
 248              		.loc 1 283 0
 249 00ac 0222     		movs	r2, #2
 250 00ae 0D4B     		ldr	r3, .L15+36
 251 00b0 1A70     		strb	r2, [r3]
 284:Generated_Source\PSoC5/cyfitter_cfg.c **** 
 285:Generated_Source\PSoC5/cyfitter_cfg.c **** 	CY_SET_XTND_REG8((void CYFAR *)(CYREG_PM_ACT_CFG2), ((CY_GET_XTND_REG8((void CYFAR *)CYREG_PM_ACT_
 252              		.loc 1 285 0
 253 00b2 0D4A     		ldr	r2, .L15+40
 254 00b4 1378     		ldrb	r3, [r2]	@ zero_extendqisi2
 255 00b6 43F01F03 		orr	r3, r3, #31
 256 00ba 1370     		strb	r3, [r2]
 257 00bc 38BD     		pop	{r3, r4, r5, pc}
 258              	.LVL19:
 259              	.L16:
 260 00be 00BF     		.align	2
 261              	.L15:
 262 00c0 80400040 		.word	1073758336
 263 00c4 86400040 		.word	1073758342
 264 00c8 00430040 		.word	1073758976
 265 00cc 0F010049 		.word	1224737039
 266 00d0 A1460040 		.word	1073759905
 267 00d4 22420040 		.word	1073758754
 268 00d8 25420040 		.word	1073758757
 269 00dc 04400040 		.word	1073758212
 270 00e0 06400040 		.word	1073758214
 271 00e4 01400040 		.word	1073758209
 272 00e8 A2430040 		.word	1073759138
 273              		.cfi_endproc
 274              	.LFE5:
 275              		.size	ClockSetup, .-ClockSetup
 276              		.section	.text.CYMEMZERO,"ax",%progbits
 277              		.align	2
 278              		.thumb
 279              		.thumb_func
ARM GAS  C:\Users\MATEOC~1.QUE\AppData\Local\Temp\ccKG6PD9.s 			page 11


 280              		.type	CYMEMZERO, %function
 281              	CYMEMZERO:
 282              	.LFB0:
  78:Generated_Source\PSoC5/cyfitter_cfg.c **** 	(void)memset(s, 0, n);
 283              		.loc 1 78 0
 284              		.cfi_startproc
 285              		@ args = 0, pretend = 0, frame = 0
 286              		@ frame_needed = 0, uses_anonymous_args = 0
 287              	.LVL20:
 288 0000 08B5     		push	{r3, lr}
 289              		.cfi_def_cfa_offset 8
 290              		.cfi_offset 3, -8
 291              		.cfi_offset 14, -4
  79:Generated_Source\PSoC5/cyfitter_cfg.c **** }
 292              		.loc 1 79 0
 293 0002 0A46     		mov	r2, r1
 294 0004 0021     		movs	r1, #0
 295              	.LVL21:
 296 0006 FFF7FEFF 		bl	memset
 297              	.LVL22:
 298 000a 08BD     		pop	{r3, pc}
 299              		.cfi_endproc
 300              	.LFE0:
 301              		.size	CYMEMZERO, .-CYMEMZERO
 302              		.section	.text.AnalogSetDefault,"ax",%progbits
 303              		.align	2
 304              		.thumb
 305              		.thumb_func
 306              		.type	AnalogSetDefault, %function
 307              	AnalogSetDefault:
 308              	.LFB6:
 286:Generated_Source\PSoC5/cyfitter_cfg.c **** }
 287:Generated_Source\PSoC5/cyfitter_cfg.c **** 
 288:Generated_Source\PSoC5/cyfitter_cfg.c **** 
 289:Generated_Source\PSoC5/cyfitter_cfg.c **** /* Analog API Functions */
 290:Generated_Source\PSoC5/cyfitter_cfg.c **** 
 291:Generated_Source\PSoC5/cyfitter_cfg.c **** 
 292:Generated_Source\PSoC5/cyfitter_cfg.c **** /*******************************************************************************
 293:Generated_Source\PSoC5/cyfitter_cfg.c **** * Function Name: AnalogSetDefault
 294:Generated_Source\PSoC5/cyfitter_cfg.c **** ********************************************************************************
 295:Generated_Source\PSoC5/cyfitter_cfg.c **** *
 296:Generated_Source\PSoC5/cyfitter_cfg.c **** * Summary:
 297:Generated_Source\PSoC5/cyfitter_cfg.c **** *  Sets up the analog portions of the chip to default values based on chip
 298:Generated_Source\PSoC5/cyfitter_cfg.c **** *  configuration options from the project.
 299:Generated_Source\PSoC5/cyfitter_cfg.c **** *
 300:Generated_Source\PSoC5/cyfitter_cfg.c **** * Parameters:
 301:Generated_Source\PSoC5/cyfitter_cfg.c **** *  void
 302:Generated_Source\PSoC5/cyfitter_cfg.c **** *
 303:Generated_Source\PSoC5/cyfitter_cfg.c **** * Return:
 304:Generated_Source\PSoC5/cyfitter_cfg.c **** *  void
 305:Generated_Source\PSoC5/cyfitter_cfg.c **** *
 306:Generated_Source\PSoC5/cyfitter_cfg.c **** *******************************************************************************/
 307:Generated_Source\PSoC5/cyfitter_cfg.c **** static void AnalogSetDefault(void);
 308:Generated_Source\PSoC5/cyfitter_cfg.c **** static void AnalogSetDefault(void)
 309:Generated_Source\PSoC5/cyfitter_cfg.c **** {
 309              		.loc 1 309 0
 310              		.cfi_startproc
ARM GAS  C:\Users\MATEOC~1.QUE\AppData\Local\Temp\ccKG6PD9.s 			page 12


 311              		@ args = 0, pretend = 0, frame = 0
 312              		@ frame_needed = 0, uses_anonymous_args = 0
 313 0000 F8B5     		push	{r3, r4, r5, r6, r7, lr}
 314              		.cfi_def_cfa_offset 24
 315              		.cfi_offset 3, -24
 316              		.cfi_offset 4, -20
 317              		.cfi_offset 5, -16
 318              		.cfi_offset 6, -12
 319              		.cfi_offset 7, -8
 320              		.cfi_offset 14, -4
 310:Generated_Source\PSoC5/cyfitter_cfg.c **** 	uint8 bg_xover_inl_trim = CY_GET_XTND_REG8((void CYFAR *)(CYREG_FLSHID_MFG_CFG_BG_XOVER_INL_TRIM +
 321              		.loc 1 310 0
 322 0002 164B     		ldr	r3, .L21
 323 0004 1B78     		ldrb	r3, [r3]	@ zero_extendqisi2
 324 0006 DBB2     		uxtb	r3, r3
 325              	.LVL23:
 311:Generated_Source\PSoC5/cyfitter_cfg.c **** 	uint8 cr4 = CY_GET_XTND_REG8((void CYFAR *)(CYREG_RESET_CR4));
 326              		.loc 1 311 0
 327 0008 154E     		ldr	r6, .L21+4
 328 000a 3478     		ldrb	r4, [r6]	@ zero_extendqisi2
 329 000c E4B2     		uxtb	r4, r4
 330              	.LVL24:
 312:Generated_Source\PSoC5/cyfitter_cfg.c **** 	uint8 cr5 = CY_GET_XTND_REG8((void CYFAR *)(CYREG_RESET_CR5));
 331              		.loc 1 312 0
 332 000e 154F     		ldr	r7, .L21+8
 333 0010 3D78     		ldrb	r5, [r7]	@ zero_extendqisi2
 334 0012 EDB2     		uxtb	r5, r5
 335              	.LVL25:
 313:Generated_Source\PSoC5/cyfitter_cfg.c **** 	CY_SET_XTND_REG8((void CYFAR *)(CYREG_BG_DFT0), (bg_xover_inl_trim & 0x07u));
 336              		.loc 1 313 0
 337 0014 03F00701 		and	r1, r3, #7
 338 0018 134A     		ldr	r2, .L21+12
 339 001a 1170     		strb	r1, [r2]
 314:Generated_Source\PSoC5/cyfitter_cfg.c **** 	CY_SET_XTND_REG8((void CYFAR *)(CYREG_BG_DFT1), ((bg_xover_inl_trim >> 4) & 0x0Fu));
 340              		.loc 1 314 0
 341 001c 1B09     		lsrs	r3, r3, #4
 342              	.LVL26:
 343 001e 0132     		adds	r2, r2, #1
 344 0020 1370     		strb	r3, [r2]
 315:Generated_Source\PSoC5/cyfitter_cfg.c **** 	/* Disable PRES while setting up SAR voltage reference */
 316:Generated_Source\PSoC5/cyfitter_cfg.c **** 	CY_SET_XTND_REG8((void CYFAR *)(CYREG_RESET_CR4), (cr4 | 0x03u));
 345              		.loc 1 316 0
 346 0022 44F00303 		orr	r3, r4, #3
 347 0026 3370     		strb	r3, [r6]
 317:Generated_Source\PSoC5/cyfitter_cfg.c **** 	CY_SET_XTND_REG8((void CYFAR *)(CYREG_RESET_CR5), (cr5 | 0x03u));
 348              		.loc 1 317 0
 349 0028 45F00303 		orr	r3, r5, #3
 350 002c 3B70     		strb	r3, [r7]
 318:Generated_Source\PSoC5/cyfitter_cfg.c **** 	CY_SET_XTND_REG8((void CYFAR *)CYREG_PRT0_AG, 0x03u);
 351              		.loc 1 318 0
 352 002e 0322     		movs	r2, #3
 353 0030 0E4B     		ldr	r3, .L21+16
 354 0032 1A70     		strb	r2, [r3]
 319:Generated_Source\PSoC5/cyfitter_cfg.c **** 	CY_SET_XTND_REG8((void CYFAR *)CYREG_SAR0_CSR1, 0x40u);
 355              		.loc 1 319 0
 356 0034 4023     		movs	r3, #64
 357 0036 0E4A     		ldr	r2, .L21+20
ARM GAS  C:\Users\MATEOC~1.QUE\AppData\Local\Temp\ccKG6PD9.s 			page 13


 358 0038 1370     		strb	r3, [r2]
 320:Generated_Source\PSoC5/cyfitter_cfg.c **** 	CY_SET_XTND_REG8((void CYFAR *)CYREG_SAR0_CSR3, 0x40u);
 359              		.loc 1 320 0
 360 003a 0232     		adds	r2, r2, #2
 361 003c 1370     		strb	r3, [r2]
 321:Generated_Source\PSoC5/cyfitter_cfg.c **** 	CY_SET_XTND_REG8((void CYFAR *)CYREG_SAR0_SW0, 0x30u);
 362              		.loc 1 321 0
 363 003e 3022     		movs	r2, #48
 364 0040 0C4B     		ldr	r3, .L21+24
 365 0042 1A70     		strb	r2, [r3]
 322:Generated_Source\PSoC5/cyfitter_cfg.c **** 	CY_SET_XTND_REG8((void CYFAR *)CYREG_SAR0_SW3, 0x20u);
 366              		.loc 1 322 0
 367 0044 2022     		movs	r2, #32
 368 0046 0333     		adds	r3, r3, #3
 369 0048 1A70     		strb	r2, [r3]
 323:Generated_Source\PSoC5/cyfitter_cfg.c **** 	CyDelayUs(10u); /* Allow vref to settle before re-enabling PRES */
 370              		.loc 1 323 0
 371 004a 0A20     		movs	r0, #10
 372 004c FFF7FEFF 		bl	CyDelayUs
 373              	.LVL27:
 324:Generated_Source\PSoC5/cyfitter_cfg.c **** 	CY_SET_XTND_REG8((void CYFAR *)(CYREG_RESET_CR5), (cr5));
 374              		.loc 1 324 0
 375 0050 3D70     		strb	r5, [r7]
 325:Generated_Source\PSoC5/cyfitter_cfg.c **** 	CY_SET_XTND_REG8((void CYFAR *)(CYREG_RESET_CR4), (cr4));
 376              		.loc 1 325 0
 377 0052 3470     		strb	r4, [r6]
 326:Generated_Source\PSoC5/cyfitter_cfg.c **** 	CY_SET_XTND_REG8((void CYFAR *)CYREG_PUMP_CR0, 0x44u);
 378              		.loc 1 326 0
 379 0054 4422     		movs	r2, #68
 380 0056 084B     		ldr	r3, .L21+28
 381 0058 1A70     		strb	r2, [r3]
 382 005a F8BD     		pop	{r3, r4, r5, r6, r7, pc}
 383              	.LVL28:
 384              	.L22:
 385              		.align	2
 386              	.L21:
 387 005c CF010049 		.word	1224737231
 388 0060 F8460040 		.word	1073759992
 389 0064 F9460040 		.word	1073759993
 390 0068 6E580040 		.word	1073764462
 391 006c 0D510040 		.word	1073762573
 392 0070 01590040 		.word	1073764609
 393 0074 205B0040 		.word	1073765152
 394 0078 76580040 		.word	1073764470
 395              		.cfi_endproc
 396              	.LFE6:
 397              		.size	AnalogSetDefault, .-AnalogSetDefault
 398              		.section	.text.CYCONFIGCPY,"ax",%progbits
 399              		.align	2
 400              		.thumb
 401              		.thumb_func
 402              		.type	CYCONFIGCPY, %function
 403              	CYCONFIGCPY:
 404              	.LFB1:
  85:Generated_Source\PSoC5/cyfitter_cfg.c **** 	(void)memcpy(dest, src, n);
 405              		.loc 1 85 0
 406              		.cfi_startproc
ARM GAS  C:\Users\MATEOC~1.QUE\AppData\Local\Temp\ccKG6PD9.s 			page 14


 407              		@ args = 0, pretend = 0, frame = 0
 408              		@ frame_needed = 0, uses_anonymous_args = 0
 409              	.LVL29:
 410 0000 08B5     		push	{r3, lr}
 411              		.cfi_def_cfa_offset 8
 412              		.cfi_offset 3, -8
 413              		.cfi_offset 14, -4
  86:Generated_Source\PSoC5/cyfitter_cfg.c **** }
 414              		.loc 1 86 0
 415 0002 FFF7FEFF 		bl	memcpy
 416              	.LVL30:
 417 0006 08BD     		pop	{r3, pc}
 418              		.cfi_endproc
 419              	.LFE1:
 420              		.size	CYCONFIGCPY, .-CYCONFIGCPY
 421              		.section	.text.SetAnalogRoutingPumps,"ax",%progbits
 422              		.align	2
 423              		.global	SetAnalogRoutingPumps
 424              		.thumb
 425              		.thumb_func
 426              		.type	SetAnalogRoutingPumps, %function
 427              	SetAnalogRoutingPumps:
 428              	.LFB7:
 327:Generated_Source\PSoC5/cyfitter_cfg.c **** }
 328:Generated_Source\PSoC5/cyfitter_cfg.c **** 
 329:Generated_Source\PSoC5/cyfitter_cfg.c **** 
 330:Generated_Source\PSoC5/cyfitter_cfg.c **** /*******************************************************************************
 331:Generated_Source\PSoC5/cyfitter_cfg.c **** * Function Name: SetAnalogRoutingPumps
 332:Generated_Source\PSoC5/cyfitter_cfg.c **** ********************************************************************************
 333:Generated_Source\PSoC5/cyfitter_cfg.c **** *
 334:Generated_Source\PSoC5/cyfitter_cfg.c **** * Summary:
 335:Generated_Source\PSoC5/cyfitter_cfg.c **** * Enables or disables the analog pumps feeding analog routing switches.
 336:Generated_Source\PSoC5/cyfitter_cfg.c **** * Intended to be called at startup, based on the Vdda system configuration;
 337:Generated_Source\PSoC5/cyfitter_cfg.c **** * may be called during operation when the user informs us that the Vdda voltage
 338:Generated_Source\PSoC5/cyfitter_cfg.c **** * crossed the pump threshold.
 339:Generated_Source\PSoC5/cyfitter_cfg.c **** *
 340:Generated_Source\PSoC5/cyfitter_cfg.c **** * Parameters:
 341:Generated_Source\PSoC5/cyfitter_cfg.c **** *  enabled - 1 to enable the pumps, 0 to disable the pumps
 342:Generated_Source\PSoC5/cyfitter_cfg.c **** *
 343:Generated_Source\PSoC5/cyfitter_cfg.c **** * Return:
 344:Generated_Source\PSoC5/cyfitter_cfg.c **** *  void
 345:Generated_Source\PSoC5/cyfitter_cfg.c **** *
 346:Generated_Source\PSoC5/cyfitter_cfg.c **** *******************************************************************************/
 347:Generated_Source\PSoC5/cyfitter_cfg.c **** void SetAnalogRoutingPumps(uint8 enabled)
 348:Generated_Source\PSoC5/cyfitter_cfg.c **** {
 429              		.loc 1 348 0
 430              		.cfi_startproc
 431              		@ args = 0, pretend = 0, frame = 0
 432              		@ frame_needed = 0, uses_anonymous_args = 0
 433              		@ link register save eliminated.
 434              	.LVL31:
 349:Generated_Source\PSoC5/cyfitter_cfg.c **** 	uint8 regValue = CY_GET_XTND_REG8((void CYFAR *)CYREG_PUMP_CR0);
 435              		.loc 1 349 0
 436 0000 054B     		ldr	r3, .L28
 437 0002 1B78     		ldrb	r3, [r3]	@ zero_extendqisi2
 438 0004 DBB2     		uxtb	r3, r3
 439              	.LVL32:
ARM GAS  C:\Users\MATEOC~1.QUE\AppData\Local\Temp\ccKG6PD9.s 			page 15


 350:Generated_Source\PSoC5/cyfitter_cfg.c **** 	if (enabled != 0u)
 440              		.loc 1 350 0
 441 0006 10B1     		cbz	r0, .L26
 351:Generated_Source\PSoC5/cyfitter_cfg.c **** 	{
 352:Generated_Source\PSoC5/cyfitter_cfg.c **** 		regValue |= 0x22u;
 442              		.loc 1 352 0
 443 0008 43F02203 		orr	r3, r3, #34
 444              	.LVL33:
 445 000c 01E0     		b	.L27
 446              	.L26:
 353:Generated_Source\PSoC5/cyfitter_cfg.c **** 	}
 354:Generated_Source\PSoC5/cyfitter_cfg.c **** 	else
 355:Generated_Source\PSoC5/cyfitter_cfg.c **** 	{
 356:Generated_Source\PSoC5/cyfitter_cfg.c **** 		regValue &= (uint8)~0x22u;
 447              		.loc 1 356 0
 448 000e 03F0DD03 		and	r3, r3, #221
 449              	.LVL34:
 450              	.L27:
 357:Generated_Source\PSoC5/cyfitter_cfg.c **** 	}
 358:Generated_Source\PSoC5/cyfitter_cfg.c **** 	CY_SET_XTND_REG8((void CYFAR *)CYREG_PUMP_CR0, regValue);
 451              		.loc 1 358 0
 452 0012 014A     		ldr	r2, .L28
 453 0014 1370     		strb	r3, [r2]
 454 0016 7047     		bx	lr
 455              	.L29:
 456              		.align	2
 457              	.L28:
 458 0018 76580040 		.word	1073764470
 459              		.cfi_endproc
 460              	.LFE7:
 461              		.size	SetAnalogRoutingPumps, .-SetAnalogRoutingPumps
 462              		.section	.text.cyfitter_cfg,"ax",%progbits
 463              		.align	2
 464              		.global	cyfitter_cfg
 465              		.thumb
 466              		.thumb_func
 467              		.type	cyfitter_cfg, %function
 468              	cyfitter_cfg:
 469              	.LFB8:
 359:Generated_Source\PSoC5/cyfitter_cfg.c **** }
 360:Generated_Source\PSoC5/cyfitter_cfg.c **** 
 361:Generated_Source\PSoC5/cyfitter_cfg.c **** 
 362:Generated_Source\PSoC5/cyfitter_cfg.c **** #define CY_AMUX_UNUSED CYREG_BOOST_SR
 363:Generated_Source\PSoC5/cyfitter_cfg.c **** 
 364:Generated_Source\PSoC5/cyfitter_cfg.c **** 
 365:Generated_Source\PSoC5/cyfitter_cfg.c **** /*******************************************************************************
 366:Generated_Source\PSoC5/cyfitter_cfg.c **** * Function Name: cyfitter_cfg
 367:Generated_Source\PSoC5/cyfitter_cfg.c **** ********************************************************************************
 368:Generated_Source\PSoC5/cyfitter_cfg.c **** * Summary:
 369:Generated_Source\PSoC5/cyfitter_cfg.c **** *  This function is called by the start-up code for the selected device. It
 370:Generated_Source\PSoC5/cyfitter_cfg.c **** *  performs all of the necessary device configuration based on the design
 371:Generated_Source\PSoC5/cyfitter_cfg.c **** *  settings.  This includes settings from the Design Wide Resources (DWR) such
 372:Generated_Source\PSoC5/cyfitter_cfg.c **** *  as Clocks and Pins as well as any component configuration that is necessary.
 373:Generated_Source\PSoC5/cyfitter_cfg.c **** *
 374:Generated_Source\PSoC5/cyfitter_cfg.c **** * Parameters:
 375:Generated_Source\PSoC5/cyfitter_cfg.c **** *   void
 376:Generated_Source\PSoC5/cyfitter_cfg.c **** *
ARM GAS  C:\Users\MATEOC~1.QUE\AppData\Local\Temp\ccKG6PD9.s 			page 16


 377:Generated_Source\PSoC5/cyfitter_cfg.c **** * Return:
 378:Generated_Source\PSoC5/cyfitter_cfg.c **** *   void
 379:Generated_Source\PSoC5/cyfitter_cfg.c **** *
 380:Generated_Source\PSoC5/cyfitter_cfg.c **** *******************************************************************************/
 381:Generated_Source\PSoC5/cyfitter_cfg.c **** 
 382:Generated_Source\PSoC5/cyfitter_cfg.c **** void cyfitter_cfg(void)
 383:Generated_Source\PSoC5/cyfitter_cfg.c **** {
 470              		.loc 1 383 0
 471              		.cfi_startproc
 472              		@ args = 0, pretend = 0, frame = 0
 473              		@ frame_needed = 0, uses_anonymous_args = 0
 474 0000 38B5     		push	{r3, r4, r5, lr}
 475              		.cfi_def_cfa_offset 16
 476              		.cfi_offset 3, -16
 477              		.cfi_offset 4, -12
 478              		.cfi_offset 5, -8
 479              		.cfi_offset 14, -4
 384:Generated_Source\PSoC5/cyfitter_cfg.c **** #ifdef CYGlobalIntDisable
 385:Generated_Source\PSoC5/cyfitter_cfg.c **** 	/* Disable interrupts by default. Let user enable if/when they want. */
 386:Generated_Source\PSoC5/cyfitter_cfg.c **** 	CYGlobalIntDisable
 480              		.loc 1 386 0
 481              		.syntax unified
 482              	@ 386 "Generated_Source\PSoC5\cyfitter_cfg.c" 1
 483 0002 72B6     		CPSID   i
 484              	@ 0 "" 2
 387:Generated_Source\PSoC5/cyfitter_cfg.c **** #endif
 388:Generated_Source\PSoC5/cyfitter_cfg.c **** 
 389:Generated_Source\PSoC5/cyfitter_cfg.c **** 
 390:Generated_Source\PSoC5/cyfitter_cfg.c **** 	/* Set Flash Cycles based on max possible frequency in case a glitch occurs during ClockSetup(). *
 391:Generated_Source\PSoC5/cyfitter_cfg.c **** 	CY_SET_XTND_REG8((void CYFAR *)(CYREG_CACHE_CC_CTL), (((CYDEV_INSTRUCT_CACHE_ENABLED) != 0) ? 0x61
 485              		.loc 1 391 0
 486              		.thumb
 487              		.syntax unified
 488 0004 6122     		movs	r2, #97
 489 0006 374B     		ldr	r3, .L36
 490 0008 1A70     		strb	r2, [r3]
 392:Generated_Source\PSoC5/cyfitter_cfg.c **** 	/* Setup clocks based on selections from Clock DWR */
 393:Generated_Source\PSoC5/cyfitter_cfg.c **** 	ClockSetup();
 491              		.loc 1 393 0
 492 000a FFF7FEFF 		bl	ClockSetup
 493              	.LVL35:
 494              	.LBB3:
 394:Generated_Source\PSoC5/cyfitter_cfg.c **** 	{
 395:Generated_Source\PSoC5/cyfitter_cfg.c **** 
 396:Generated_Source\PSoC5/cyfitter_cfg.c **** 		CYPACKED typedef struct {
 397:Generated_Source\PSoC5/cyfitter_cfg.c **** 			void CYFAR *address;
 398:Generated_Source\PSoC5/cyfitter_cfg.c **** 			uint16 size;
 399:Generated_Source\PSoC5/cyfitter_cfg.c **** 		} CYPACKED_ATTR cfg_memset_t;
 400:Generated_Source\PSoC5/cyfitter_cfg.c **** 
 401:Generated_Source\PSoC5/cyfitter_cfg.c **** 
 402:Generated_Source\PSoC5/cyfitter_cfg.c **** 		CYPACKED typedef struct {
 403:Generated_Source\PSoC5/cyfitter_cfg.c **** 			void CYFAR *dest;
 404:Generated_Source\PSoC5/cyfitter_cfg.c **** 			const void CYFAR *src;
 405:Generated_Source\PSoC5/cyfitter_cfg.c **** 			uint16 size;
 406:Generated_Source\PSoC5/cyfitter_cfg.c **** 		} CYPACKED_ATTR cfg_memcpy_t;
 407:Generated_Source\PSoC5/cyfitter_cfg.c **** 
 408:Generated_Source\PSoC5/cyfitter_cfg.c **** 		static const cfg_memset_t CYCODE cfg_memset_list[] = {
ARM GAS  C:\Users\MATEOC~1.QUE\AppData\Local\Temp\ccKG6PD9.s 			page 17


 409:Generated_Source\PSoC5/cyfitter_cfg.c **** 			/* address, size */
 410:Generated_Source\PSoC5/cyfitter_cfg.c **** 			{(void CYFAR *)(CYREG_TMR0_CFG0), 12u},
 411:Generated_Source\PSoC5/cyfitter_cfg.c **** 			{(void CYFAR *)(CYREG_PRT4_DR), 48u},
 412:Generated_Source\PSoC5/cyfitter_cfg.c **** 			{(void CYFAR *)(CYREG_PRT15_DR), 16u},
 413:Generated_Source\PSoC5/cyfitter_cfg.c **** 			{(void CYFAR *)(CYDEV_UCFG_B0_P0_U0_BASE), 4096u},
 414:Generated_Source\PSoC5/cyfitter_cfg.c **** 			{(void CYFAR *)(CYDEV_UCFG_B1_P2_U0_BASE), 2048u},
 415:Generated_Source\PSoC5/cyfitter_cfg.c **** 			{(void CYFAR *)(CYDEV_UCFG_DSI0_BASE), 2560u},
 416:Generated_Source\PSoC5/cyfitter_cfg.c **** 			{(void CYFAR *)(CYDEV_UCFG_DSI12_BASE), 512u},
 417:Generated_Source\PSoC5/cyfitter_cfg.c **** 			{(void CYFAR *)(CYREG_BCTL1_MDCLK_EN), 16u},
 418:Generated_Source\PSoC5/cyfitter_cfg.c **** 		};
 419:Generated_Source\PSoC5/cyfitter_cfg.c **** 
 420:Generated_Source\PSoC5/cyfitter_cfg.c **** 		static const cfg_memcpy_t CYCODE cfg_memcpy_list [] = {
 421:Generated_Source\PSoC5/cyfitter_cfg.c **** 			/* dest, src, size */
 422:Generated_Source\PSoC5/cyfitter_cfg.c **** 			{(void CYFAR *)(CYREG_BCTL0_MDCLK_EN), BS_UCFG_BCTL0_VAL, 16u},
 423:Generated_Source\PSoC5/cyfitter_cfg.c **** 		};
 424:Generated_Source\PSoC5/cyfitter_cfg.c **** 
 425:Generated_Source\PSoC5/cyfitter_cfg.c **** 		uint8 CYDATA i;
 426:Generated_Source\PSoC5/cyfitter_cfg.c **** 
 427:Generated_Source\PSoC5/cyfitter_cfg.c **** 		/* Zero out critical memory blocks before beginning configuration */
 428:Generated_Source\PSoC5/cyfitter_cfg.c **** 		for (i = 0u; i < (sizeof(cfg_memset_list)/sizeof(cfg_memset_list[0])); i++)
 495              		.loc 1 428 0
 496 000e 0024     		movs	r4, #0
 497 0010 0CE0     		b	.L31
 498              	.LVL36:
 499              	.L32:
 500              	.LBB4:
 429:Generated_Source\PSoC5/cyfitter_cfg.c **** 		{
 430:Generated_Source\PSoC5/cyfitter_cfg.c **** 			const cfg_memset_t CYCODE * CYDATA ms = &cfg_memset_list[i];
 431:Generated_Source\PSoC5/cyfitter_cfg.c **** 			CYMEMZERO(ms->address, (size_t)(uint32)(ms->size));
 501              		.loc 1 431 0 discriminator 3
 502 0012 354D     		ldr	r5, .L36+4
 503 0014 6300     		lsls	r3, r4, #1
 504 0016 1919     		adds	r1, r3, r4
 505 0018 4A00     		lsls	r2, r1, #1
 506 001a 1146     		mov	r1, r2
 507 001c 2A44     		add	r2, r2, r5
 508 001e 0846     		mov	r0, r1
 509 0020 9188     		ldrh	r1, [r2, #4]
 510 0022 2858     		ldr	r0, [r5, r0]	@ unaligned
 511 0024 FFF7FEFF 		bl	CYMEMZERO
 512              	.LVL37:
 513              	.LBE4:
 428:Generated_Source\PSoC5/cyfitter_cfg.c **** 		{
 514              		.loc 1 428 0 discriminator 3
 515 0028 0134     		adds	r4, r4, #1
 516              	.LVL38:
 517 002a E4B2     		uxtb	r4, r4
 518              	.LVL39:
 519              	.L31:
 428:Generated_Source\PSoC5/cyfitter_cfg.c **** 		{
 520              		.loc 1 428 0 is_stmt 0 discriminator 1
 521 002c 072C     		cmp	r4, #7
 522 002e F0D9     		bls	.L32
 523 0030 0024     		movs	r4, #0
 524              	.LVL40:
 525 0032 0BE0     		b	.L33
 526              	.LVL41:
ARM GAS  C:\Users\MATEOC~1.QUE\AppData\Local\Temp\ccKG6PD9.s 			page 18


 527              	.L34:
 528              	.LBB5:
 432:Generated_Source\PSoC5/cyfitter_cfg.c **** 		}
 433:Generated_Source\PSoC5/cyfitter_cfg.c **** 
 434:Generated_Source\PSoC5/cyfitter_cfg.c **** 		/* Copy device configuration data into registers */
 435:Generated_Source\PSoC5/cyfitter_cfg.c **** 		for (i = 0u; i < (sizeof(cfg_memcpy_list)/sizeof(cfg_memcpy_list[0])); i++)
 436:Generated_Source\PSoC5/cyfitter_cfg.c **** 		{
 437:Generated_Source\PSoC5/cyfitter_cfg.c **** 			const cfg_memcpy_t CYCODE * CYDATA mc = &cfg_memcpy_list[i];
 438:Generated_Source\PSoC5/cyfitter_cfg.c **** 			void * CYDATA destPtr = mc->dest;
 529              		.loc 1 438 0 is_stmt 1 discriminator 3
 530 0034 2C49     		ldr	r1, .L36+4
 531 0036 A300     		lsls	r3, r4, #2
 532 0038 1819     		adds	r0, r3, r4
 533 003a 4200     		lsls	r2, r0, #1
 534 003c 8818     		adds	r0, r1, r2
 535              	.LVL42:
 439:Generated_Source\PSoC5/cyfitter_cfg.c **** 			const void * CYDATA srcPtr = mc->src;
 440:Generated_Source\PSoC5/cyfitter_cfg.c **** 			uint16 CYDATA numBytes = mc->size;
 441:Generated_Source\PSoC5/cyfitter_cfg.c **** 			CYCONFIGCPY(destPtr, srcPtr, numBytes);
 536              		.loc 1 441 0 discriminator 3
 537 003e 1022     		movs	r2, #16
 538 0040 416B     		ldr	r1, [r0, #52]	@ unaligned
 539              	.LVL43:
 540 0042 006B     		ldr	r0, [r0, #48]	@ unaligned
 541              	.LVL44:
 542 0044 FFF7FEFF 		bl	CYCONFIGCPY
 543              	.LVL45:
 544              	.LBE5:
 435:Generated_Source\PSoC5/cyfitter_cfg.c **** 		{
 545              		.loc 1 435 0 discriminator 3
 546 0048 0134     		adds	r4, r4, #1
 547              	.LVL46:
 548 004a E4B2     		uxtb	r4, r4
 549              	.LVL47:
 550              	.L33:
 435:Generated_Source\PSoC5/cyfitter_cfg.c **** 		{
 551              		.loc 1 435 0 is_stmt 0 discriminator 1
 552 004c 002C     		cmp	r4, #0
 553 004e F1D0     		beq	.L34
 442:Generated_Source\PSoC5/cyfitter_cfg.c **** 		}
 443:Generated_Source\PSoC5/cyfitter_cfg.c **** 
 444:Generated_Source\PSoC5/cyfitter_cfg.c **** 		cfg_write_bytes32(cy_cfg_addr_table, cy_cfg_data_table);
 554              		.loc 1 444 0 is_stmt 1
 555 0050 2649     		ldr	r1, .L36+8
 556 0052 4FF09040 		mov	r0, #1207959552
 557 0056 FFF7FEFF 		bl	cfg_write_bytes32
 558              	.LVL48:
 445:Generated_Source\PSoC5/cyfitter_cfg.c **** 
 446:Generated_Source\PSoC5/cyfitter_cfg.c **** 		/* Perform normal device configuration. Order is not critical for these items. */
 447:Generated_Source\PSoC5/cyfitter_cfg.c **** 		CYMEMZERO((void CYFAR *)(CYREG_PHUB_CFGMEM0_CFG0), 4u);
 559              		.loc 1 447 0
 560 005a 0421     		movs	r1, #4
 561 005c 2448     		ldr	r0, .L36+12
 562 005e FFF7FEFF 		bl	CYMEMZERO
 563              	.LVL49:
 448:Generated_Source\PSoC5/cyfitter_cfg.c **** 		CYCONFIGCPY((void CYFAR *)(CYREG_PHUB_CFGMEM1_CFG0), (const void CYFAR *)(BS_PHUB_CFGMEM1_VAL), 4
 564              		.loc 1 448 0
ARM GAS  C:\Users\MATEOC~1.QUE\AppData\Local\Temp\ccKG6PD9.s 			page 19


 565 0062 0422     		movs	r2, #4
 566 0064 2349     		ldr	r1, .L36+16
 567 0066 2448     		ldr	r0, .L36+20
 568 0068 FFF7FEFF 		bl	CYCONFIGCPY
 569              	.LVL50:
 449:Generated_Source\PSoC5/cyfitter_cfg.c **** 
 450:Generated_Source\PSoC5/cyfitter_cfg.c **** 		/* Enable digital routing */
 451:Generated_Source\PSoC5/cyfitter_cfg.c **** 		CY_SET_XTND_REG8((void CYFAR *)CYREG_BCTL0_BANK_CTL, CY_GET_XTND_REG8((void CYFAR *)CYREG_BCTL0_B
 570              		.loc 1 451 0
 571 006c 234A     		ldr	r2, .L36+24
 572 006e 1378     		ldrb	r3, [r2]	@ zero_extendqisi2
 573 0070 43F00203 		orr	r3, r3, #2
 574 0074 1370     		strb	r3, [r2]
 452:Generated_Source\PSoC5/cyfitter_cfg.c **** 		CY_SET_XTND_REG8((void CYFAR *)CYREG_BCTL1_BANK_CTL, CY_GET_XTND_REG8((void CYFAR *)CYREG_BCTL1_B
 575              		.loc 1 452 0
 576 0076 1032     		adds	r2, r2, #16
 577 0078 1378     		ldrb	r3, [r2]	@ zero_extendqisi2
 578 007a 43F00203 		orr	r3, r3, #2
 579 007e 1370     		strb	r3, [r2]
 453:Generated_Source\PSoC5/cyfitter_cfg.c **** 
 454:Generated_Source\PSoC5/cyfitter_cfg.c **** 		/* Enable UDB array */
 455:Generated_Source\PSoC5/cyfitter_cfg.c **** 		CY_SET_XTND_REG8((void CYFAR *)CYREG_PM_ACT_CFG0, CY_GET_XTND_REG8((void CYFAR *)CYREG_PM_ACT_CFG
 580              		.loc 1 455 0
 581 0080 1F4C     		ldr	r4, .L36+28
 582              	.LVL51:
 583 0082 2378     		ldrb	r3, [r4]	@ zero_extendqisi2
 584 0084 43F04003 		orr	r3, r3, #64
 585 0088 2370     		strb	r3, [r4]
 456:Generated_Source\PSoC5/cyfitter_cfg.c **** 		CY_SET_XTND_REG8((void CYFAR *)CYREG_PM_AVAIL_CR2, CY_GET_XTND_REG8((void CYFAR *)CYREG_PM_AVAIL_
 586              		.loc 1 456 0
 587 008a A2F58632 		sub	r2, r2, #68608
 588 008e 513A     		subs	r2, r2, #81
 589 0090 1378     		ldrb	r3, [r2]	@ zero_extendqisi2
 590 0092 43F01003 		orr	r3, r3, #16
 591 0096 1370     		strb	r3, [r2]
 592              	.LBE3:
 457:Generated_Source\PSoC5/cyfitter_cfg.c **** 	}
 458:Generated_Source\PSoC5/cyfitter_cfg.c **** 
 459:Generated_Source\PSoC5/cyfitter_cfg.c **** 
 460:Generated_Source\PSoC5/cyfitter_cfg.c **** 	/* Perform second pass device configuration. These items must be configured in specific order afte
 461:Generated_Source\PSoC5/cyfitter_cfg.c **** 	CYCONFIGCPY((void CYFAR *)(CYREG_PRT0_DM0), (const void CYFAR *)(BS_IOPINS0_0_VAL), 8u);
 593              		.loc 1 461 0
 594 0098 0822     		movs	r2, #8
 595 009a 1A49     		ldr	r1, .L36+32
 596 009c 1A48     		ldr	r0, .L36+36
 597 009e FFF7FEFF 		bl	CYCONFIGCPY
 598              	.LVL52:
 462:Generated_Source\PSoC5/cyfitter_cfg.c **** 	CYCONFIGCPY((void CYFAR *)(CYREG_PRT12_DR), (const void CYFAR *)(BS_IOPINS0_7_VAL), 10u);
 599              		.loc 1 462 0
 600 00a2 0A22     		movs	r2, #10
 601 00a4 1949     		ldr	r1, .L36+40
 602 00a6 1A48     		ldr	r0, .L36+44
 603 00a8 FFF7FEFF 		bl	CYCONFIGCPY
 604              	.LVL53:
 463:Generated_Source\PSoC5/cyfitter_cfg.c **** 	CYCONFIGCPY((void CYFAR *)(CYREG_PRT1_DM0), (const void CYFAR *)(BS_IOPINS0_1_VAL), 8u);
 605              		.loc 1 463 0
 606 00ac 0822     		movs	r2, #8
ARM GAS  C:\Users\MATEOC~1.QUE\AppData\Local\Temp\ccKG6PD9.s 			page 20


 607 00ae 1949     		ldr	r1, .L36+48
 608 00b0 1948     		ldr	r0, .L36+52
 609 00b2 FFF7FEFF 		bl	CYCONFIGCPY
 610              	.LVL54:
 464:Generated_Source\PSoC5/cyfitter_cfg.c **** 	CYCONFIGCPY((void CYFAR *)(CYREG_PRT2_DM0), (const void CYFAR *)(BS_IOPINS0_2_VAL), 8u);
 611              		.loc 1 464 0
 612 00b6 0822     		movs	r2, #8
 613 00b8 1849     		ldr	r1, .L36+56
 614 00ba 1948     		ldr	r0, .L36+60
 615 00bc FFF7FEFF 		bl	CYCONFIGCPY
 616              	.LVL55:
 465:Generated_Source\PSoC5/cyfitter_cfg.c **** 	CYCONFIGCPY((void CYFAR *)(CYREG_PRT3_DM0), (const void CYFAR *)(BS_IOPINS0_3_VAL), 8u);
 617              		.loc 1 465 0
 618 00c0 0822     		movs	r2, #8
 619 00c2 1849     		ldr	r1, .L36+64
 620 00c4 1848     		ldr	r0, .L36+68
 621 00c6 FFF7FEFF 		bl	CYCONFIGCPY
 622              	.LVL56:
 466:Generated_Source\PSoC5/cyfitter_cfg.c **** 	/* Switch Boost to the precision bandgap reference from its internal reference */
 467:Generated_Source\PSoC5/cyfitter_cfg.c **** 	CY_SET_REG8((void CYXDATA *)CYREG_BOOST_CR2, (CY_GET_REG8((void CYXDATA *)CYREG_BOOST_CR2) | 0x08u
 623              		.loc 1 467 0
 624 00ca 184A     		ldr	r2, .L36+72
 625 00cc 1378     		ldrb	r3, [r2]	@ zero_extendqisi2
 626 00ce 43F00803 		orr	r3, r3, #8
 627 00d2 1370     		strb	r3, [r2]
 468:Generated_Source\PSoC5/cyfitter_cfg.c **** 
 469:Generated_Source\PSoC5/cyfitter_cfg.c **** 	/* Perform basic analog initialization to defaults */
 470:Generated_Source\PSoC5/cyfitter_cfg.c **** 	AnalogSetDefault();
 628              		.loc 1 470 0
 629 00d4 FFF7FEFF 		bl	AnalogSetDefault
 630              	.LVL57:
 471:Generated_Source\PSoC5/cyfitter_cfg.c **** 
 472:Generated_Source\PSoC5/cyfitter_cfg.c **** 	/* Configure alternate active mode */
 473:Generated_Source\PSoC5/cyfitter_cfg.c **** 	CYCONFIGCPY((void CYFAR *)CYDEV_PM_STBY_BASE, (const void CYFAR *)CYDEV_PM_ACT_BASE, 14u);
 631              		.loc 1 473 0
 632 00d8 0E22     		movs	r2, #14
 633 00da 2146     		mov	r1, r4
 634 00dc 1448     		ldr	r0, .L36+76
 635 00de FFF7FEFF 		bl	CYCONFIGCPY
 636              	.LVL58:
 637 00e2 38BD     		pop	{r3, r4, r5, pc}
 638              	.L37:
 639              		.align	2
 640              	.L36:
 641 00e4 00480040 		.word	1073760256
 642 00e8 00000000 		.word	.LANCHOR0
 643 00ec AC000048 		.word	1207959724
 644 00f0 00760040 		.word	1073772032
 645 00f4 F00D0048 		.word	1207963120
 646 00f8 08760040 		.word	1073772040
 647 00fc 03500140 		.word	1073827843
 648 0100 A0430040 		.word	1073759136
 649 0104 C40D0048 		.word	1207963076
 650 0108 02510040 		.word	1073762562
 651 010c CC0D0048 		.word	1207963084
 652 0110 C0510040 		.word	1073762752
 653 0114 D80D0048 		.word	1207963096
ARM GAS  C:\Users\MATEOC~1.QUE\AppData\Local\Temp\ccKG6PD9.s 			page 21


 654 0118 12510040 		.word	1073762578
 655 011c E00D0048 		.word	1207963104
 656 0120 22510040 		.word	1073762594
 657 0124 E80D0048 		.word	1207963112
 658 0128 32510040 		.word	1073762610
 659 012c 22430040 		.word	1073759010
 660 0130 B0430040 		.word	1073759152
 661              		.cfi_endproc
 662              	.LFE8:
 663              		.size	cyfitter_cfg, .-cyfitter_cfg
 664              		.section	.rodata
 665              		.align	2
 666              		.set	.LANCHOR0,. + 0
 667              		.type	cfg_memset_list.5020, %object
 668              		.size	cfg_memset_list.5020, 48
 669              	cfg_memset_list.5020:
 670 0000 004F0040 		.word	1073762048
 671 0004 0C00     		.short	12
 672 0006 40510040 		.4byte	1073762624
 673 000a 3000     		.short	48
 674 000c F0510040 		.word	1073762800
 675 0010 1000     		.short	16
 676 0012 00000140 		.4byte	1073807360
 677 0016 0010     		.short	4096
 678 0018 00140140 		.word	1073812480
 679 001c 0008     		.short	2048
 680 001e 00400140 		.4byte	1073823744
 681 0022 000A     		.short	2560
 682 0024 004C0140 		.word	1073826816
 683 0028 0002     		.short	512
 684 002a 10500140 		.4byte	1073827856
 685 002e 1000     		.short	16
 686              		.type	cfg_memcpy_list.5021, %object
 687              		.size	cfg_memcpy_list.5021, 10
 688              	cfg_memcpy_list.5021:
 689 0030 00500140 		.word	1073827840
 690 0034 B40D0048 		.word	1207963060
 691 0038 1000     		.short	16
 692              		.text
 693              	.Letext0:
 694              		.file 2 "c:\\program files (x86)\\cypress\\psoc creator\\4.4\\psoc creator\\import\\gnu\\arm\\5.4.
 695              		.file 3 "Generated_Source\\PSoC5\\cytypes.h"
 696              		.file 4 "Generated_Source\\PSoC5\\CyLib.h"