ARM GAS  C:\Users\MATEOC~1.QUE\AppData\Local\Temp\ccHvU2Pe.s 			page 1


   1              		.syntax unified
   2              		.cpu cortex-m3
   3              		.fpu softvfp
   4              		.eabi_attribute 20, 1
   5              		.eabi_attribute 21, 1
   6              		.eabi_attribute 23, 3
   7              		.eabi_attribute 24, 1
   8              		.eabi_attribute 25, 1
   9              		.eabi_attribute 26, 1
  10              		.eabi_attribute 30, 1
  11              		.eabi_attribute 34, 1
  12              		.eabi_attribute 18, 4
  13              		.thumb
  14              		.syntax unified
  15              		.file	"main.c"
  16              		.text
  17              	.Ltext0:
  18              		.cfi_sections	.debug_frame
  19              		.section	.text.setTrafficLight,"ax",%progbits
  20              		.align	2
  21              		.global	setTrafficLight
  22              		.thumb
  23              		.thumb_func
  24              		.type	setTrafficLight, %function
  25              	setTrafficLight:
  26              	.LFB64:
  27              		.file 1 "source\\asw\\main.c"
   1:source\asw/main.c **** /**
   2:source\asw/main.c **** * \file main
   3:source\asw/main.c **** * \author Peter Fromm
   4:source\asw/main.c **** * \date 5.12.2019
   5:source\asw/main.c **** *
   6:source\asw/main.c **** * \brief Demonstrator for critical regions
   7:source\asw/main.c **** *
   8:source\asw/main.c **** */
   9:source\asw/main.c **** 
  10:source\asw/main.c **** #include "project.h"
  11:source\asw/main.c **** #include "global.h"
  12:source\asw/main.c **** 
  13:source\asw/main.c **** #include "button.h"
  14:source\asw/main.c **** #include "tft.h"
  15:source\asw/main.c **** #include "seven.h"
  16:source\asw/main.c **** #include "led.h"
  17:source\asw/main.c **** #include "joystick.h"
  18:source\asw/main.c **** 
  19:source\asw/main.c **** enum eeledColor
  20:source\asw/main.c **** {
  21:source\asw/main.c **** 
  22:source\asw/main.c ****     yellow,
  23:source\asw/main.c ****     red,
  24:source\asw/main.c ****     green
  25:source\asw/main.c **** 
  26:source\asw/main.c **** };
  27:source\asw/main.c **** 
  28:source\asw/main.c **** typedef enum eeledColor ledColor_t;
  29:source\asw/main.c **** 
  30:source\asw/main.c **** 
ARM GAS  C:\Users\MATEOC~1.QUE\AppData\Local\Temp\ccHvU2Pe.s 			page 2


  31:source\asw/main.c **** void setTrafficLight(uint16 delay, ledColor_t color)
  32:source\asw/main.c **** {
  28              		.loc 1 32 0
  29              		.cfi_startproc
  30              		@ args = 0, pretend = 0, frame = 0
  31              		@ frame_needed = 0, uses_anonymous_args = 0
  32              	.LVL0:
  33 0000 10B5     		push	{r4, lr}
  34              		.cfi_def_cfa_offset 8
  35              		.cfi_offset 4, -8
  36              		.cfi_offset 14, -4
  37 0002 0446     		mov	r4, r0
  33:source\asw/main.c ****     switch(color)
  38              		.loc 1 33 0
  39 0004 0129     		cmp	r1, #1
  40 0006 17D0     		beq	.L3
  41 0008 11B1     		cbz	r1, .L4
  42 000a 0229     		cmp	r1, #2
  43 000c 0AD0     		beq	.L5
  44 000e 1CE0     		b	.L2
  45              	.L4:
  34:source\asw/main.c ****     {
  35:source\asw/main.c ****         case yellow:
  36:source\asw/main.c ****             LED_green_Write(0);
  46              		.loc 1 36 0
  47 0010 0020     		movs	r0, #0
  48              	.LVL1:
  49 0012 FFF7FEFF 		bl	LED_green_Write
  50              	.LVL2:
  37:source\asw/main.c ****             LED_yellow_Write(1);
  51              		.loc 1 37 0
  52 0016 0120     		movs	r0, #1
  53 0018 FFF7FEFF 		bl	LED_yellow_Write
  54              	.LVL3:
  38:source\asw/main.c ****             LED_red_Write(0);
  55              		.loc 1 38 0
  56 001c 0020     		movs	r0, #0
  57 001e FFF7FEFF 		bl	LED_red_Write
  58              	.LVL4:
  39:source\asw/main.c ****         break;
  59              		.loc 1 39 0
  60 0022 12E0     		b	.L2
  61              	.LVL5:
  62              	.L5:
  40:source\asw/main.c ****             
  41:source\asw/main.c ****         case green:
  42:source\asw/main.c ****             LED_green_Write(1);
  63              		.loc 1 42 0
  64 0024 0120     		movs	r0, #1
  65              	.LVL6:
  66 0026 FFF7FEFF 		bl	LED_green_Write
  67              	.LVL7:
  43:source\asw/main.c ****             LED_yellow_Write(0);
  68              		.loc 1 43 0
  69 002a 0020     		movs	r0, #0
  70 002c FFF7FEFF 		bl	LED_yellow_Write
  71              	.LVL8:
ARM GAS  C:\Users\MATEOC~1.QUE\AppData\Local\Temp\ccHvU2Pe.s 			page 3


  44:source\asw/main.c ****             LED_red_Write(0);
  72              		.loc 1 44 0
  73 0030 0020     		movs	r0, #0
  74 0032 FFF7FEFF 		bl	LED_red_Write
  75              	.LVL9:
  45:source\asw/main.c ****         break;
  76              		.loc 1 45 0
  77 0036 08E0     		b	.L2
  78              	.LVL10:
  79              	.L3:
  46:source\asw/main.c **** 
  47:source\asw/main.c **** 
  48:source\asw/main.c ****         case red:
  49:source\asw/main.c ****             LED_green_Write(0);
  80              		.loc 1 49 0
  81 0038 0020     		movs	r0, #0
  82              	.LVL11:
  83 003a FFF7FEFF 		bl	LED_green_Write
  84              	.LVL12:
  50:source\asw/main.c ****             LED_yellow_Write(0);
  85              		.loc 1 50 0
  86 003e 0020     		movs	r0, #0
  87 0040 FFF7FEFF 		bl	LED_yellow_Write
  88              	.LVL13:
  51:source\asw/main.c ****             LED_red_Write(1);
  89              		.loc 1 51 0
  90 0044 0120     		movs	r0, #1
  91 0046 FFF7FEFF 		bl	LED_red_Write
  92              	.LVL14:
  93              	.L2:
  52:source\asw/main.c ****         break;
  53:source\asw/main.c ****         
  54:source\asw/main.c ****     }
  55:source\asw/main.c ****     CyDelay(delay*1000);
  94              		.loc 1 55 0
  95 004a 4FF47A70 		mov	r0, #1000
  96 004e 00FB04F0 		mul	r0, r0, r4
  97 0052 FFF7FEFF 		bl	CyDelay
  98              	.LVL15:
  99 0056 10BD     		pop	{r4, pc}
 100              		.cfi_endproc
 101              	.LFE64:
 102              		.size	setTrafficLight, .-setTrafficLight
 103              		.section	.text.main,"ax",%progbits
 104              		.align	2
 105              		.global	main
 106              		.thumb
 107              		.thumb_func
 108              		.type	main, %function
 109              	main:
 110              	.LFB65:
  56:source\asw/main.c **** }
  57:source\asw/main.c **** 
  58:source\asw/main.c **** 
  59:source\asw/main.c **** 
  60:source\asw/main.c **** int main()
  61:source\asw/main.c **** {
ARM GAS  C:\Users\MATEOC~1.QUE\AppData\Local\Temp\ccHvU2Pe.s 			page 4


 111              		.loc 1 61 0
 112              		.cfi_startproc
 113              		@ args = 0, pretend = 0, frame = 16
 114              		@ frame_needed = 0, uses_anonymous_args = 0
 115 0000 10B5     		push	{r4, lr}
 116              		.cfi_def_cfa_offset 8
 117              		.cfi_offset 4, -8
 118              		.cfi_offset 14, -4
 119 0002 84B0     		sub	sp, sp, #16
 120              		.cfi_def_cfa_offset 24
  62:source\asw/main.c ****     CyGlobalIntEnable; /* Enable global interrupts. */
 121              		.loc 1 62 0
 122              		.syntax unified
 123              	@ 62 "source\asw\main.c" 1
 124 0004 62B6     		CPSIE   i
 125              	@ 0 "" 2
  63:source\asw/main.c **** 
  64:source\asw/main.c ****     LED_Init();
 126              		.loc 1 64 0
 127              		.thumb
 128              		.syntax unified
 129 0006 FFF7FEFF 		bl	LED_Init
 130              	.LVL16:
 131              	.L24:
 132              	.LBB2:
  65:source\asw/main.c ****    
  66:source\asw/main.c ****     // Start Operating System
  67:source\asw/main.c ****     for(;;)
  68:source\asw/main.c ****     {
  69:source\asw/main.c ****         //setTrafficLight(2,yellow);
  70:source\asw/main.c ****         //setTrafficLight(5,green);
  71:source\asw/main.c ****         //setTrafficLight(2,yellow);
  72:source\asw/main.c ****         //setTrafficLight(3,red);
  73:source\asw/main.c ****         
  74:source\asw/main.c **** //        for (int i = 0; i <= 255; i++) {
  75:source\asw/main.c **** //            LED_RGB_Set(i,i,i);        
  76:source\asw/main.c **** //            // Add a delay to control the fading speed
  77:source\asw/main.c **** //            // This delay may need adjustment based on your specific requirements
  78:source\asw/main.c **** //            for (volatile int delay = 0; delay < 10000; delay++);
  79:source\asw/main.c **** //        }
  80:source\asw/main.c **** //        for (int i = 255; i >= 0; i--) {
  81:source\asw/main.c **** //            LED_RGB_Set(i,i,i);        
  82:source\asw/main.c **** //            // Add a delay to control the fading speed
  83:source\asw/main.c **** //            // This delay may need adjustment based on your specific requirements
  84:source\asw/main.c **** //            for (volatile int delay = 0; delay < 10000; delay++);
  85:source\asw/main.c **** //        }
  86:source\asw/main.c ****         
  87:source\asw/main.c ****         
  88:source\asw/main.c ****         
  89:source\asw/main.c ****                 for (int i = 0; i <= 255; i++) {
 133              		.loc 1 89 0
 134 000a 0024     		movs	r4, #0
 135 000c 1CE0     		b	.L8
 136              	.LVL17:
 137              	.L13:
  90:source\asw/main.c ****             if (i <= 127) {
 138              		.loc 1 90 0
ARM GAS  C:\Users\MATEOC~1.QUE\AppData\Local\Temp\ccHvU2Pe.s 			page 5


 139 000e 7F2C     		cmp	r4, #127
 140 0010 05DC     		bgt	.L9
  91:source\asw/main.c ****                 // Red is fading in
  92:source\asw/main.c ****                 LED_RGB_Set(i, 0, 0);
 141              		.loc 1 92 0
 142 0012 0022     		movs	r2, #0
 143 0014 1146     		mov	r1, r2
 144 0016 E0B2     		uxtb	r0, r4
 145 0018 FFF7FEFF 		bl	LED_RGB_Set
 146              	.LVL18:
 147 001c 08E0     		b	.L10
 148              	.L9:
  93:source\asw/main.c ****             } else {
  94:source\asw/main.c ****                 // Green is fading in while Red is fading out
  95:source\asw/main.c ****                 LED_RGB_Set(255 - i, i - 127, 0);
 149              		.loc 1 95 0
 150 001e E0B2     		uxtb	r0, r4
 151 0020 A0F17F01 		sub	r1, r0, #127
 152 0024 C043     		mvns	r0, r0
 153 0026 0022     		movs	r2, #0
 154 0028 C9B2     		uxtb	r1, r1
 155 002a C0B2     		uxtb	r0, r0
 156 002c FFF7FEFF 		bl	LED_RGB_Set
 157              	.LVL19:
 158              	.L10:
 159              	.LBB3:
  96:source\asw/main.c ****             }
  97:source\asw/main.c **** 
  98:source\asw/main.c ****             // Add a delay to control the fading speed
  99:source\asw/main.c ****             // This delay may need adjustment based on your specific requirements
 100:source\asw/main.c ****             for (volatile int delay = 0; delay < 10000; delay++);
 160              		.loc 1 100 0
 161 0030 0023     		movs	r3, #0
 162 0032 0193     		str	r3, [sp, #4]
 163 0034 02E0     		b	.L11
 164              	.L12:
 165              		.loc 1 100 0 is_stmt 0 discriminator 3
 166 0036 019B     		ldr	r3, [sp, #4]
 167 0038 0133     		adds	r3, r3, #1
 168 003a 0193     		str	r3, [sp, #4]
 169              	.L11:
 170              		.loc 1 100 0 discriminator 1
 171 003c 019A     		ldr	r2, [sp, #4]
 172 003e 42F20F73 		movw	r3, #9999
 173 0042 9A42     		cmp	r2, r3
 174 0044 F7DD     		ble	.L12
 175              	.LBE3:
  89:source\asw/main.c ****             if (i <= 127) {
 176              		.loc 1 89 0 is_stmt 1 discriminator 2
 177 0046 0134     		adds	r4, r4, #1
 178              	.LVL20:
 179              	.L8:
  89:source\asw/main.c ****             if (i <= 127) {
 180              		.loc 1 89 0 is_stmt 0 discriminator 1
 181 0048 FF2C     		cmp	r4, #255
 182 004a E0DD     		ble	.L13
 183 004c FF24     		movs	r4, #255
ARM GAS  C:\Users\MATEOC~1.QUE\AppData\Local\Temp\ccHvU2Pe.s 			page 6


 184              	.LVL21:
 185 004e 1DE0     		b	.L14
 186              	.LVL22:
 187              	.L19:
 188              	.LBE2:
 189              	.LBB4:
 101:source\asw/main.c ****         }
 102:source\asw/main.c **** 
 103:source\asw/main.c ****         // Fade out
 104:source\asw/main.c ****         for (int i = 255; i >= 0; i--) {
 105:source\asw/main.c ****             if (i <= 127) {
 190              		.loc 1 105 0 is_stmt 1
 191 0050 7F2C     		cmp	r4, #127
 192 0052 06DC     		bgt	.L15
 106:source\asw/main.c ****                 // Green is fading out
 107:source\asw/main.c ****                 LED_RGB_Set(255 - i, i, 0);
 193              		.loc 1 107 0
 194 0054 E1B2     		uxtb	r1, r4
 195 0056 C843     		mvns	r0, r1
 196 0058 0022     		movs	r2, #0
 197 005a C0B2     		uxtb	r0, r0
 198 005c FFF7FEFF 		bl	LED_RGB_Set
 199              	.LVL23:
 200 0060 08E0     		b	.L16
 201              	.L15:
 108:source\asw/main.c ****             } else {
 109:source\asw/main.c ****                 // Blue is fading in while Green is fading out
 110:source\asw/main.c ****                 LED_RGB_Set(0, 255 - i, i - 127);
 202              		.loc 1 110 0
 203 0062 E1B2     		uxtb	r1, r4
 204 0064 A1F17F02 		sub	r2, r1, #127
 205 0068 C943     		mvns	r1, r1
 206 006a D2B2     		uxtb	r2, r2
 207 006c C9B2     		uxtb	r1, r1
 208 006e 0020     		movs	r0, #0
 209 0070 FFF7FEFF 		bl	LED_RGB_Set
 210              	.LVL24:
 211              	.L16:
 212              	.LBB5:
 111:source\asw/main.c ****             }
 112:source\asw/main.c **** 
 113:source\asw/main.c ****             // Add a delay to control the fading speed
 114:source\asw/main.c ****             // This delay may need adjustment based on your specific requirements
 115:source\asw/main.c ****             for (volatile int delay = 0; delay < 10000; delay++);
 213              		.loc 1 115 0
 214 0074 0023     		movs	r3, #0
 215 0076 0293     		str	r3, [sp, #8]
 216 0078 02E0     		b	.L17
 217              	.L18:
 218              		.loc 1 115 0 is_stmt 0 discriminator 3
 219 007a 029B     		ldr	r3, [sp, #8]
 220 007c 0133     		adds	r3, r3, #1
 221 007e 0293     		str	r3, [sp, #8]
 222              	.L17:
 223              		.loc 1 115 0 discriminator 1
 224 0080 029A     		ldr	r2, [sp, #8]
 225 0082 42F20F73 		movw	r3, #9999
ARM GAS  C:\Users\MATEOC~1.QUE\AppData\Local\Temp\ccHvU2Pe.s 			page 7


 226 0086 9A42     		cmp	r2, r3
 227 0088 F7DD     		ble	.L18
 228              	.LBE5:
 104:source\asw/main.c ****             if (i <= 127) {
 229              		.loc 1 104 0 is_stmt 1 discriminator 2
 230 008a 013C     		subs	r4, r4, #1
 231              	.LVL25:
 232              	.L14:
 104:source\asw/main.c ****             if (i <= 127) {
 233              		.loc 1 104 0 is_stmt 0 discriminator 1
 234 008c 002C     		cmp	r4, #0
 235 008e DFDA     		bge	.L19
 236 0090 FF24     		movs	r4, #255
 237              	.LVL26:
 238 0092 11E0     		b	.L20
 239              	.LVL27:
 240              	.L23:
 241              	.LBE4:
 242              	.LBB6:
 116:source\asw/main.c ****         }
 117:source\asw/main.c **** 
 118:source\asw/main.c ****         // Fade out blue (final stage)
 119:source\asw/main.c ****         for (int i = 255; i >= 0; i--) {
 120:source\asw/main.c ****             // Blue is fading out
 121:source\asw/main.c ****             LED_RGB_Set(0, 255 - i, i);
 243              		.loc 1 121 0 is_stmt 1
 244 0094 E2B2     		uxtb	r2, r4
 245 0096 D143     		mvns	r1, r2
 246 0098 C9B2     		uxtb	r1, r1
 247 009a 0020     		movs	r0, #0
 248 009c FFF7FEFF 		bl	LED_RGB_Set
 249              	.LVL28:
 250              	.LBB7:
 122:source\asw/main.c **** 
 123:source\asw/main.c ****             // Add a delay to control the fading speed
 124:source\asw/main.c ****             // This delay may need adjustment based on your specific requirements
 125:source\asw/main.c ****             for (volatile int delay = 0; delay < 10000; delay++);
 251              		.loc 1 125 0
 252 00a0 0023     		movs	r3, #0
 253 00a2 0393     		str	r3, [sp, #12]
 254 00a4 02E0     		b	.L21
 255              	.L22:
 256              		.loc 1 125 0 is_stmt 0 discriminator 3
 257 00a6 039B     		ldr	r3, [sp, #12]
 258 00a8 0133     		adds	r3, r3, #1
 259 00aa 0393     		str	r3, [sp, #12]
 260              	.L21:
 261              		.loc 1 125 0 discriminator 1
 262 00ac 039A     		ldr	r2, [sp, #12]
 263 00ae 42F20F73 		movw	r3, #9999
 264 00b2 9A42     		cmp	r2, r3
 265 00b4 F7DD     		ble	.L22
 266              	.LBE7:
 119:source\asw/main.c ****             // Blue is fading out
 267              		.loc 1 119 0 is_stmt 1 discriminator 2
 268 00b6 013C     		subs	r4, r4, #1
 269              	.LVL29:
ARM GAS  C:\Users\MATEOC~1.QUE\AppData\Local\Temp\ccHvU2Pe.s 			page 8


 270              	.L20:
 119:source\asw/main.c ****             // Blue is fading out
 271              		.loc 1 119 0 is_stmt 0 discriminator 1
 272 00b8 002C     		cmp	r4, #0
 273 00ba EBDA     		bge	.L23
 274              	.LBE6:
 126:source\asw/main.c ****         }
 127:source\asw/main.c ****         
 128:source\asw/main.c ****         CyDelay(500);
 275              		.loc 1 128 0 is_stmt 1
 276 00bc 4FF4FA70 		mov	r0, #500
 277 00c0 FFF7FEFF 		bl	CyDelay
 278              	.LVL30:
 129:source\asw/main.c ****     }
 279              		.loc 1 129 0
 280 00c4 A1E7     		b	.L24
 281              		.cfi_endproc
 282              	.LFE65:
 283              		.size	main, .-main
 284 00c6 00BF     		.text
 285              	.Letext0:
 286              		.file 2 "c:\\program files (x86)\\cypress\\psoc creator\\4.4\\psoc creator\\import\\gnu\\arm\\5.4.
 287              		.file 3 "c:\\program files (x86)\\cypress\\psoc creator\\4.4\\psoc creator\\import\\gnu\\arm\\5.4.
 288              		.file 4 "Generated_Source\\PSoC5/cytypes.h"
 289              		.file 5 "Generated_Source\\PSoC5/LED_green.h"
 290              		.file 6 "Generated_Source\\PSoC5/LED_yellow.h"
 291              		.file 7 "Generated_Source\\PSoC5/LED_red.h"
 292              		.file 8 "Generated_Source\\PSoC5/CyLib.h"
 293              		.file 9 ".\\source\\bsw\\LabBoard/led.h"
 294              		.file 10 "Generated_Source\\PSoC5/core_cm3.h"