ARM GAS  C:\Users\MATEOC~1.QUE\AppData\Local\Temp\ccLVsgDF.s 			page 1


   1              		.syntax unified
   2              		.cpu cortex-m3
   3              		.fpu softvfp
   4              		.eabi_attribute 20, 1
   5              		.eabi_attribute 21, 1
   6              		.eabi_attribute 23, 3
   7              		.eabi_attribute 24, 1
   8              		.eabi_attribute 25, 1
   9              		.eabi_attribute 26, 1
  10              		.eabi_attribute 30, 1
  11              		.eabi_attribute 34, 1
  12              		.eabi_attribute 18, 4
  13              		.thumb
  14              		.syntax unified
  15              		.file	"button.c"
  16              		.text
  17              	.Ltext0:
  18              		.cfi_sections	.debug_frame
  19              		.section	.text.BUTTON_Init,"ax",%progbits
  20              		.align	2
  21              		.global	BUTTON_Init
  22              		.thumb
  23              		.thumb_func
  24              		.type	BUTTON_Init, %function
  25              	BUTTON_Init:
  26              	.LFB63:
  27              		.file 1 "source\\bsw\\LabBoard\\button.c"
   1:source\bsw\LabBoard/button.c **** /**
   2:source\bsw\LabBoard/button.c **** * \file button.c
   3:source\bsw\LabBoard/button.c **** * \author P. Fromm
   4:source\bsw\LabBoard/button.c **** * \date 29.7.17
   5:source\bsw\LabBoard/button.c **** *
   6:source\bsw\LabBoard/button.c **** * \brief Simple button driver
   7:source\bsw\LabBoard/button.c **** *
   8:source\bsw\LabBoard/button.c **** * \copyright Copyright ©2016
   9:source\bsw\LabBoard/button.c **** * Department of electrical engineering and information technology, Hochschule Darmstadt - Universit
  10:source\bsw\LabBoard/button.c **** * Permission to use, copy, modify, and distribute this software and its documentation for education
  11:source\bsw\LabBoard/button.c **** * (unless permitted by h_da) and official h_da projects, is hereby granted for enrolled students of
  12:source\bsw\LabBoard/button.c **** * this paragraph and the following paragraph appear in all copies, modifications, and distributions
  13:source\bsw\LabBoard/button.c **** * Contact Prof.Dr.-Ing. Peter Fromm, peter.fromm@h-da.de, Birkenweg 8 64295 Darmstadt - GERMANY for
  14:source\bsw\LabBoard/button.c **** *
  15:source\bsw\LabBoard/button.c **** * \warning This software is a PROTOTYPE version and is not designed or intended for use in producti
  16:source\bsw\LabBoard/button.c **** * The user represents and warrants that it will NOT use or redistribute the Software for such purpo
  17:source\bsw\LabBoard/button.c **** * This prototype is for research purposes only. This software is provided "AS IS," without a warran
  18:source\bsw\LabBoard/button.c **** */
  19:source\bsw\LabBoard/button.c **** 
  20:source\bsw\LabBoard/button.c **** /*****************************************************************************/
  21:source\bsw\LabBoard/button.c **** /* Include files                                                             */
  22:source\bsw\LabBoard/button.c **** /*****************************************************************************/
  23:source\bsw\LabBoard/button.c **** #include "project.h"
  24:source\bsw\LabBoard/button.c **** #include "button.h"
  25:source\bsw\LabBoard/button.c **** 
  26:source\bsw\LabBoard/button.c **** 
  27:source\bsw\LabBoard/button.c **** #include "button_3.h"
  28:source\bsw\LabBoard/button.c **** 
  29:source\bsw\LabBoard/button.c **** 
  30:source\bsw\LabBoard/button.c **** 
ARM GAS  C:\Users\MATEOC~1.QUE\AppData\Local\Temp\ccLVsgDF.s 			page 2


  31:source\bsw\LabBoard/button.c **** /*****************************************************************************/
  32:source\bsw\LabBoard/button.c **** /* Local pre-processor symbols/macros ('#define')                            */
  33:source\bsw\LabBoard/button.c **** /*****************************************************************************/
  34:source\bsw\LabBoard/button.c **** 
  35:source\bsw\LabBoard/button.c **** /*****************************************************************************/
  36:source\bsw\LabBoard/button.c **** /* Global variable definitions (declared in header file with 'extern')       */
  37:source\bsw\LabBoard/button.c **** /*****************************************************************************/
  38:source\bsw\LabBoard/button.c **** 
  39:source\bsw\LabBoard/button.c **** /*****************************************************************************/
  40:source\bsw\LabBoard/button.c **** /* Local type definitions ('typedef')                                        */
  41:source\bsw\LabBoard/button.c **** /*****************************************************************************/
  42:source\bsw\LabBoard/button.c **** 
  43:source\bsw\LabBoard/button.c **** /*****************************************************************************/
  44:source\bsw\LabBoard/button.c **** /* Local variable definitions ('static')                                     */
  45:source\bsw\LabBoard/button.c **** /*****************************************************************************/
  46:source\bsw\LabBoard/button.c **** 
  47:source\bsw\LabBoard/button.c **** 
  48:source\bsw\LabBoard/button.c **** 
  49:source\bsw\LabBoard/button.c **** /*****************************************************************************/
  50:source\bsw\LabBoard/button.c **** /* Local function prototypes ('static')                                      */
  51:source\bsw\LabBoard/button.c **** /*****************************************************************************/
  52:source\bsw\LabBoard/button.c **** 
  53:source\bsw\LabBoard/button.c **** 
  54:source\bsw\LabBoard/button.c **** /*****************************************************************************/
  55:source\bsw\LabBoard/button.c **** /* Function implementation - global ('extern') and local ('static')          */
  56:source\bsw\LabBoard/button.c **** /*****************************************************************************/
  57:source\bsw\LabBoard/button.c **** 
  58:source\bsw\LabBoard/button.c **** /**
  59:source\bsw\LabBoard/button.c ****  * Initialize Button
  60:source\bsw\LabBoard/button.c ****  * @return RC_SUCCESS if ok
  61:source\bsw\LabBoard/button.c ****  */
  62:source\bsw\LabBoard/button.c **** RC_t BUTTON_Init(cyisraddress address)
  63:source\bsw\LabBoard/button.c **** {
  28              		.loc 1 63 0
  29              		.cfi_startproc
  30              		@ args = 0, pretend = 0, frame = 0
  31              		@ frame_needed = 0, uses_anonymous_args = 0
  32              	.LVL0:
  64:source\bsw\LabBoard/button.c ****  
  65:source\bsw\LabBoard/button.c ****     if (address != 0)
  33              		.loc 1 65 0
  34 0000 20B1     		cbz	r0, .L4
  63:source\bsw\LabBoard/button.c ****  
  35              		.loc 1 63 0
  36 0002 08B5     		push	{r3, lr}
  37              		.cfi_def_cfa_offset 8
  38              		.cfi_offset 3, -8
  39              		.cfi_offset 14, -4
  40              	.LBB2:
  66:source\bsw\LabBoard/button.c ****     {
  67:source\bsw\LabBoard/button.c ****         isr_Button_StartEx(address);
  41              		.loc 1 67 0
  42 0004 FFF7FEFF 		bl	isr_Button_StartEx
  43              	.LVL1:
  44              	.LBE2:
  68:source\bsw\LabBoard/button.c ****     }
  69:source\bsw\LabBoard/button.c ****     
ARM GAS  C:\Users\MATEOC~1.QUE\AppData\Local\Temp\ccLVsgDF.s 			page 3


  70:source\bsw\LabBoard/button.c ****     return RC_SUCCESS;
  71:source\bsw\LabBoard/button.c **** }
  45              		.loc 1 71 0
  46 0008 0020     		movs	r0, #0
  47 000a 08BD     		pop	{r3, pc}
  48              	.LVL2:
  49              	.L4:
  50              		.cfi_def_cfa_offset 0
  51              		.cfi_restore 3
  52              		.cfi_restore 14
  53 000c 0020     		movs	r0, #0
  54              	.LVL3:
  55 000e 7047     		bx	lr
  56              		.cfi_endproc
  57              	.LFE63:
  58              		.size	BUTTON_Init, .-BUTTON_Init
  59              		.section	.text.BUTTON_IsPressed,"ax",%progbits
  60              		.align	2
  61              		.global	BUTTON_IsPressed
  62              		.thumb
  63              		.thumb_func
  64              		.type	BUTTON_IsPressed, %function
  65              	BUTTON_IsPressed:
  66              	.LFB64:
  72:source\bsw\LabBoard/button.c **** 
  73:source\bsw\LabBoard/button.c **** /**
  74:source\bsw\LabBoard/button.c ****  * Initialize Button
  75:source\bsw\LabBoard/button.c ****  * @param BUTTON_id_t button - check if the corresponding button is pressed
  76:source\bsw\LabBoard/button.c ****  * @return TRUE if button is pressed
  77:source\bsw\LabBoard/button.c ****  */
  78:source\bsw\LabBoard/button.c **** boolean_t BUTTON_IsPressed(BUTTON_id_t button)
  79:source\bsw\LabBoard/button.c **** {
  67              		.loc 1 79 0
  68              		.cfi_startproc
  69              		@ args = 0, pretend = 0, frame = 0
  70              		@ frame_needed = 0, uses_anonymous_args = 0
  71              	.LVL4:
  72 0000 08B5     		push	{r3, lr}
  73              		.cfi_def_cfa_offset 8
  74              		.cfi_offset 3, -8
  75              		.cfi_offset 14, -4
  76              	.LVL5:
  80:source\bsw\LabBoard/button.c ****     boolean_t result = FALSE;
  81:source\bsw\LabBoard/button.c ****     
  82:source\bsw\LabBoard/button.c ****     switch (button)
  77              		.loc 1 82 0
  78 0002 0328     		cmp	r0, #3
  79 0004 1BD8     		bhi	.L12
  80 0006 DFE800F0 		tbb	[pc, r0]
  81              	.L8:
  82 000a 02       		.byte	(.L7-.L8)/2
  83 000b 08       		.byte	(.L9-.L8)/2
  84 000c 0E       		.byte	(.L10-.L8)/2
  85 000d 14       		.byte	(.L11-.L8)/2
  86              		.p2align 1
  87              	.L7:
  88              	.LBB3:
ARM GAS  C:\Users\MATEOC~1.QUE\AppData\Local\Temp\ccLVsgDF.s 			page 4


  83:source\bsw\LabBoard/button.c ****     {
  84:source\bsw\LabBoard/button.c ****         case BUTTON_1 : if (BUTTON_1_Read() == 1) result = TRUE; break;
  89              		.loc 1 84 0
  90 000e FFF7FEFF 		bl	BUTTON_1_Read
  91              	.LVL6:
  92 0012 0128     		cmp	r0, #1
  93 0014 15D0     		beq	.L13
  94              	.LBE3:
  80:source\bsw\LabBoard/button.c ****     boolean_t result = FALSE;
  95              		.loc 1 80 0
  96 0016 0020     		movs	r0, #0
  97 0018 08BD     		pop	{r3, pc}
  98              	.LVL7:
  99              	.L9:
 100              	.LBB4:
  85:source\bsw\LabBoard/button.c ****         case BUTTON_2 : if (BUTTON_2_Read() == 1) result = TRUE; break;
 101              		.loc 1 85 0
 102 001a FFF7FEFF 		bl	BUTTON_2_Read
 103              	.LVL8:
 104 001e 0128     		cmp	r0, #1
 105 0020 11D0     		beq	.L14
 106              	.LBE4:
  80:source\bsw\LabBoard/button.c ****     boolean_t result = FALSE;
 107              		.loc 1 80 0
 108 0022 0020     		movs	r0, #0
 109 0024 08BD     		pop	{r3, pc}
 110              	.LVL9:
 111              	.L10:
  86:source\bsw\LabBoard/button.c ****         case BUTTON_3 : if (BUTTON_3_Read() == 1) result = TRUE; break;
 112              		.loc 1 86 0
 113 0026 FFF7FEFF 		bl	BUTTON_3_Read
 114              	.LVL10:
 115 002a 0128     		cmp	r0, #1
 116 002c 0DD0     		beq	.L15
  80:source\bsw\LabBoard/button.c ****     
 117              		.loc 1 80 0
 118 002e 0020     		movs	r0, #0
 119 0030 08BD     		pop	{r3, pc}
 120              	.LVL11:
 121              	.L11:
 122              	.LBB5:
  87:source\bsw\LabBoard/button.c ****         case BUTTON_4 : if (BUTTON_4_Read() == 1) result = TRUE; break;
 123              		.loc 1 87 0
 124 0032 FFF7FEFF 		bl	BUTTON_4_Read
 125              	.LVL12:
 126 0036 0128     		cmp	r0, #1
 127 0038 09D0     		beq	.L16
 128              	.LBE5:
  80:source\bsw\LabBoard/button.c ****     
 129              		.loc 1 80 0
 130 003a 0020     		movs	r0, #0
 131 003c 08BD     		pop	{r3, pc}
 132              	.LVL13:
 133              	.L12:
 134 003e 0020     		movs	r0, #0
 135              	.LVL14:
 136 0040 08BD     		pop	{r3, pc}
ARM GAS  C:\Users\MATEOC~1.QUE\AppData\Local\Temp\ccLVsgDF.s 			page 5


 137              	.L13:
 138              	.LBB6:
  84:source\bsw\LabBoard/button.c ****         case BUTTON_2 : if (BUTTON_2_Read() == 1) result = TRUE; break;
 139              		.loc 1 84 0
 140 0042 0120     		movs	r0, #1
 141 0044 08BD     		pop	{r3, pc}
 142              	.L14:
 143              	.LBE6:
 144              	.LBB7:
  85:source\bsw\LabBoard/button.c ****         case BUTTON_3 : if (BUTTON_3_Read() == 1) result = TRUE; break;
 145              		.loc 1 85 0
 146 0046 0120     		movs	r0, #1
 147 0048 08BD     		pop	{r3, pc}
 148              	.L15:
 149              	.LBE7:
  86:source\bsw\LabBoard/button.c ****         case BUTTON_4 : if (BUTTON_4_Read() == 1) result = TRUE; break;
 150              		.loc 1 86 0
 151 004a 0120     		movs	r0, #1
 152 004c 08BD     		pop	{r3, pc}
 153              	.L16:
 154              	.LBB8:
 155              		.loc 1 87 0
 156 004e 0120     		movs	r0, #1
 157              	.LVL15:
 158              	.LBE8:
  88:source\bsw\LabBoard/button.c ****     }
  89:source\bsw\LabBoard/button.c ****     
  90:source\bsw\LabBoard/button.c ****     return result;
  91:source\bsw\LabBoard/button.c **** }
 159              		.loc 1 91 0
 160 0050 08BD     		pop	{r3, pc}
 161              		.cfi_endproc
 162              	.LFE64:
 163              		.size	BUTTON_IsPressed, .-BUTTON_IsPressed
 164 0052 00BF     		.text
 165              	.Letext0:
 166              		.file 2 "c:\\program files (x86)\\cypress\\psoc creator\\4.4\\psoc creator\\import\\gnu\\arm\\5.4.
 167              		.file 3 "c:\\program files (x86)\\cypress\\psoc creator\\4.4\\psoc creator\\import\\gnu\\arm\\5.4.
 168              		.file 4 "Generated_Source\\PSoC5/cytypes.h"
 169              		.file 5 ".\\source\\bsw/global.h"
 170              		.file 6 "source\\bsw\\LabBoard\\button.h"
 171              		.file 7 "Generated_Source\\PSoC5/BUTTON_3.h"
 172              		.file 8 "Generated_Source\\PSoC5/core_cm3.h"