ARM GAS  C:\Users\MATEOC~1.QUE\AppData\Local\Temp\cc1zHSu4.s 			page 1


   1              		.syntax unified
   2              		.cpu cortex-m3
   3              		.fpu softvfp
   4              		.eabi_attribute 20, 1
   5              		.eabi_attribute 21, 1
   6              		.eabi_attribute 23, 3
   7              		.eabi_attribute 24, 1
   8              		.eabi_attribute 25, 1
   9              		.eabi_attribute 26, 1
  10              		.eabi_attribute 30, 1
  11              		.eabi_attribute 34, 1
  12              		.eabi_attribute 18, 4
  13              		.thumb
  14              		.syntax unified
  15              		.file	"TFT_BackLight_PM.c"
  16              		.text
  17              	.Ltext0:
  18              		.cfi_sections	.debug_frame
  19              		.section	.text.TFT_BackLight_SaveConfig,"ax",%progbits
  20              		.align	2
  21              		.global	TFT_BackLight_SaveConfig
  22              		.thumb
  23              		.thumb_func
  24              		.type	TFT_BackLight_SaveConfig, %function
  25              	TFT_BackLight_SaveConfig:
  26              	.LFB0:
  27              		.file 1 "Generated_Source\\PSoC5\\TFT_BackLight_PM.c"
   1:Generated_Source\PSoC5/TFT_BackLight_PM.c **** /*******************************************************************************
   2:Generated_Source\PSoC5/TFT_BackLight_PM.c **** * File Name: TFT_BackLight_PM.c
   3:Generated_Source\PSoC5/TFT_BackLight_PM.c **** * Version 3.30
   4:Generated_Source\PSoC5/TFT_BackLight_PM.c **** *
   5:Generated_Source\PSoC5/TFT_BackLight_PM.c **** * Description:
   6:Generated_Source\PSoC5/TFT_BackLight_PM.c **** *  This file provides the power management source code to API for the
   7:Generated_Source\PSoC5/TFT_BackLight_PM.c **** *  PWM.
   8:Generated_Source\PSoC5/TFT_BackLight_PM.c **** *
   9:Generated_Source\PSoC5/TFT_BackLight_PM.c **** * Note:
  10:Generated_Source\PSoC5/TFT_BackLight_PM.c **** *
  11:Generated_Source\PSoC5/TFT_BackLight_PM.c **** ********************************************************************************
  12:Generated_Source\PSoC5/TFT_BackLight_PM.c **** * Copyright 2008-2014, Cypress Semiconductor Corporation.  All rights reserved.
  13:Generated_Source\PSoC5/TFT_BackLight_PM.c **** * You may use this file only in accordance with the license, terms, conditions,
  14:Generated_Source\PSoC5/TFT_BackLight_PM.c **** * disclaimers, and limitations in the end user license agreement accompanying
  15:Generated_Source\PSoC5/TFT_BackLight_PM.c **** * the software package with which this file was provided.
  16:Generated_Source\PSoC5/TFT_BackLight_PM.c **** *******************************************************************************/
  17:Generated_Source\PSoC5/TFT_BackLight_PM.c **** 
  18:Generated_Source\PSoC5/TFT_BackLight_PM.c **** #include "TFT_BackLight.h"
  19:Generated_Source\PSoC5/TFT_BackLight_PM.c **** 
  20:Generated_Source\PSoC5/TFT_BackLight_PM.c **** static TFT_BackLight_backupStruct TFT_BackLight_backup;
  21:Generated_Source\PSoC5/TFT_BackLight_PM.c **** 
  22:Generated_Source\PSoC5/TFT_BackLight_PM.c **** 
  23:Generated_Source\PSoC5/TFT_BackLight_PM.c **** /*******************************************************************************
  24:Generated_Source\PSoC5/TFT_BackLight_PM.c **** * Function Name: TFT_BackLight_SaveConfig
  25:Generated_Source\PSoC5/TFT_BackLight_PM.c **** ********************************************************************************
  26:Generated_Source\PSoC5/TFT_BackLight_PM.c **** *
  27:Generated_Source\PSoC5/TFT_BackLight_PM.c **** * Summary:
  28:Generated_Source\PSoC5/TFT_BackLight_PM.c **** *  Saves the current user configuration of the component.
  29:Generated_Source\PSoC5/TFT_BackLight_PM.c **** *
  30:Generated_Source\PSoC5/TFT_BackLight_PM.c **** * Parameters:
ARM GAS  C:\Users\MATEOC~1.QUE\AppData\Local\Temp\cc1zHSu4.s 			page 2


  31:Generated_Source\PSoC5/TFT_BackLight_PM.c **** *  None
  32:Generated_Source\PSoC5/TFT_BackLight_PM.c **** *
  33:Generated_Source\PSoC5/TFT_BackLight_PM.c **** * Return:
  34:Generated_Source\PSoC5/TFT_BackLight_PM.c **** *  None
  35:Generated_Source\PSoC5/TFT_BackLight_PM.c **** *
  36:Generated_Source\PSoC5/TFT_BackLight_PM.c **** * Global variables:
  37:Generated_Source\PSoC5/TFT_BackLight_PM.c **** *  TFT_BackLight_backup:  Variables of this global structure are modified to
  38:Generated_Source\PSoC5/TFT_BackLight_PM.c **** *  store the values of non retention configuration registers when Sleep() API is
  39:Generated_Source\PSoC5/TFT_BackLight_PM.c **** *  called.
  40:Generated_Source\PSoC5/TFT_BackLight_PM.c **** *
  41:Generated_Source\PSoC5/TFT_BackLight_PM.c **** *******************************************************************************/
  42:Generated_Source\PSoC5/TFT_BackLight_PM.c **** void TFT_BackLight_SaveConfig(void) 
  43:Generated_Source\PSoC5/TFT_BackLight_PM.c **** {
  28              		.loc 1 43 0
  29              		.cfi_startproc
  30              		@ args = 0, pretend = 0, frame = 0
  31              		@ frame_needed = 0, uses_anonymous_args = 0
  32              		@ link register save eliminated.
  33 0000 7047     		bx	lr
  34              		.cfi_endproc
  35              	.LFE0:
  36              		.size	TFT_BackLight_SaveConfig, .-TFT_BackLight_SaveConfig
  37 0002 00BF     		.section	.text.TFT_BackLight_RestoreConfig,"ax",%progbits
  38              		.align	2
  39              		.global	TFT_BackLight_RestoreConfig
  40              		.thumb
  41              		.thumb_func
  42              		.type	TFT_BackLight_RestoreConfig, %function
  43              	TFT_BackLight_RestoreConfig:
  44              	.LFB1:
  44:Generated_Source\PSoC5/TFT_BackLight_PM.c **** 
  45:Generated_Source\PSoC5/TFT_BackLight_PM.c ****     #if(!TFT_BackLight_UsingFixedFunction)
  46:Generated_Source\PSoC5/TFT_BackLight_PM.c ****         #if(!TFT_BackLight_PWMModeIsCenterAligned)
  47:Generated_Source\PSoC5/TFT_BackLight_PM.c ****             TFT_BackLight_backup.PWMPeriod = TFT_BackLight_ReadPeriod();
  48:Generated_Source\PSoC5/TFT_BackLight_PM.c ****         #endif /* (!TFT_BackLight_PWMModeIsCenterAligned) */
  49:Generated_Source\PSoC5/TFT_BackLight_PM.c ****         TFT_BackLight_backup.PWMUdb = TFT_BackLight_ReadCounter();
  50:Generated_Source\PSoC5/TFT_BackLight_PM.c ****         #if (TFT_BackLight_UseStatus)
  51:Generated_Source\PSoC5/TFT_BackLight_PM.c ****             TFT_BackLight_backup.InterruptMaskValue = TFT_BackLight_STATUS_MASK;
  52:Generated_Source\PSoC5/TFT_BackLight_PM.c ****         #endif /* (TFT_BackLight_UseStatus) */
  53:Generated_Source\PSoC5/TFT_BackLight_PM.c **** 
  54:Generated_Source\PSoC5/TFT_BackLight_PM.c ****         #if(TFT_BackLight_DeadBandMode == TFT_BackLight__B_PWM__DBM_256_CLOCKS || \
  55:Generated_Source\PSoC5/TFT_BackLight_PM.c ****             TFT_BackLight_DeadBandMode == TFT_BackLight__B_PWM__DBM_2_4_CLOCKS)
  56:Generated_Source\PSoC5/TFT_BackLight_PM.c ****             TFT_BackLight_backup.PWMdeadBandValue = TFT_BackLight_ReadDeadTime();
  57:Generated_Source\PSoC5/TFT_BackLight_PM.c ****         #endif /*  deadband count is either 2-4 clocks or 256 clocks */
  58:Generated_Source\PSoC5/TFT_BackLight_PM.c **** 
  59:Generated_Source\PSoC5/TFT_BackLight_PM.c ****         #if(TFT_BackLight_KillModeMinTime)
  60:Generated_Source\PSoC5/TFT_BackLight_PM.c ****              TFT_BackLight_backup.PWMKillCounterPeriod = TFT_BackLight_ReadKillTime();
  61:Generated_Source\PSoC5/TFT_BackLight_PM.c ****         #endif /* (TFT_BackLight_KillModeMinTime) */
  62:Generated_Source\PSoC5/TFT_BackLight_PM.c **** 
  63:Generated_Source\PSoC5/TFT_BackLight_PM.c ****         #if(TFT_BackLight_UseControl)
  64:Generated_Source\PSoC5/TFT_BackLight_PM.c ****             TFT_BackLight_backup.PWMControlRegister = TFT_BackLight_ReadControlRegister();
  65:Generated_Source\PSoC5/TFT_BackLight_PM.c ****         #endif /* (TFT_BackLight_UseControl) */
  66:Generated_Source\PSoC5/TFT_BackLight_PM.c ****     #endif  /* (!TFT_BackLight_UsingFixedFunction) */
  67:Generated_Source\PSoC5/TFT_BackLight_PM.c **** }
  68:Generated_Source\PSoC5/TFT_BackLight_PM.c **** 
  69:Generated_Source\PSoC5/TFT_BackLight_PM.c **** 
  70:Generated_Source\PSoC5/TFT_BackLight_PM.c **** /*******************************************************************************
ARM GAS  C:\Users\MATEOC~1.QUE\AppData\Local\Temp\cc1zHSu4.s 			page 3


  71:Generated_Source\PSoC5/TFT_BackLight_PM.c **** * Function Name: TFT_BackLight_RestoreConfig
  72:Generated_Source\PSoC5/TFT_BackLight_PM.c **** ********************************************************************************
  73:Generated_Source\PSoC5/TFT_BackLight_PM.c **** *
  74:Generated_Source\PSoC5/TFT_BackLight_PM.c **** * Summary:
  75:Generated_Source\PSoC5/TFT_BackLight_PM.c **** *  Restores the current user configuration of the component.
  76:Generated_Source\PSoC5/TFT_BackLight_PM.c **** *
  77:Generated_Source\PSoC5/TFT_BackLight_PM.c **** * Parameters:
  78:Generated_Source\PSoC5/TFT_BackLight_PM.c **** *  None
  79:Generated_Source\PSoC5/TFT_BackLight_PM.c **** *
  80:Generated_Source\PSoC5/TFT_BackLight_PM.c **** * Return:
  81:Generated_Source\PSoC5/TFT_BackLight_PM.c **** *  None
  82:Generated_Source\PSoC5/TFT_BackLight_PM.c **** *
  83:Generated_Source\PSoC5/TFT_BackLight_PM.c **** * Global variables:
  84:Generated_Source\PSoC5/TFT_BackLight_PM.c **** *  TFT_BackLight_backup:  Variables of this global structure are used to
  85:Generated_Source\PSoC5/TFT_BackLight_PM.c **** *  restore the values of non retention registers on wakeup from sleep mode.
  86:Generated_Source\PSoC5/TFT_BackLight_PM.c **** *
  87:Generated_Source\PSoC5/TFT_BackLight_PM.c **** *******************************************************************************/
  88:Generated_Source\PSoC5/TFT_BackLight_PM.c **** void TFT_BackLight_RestoreConfig(void) 
  89:Generated_Source\PSoC5/TFT_BackLight_PM.c **** {
  45              		.loc 1 89 0
  46              		.cfi_startproc
  47              		@ args = 0, pretend = 0, frame = 0
  48              		@ frame_needed = 0, uses_anonymous_args = 0
  49              		@ link register save eliminated.
  50 0000 7047     		bx	lr
  51              		.cfi_endproc
  52              	.LFE1:
  53              		.size	TFT_BackLight_RestoreConfig, .-TFT_BackLight_RestoreConfig
  54 0002 00BF     		.section	.text.TFT_BackLight_Sleep,"ax",%progbits
  55              		.align	2
  56              		.global	TFT_BackLight_Sleep
  57              		.thumb
  58              		.thumb_func
  59              		.type	TFT_BackLight_Sleep, %function
  60              	TFT_BackLight_Sleep:
  61              	.LFB2:
  90:Generated_Source\PSoC5/TFT_BackLight_PM.c ****         #if(!TFT_BackLight_UsingFixedFunction)
  91:Generated_Source\PSoC5/TFT_BackLight_PM.c ****             #if(!TFT_BackLight_PWMModeIsCenterAligned)
  92:Generated_Source\PSoC5/TFT_BackLight_PM.c ****                 TFT_BackLight_WritePeriod(TFT_BackLight_backup.PWMPeriod);
  93:Generated_Source\PSoC5/TFT_BackLight_PM.c ****             #endif /* (!TFT_BackLight_PWMModeIsCenterAligned) */
  94:Generated_Source\PSoC5/TFT_BackLight_PM.c **** 
  95:Generated_Source\PSoC5/TFT_BackLight_PM.c ****             TFT_BackLight_WriteCounter(TFT_BackLight_backup.PWMUdb);
  96:Generated_Source\PSoC5/TFT_BackLight_PM.c **** 
  97:Generated_Source\PSoC5/TFT_BackLight_PM.c ****             #if (TFT_BackLight_UseStatus)
  98:Generated_Source\PSoC5/TFT_BackLight_PM.c ****                 TFT_BackLight_STATUS_MASK = TFT_BackLight_backup.InterruptMaskValue;
  99:Generated_Source\PSoC5/TFT_BackLight_PM.c ****             #endif /* (TFT_BackLight_UseStatus) */
 100:Generated_Source\PSoC5/TFT_BackLight_PM.c **** 
 101:Generated_Source\PSoC5/TFT_BackLight_PM.c ****             #if(TFT_BackLight_DeadBandMode == TFT_BackLight__B_PWM__DBM_256_CLOCKS || \
 102:Generated_Source\PSoC5/TFT_BackLight_PM.c ****                 TFT_BackLight_DeadBandMode == TFT_BackLight__B_PWM__DBM_2_4_CLOCKS)
 103:Generated_Source\PSoC5/TFT_BackLight_PM.c ****                 TFT_BackLight_WriteDeadTime(TFT_BackLight_backup.PWMdeadBandValue);
 104:Generated_Source\PSoC5/TFT_BackLight_PM.c ****             #endif /* deadband count is either 2-4 clocks or 256 clocks */
 105:Generated_Source\PSoC5/TFT_BackLight_PM.c **** 
 106:Generated_Source\PSoC5/TFT_BackLight_PM.c ****             #if(TFT_BackLight_KillModeMinTime)
 107:Generated_Source\PSoC5/TFT_BackLight_PM.c ****                 TFT_BackLight_WriteKillTime(TFT_BackLight_backup.PWMKillCounterPeriod);
 108:Generated_Source\PSoC5/TFT_BackLight_PM.c ****             #endif /* (TFT_BackLight_KillModeMinTime) */
 109:Generated_Source\PSoC5/TFT_BackLight_PM.c **** 
 110:Generated_Source\PSoC5/TFT_BackLight_PM.c ****             #if(TFT_BackLight_UseControl)
ARM GAS  C:\Users\MATEOC~1.QUE\AppData\Local\Temp\cc1zHSu4.s 			page 4


 111:Generated_Source\PSoC5/TFT_BackLight_PM.c ****                 TFT_BackLight_WriteControlRegister(TFT_BackLight_backup.PWMControlRegister);
 112:Generated_Source\PSoC5/TFT_BackLight_PM.c ****             #endif /* (TFT_BackLight_UseControl) */
 113:Generated_Source\PSoC5/TFT_BackLight_PM.c ****         #endif  /* (!TFT_BackLight_UsingFixedFunction) */
 114:Generated_Source\PSoC5/TFT_BackLight_PM.c ****     }
 115:Generated_Source\PSoC5/TFT_BackLight_PM.c **** 
 116:Generated_Source\PSoC5/TFT_BackLight_PM.c **** 
 117:Generated_Source\PSoC5/TFT_BackLight_PM.c **** /*******************************************************************************
 118:Generated_Source\PSoC5/TFT_BackLight_PM.c **** * Function Name: TFT_BackLight_Sleep
 119:Generated_Source\PSoC5/TFT_BackLight_PM.c **** ********************************************************************************
 120:Generated_Source\PSoC5/TFT_BackLight_PM.c **** *
 121:Generated_Source\PSoC5/TFT_BackLight_PM.c **** * Summary:
 122:Generated_Source\PSoC5/TFT_BackLight_PM.c **** *  Disables block's operation and saves the user configuration. Should be called
 123:Generated_Source\PSoC5/TFT_BackLight_PM.c **** *  just prior to entering sleep.
 124:Generated_Source\PSoC5/TFT_BackLight_PM.c **** *
 125:Generated_Source\PSoC5/TFT_BackLight_PM.c **** * Parameters:
 126:Generated_Source\PSoC5/TFT_BackLight_PM.c **** *  None
 127:Generated_Source\PSoC5/TFT_BackLight_PM.c **** *
 128:Generated_Source\PSoC5/TFT_BackLight_PM.c **** * Return:
 129:Generated_Source\PSoC5/TFT_BackLight_PM.c **** *  None
 130:Generated_Source\PSoC5/TFT_BackLight_PM.c **** *
 131:Generated_Source\PSoC5/TFT_BackLight_PM.c **** * Global variables:
 132:Generated_Source\PSoC5/TFT_BackLight_PM.c **** *  TFT_BackLight_backup.PWMEnableState:  Is modified depending on the enable
 133:Generated_Source\PSoC5/TFT_BackLight_PM.c **** *  state of the block before entering sleep mode.
 134:Generated_Source\PSoC5/TFT_BackLight_PM.c **** *
 135:Generated_Source\PSoC5/TFT_BackLight_PM.c **** *******************************************************************************/
 136:Generated_Source\PSoC5/TFT_BackLight_PM.c **** void TFT_BackLight_Sleep(void) 
 137:Generated_Source\PSoC5/TFT_BackLight_PM.c **** {
  62              		.loc 1 137 0
  63              		.cfi_startproc
  64              		@ args = 0, pretend = 0, frame = 0
  65              		@ frame_needed = 0, uses_anonymous_args = 0
  66              		.loc 1 137 0
  67 0000 08B5     		push	{r3, lr}
  68              		.cfi_def_cfa_offset 8
  69              		.cfi_offset 3, -8
  70              		.cfi_offset 14, -4
 138:Generated_Source\PSoC5/TFT_BackLight_PM.c ****     #if(TFT_BackLight_UseControl)
 139:Generated_Source\PSoC5/TFT_BackLight_PM.c ****         if(TFT_BackLight_CTRL_ENABLE == (TFT_BackLight_CONTROL & TFT_BackLight_CTRL_ENABLE))
  71              		.loc 1 139 0
  72 0002 074B     		ldr	r3, .L7
  73 0004 1B78     		ldrb	r3, [r3]	@ zero_extendqisi2
  74 0006 13F0010F 		tst	r3, #1
  75 000a 03D0     		beq	.L4
 140:Generated_Source\PSoC5/TFT_BackLight_PM.c ****         {
 141:Generated_Source\PSoC5/TFT_BackLight_PM.c ****             /*Component is enabled */
 142:Generated_Source\PSoC5/TFT_BackLight_PM.c ****             TFT_BackLight_backup.PWMEnableState = 1u;
  76              		.loc 1 142 0
  77 000c 0122     		movs	r2, #1
  78 000e 054B     		ldr	r3, .L7+4
  79 0010 1A70     		strb	r2, [r3]
  80 0012 02E0     		b	.L5
  81              	.L4:
 143:Generated_Source\PSoC5/TFT_BackLight_PM.c ****         }
 144:Generated_Source\PSoC5/TFT_BackLight_PM.c ****         else
 145:Generated_Source\PSoC5/TFT_BackLight_PM.c ****         {
 146:Generated_Source\PSoC5/TFT_BackLight_PM.c ****             /* Component is disabled */
 147:Generated_Source\PSoC5/TFT_BackLight_PM.c ****             TFT_BackLight_backup.PWMEnableState = 0u;
ARM GAS  C:\Users\MATEOC~1.QUE\AppData\Local\Temp\cc1zHSu4.s 			page 5


  82              		.loc 1 147 0
  83 0014 0022     		movs	r2, #0
  84 0016 034B     		ldr	r3, .L7+4
  85 0018 1A70     		strb	r2, [r3]
  86              	.L5:
 148:Generated_Source\PSoC5/TFT_BackLight_PM.c ****         }
 149:Generated_Source\PSoC5/TFT_BackLight_PM.c ****     #endif /* (TFT_BackLight_UseControl) */
 150:Generated_Source\PSoC5/TFT_BackLight_PM.c **** 
 151:Generated_Source\PSoC5/TFT_BackLight_PM.c ****     /* Stop component */
 152:Generated_Source\PSoC5/TFT_BackLight_PM.c ****     TFT_BackLight_Stop();
  87              		.loc 1 152 0
  88 001a FFF7FEFF 		bl	TFT_BackLight_Stop
  89              	.LVL0:
  90 001e 08BD     		pop	{r3, pc}
  91              	.L8:
  92              		.align	2
  93              	.L7:
  94 0020 004F0040 		.word	1073762048
  95 0024 00000000 		.word	.LANCHOR0
  96              		.cfi_endproc
  97              	.LFE2:
  98              		.size	TFT_BackLight_Sleep, .-TFT_BackLight_Sleep
  99              		.section	.text.TFT_BackLight_Wakeup,"ax",%progbits
 100              		.align	2
 101              		.global	TFT_BackLight_Wakeup
 102              		.thumb
 103              		.thumb_func
 104              		.type	TFT_BackLight_Wakeup, %function
 105              	TFT_BackLight_Wakeup:
 106              	.LFB3:
 153:Generated_Source\PSoC5/TFT_BackLight_PM.c **** 
 154:Generated_Source\PSoC5/TFT_BackLight_PM.c ****     /* Save registers configuration */
 155:Generated_Source\PSoC5/TFT_BackLight_PM.c ****     TFT_BackLight_SaveConfig();
 156:Generated_Source\PSoC5/TFT_BackLight_PM.c **** }
 157:Generated_Source\PSoC5/TFT_BackLight_PM.c **** 
 158:Generated_Source\PSoC5/TFT_BackLight_PM.c **** 
 159:Generated_Source\PSoC5/TFT_BackLight_PM.c **** /*******************************************************************************
 160:Generated_Source\PSoC5/TFT_BackLight_PM.c **** * Function Name: TFT_BackLight_Wakeup
 161:Generated_Source\PSoC5/TFT_BackLight_PM.c **** ********************************************************************************
 162:Generated_Source\PSoC5/TFT_BackLight_PM.c **** *
 163:Generated_Source\PSoC5/TFT_BackLight_PM.c **** * Summary:
 164:Generated_Source\PSoC5/TFT_BackLight_PM.c **** *  Restores and enables the user configuration. Should be called just after
 165:Generated_Source\PSoC5/TFT_BackLight_PM.c **** *  awaking from sleep.
 166:Generated_Source\PSoC5/TFT_BackLight_PM.c **** *
 167:Generated_Source\PSoC5/TFT_BackLight_PM.c **** * Parameters:
 168:Generated_Source\PSoC5/TFT_BackLight_PM.c **** *  None
 169:Generated_Source\PSoC5/TFT_BackLight_PM.c **** *
 170:Generated_Source\PSoC5/TFT_BackLight_PM.c **** * Return:
 171:Generated_Source\PSoC5/TFT_BackLight_PM.c **** *  None
 172:Generated_Source\PSoC5/TFT_BackLight_PM.c **** *
 173:Generated_Source\PSoC5/TFT_BackLight_PM.c **** * Global variables:
 174:Generated_Source\PSoC5/TFT_BackLight_PM.c **** *  TFT_BackLight_backup.pwmEnable:  Is used to restore the enable state of
 175:Generated_Source\PSoC5/TFT_BackLight_PM.c **** *  block on wakeup from sleep mode.
 176:Generated_Source\PSoC5/TFT_BackLight_PM.c **** *
 177:Generated_Source\PSoC5/TFT_BackLight_PM.c **** *******************************************************************************/
 178:Generated_Source\PSoC5/TFT_BackLight_PM.c **** void TFT_BackLight_Wakeup(void) 
 179:Generated_Source\PSoC5/TFT_BackLight_PM.c **** {
ARM GAS  C:\Users\MATEOC~1.QUE\AppData\Local\Temp\cc1zHSu4.s 			page 6


 107              		.loc 1 179 0
 108              		.cfi_startproc
 109              		@ args = 0, pretend = 0, frame = 0
 110              		@ frame_needed = 0, uses_anonymous_args = 0
 111 0000 08B5     		push	{r3, lr}
 112              		.cfi_def_cfa_offset 8
 113              		.cfi_offset 3, -8
 114              		.cfi_offset 14, -4
 180:Generated_Source\PSoC5/TFT_BackLight_PM.c ****      /* Restore registers values */
 181:Generated_Source\PSoC5/TFT_BackLight_PM.c ****     TFT_BackLight_RestoreConfig();
 182:Generated_Source\PSoC5/TFT_BackLight_PM.c **** 
 183:Generated_Source\PSoC5/TFT_BackLight_PM.c ****     if(TFT_BackLight_backup.PWMEnableState != 0u)
 115              		.loc 1 183 0
 116 0002 034B     		ldr	r3, .L12
 117 0004 1B78     		ldrb	r3, [r3]	@ zero_extendqisi2
 118 0006 0BB1     		cbz	r3, .L9
 184:Generated_Source\PSoC5/TFT_BackLight_PM.c ****     {
 185:Generated_Source\PSoC5/TFT_BackLight_PM.c ****         /* Enable component's operation */
 186:Generated_Source\PSoC5/TFT_BackLight_PM.c ****         TFT_BackLight_Enable();
 119              		.loc 1 186 0
 120 0008 FFF7FEFF 		bl	TFT_BackLight_Enable
 121              	.LVL1:
 122              	.L9:
 123 000c 08BD     		pop	{r3, pc}
 124              	.L13:
 125 000e 00BF     		.align	2
 126              	.L12:
 127 0010 00000000 		.word	.LANCHOR0
 128              		.cfi_endproc
 129              	.LFE3:
 130              		.size	TFT_BackLight_Wakeup, .-TFT_BackLight_Wakeup
 131              		.bss
 132              		.align	2
 133              		.set	.LANCHOR0,. + 0
 134              		.type	TFT_BackLight_backup, %object
 135              		.size	TFT_BackLight_backup, 1
 136              	TFT_BackLight_backup:
 137 0000 00       		.space	1
 138              		.text
 139              	.Letext0:
 140              		.file 2 "Generated_Source\\PSoC5\\cytypes.h"
 141              		.file 3 "Generated_Source\\PSoC5\\TFT_BackLight.h"